
test.o:     formato de ficheiro elf32-littleriscv


Desmontagem da secção .text:

00000000 <main>:
   0:	da010113          	addi	sp,sp,-608
   4:	24112e23          	sw	ra,604(sp)
   8:	24812c23          	sw	s0,600(sp)
   c:	24912a23          	sw	s1,596(sp)
  10:	25212823          	sw	s2,592(sp)
  14:	25312623          	sw	s3,588(sp)
  18:	25412423          	sw	s4,584(sp)
  1c:	25512223          	sw	s5,580(sp)
  20:	25612023          	sw	s6,576(sp)
  24:	23712e23          	sw	s7,572(sp)
  28:	23812c23          	sw	s8,568(sp)
  2c:	23912a23          	sw	s9,564(sp)
  30:	23a12823          	sw	s10,560(sp)
  34:	23b12623          	sw	s11,556(sp)
  38:	cc817057          	vsetivli	zero,2,e16,m1,ta,ma
  3c:	5208a0d7          	vid.v	v1
  40:	18a00793          	li	a5,394
  44:	9617e157          	vmul.vx	v2,v1,a5
  48:	03f00713          	li	a4,63
  4c:	02274157          	vadd.vx	v2,v2,a4
  50:	1f410793          	addi	a5,sp,500
  54:	0207d127          	vse16.v	v2,(a5)
  58:	beb00793          	li	a5,-1045
  5c:	9617e557          	vmul.vx	v10,v1,a5
  60:	1df00793          	li	a5,479
  64:	02a7c557          	vadd.vx	v10,v10,a5
  68:	1f810793          	addi	a5,sp,504
  6c:	0207d527          	vse16.v	v10,(a5)
  70:	1ba00793          	li	a5,442
  74:	9617e157          	vmul.vx	v2,v1,a5
  78:	03a00513          	li	a0,58
  7c:	02254157          	vadd.vx	v2,v2,a0
  80:	1fc10793          	addi	a5,sp,508
  84:	0207d127          	vse16.v	v2,(a5)
  88:	f4200793          	li	a5,-190
  8c:	9617e157          	vmul.vx	v2,v1,a5
  90:	0fd00793          	li	a5,253
  94:	0227c157          	vadd.vx	v2,v2,a5
  98:	20010793          	addi	a5,sp,512
  9c:	0207d127          	vse16.v	v2,(a5)
  a0:	f3400793          	li	a5,-204
  a4:	9617e3d7          	vmul.vx	v7,v1,a5
  a8:	18f00793          	li	a5,399
  ac:	0277c3d7          	vadd.vx	v7,v7,a5
  b0:	20410793          	addi	a5,sp,516
  b4:	0207d3a7          	vse16.v	v7,(a5)
  b8:	02f00793          	li	a5,47
  bc:	9617e357          	vmul.vx	v6,v1,a5
  c0:	f1a00793          	li	a5,-230
  c4:	0267c357          	vadd.vx	v6,v6,a5
  c8:	20810793          	addi	a5,sp,520
  cc:	0207d327          	vse16.v	v6,(a5)
  d0:	fffff7b7          	lui	a5,0xfffff
  d4:	67b78693          	addi	a3,a5,1659 # fffff67b <.LC3+0xfffff5db>
  d8:	9616e2d7          	vmul.vx	v5,v1,a3
  dc:	0258b2d7          	vadd.vi	v5,v5,-15
  e0:	20c10693          	addi	a3,sp,524
  e4:	0206d2a7          	vse16.v	v5,(a3)
  e8:	62678793          	addi	a5,a5,1574
  ec:	9617e257          	vmul.vx	v4,v1,a5
  f0:	0244b257          	vadd.vi	v4,v4,9
  f4:	21010793          	addi	a5,sp,528
  f8:	0207d227          	vse16.v	v4,(a5)
  fc:	1d700613          	li	a2,471
 100:	961661d7          	vmul.vx	v3,v1,a2
 104:	01d00693          	li	a3,29
 108:	0236c1d7          	vadd.vx	v3,v3,a3
 10c:	21410793          	addi	a5,sp,532
 110:	0207d1a7          	vse16.v	v3,(a5)
 114:	fd900793          	li	a5,-39
 118:	9617e157          	vmul.vx	v2,v1,a5
 11c:	03800593          	li	a1,56
 120:	0225c157          	vadd.vx	v2,v2,a1
 124:	21810793          	addi	a5,sp,536
 128:	0207d127          	vse16.v	v2,(a5)
 12c:	96113457          	vsll.vi	v8,v1,2
 130:	02500793          	li	a5,37
 134:	0287c5d7          	vadd.vx	v11,v8,a5
 138:	21c10793          	addi	a5,sp,540
 13c:	0207d5a7          	vse16.v	v11,(a5)
 140:	16700793          	li	a5,359
 144:	9617e4d7          	vmul.vx	v9,v1,a5
 148:	029744d7          	vadd.vx	v9,v9,a4
 14c:	1c810793          	addi	a5,sp,456
 150:	0207d4a7          	vse16.v	v9,(a5)
 154:	bea00793          	li	a5,-1046
 158:	9617e4d7          	vmul.vx	v9,v1,a5
 15c:	1e000813          	li	a6,480
 160:	029844d7          	vadd.vx	v9,v9,a6
 164:	1cc10793          	addi	a5,sp,460
 168:	0207d4a7          	vse16.v	v9,(a5)
 16c:	18000793          	li	a5,384
 170:	9617e4d7          	vmul.vx	v9,v1,a5
 174:	03900793          	li	a5,57
 178:	0297c4d7          	vadd.vx	v9,v9,a5
 17c:	1d010793          	addi	a5,sp,464
 180:	0207d4a7          	vse16.v	v9,(a5)
 184:	f4700793          	li	a5,-185
 188:	9617e4d7          	vmul.vx	v9,v1,a5
 18c:	0f800793          	li	a5,248
 190:	0297c4d7          	vadd.vx	v9,v9,a5
 194:	1d410793          	addi	a5,sp,468
 198:	0207d4a7          	vse16.v	v9,(a5)
 19c:	1d810793          	addi	a5,sp,472
 1a0:	0207d3a7          	vse16.v	v7,(a5)
 1a4:	1dc10793          	addi	a5,sp,476
 1a8:	0207d327          	vse16.v	v6,(a5)
 1ac:	1e010793          	addi	a5,sp,480
 1b0:	0207d2a7          	vse16.v	v5,(a5)
 1b4:	1e410793          	addi	a5,sp,484
 1b8:	0207d227          	vse16.v	v4,(a5)
 1bc:	1e810793          	addi	a5,sp,488
 1c0:	0207d1a7          	vse16.v	v3,(a5)
 1c4:	1ec10793          	addi	a5,sp,492
 1c8:	0207d127          	vse16.v	v2,(a5)
 1cc:	1f010793          	addi	a5,sp,496
 1d0:	0207d5a7          	vse16.v	v11,(a5)
 1d4:	17000793          	li	a5,368
 1d8:	9617e657          	vmul.vx	v12,v1,a5
 1dc:	02c74657          	vadd.vx	v12,v12,a4
 1e0:	19c10793          	addi	a5,sp,412
 1e4:	0207d627          	vse16.v	v12,(a5)
 1e8:	1a010793          	addi	a5,sp,416
 1ec:	0207d527          	vse16.v	v10,(a5)
 1f0:	17a00793          	li	a5,378
 1f4:	9617e557          	vmul.vx	v10,v1,a5
 1f8:	02a54557          	vadd.vx	v10,v10,a0
 1fc:	1a410793          	addi	a5,sp,420
 200:	0207d527          	vse16.v	v10,(a5)
 204:	1a810793          	addi	a5,sp,424
 208:	0207d4a7          	vse16.v	v9,(a5)
 20c:	1ac10793          	addi	a5,sp,428
 210:	0207d3a7          	vse16.v	v7,(a5)
 214:	1b010793          	addi	a5,sp,432
 218:	0207d327          	vse16.v	v6,(a5)
 21c:	1b410793          	addi	a5,sp,436
 220:	0207d2a7          	vse16.v	v5,(a5)
 224:	1b810793          	addi	a5,sp,440
 228:	0207d227          	vse16.v	v4,(a5)
 22c:	1bc10793          	addi	a5,sp,444
 230:	0207d1a7          	vse16.v	v3,(a5)
 234:	1c010793          	addi	a5,sp,448
 238:	0207d127          	vse16.v	v2,(a5)
 23c:	1c410793          	addi	a5,sp,452
 240:	0207d5a7          	vse16.v	v11,(a5)
 244:	fdb00793          	li	a5,-37
 248:	9617e157          	vmul.vx	v2,v1,a5
 24c:	02a00793          	li	a5,42
 250:	0227c157          	vadd.vx	v2,v2,a5
 254:	17010513          	addi	a0,sp,368
 258:	02055127          	vse16.v	v2,(a0)
 25c:	f7000513          	li	a0,-144
 260:	96156157          	vmul.vx	v2,v1,a0
 264:	fe700513          	li	a0,-25
 268:	02254157          	vadd.vx	v2,v2,a0
 26c:	17410513          	addi	a0,sp,372
 270:	02055127          	vse16.v	v2,(a0)
 274:	01400513          	li	a0,20
 278:	96156157          	vmul.vx	v2,v1,a0
 27c:	02233157          	vadd.vi	v2,v2,6
 280:	17810513          	addi	a0,sp,376
 284:	02055127          	vse16.v	v2,(a0)
 288:	96133157          	vsll.vi	v2,v1,6
 28c:	02293157          	vadd.vi	v2,v2,-14
 290:	17c10513          	addi	a0,sp,380
 294:	02055127          	vse16.v	v2,(a0)
 298:	feb00513          	li	a0,-21
 29c:	96156157          	vmul.vx	v2,v1,a0
 2a0:	07300513          	li	a0,115
 2a4:	02254157          	vadd.vx	v2,v2,a0
 2a8:	18010513          	addi	a0,sp,384
 2ac:	02055127          	vse16.v	v2,(a0)
 2b0:	fec00513          	li	a0,-20
 2b4:	961563d7          	vmul.vx	v7,v1,a0
 2b8:	f5500513          	li	a0,-171
 2bc:	02754157          	vadd.vx	v2,v7,a0
 2c0:	18410513          	addi	a0,sp,388
 2c4:	02055127          	vse16.v	v2,(a0)
 2c8:	fa800513          	li	a0,-88
 2cc:	96156157          	vmul.vx	v2,v1,a0
 2d0:	022c3157          	vadd.vi	v2,v2,-8
 2d4:	18810513          	addi	a0,sp,392
 2d8:	02055127          	vse16.v	v2,(a0)
 2dc:	f8100513          	li	a0,-127
 2e0:	96156157          	vmul.vx	v2,v1,a0
 2e4:	0225c157          	vadd.vx	v2,v2,a1
 2e8:	18c10593          	addi	a1,sp,396
 2ec:	0205d127          	vse16.v	v2,(a1)
 2f0:	06c00593          	li	a1,108
 2f4:	9615e157          	vmul.vx	v2,v1,a1
 2f8:	19010593          	addi	a1,sp,400
 2fc:	0205d127          	vse16.v	v2,(a1)
 300:	9617e157          	vmul.vx	v2,v1,a5
 304:	022fb157          	vadd.vi	v2,v2,-1
 308:	19410793          	addi	a5,sp,404
 30c:	0207d127          	vse16.v	v2,(a5)
 310:	02163157          	vadd.vi	v2,v1,12
 314:	19810793          	addi	a5,sp,408
 318:	0207d127          	vse16.v	v2,(a5)
 31c:	fea00513          	li	a0,-22
 320:	96156157          	vmul.vx	v2,v1,a0
 324:	03e00793          	li	a5,62
 328:	0227c157          	vadd.vx	v2,v2,a5
 32c:	14410593          	addi	a1,sp,324
 330:	0205d127          	vse16.v	v2,(a1)
 334:	e1100593          	li	a1,-495
 338:	9615e157          	vmul.vx	v2,v1,a1
 33c:	0226c157          	vadd.vx	v2,v2,a3
 340:	14810693          	addi	a3,sp,328
 344:	0206d127          	vse16.v	v2,(a3)
 348:	06a00693          	li	a3,106
 34c:	9616e157          	vmul.vx	v2,v1,a3
 350:	01600693          	li	a3,22
 354:	0226c157          	vadd.vx	v2,v2,a3
 358:	14c10693          	addi	a3,sp,332
 35c:	0206d127          	vse16.v	v2,(a3)
 360:	02400693          	li	a3,36
 364:	9616e157          	vmul.vx	v2,v1,a3
 368:	01700893          	li	a7,23
 36c:	0228c157          	vadd.vx	v2,v2,a7
 370:	15010593          	addi	a1,sp,336
 374:	0205d127          	vse16.v	v2,(a1)
 378:	fd000593          	li	a1,-48
 37c:	9615e157          	vmul.vx	v2,v1,a1
 380:	18c00593          	li	a1,396
 384:	0225c157          	vadd.vx	v2,v2,a1
 388:	15410593          	addi	a1,sp,340
 38c:	0205d127          	vse16.v	v2,(a1)
 390:	fee00593          	li	a1,-18
 394:	9615e157          	vmul.vx	v2,v1,a1
 398:	de100593          	li	a1,-543
 39c:	0225c157          	vadd.vx	v2,v2,a1
 3a0:	15810593          	addi	a1,sp,344
 3a4:	0205d127          	vse16.v	v2,(a1)
 3a8:	e7700593          	li	a1,-393
 3ac:	9615e157          	vmul.vx	v2,v1,a1
 3b0:	02293157          	vadd.vi	v2,v2,-14
 3b4:	15c10593          	addi	a1,sp,348
 3b8:	0205d127          	vse16.v	v2,(a1)
 3bc:	e2500593          	li	a1,-475
 3c0:	9615e157          	vmul.vx	v2,v1,a1
 3c4:	02200593          	li	a1,34
 3c8:	0225c157          	vadd.vx	v2,v2,a1
 3cc:	16010593          	addi	a1,sp,352
 3d0:	0205d127          	vse16.v	v2,(a1)
 3d4:	16d00593          	li	a1,365
 3d8:	9615e157          	vmul.vx	v2,v1,a1
 3dc:	01300593          	li	a1,19
 3e0:	0225c157          	vadd.vx	v2,v2,a1
 3e4:	16410313          	addi	t1,sp,356
 3e8:	02035127          	vse16.v	v2,(t1)
 3ec:	2d500313          	li	t1,725
 3f0:	96136157          	vmul.vx	v2,v1,t1
 3f4:	0227b157          	vadd.vi	v2,v2,15
 3f8:	16810313          	addi	t1,sp,360
 3fc:	02035127          	vse16.v	v2,(t1)
 400:	00b00313          	li	t1,11
 404:	96136157          	vmul.vx	v2,v1,t1
 408:	02100313          	li	t1,33
 40c:	02234157          	vadd.vx	v2,v2,t1
 410:	16c10313          	addi	t1,sp,364
 414:	02035127          	vse16.v	v2,(t1)
 418:	23e00313          	li	t1,574
 41c:	96136157          	vmul.vx	v2,v1,t1
 420:	02274157          	vadd.vx	v2,v2,a4
 424:	11810713          	addi	a4,sp,280
 428:	02075127          	vse16.v	v2,(a4)
 42c:	e7200713          	li	a4,-398
 430:	96176157          	vmul.vx	v2,v1,a4
 434:	0c800713          	li	a4,200
 438:	02274157          	vadd.vx	v2,v2,a4
 43c:	11c10713          	addi	a4,sp,284
 440:	02075127          	vse16.v	v2,(a4)
 444:	0a400713          	li	a4,164
 448:	96176157          	vmul.vx	v2,v1,a4
 44c:	0225b157          	vadd.vi	v2,v2,11
 450:	12010713          	addi	a4,sp,288
 454:	02075127          	vse16.v	v2,(a4)
 458:	07800713          	li	a4,120
 45c:	96176157          	vmul.vx	v2,v1,a4
 460:	fc600713          	li	a4,-58
 464:	02274157          	vadd.vx	v2,v2,a4
 468:	12410713          	addi	a4,sp,292
 46c:	02075127          	vse16.v	v2,(a4)
 470:	13700713          	li	a4,311
 474:	02874457          	vadd.vx	v8,v8,a4
 478:	12810713          	addi	a4,sp,296
 47c:	02075427          	vse16.v	v8,(a4)
 480:	ff100713          	li	a4,-15
 484:	96176157          	vmul.vx	v2,v1,a4
 488:	f2000713          	li	a4,-224
 48c:	02274157          	vadd.vx	v2,v2,a4
 490:	12c10713          	addi	a4,sp,300
 494:	02075127          	vse16.v	v2,(a4)
 498:	e8000713          	li	a4,-384
 49c:	96176157          	vmul.vx	v2,v1,a4
 4a0:	02283157          	vadd.vi	v2,v2,-16
 4a4:	13010713          	addi	a4,sp,304
 4a8:	02075127          	vse16.v	v2,(a4)
 4ac:	e3400713          	li	a4,-460
 4b0:	96176157          	vmul.vx	v2,v1,a4
 4b4:	0226c157          	vadd.vx	v2,v2,a3
 4b8:	13410713          	addi	a4,sp,308
 4bc:	02075127          	vse16.v	v2,(a4)
 4c0:	12300713          	li	a4,291
 4c4:	96176157          	vmul.vx	v2,v1,a4
 4c8:	02263157          	vadd.vi	v2,v2,12
 4cc:	13810713          	addi	a4,sp,312
 4d0:	02075127          	vse16.v	v2,(a4)
 4d4:	fff00713          	li	a4,-1
 4d8:	96176257          	vmul.vx	v4,v1,a4
 4dc:	02463157          	vadd.vi	v2,v4,12
 4e0:	13c10713          	addi	a4,sp,316
 4e4:	02075127          	vse16.v	v2,(a4)
 4e8:	ff600713          	li	a4,-10
 4ec:	96176157          	vmul.vx	v2,v1,a4
 4f0:	02700693          	li	a3,39
 4f4:	0226c157          	vadd.vx	v2,v2,a3
 4f8:	14010713          	addi	a4,sp,320
 4fc:	02075127          	vse16.v	v2,(a4)
 500:	fb400713          	li	a4,-76
 504:	96176157          	vmul.vx	v2,v1,a4
 508:	0227c157          	vadd.vx	v2,v2,a5
 50c:	0ec10713          	addi	a4,sp,236
 510:	02075127          	vse16.v	v2,(a4)
 514:	c1000713          	li	a4,-1008
 518:	96176157          	vmul.vx	v2,v1,a4
 51c:	1ef00713          	li	a4,495
 520:	02274157          	vadd.vx	v2,v2,a4
 524:	0f010713          	addi	a4,sp,240
 528:	02075127          	vse16.v	v2,(a4)
 52c:	fe300713          	li	a4,-29
 530:	96176157          	vmul.vx	v2,v1,a4
 534:	0221b157          	vadd.vi	v2,v2,3
 538:	0f410713          	addi	a4,sp,244
 53c:	02075127          	vse16.v	v2,(a4)
 540:	e3700713          	li	a4,-457
 544:	96176157          	vmul.vx	v2,v1,a4
 548:	20700713          	li	a4,519
 54c:	02274157          	vadd.vx	v2,v2,a4
 550:	0f810713          	addi	a4,sp,248
 554:	02075127          	vse16.v	v2,(a4)
 558:	03200713          	li	a4,50
 55c:	96176357          	vmul.vx	v6,v1,a4
 560:	2af00713          	li	a4,687
 564:	02674357          	vadd.vx	v6,v6,a4
 568:	0fc10713          	addi	a4,sp,252
 56c:	02075327          	vse16.v	v6,(a4)
 570:	00500713          	li	a4,5
 574:	961762d7          	vmul.vx	v5,v1,a4
 578:	e0900713          	li	a4,-503
 57c:	025742d7          	vadd.vx	v5,v5,a4
 580:	10010713          	addi	a4,sp,256
 584:	020752a7          	vse16.v	v5,(a4)
 588:	f3600713          	li	a4,-202
 58c:	961761d7          	vmul.vx	v3,v1,a4
 590:	023bb1d7          	vadd.vi	v3,v3,-9
 594:	10410713          	addi	a4,sp,260
 598:	020751a7          	vse16.v	v3,(a4)
 59c:	f3d00713          	li	a4,-195
 5a0:	96176157          	vmul.vx	v2,v1,a4
 5a4:	03c00713          	li	a4,60
 5a8:	02274157          	vadd.vx	v2,v2,a4
 5ac:	10810713          	addi	a4,sp,264
 5b0:	02075127          	vse16.v	v2,(a4)
 5b4:	30d00713          	li	a4,781
 5b8:	961764d7          	vmul.vx	v9,v1,a4
 5bc:	10c10713          	addi	a4,sp,268
 5c0:	020754a7          	vse16.v	v9,(a4)
 5c4:	06500713          	li	a4,101
 5c8:	96176457          	vmul.vx	v8,v1,a4
 5cc:	01800713          	li	a4,24
 5d0:	02874457          	vadd.vx	v8,v8,a4
 5d4:	11010713          	addi	a4,sp,272
 5d8:	02075427          	vse16.v	v8,(a4)
 5dc:	ffc00713          	li	a4,-4
 5e0:	96176557          	vmul.vx	v10,v1,a4
 5e4:	02a33557          	vadd.vi	v10,v10,6
 5e8:	11410713          	addi	a4,sp,276
 5ec:	02075527          	vse16.v	v10,(a4)
 5f0:	fb200713          	li	a4,-78
 5f4:	96176557          	vmul.vx	v10,v1,a4
 5f8:	02a7c557          	vadd.vx	v10,v10,a5
 5fc:	0c010713          	addi	a4,sp,192
 600:	02075527          	vse16.v	v10,(a4)
 604:	ce100713          	li	a4,-799
 608:	96176557          	vmul.vx	v10,v1,a4
 60c:	11e00713          	li	a4,286
 610:	02a74557          	vadd.vx	v10,v10,a4
 614:	0c410713          	addi	a4,sp,196
 618:	02075527          	vse16.v	v10,(a4)
 61c:	0272b3d7          	vadd.vi	v7,v7,5
 620:	0c810713          	addi	a4,sp,200
 624:	020753a7          	vse16.v	v7,(a4)
 628:	ebe00713          	li	a4,-322
 62c:	961763d7          	vmul.vx	v7,v1,a4
 630:	18100713          	li	a4,385
 634:	027743d7          	vadd.vx	v7,v7,a4
 638:	0cc10713          	addi	a4,sp,204
 63c:	020753a7          	vse16.v	v7,(a4)
 640:	0d010713          	addi	a4,sp,208
 644:	02075327          	vse16.v	v6,(a4)
 648:	0d410713          	addi	a4,sp,212
 64c:	020752a7          	vse16.v	v5,(a4)
 650:	0d810713          	addi	a4,sp,216
 654:	020751a7          	vse16.v	v3,(a4)
 658:	0dc10713          	addi	a4,sp,220
 65c:	02075127          	vse16.v	v2,(a4)
 660:	0e010713          	addi	a4,sp,224
 664:	020754a7          	vse16.v	v9,(a4)
 668:	05f00713          	li	a4,95
 66c:	961763d7          	vmul.vx	v7,v1,a4
 670:	01e00713          	li	a4,30
 674:	027743d7          	vadd.vx	v7,v7,a4
 678:	0e410713          	addi	a4,sp,228
 67c:	020753a7          	vse16.v	v7,(a4)
 680:	ffd00713          	li	a4,-3
 684:	961763d7          	vmul.vx	v7,v1,a4
 688:	027333d7          	vadd.vi	v7,v7,6
 68c:	0e810713          	addi	a4,sp,232
 690:	020753a7          	vse16.v	v7,(a4)
 694:	02800713          	li	a4,40
 698:	96176557          	vmul.vx	v10,v1,a4
 69c:	02a7c557          	vadd.vx	v10,v10,a5
 6a0:	09410713          	addi	a4,sp,148
 6a4:	02075527          	vse16.v	v10,(a4)
 6a8:	d6400713          	li	a4,-668
 6ac:	96176557          	vmul.vx	v10,v1,a4
 6b0:	09b00713          	li	a4,155
 6b4:	02a74557          	vadd.vx	v10,v10,a4
 6b8:	09810713          	addi	a4,sp,152
 6bc:	02075527          	vse16.v	v10,(a4)
 6c0:	1c800713          	li	a4,456
 6c4:	96176557          	vmul.vx	v10,v1,a4
 6c8:	02e00713          	li	a4,46
 6cc:	02a74557          	vadd.vx	v10,v10,a4
 6d0:	09c10713          	addi	a4,sp,156
 6d4:	02075527          	vse16.v	v10,(a4)
 6d8:	f8300713          	li	a4,-125
 6dc:	96176557          	vmul.vx	v10,v1,a4
 6e0:	0bb00713          	li	a4,187
 6e4:	02a74557          	vadd.vx	v10,v10,a4
 6e8:	0a010713          	addi	a4,sp,160
 6ec:	02075527          	vse16.v	v10,(a4)
 6f0:	0a410713          	addi	a4,sp,164
 6f4:	02075327          	vse16.v	v6,(a4)
 6f8:	0a810713          	addi	a4,sp,168
 6fc:	020752a7          	vse16.v	v5,(a4)
 700:	0ac10713          	addi	a4,sp,172
 704:	020751a7          	vse16.v	v3,(a4)
 708:	0b010713          	addi	a4,sp,176
 70c:	02075127          	vse16.v	v2,(a4)
 710:	0b410713          	addi	a4,sp,180
 714:	020754a7          	vse16.v	v9,(a4)
 718:	0b810713          	addi	a4,sp,184
 71c:	02075427          	vse16.v	v8,(a4)
 720:	0bc10713          	addi	a4,sp,188
 724:	020753a7          	vse16.v	v7,(a4)
 728:	fdf00713          	li	a4,-33
 72c:	96176157          	vmul.vx	v2,v1,a4
 730:	03d00713          	li	a4,61
 734:	02274157          	vadd.vx	v2,v2,a4
 738:	06810713          	addi	a4,sp,104
 73c:	02075127          	vse16.v	v2,(a4)
 740:	a3800713          	li	a4,-1480
 744:	96176157          	vmul.vx	v2,v1,a4
 748:	34600713          	li	a4,838
 74c:	02274157          	vadd.vx	v2,v2,a4
 750:	06c10713          	addi	a4,sp,108
 754:	02075127          	vse16.v	v2,(a4)
 758:	9618e157          	vmul.vx	v2,v1,a7
 75c:	022eb157          	vadd.vi	v2,v2,-3
 760:	07010713          	addi	a4,sp,112
 764:	02075127          	vse16.v	v2,(a4)
 768:	e5c00713          	li	a4,-420
 76c:	96176157          	vmul.vx	v2,v1,a4
 770:	02284157          	vadd.vx	v2,v2,a6
 774:	07410713          	addi	a4,sp,116
 778:	02075127          	vse16.v	v2,(a4)
 77c:	fe400713          	li	a4,-28
 780:	961761d7          	vmul.vx	v3,v1,a4
 784:	27600713          	li	a4,630
 788:	023741d7          	vadd.vx	v3,v3,a4
 78c:	07810713          	addi	a4,sp,120
 790:	020751a7          	vse16.v	v3,(a4)
 794:	ffb00713          	li	a4,-5
 798:	96176157          	vmul.vx	v2,v1,a4
 79c:	d2500713          	li	a4,-731
 7a0:	02274157          	vadd.vx	v2,v2,a4
 7a4:	07c10713          	addi	a4,sp,124
 7a8:	02075127          	vse16.v	v2,(a4)
 7ac:	f0700713          	li	a4,-249
 7b0:	961762d7          	vmul.vx	v5,v1,a4
 7b4:	025c32d7          	vadd.vi	v5,v5,-8
 7b8:	08010713          	addi	a4,sp,128
 7bc:	020752a7          	vse16.v	v5,(a4)
 7c0:	e7300713          	li	a4,-397
 7c4:	961762d7          	vmul.vx	v5,v1,a4
 7c8:	03700713          	li	a4,55
 7cc:	025742d7          	vadd.vx	v5,v5,a4
 7d0:	08410713          	addi	a4,sp,132
 7d4:	020752a7          	vse16.v	v5,(a4)
 7d8:	21800713          	li	a4,536
 7dc:	961762d7          	vmul.vx	v5,v1,a4
 7e0:	025632d7          	vadd.vi	v5,v5,12
 7e4:	08810713          	addi	a4,sp,136
 7e8:	020752a7          	vse16.v	v5,(a4)
 7ec:	03000713          	li	a4,48
 7f0:	961762d7          	vmul.vx	v5,v1,a4
 7f4:	025542d7          	vadd.vx	v5,v5,a0
 7f8:	08c10713          	addi	a4,sp,140
 7fc:	020752a7          	vse16.v	v5,(a4)
 800:	0245c2d7          	vadd.vx	v5,v4,a1
 804:	09010713          	addi	a4,sp,144
 808:	020752a7          	vse16.v	v5,(a4)
 80c:	18700713          	li	a4,391
 810:	961762d7          	vmul.vx	v5,v1,a4
 814:	0257c2d7          	vadd.vx	v5,v5,a5
 818:	03c10713          	addi	a4,sp,60
 81c:	020752a7          	vse16.v	v5,(a4)
 820:	ba700713          	li	a4,-1113
 824:	961762d7          	vmul.vx	v5,v1,a4
 828:	025642d7          	vadd.vx	v5,v5,a2
 82c:	04010713          	addi	a4,sp,64
 830:	020752a7          	vse16.v	v5,(a4)
 834:	ff000713          	li	a4,-16
 838:	961762d7          	vmul.vx	v5,v1,a4
 83c:	02d00713          	li	a4,45
 840:	02574357          	vadd.vx	v6,v5,a4
 844:	04410613          	addi	a2,sp,68
 848:	02065327          	vse16.v	v6,(a2)
 84c:	fbd00613          	li	a2,-67
 850:	96166357          	vmul.vx	v6,v1,a2
 854:	08100613          	li	a2,129
 858:	02664357          	vadd.vx	v6,v6,a2
 85c:	04810613          	addi	a2,sp,72
 860:	02065327          	vse16.v	v6,(a2)
 864:	04c10613          	addi	a2,sp,76
 868:	020651a7          	vse16.v	v3,(a2)
 86c:	05010613          	addi	a2,sp,80
 870:	02065127          	vse16.v	v2,(a2)
 874:	ef700613          	li	a2,-265
 878:	96166357          	vmul.vx	v6,v1,a2
 87c:	026c3357          	vadd.vi	v6,v6,-8
 880:	05410613          	addi	a2,sp,84
 884:	02065327          	vse16.v	v6,(a2)
 888:	e8300613          	li	a2,-381
 88c:	96166357          	vmul.vx	v6,v1,a2
 890:	0266c357          	vadd.vx	v6,v6,a3
 894:	05810693          	addi	a3,sp,88
 898:	0206d327          	vse16.v	v6,(a3)
 89c:	21c00693          	li	a3,540
 8a0:	9616e357          	vmul.vx	v6,v1,a3
 8a4:	02643357          	vadd.vi	v6,v6,8
 8a8:	05c10693          	addi	a3,sp,92
 8ac:	0206d327          	vse16.v	v6,(a3)
 8b0:	01500693          	li	a3,21
 8b4:	9616e357          	vmul.vx	v6,v1,a3
 8b8:	02674357          	vadd.vx	v6,v6,a4
 8bc:	06010713          	addi	a4,sp,96
 8c0:	02075327          	vse16.v	v6,(a4)
 8c4:	01100713          	li	a4,17
 8c8:	02474257          	vadd.vx	v4,v4,a4
 8cc:	06410713          	addi	a4,sp,100
 8d0:	02075227          	vse16.v	v4,(a4)
 8d4:	16e00713          	li	a4,366
 8d8:	96176257          	vmul.vx	v4,v1,a4
 8dc:	0247c257          	vadd.vx	v4,v4,a5
 8e0:	01010793          	addi	a5,sp,16
 8e4:	0207d227          	vse16.v	v4,(a5)
 8e8:	baf00793          	li	a5,-1105
 8ec:	9617e257          	vmul.vx	v4,v1,a5
 8f0:	1cf00793          	li	a5,463
 8f4:	0247c257          	vadd.vx	v4,v4,a5
 8f8:	01410793          	addi	a5,sp,20
 8fc:	0207d227          	vse16.v	v4,(a5)
 900:	03100793          	li	a5,49
 904:	0257c2d7          	vadd.vx	v5,v5,a5
 908:	01810793          	addi	a5,sp,24
 90c:	0207d2a7          	vse16.v	v5,(a5)
 910:	9611b257          	vsll.vi	v4,v1,3
 914:	03600793          	li	a5,54
 918:	0247c257          	vadd.vx	v4,v4,a5
 91c:	01c10793          	addi	a5,sp,28
 920:	0207d227          	vse16.v	v4,(a5)
 924:	02010793          	addi	a5,sp,32
 928:	0207d1a7          	vse16.v	v3,(a5)
 92c:	02410793          	addi	a5,sp,36
 930:	0207d127          	vse16.v	v2,(a5)
 934:	ef700793          	li	a5,-265
 938:	9617e0d7          	vmul.vx	v1,v1,a5
 93c:	021c30d7          	vadd.vi	v1,v1,-8
 940:	02810793          	addi	a5,sp,40
 944:	0207d0a7          	vse16.v	v1,(a5)
 948:	5208a0d7          	vid.v	v1
 94c:	96166157          	vmul.vx	v2,v1,a2
 950:	02700793          	li	a5,39
 954:	0227c157          	vadd.vx	v2,v2,a5
 958:	02c10793          	addi	a5,sp,44
 95c:	0207d127          	vse16.v	v2,(a5)
 960:	21d00793          	li	a5,541
 964:	9617e157          	vmul.vx	v2,v1,a5
 968:	0223b157          	vadd.vi	v2,v2,7
 96c:	03010793          	addi	a5,sp,48
 970:	0207d127          	vse16.v	v2,(a5)
 974:	96123157          	vsll.vi	v2,v1,4
 978:	03200793          	li	a5,50
 97c:	0227c157          	vadd.vx	v2,v2,a5
 980:	03410793          	addi	a5,sp,52
 984:	0207d127          	vse16.v	v2,(a5)
 988:	fff00793          	li	a5,-1
 98c:	9617e0d7          	vmul.vx	v1,v1,a5
 990:	01100793          	li	a5,17
 994:	0217c0d7          	vadd.vx	v1,v1,a5
 998:	03810793          	addi	a5,sp,56
 99c:	0207d0a7          	vse16.v	v1,(a5)
 9a0:	00000517          	auipc	a0,0x0
 9a4:	00050513          	mv	a0,a0
 9a8:	00000097          	auipc	ra,0x0
 9ac:	000080e7          	jalr	ra # 9a8 <main+0x9a8>
 9b0:	00000097          	auipc	ra,0x0
 9b4:	000080e7          	jalr	ra # 9b0 <main+0x9b0>
 9b8:	00050413          	mv	s0,a0
 9bc:	00000097          	auipc	ra,0x0
 9c0:	000080e7          	jalr	ra # 9bc <main+0x9bc>
 9c4:	00050493          	mv	s1,a0
 9c8:	1f410513          	addi	a0,sp,500
 9cc:	00000097          	auipc	ra,0x0
 9d0:	000080e7          	jalr	ra # 9cc <main+0x9cc>
 9d4:	00050d13          	mv	s10,a0
 9d8:	1c810513          	addi	a0,sp,456
 9dc:	00000097          	auipc	ra,0x0
 9e0:	000080e7          	jalr	ra # 9dc <main+0x9dc>
 9e4:	00050c93          	mv	s9,a0
 9e8:	19c10513          	addi	a0,sp,412
 9ec:	00000097          	auipc	ra,0x0
 9f0:	000080e7          	jalr	ra # 9ec <main+0x9ec>
 9f4:	00050c13          	mv	s8,a0
 9f8:	17010513          	addi	a0,sp,368
 9fc:	00000097          	auipc	ra,0x0
 a00:	000080e7          	jalr	ra # 9fc <main+0x9fc>
 a04:	00050b93          	mv	s7,a0
 a08:	14410513          	addi	a0,sp,324
 a0c:	00000097          	auipc	ra,0x0
 a10:	000080e7          	jalr	ra # a0c <main+0xa0c>
 a14:	00050b13          	mv	s6,a0
 a18:	11810513          	addi	a0,sp,280
 a1c:	00000097          	auipc	ra,0x0
 a20:	000080e7          	jalr	ra # a1c <main+0xa1c>
 a24:	00050a93          	mv	s5,a0
 a28:	0ec10513          	addi	a0,sp,236
 a2c:	00000097          	auipc	ra,0x0
 a30:	000080e7          	jalr	ra # a2c <main+0xa2c>
 a34:	00050a13          	mv	s4,a0
 a38:	0c010513          	addi	a0,sp,192
 a3c:	00000097          	auipc	ra,0x0
 a40:	000080e7          	jalr	ra # a3c <main+0xa3c>
 a44:	00050993          	mv	s3,a0
 a48:	09410513          	addi	a0,sp,148
 a4c:	00000097          	auipc	ra,0x0
 a50:	000080e7          	jalr	ra # a4c <main+0xa4c>
 a54:	00050913          	mv	s2,a0
 a58:	06810513          	addi	a0,sp,104
 a5c:	00000097          	auipc	ra,0x0
 a60:	000080e7          	jalr	ra # a5c <main+0xa5c>
 a64:	00a12223          	sw	a0,4(sp)
 a68:	03c10513          	addi	a0,sp,60
 a6c:	00000097          	auipc	ra,0x0
 a70:	000080e7          	jalr	ra # a6c <main+0xa6c>
 a74:	00a12423          	sw	a0,8(sp)
 a78:	01010513          	addi	a0,sp,16
 a7c:	00000097          	auipc	ra,0x0
 a80:	000080e7          	jalr	ra # a7c <main+0xa7c>
 a84:	00a12623          	sw	a0,12(sp)
 a88:	00000097          	auipc	ra,0x0
 a8c:	000080e7          	jalr	ra # a88 <main+0xa88>
 a90:	00050d93          	mv	s11,a0
 a94:	00000097          	auipc	ra,0x0
 a98:	000080e7          	jalr	ra # a94 <main+0xa94>
 a9c:	409505b3          	sub	a1,a0,s1
 aa0:	00000517          	auipc	a0,0x0
 aa4:	00050513          	mv	a0,a0
 aa8:	00000097          	auipc	ra,0x0
 aac:	000080e7          	jalr	ra # aa8 <main+0xaa8>
 ab0:	408d85b3          	sub	a1,s11,s0
 ab4:	00000517          	auipc	a0,0x0
 ab8:	00050513          	mv	a0,a0
 abc:	00000097          	auipc	ra,0x0
 ac0:	000080e7          	jalr	ra # abc <main+0xabc>
 ac4:	000d0593          	mv	a1,s10
 ac8:	00000517          	auipc	a0,0x0
 acc:	00050513          	mv	a0,a0
 ad0:	00000097          	auipc	ra,0x0
 ad4:	000080e7          	jalr	ra # ad0 <main+0xad0>
 ad8:	000c8593          	mv	a1,s9
 adc:	00000517          	auipc	a0,0x0
 ae0:	00050513          	mv	a0,a0
 ae4:	00000097          	auipc	ra,0x0
 ae8:	000080e7          	jalr	ra # ae4 <main+0xae4>
 aec:	000c0593          	mv	a1,s8
 af0:	00000517          	auipc	a0,0x0
 af4:	00050513          	mv	a0,a0
 af8:	00000097          	auipc	ra,0x0
 afc:	000080e7          	jalr	ra # af8 <main+0xaf8>
 b00:	000b8593          	mv	a1,s7
 b04:	00000517          	auipc	a0,0x0
 b08:	00050513          	mv	a0,a0
 b0c:	00000097          	auipc	ra,0x0
 b10:	000080e7          	jalr	ra # b0c <main+0xb0c>
 b14:	000b0593          	mv	a1,s6
 b18:	00000517          	auipc	a0,0x0
 b1c:	00050513          	mv	a0,a0
 b20:	00000097          	auipc	ra,0x0
 b24:	000080e7          	jalr	ra # b20 <main+0xb20>
 b28:	000a8593          	mv	a1,s5
 b2c:	00000517          	auipc	a0,0x0
 b30:	00050513          	mv	a0,a0
 b34:	00000097          	auipc	ra,0x0
 b38:	000080e7          	jalr	ra # b34 <main+0xb34>
 b3c:	000a0593          	mv	a1,s4
 b40:	00000517          	auipc	a0,0x0
 b44:	00050513          	mv	a0,a0
 b48:	00000097          	auipc	ra,0x0
 b4c:	000080e7          	jalr	ra # b48 <main+0xb48>
 b50:	00098593          	mv	a1,s3
 b54:	00000517          	auipc	a0,0x0
 b58:	00050513          	mv	a0,a0
 b5c:	00000097          	auipc	ra,0x0
 b60:	000080e7          	jalr	ra # b5c <main+0xb5c>
 b64:	00090593          	mv	a1,s2
 b68:	00000517          	auipc	a0,0x0
 b6c:	00050513          	mv	a0,a0
 b70:	00000097          	auipc	ra,0x0
 b74:	000080e7          	jalr	ra # b70 <main+0xb70>
 b78:	00412583          	lw	a1,4(sp)
 b7c:	00000517          	auipc	a0,0x0
 b80:	00050513          	mv	a0,a0
 b84:	00000097          	auipc	ra,0x0
 b88:	000080e7          	jalr	ra # b84 <main+0xb84>
 b8c:	00812583          	lw	a1,8(sp)
 b90:	00000517          	auipc	a0,0x0
 b94:	00050513          	mv	a0,a0
 b98:	00000097          	auipc	ra,0x0
 b9c:	000080e7          	jalr	ra # b98 <main+0xb98>
 ba0:	00c12583          	lw	a1,12(sp)
 ba4:	00000517          	auipc	a0,0x0
 ba8:	00050513          	mv	a0,a0
 bac:	00000097          	auipc	ra,0x0
 bb0:	000080e7          	jalr	ra # bac <main+0xbac>
 bb4:	00000067          	jr	zero # 0 <main>
 bb8:	00000513          	li	a0,0
 bbc:	25c12083          	lw	ra,604(sp)
 bc0:	25812403          	lw	s0,600(sp)
 bc4:	25412483          	lw	s1,596(sp)
 bc8:	25012903          	lw	s2,592(sp)
 bcc:	24c12983          	lw	s3,588(sp)
 bd0:	24812a03          	lw	s4,584(sp)
 bd4:	24412a83          	lw	s5,580(sp)
 bd8:	24012b03          	lw	s6,576(sp)
 bdc:	23c12b83          	lw	s7,572(sp)
 be0:	23812c03          	lw	s8,568(sp)
 be4:	23412c83          	lw	s9,564(sp)
 be8:	23012d03          	lw	s10,560(sp)
 bec:	22c12d83          	lw	s11,556(sp)
 bf0:	26010113          	addi	sp,sp,608
 bf4:	00008067          	ret
