
header_editado.o:     formato de ficheiro elf32-littleriscv


Desmontagem da secção .text:

00000000 <get_num_target>:
       0:	00100513          	li	a0,1
       4:	00008067          	ret

00000008 <get_num_class>:
       8:	00400793          	li	a5,4
       c:	00f52023          	sw	a5,0(a0)
      10:	00008067          	ret

00000014 <get_num_feature>:
      14:	01600513          	li	a0,22
      18:	00008067          	ret

0000001c <get_threshold_type>:
      1c:	00000517          	auipc	a0,0x0
      20:	00050513          	mv	a0,a0
      24:	00008067          	ret

00000028 <get_leaf_output_type>:
      28:	00000517          	auipc	a0,0x0
      2c:	00050513          	mv	a0,a0
      30:	00008067          	ret

00000034 <predict>:
      34:	00451303          	lh	t1,4(a0) # 2c <get_leaf_output_type+0x4>
      38:	fc010113          	addi	sp,sp,-64
      3c:	03712023          	sw	s7,32(sp)
      40:	02812e23          	sw	s0,60(sp)
      44:	02912c23          	sw	s1,56(sp)
      48:	03212a23          	sw	s2,52(sp)
      4c:	03312823          	sw	s3,48(sp)
      50:	03412623          	sw	s4,44(sp)
      54:	03512423          	sw	s5,40(sp)
      58:	03612223          	sw	s6,36(sp)
      5c:	01812e23          	sw	s8,28(sp)
      60:	01912c23          	sw	s9,24(sp)
      64:	01a12a23          	sw	s10,20(sp)
      68:	04600793          	li	a5,70
      6c:	00c10b93          	addi	s7,sp,12
      70:	2067c463          	blt	a5,t1,278 <.L8>
      74:	02451983          	lh	s3,36(a0)
      78:	01900793          	li	a5,25
      7c:	4d37c063          	blt	a5,s3,53c <.L9>
      80:	01651a03          	lh	s4,22(a0)
      84:	efc00793          	li	a5,-260
      88:	4cfa4a63          	blt	s4,a5,55c <.L2291>
      8c:	02251f03          	lh	t5,34(a0)
      90:	00e51f83          	lh	t6,14(a0)
      94:	01a51403          	lh	s0,26(a0)
      98:	02400793          	li	a5,36

0000009c <.L10>:
      9c:	00251703          	lh	a4,2(a0)
      a0:	00f11423          	sh	a5,8(sp)
      a4:	2df00793          	li	a5,735
      a8:	20e7c463          	blt	a5,a4,2b0 <.L12>

000000ac <.L2751>:
      ac:	01851603          	lh	a2,24(a0)
      b0:	ffd00793          	li	a5,-3
      b4:	00f64463          	blt	a2,a5,bc <.L2751+0x10>
      b8:	5280606f          	j	65e0 <.L13>
      bc:	01251483          	lh	s1,18(a0)
      c0:	19100693          	li	a3,401
      c4:	ff600793          	li	a5,-10
      c8:	0096d463          	bge	a3,s1,d0 <.L14>
      cc:	00200793          	li	a5,2

000000d0 <.L14>:
      d0:	00651a83          	lh	s5,6(a0)
      d4:	00f11523          	sh	a5,10(sp)
      d8:	d5c00793          	li	a5,-676
      dc:	00fac463          	blt	s5,a5,e4 <.L14+0x14>
      e0:	5100b06f          	j	b5f0 <.L2747>
      e4:	ff400793          	li	a5,-12
      e8:	00f64463          	blt	a2,a5,f0 <.L14+0x20>
      ec:	51c0606f          	j	6608 <.L16>
      f0:	00a51683          	lh	a3,10(a0)
      f4:	01051b03          	lh	s6,16(a0)
      f8:	02851e83          	lh	t4,40(a0)

000000fc <.L21>:
      fc:	06300793          	li	a5,99
     100:	01d7d463          	bge	a5,t4,108 <.L21+0xc>
     104:	4b10a06f          	j	adb4 <.L25>
     108:	00051783          	lh	a5,0(a0)
     10c:	02500593          	li	a1,37
     110:	00b11623          	sh	a1,12(sp)
     114:	03e00593          	li	a1,62
     118:	01451283          	lh	t0,20(a0)
     11c:	1ef5dc63          	bge	a1,a5,314 <.L26>

00000120 <.L27>:
     120:	ff600593          	li	a1,-10
     124:	00b11723          	sh	a1,14(sp)
     128:	05700593          	li	a1,87
     12c:	0065c463          	blt	a1,t1,134 <.L27+0x14>
     130:	30d0906f          	j	9c3c <.L2341>
     134:	01e51583          	lh	a1,30(a0)
     138:	00c51903          	lh	s2,12(a0)

0000013c <.L33>:
     13c:	0ac00813          	li	a6,172
     140:	01685463          	bge	a6,s6,148 <.L33+0xc>
     144:	4fc0606f          	j	6640 <.L45>
     148:	03a00813          	li	a6,58
     14c:	00815883          	lhu	a7,8(sp)
     150:	01f85463          	bge	a6,t6,158 <.L33+0x1c>
     154:	4250a06f          	j	ad78 <.L46>
     158:	01588893          	addi	a7,a7,21
     15c:	00851803          	lh	a6,8(a0)
     160:	01089893          	slli	a7,a7,0x10
     164:	4108d893          	srai	a7,a7,0x10

00000168 <.L47>:
     168:	01111423          	sh	a7,8(sp)
     16c:	1b500893          	li	a7,437
     170:	00e8d463          	bge	a7,a4,178 <.L47+0x10>
     174:	7400306f          	j	38b4 <.L44>
     178:	02a51883          	lh	a7,42(a0)
     17c:	00800e13          	li	t3,8
     180:	011e4463          	blt	t3,a7,188 <.L47+0x20>
     184:	0480806f          	j	81cc <.L42>
     188:	0f200e13          	li	t3,242
     18c:	1e6e5e63          	bge	t3,t1,388 <.L41>
     190:	00a15e03          	lhu	t3,10(sp)
     194:	fffe0e13          	addi	t3,t3,-1
     198:	010e1e13          	slli	t3,t3,0x10
     19c:	410e5e13          	srai	t3,t3,0x10

000001a0 <.L51>:
     1a0:	01c11523          	sh	t3,10(sp)
     1a4:	df700e13          	li	t3,-521
     1a8:	1fca5e63          	bge	s4,t3,3a4 <.L57>

000001ac <.L52>:
     1ac:	ff400e13          	li	t3,-12
     1b0:	01c65463          	bge	a2,t3,1b8 <.L52+0xc>
     1b4:	0ec0806f          	j	82a0 <.L58>
     1b8:	03b00e13          	li	t3,59
     1bc:	00ee5463          	bge	t3,a4,1c4 <.L52+0x18>
     1c0:	7340306f          	j	38f4 <.L59>
     1c4:	00c15e03          	lhu	t3,12(sp)
     1c8:	012e0e13          	addi	t3,t3,18
     1cc:	010e1e13          	slli	t3,t3,0x10
     1d0:	410e5e13          	srai	t3,t3,0x10

000001d4 <.L65>:
     1d4:	01c11623          	sh	t3,12(sp)
     1d8:	03d00e13          	li	t3,61
     1dc:	1efe5663          	bge	t3,a5,3c8 <.L66>
     1e0:	dce00e13          	li	t3,-562
     1e4:	01cac463          	blt	s5,t3,1ec <.L65+0x18>
     1e8:	3d00606f          	j	65b8 <.L67>
     1ec:	00e15e03          	lhu	t3,14(sp)
     1f0:	0d900393          	li	t2,217
     1f4:	ff5e0e13          	addi	t3,t3,-11
     1f8:	01c11723          	sh	t3,14(sp)
     1fc:	21e3d263          	bge	t2,t5,400 <.L76>

00000200 <.L2344>:
     200:	05700e13          	li	t3,87
     204:	006e4463          	blt	t3,t1,20c <.L82>
     208:	5410806f          	j	8f48 <.L83>

0000020c <.L82>:
     20c:	00815e03          	lhu	t3,8(sp)
     210:	02651383          	lh	t2,38(a0)
     214:	ff7e0e13          	addi	t3,t3,-9

00000218 <.L2549>:
     218:	01c11423          	sh	t3,8(sp)

0000021c <.L85>:
     21c:	1de00e13          	li	t3,478
     220:	20ee5263          	bge	t3,a4,424 <.L90>

00000224 <.L93>:
     224:	4ae00e13          	li	t3,1198
     228:	00de5463          	bge	t3,a3,230 <.L93+0xc>
     22c:	56c0806f          	j	8798 <.L92>
     230:	03e00e13          	li	t3,62
     234:	00fe4463          	blt	t3,a5,23c <.L93+0x18>
     238:	6590806f          	j	9090 <.L91>
     23c:	00a15e03          	lhu	t3,10(sp)
     240:	31a00c13          	li	s8,794
     244:	ff5e0e13          	addi	t3,t3,-11
     248:	01c11523          	sh	t3,10(sp)
     24c:	00dc5463          	bge	s8,a3,254 <.L93+0x30>
     250:	6080b06f          	j	b858 <.L2748>
     254:	ea700e13          	li	t3,-345
     258:	01ca4463          	blt	s4,t3,260 <.L93+0x3c>
     25c:	0410b06f          	j	ba9c <.L2749>
     260:	00c15e03          	lhu	t3,12(sp)
     264:	ff6e0e13          	addi	t3,t3,-10
     268:	010e1e13          	slli	t3,t3,0x10
     26c:	410e5e13          	srai	t3,t3,0x10
     270:	01c11623          	sh	t3,12(sp)
     274:	20c0006f          	j	480 <.L121>

00000278 <.L8>:
     278:	02251f03          	lh	t5,34(a0)
     27c:	0d900793          	li	a5,217
     280:	29e7ce63          	blt	a5,t5,51c <.L11>
     284:	00e51f83          	lh	t6,14(a0)
     288:	03c00793          	li	a5,60
     28c:	2ff7ce63          	blt	a5,t6,588 <.L2750>
     290:	00251703          	lh	a4,2(a0)
     294:	01c00793          	li	a5,28
     298:	00f11423          	sh	a5,8(sp)
     29c:	2df00793          	li	a5,735
     2a0:	02451983          	lh	s3,36(a0)
     2a4:	01651a03          	lh	s4,22(a0)
     2a8:	01a51403          	lh	s0,26(a0)
     2ac:	e0e7d0e3          	bge	a5,a4,ac <.L2751>

000002b0 <.L12>:
     2b0:	00a51683          	lh	a3,10(a0)
     2b4:	7e700793          	li	a5,2023
     2b8:	00d7d463          	bge	a5,a3,2c0 <.L12+0x10>
     2bc:	5500806f          	j	880c <.L18>
     2c0:	01051b03          	lh	s6,16(a0)
     2c4:	10100793          	li	a5,257
     2c8:	00651a83          	lh	s5,6(a0)
     2cc:	0167d463          	bge	a5,s6,2d4 <.L12+0x24>
     2d0:	20c0a06f          	j	a4dc <.L19>
     2d4:	ffe00793          	li	a5,-2
     2d8:	00f11523          	sh	a5,10(sp)
     2dc:	d5c00793          	li	a5,-676
     2e0:	01851603          	lh	a2,24(a0)
     2e4:	00fac463          	blt	s5,a5,2ec <.L2337>
     2e8:	20c0a06f          	j	a4f4 <.L2543>

000002ec <.L2337>:
     2ec:	ff400793          	li	a5,-12
     2f0:	01251483          	lh	s1,18(a0)
     2f4:	02851e83          	lh	t4,40(a0)
     2f8:	e0f642e3          	blt	a2,a5,fc <.L21>

000002fc <.L22>:
     2fc:	00051783          	lh	a5,0(a0)
     300:	ff500593          	li	a1,-11
     304:	00b11623          	sh	a1,12(sp)
     308:	03e00593          	li	a1,62
     30c:	01451283          	lh	t0,20(a0)
     310:	e0f5c8e3          	blt	a1,a5,120 <.L27>

00000314 <.L26>:
     314:	01e51583          	lh	a1,30(a0)
     318:	d8200813          	li	a6,-638
     31c:	0105c463          	blt	a1,a6,324 <.L26+0x10>
     320:	1480806f          	j	8468 <.L31>
     324:	27300813          	li	a6,627
     328:	01e84463          	blt	a6,t5,330 <.L26+0x1c>
     32c:	4d10906f          	j	9ffc <.L2299>
     330:	00c51903          	lh	s2,12(a0)
     334:	ff900813          	li	a6,-7

00000338 <.L32>:
     338:	01011723          	sh	a6,14(sp)
     33c:	05700813          	li	a6,87
     340:	de684ee3          	blt	a6,t1,13c <.L33>
     344:	00851803          	lh	a6,8(a0)
     348:	02200893          	li	a7,34
     34c:	0108c463          	blt	a7,a6,354 <.L32+0x1c>
     350:	54c0306f          	j	389c <.L34>
     354:	fba00893          	li	a7,-70
     358:	011ad463          	bge	s5,a7,360 <.L32+0x28>
     35c:	0f90906f          	j	9c54 <.L35>
     360:	00815883          	lhu	a7,8(sp)
     364:	1b500e13          	li	t3,437
     368:	00188893          	addi	a7,a7,1
     36c:	01111423          	sh	a7,8(sp)
     370:	00ee5463          	bge	t3,a4,378 <.L2544>
     374:	5400306f          	j	38b4 <.L44>

00000378 <.L2544>:
     378:	02a51883          	lh	a7,42(a0)
     37c:	00800e13          	li	t3,8
     380:	011e4463          	blt	t3,a7,388 <.L41>
     384:	6490706f          	j	81cc <.L42>

00000388 <.L41>:
     388:	00a15e03          	lhu	t3,10(sp)
     38c:	ff6e0e13          	addi	t3,t3,-10
     390:	010e1e13          	slli	t3,t3,0x10
     394:	410e5e13          	srai	t3,t3,0x10
     398:	01c11523          	sh	t3,10(sp)
     39c:	df700e13          	li	t3,-521
     3a0:	e1ca46e3          	blt	s4,t3,1ac <.L52>

000003a4 <.L57>:
     3a4:	eef00e13          	li	t3,-273
     3a8:	01c2c463          	blt	t0,t3,3b0 <.L2910>
     3ac:	46c0606f          	j	6818 <.L68>

000003b0 <.L2910>:
     3b0:	03300e13          	li	t3,51
     3b4:	00fe5463          	bge	t3,a5,3bc <.L2910+0xc>
     3b8:	4390a06f          	j	aff0 <.L69>
     3bc:	00c15e03          	lhu	t3,12(sp)
     3c0:	010e0e13          	addi	t3,t3,16
     3c4:	01c11623          	sh	t3,12(sp)

000003c8 <.L66>:
     3c8:	d8200e13          	li	t3,-638
     3cc:	01c5c463          	blt	a1,t3,3d4 <.L66+0xc>
     3d0:	3b00606f          	j	6780 <.L71>
     3d4:	27300e13          	li	t3,627
     3d8:	01ee5463          	bge	t3,t5,3e0 <.L66+0x18>
     3dc:	1410a06f          	j	ad1c <.L72>
     3e0:	00e15e03          	lhu	t3,14(sp)
     3e4:	017e0e13          	addi	t3,t3,23
     3e8:	010e1e13          	slli	t3,t3,0x10
     3ec:	410e5e13          	srai	t3,t3,0x10

000003f0 <.L73>:
     3f0:	01c11723          	sh	t3,14(sp)
     3f4:	0d900e13          	li	t3,217
     3f8:	01ee5463          	bge	t3,t5,400 <.L76>
     3fc:	3b00606f          	j	67ac <.L74>

00000400 <.L76>:
     400:	01a00e13          	li	t3,26
     404:	010e5463          	bge	t3,a6,40c <.L76+0xc>
     408:	32c0706f          	j	7734 <.L80>
     40c:	0da00e13          	li	t3,218
     410:	012e4463          	blt	t3,s2,418 <.L76+0x18>
     414:	1740a06f          	j	a588 <.L84>
     418:	1de00e13          	li	t3,478
     41c:	02651383          	lh	t2,38(a0)
     420:	e0ee42e3          	blt	t3,a4,224 <.L93>

00000424 <.L90>:
     424:	ffd00e13          	li	t3,-3
     428:	01c64463          	blt	a2,t3,430 <.L90+0xc>
     42c:	3140806f          	j	8740 <.L94>
     430:	1b300e13          	li	t3,435
     434:	009e5463          	bge	t3,s1,43c <.L90+0x18>
     438:	4350906f          	j	a06c <.L95>
     43c:	00a15e03          	lhu	t3,10(sp)
     440:	31a00c13          	li	s8,794
     444:	ff7e0e13          	addi	t3,t3,-9
     448:	01c11523          	sh	t3,10(sp)
     44c:	00dc4463          	blt	s8,a3,454 <.L2349>
     450:	3140806f          	j	8764 <.L96>

00000454 <.L2349>:
     454:	e4e00e13          	li	t3,-434
     458:	01cac463          	blt	s5,t3,460 <.L119>
     45c:	3e10906f          	j	a03c <.L101>

00000460 <.L119>:
     460:	00c15e03          	lhu	t3,12(sp)
     464:	015e0e13          	addi	t3,t3,21
     468:	010e1e13          	slli	t3,t3,0x10
     46c:	410e5e13          	srai	t3,t3,0x10

00000470 <.L120>:
     470:	01c11623          	sh	t3,12(sp)
     474:	03d00e13          	li	t3,61
     478:	00fe4463          	blt	t3,a5,480 <.L121>
     47c:	0150506f          	j	5c90 <.L125>

00000480 <.L121>:
     480:	1f800e13          	li	t3,504
     484:	13ee4663          	blt	t3,t5,5b0 <.L131>
     488:	03a00e13          	li	t3,58
     48c:	01fe5463          	bge	t3,t6,494 <.L121+0x14>
     490:	1e80a06f          	j	a678 <.L132>
     494:	00e15e03          	lhu	t3,14(sp)
     498:	ff8e0e13          	addi	t3,t3,-8
     49c:	010e1e13          	slli	t3,t3,0x10
     4a0:	410e5e13          	srai	t3,t3,0x10

000004a4 <.L129>:
     4a4:	01c11723          	sh	t3,14(sp)
     4a8:	0d900e13          	li	t3,217
     4ac:	13ee4263          	blt	t3,t5,5d0 <.L135>
     4b0:	01a00e13          	li	t3,26
     4b4:	010e5463          	bge	t3,a6,4bc <.L129+0x18>
     4b8:	4500306f          	j	3908 <.L136>
     4bc:	11800e13          	li	t3,280
     4c0:	012e5463          	bge	t3,s2,4c8 <.L129+0x24>
     4c4:	17c0a06f          	j	a640 <.L137>
     4c8:	00815e03          	lhu	t3,8(sp)
     4cc:	0a600c13          	li	s8,166
     4d0:	00ee0e13          	addi	t3,t3,14
     4d4:	01c11423          	sh	t3,8(sp)
     4d8:	00ec4463          	blt	s8,a4,4e0 <.L2552>
     4dc:	4540306f          	j	3930 <.L143>

000004e0 <.L2552>:
     4e0:	03d00e13          	li	t3,61
     4e4:	00fe4463          	blt	t3,a5,4ec <.L164>
     4e8:	3a50506f          	j	608c <.L144>

000004ec <.L164>:
     4ec:	00a15e03          	lhu	t3,10(sp)
     4f0:	10b00c13          	li	s8,267
     4f4:	ff5e0e13          	addi	t3,t3,-11
     4f8:	01c11523          	sh	t3,10(sp)
     4fc:	00dc5463          	bge	s8,a3,504 <.L164+0x18>
     500:	1940906f          	j	9694 <.L2354>
     504:	d6700e13          	li	t3,-665
     508:	13ca5663          	bge	s4,t3,634 <.L173>
     50c:	00c15e03          	lhu	t3,12(sp)
     510:	00be0e13          	addi	t3,t3,11
     514:	01c11623          	sh	t3,12(sp)
     518:	1280006f          	j	640 <.L174>

0000051c <.L11>:
     51c:	01a51403          	lh	s0,26(a0)
     520:	f2900793          	li	a5,-215
     524:	06f45c63          	bge	s0,a5,59c <.L2752>
     528:	02451983          	lh	s3,36(a0)
     52c:	01651a03          	lh	s4,22(a0)
     530:	00e51f83          	lh	t6,14(a0)
     534:	ff500793          	li	a5,-11
     538:	b65ff06f          	j	9c <.L10>

0000053c <.L9>:
     53c:	01f00793          	li	a5,31
     540:	0337c863          	blt	a5,s3,570 <.L2753>
     544:	01651a03          	lh	s4,22(a0)
     548:	02251f03          	lh	t5,34(a0)
     54c:	00e51f83          	lh	t6,14(a0)
     550:	01a51403          	lh	s0,26(a0)
     554:	00900793          	li	a5,9
     558:	b45ff06f          	j	9c <.L10>

0000055c <.L2291>:
     55c:	02251f03          	lh	t5,34(a0)
     560:	00e51f83          	lh	t6,14(a0)
     564:	01a51403          	lh	s0,26(a0)
     568:	01300793          	li	a5,19
     56c:	b31ff06f          	j	9c <.L10>

00000570 <.L2753>:
     570:	01651a03          	lh	s4,22(a0)
     574:	02251f03          	lh	t5,34(a0)
     578:	00e51f83          	lh	t6,14(a0)
     57c:	01a51403          	lh	s0,26(a0)
     580:	ff500793          	li	a5,-11
     584:	b19ff06f          	j	9c <.L10>

00000588 <.L2750>:
     588:	02451983          	lh	s3,36(a0)
     58c:	01651a03          	lh	s4,22(a0)
     590:	01a51403          	lh	s0,26(a0)
     594:	ff500793          	li	a5,-11
     598:	b05ff06f          	j	9c <.L10>

0000059c <.L2752>:
     59c:	02451983          	lh	s3,36(a0)
     5a0:	01651a03          	lh	s4,22(a0)
     5a4:	00e51f83          	lh	t6,14(a0)
     5a8:	ffc00793          	li	a5,-4
     5ac:	af1ff06f          	j	9c <.L10>

000005b0 <.L131>:
     5b0:	b6f00e13          	li	t3,-1169
     5b4:	01c44463          	blt	s0,t3,5bc <.L131+0xc>
     5b8:	10c0a06f          	j	a6c4 <.L133>
     5bc:	00e15e03          	lhu	t3,14(sp)
     5c0:	00ce0e13          	addi	t3,t3,12
     5c4:	010e1e13          	slli	t3,t3,0x10
     5c8:	010e5e13          	srli	t3,t3,0x10
     5cc:	01c11723          	sh	t3,14(sp)

000005d0 <.L135>:
     5d0:	03e00e13          	li	t3,62
     5d4:	006e5463          	bge	t3,t1,5dc <.L135+0xc>
     5d8:	6c90706f          	j	84a0 <.L145>
     5dc:	02000e13          	li	t3,32
     5e0:	010e5463          	bge	t3,a6,5e8 <.L135+0x18>
     5e4:	19d0606f          	j	6f80 <.L146>
     5e8:	00815e03          	lhu	t3,8(sp)
     5ec:	009e0e13          	addi	t3,t3,9
     5f0:	010e1e13          	slli	t3,t3,0x10
     5f4:	410e5e13          	srai	t3,t3,0x10

000005f8 <.L147>:
     5f8:	01c11423          	sh	t3,8(sp)
     5fc:	0a600e13          	li	t3,166
     600:	00ee4463          	blt	t3,a4,608 <.L147+0x10>
     604:	32c0306f          	j	3930 <.L143>
     608:	03d00e13          	li	t3,61
     60c:	00fe4463          	blt	t3,a5,614 <.L147+0x1c>
     610:	27d0506f          	j	608c <.L144>
     614:	21a00e13          	li	t3,538
     618:	edee5ae3          	bge	t3,t5,4ec <.L164>
     61c:	10b00e13          	li	t3,267
     620:	00de5463          	bge	t3,a3,628 <.L147+0x30>
     624:	0700906f          	j	9694 <.L2354>
     628:	d6700e13          	li	t3,-665
     62c:	01ca5463          	bge	s4,t3,634 <.L173>
     630:	2b50506f          	j	60e4 <.L2754>

00000634 <.L173>:
     634:	00c15e03          	lhu	t3,12(sp)
     638:	ff6e0e13          	addi	t3,t3,-10
     63c:	01c11623          	sh	t3,12(sp)

00000640 <.L174>:
     640:	1e500e13          	li	t3,485
     644:	01ee5463          	bge	t3,t5,64c <.L174+0xc>
     648:	2a90506f          	j	60f0 <.L172>
     64c:	ec100e13          	li	t3,-319
     650:	01c44463          	blt	s0,t3,658 <.L174+0x18>
     654:	0800306f          	j	36d4 <.L192>
     658:	00e15e03          	lhu	t3,14(sp)
     65c:	0d900c13          	li	s8,217
     660:	00ee0e13          	addi	t3,t3,14
     664:	01c11723          	sh	t3,14(sp)
     668:	01ec4463          	blt	s8,t5,670 <.L2356>
     66c:	0800306f          	j	36ec <.L194>

00000670 <.L2356>:
     670:	07a00e13          	li	t3,122
     674:	006e4463          	blt	t3,t1,67c <.L2356+0xc>
     678:	33c0706f          	j	79b4 <.L196>
     67c:	00815e03          	lhu	t3,8(sp)
     680:	08000c13          	li	s8,128
     684:	ff8e0e13          	addi	t3,t3,-8
     688:	01c11423          	sh	t3,8(sp)
     68c:	00ec5463          	bge	s8,a4,694 <.L215>
     690:	5950806f          	j	9424 <.L2755>

00000694 <.L215>:
     694:	ffd00e13          	li	t3,-3
     698:	01c64463          	blt	a2,t3,6a0 <.L215+0xc>
     69c:	7940506f          	j	5e30 <.L231>
     6a0:	36800e13          	li	t3,872
     6a4:	016e5463          	bge	t3,s6,6ac <.L215+0x18>
     6a8:	3180a06f          	j	a9c0 <.L232>
     6ac:	00a15e03          	lhu	t3,10(sp)
     6b0:	08c00c13          	li	s8,140
     6b4:	ff7e0e13          	addi	t3,t3,-9
     6b8:	01c11523          	sh	t3,10(sp)
     6bc:	00dc4463          	blt	s8,a3,6c4 <.L236>
     6c0:	7940506f          	j	5e54 <.L239>

000006c4 <.L236>:
     6c4:	eef00e13          	li	t3,-273
     6c8:	01c2c463          	blt	t0,t3,6d0 <.L236+0xc>
     6cc:	10c0a06f          	j	a7d8 <.L267>
     6d0:	00c15e03          	lhu	t3,12(sp)
     6d4:	00de0e13          	addi	t3,t3,13
     6d8:	010e1e13          	slli	t3,t3,0x10
     6dc:	410e5e13          	srai	t3,t3,0x10

000006e0 <.L263>:
     6e0:	01c11623          	sh	t3,12(sp)
     6e4:	03c00e13          	li	t3,60
     6e8:	00fe5463          	bge	t3,a5,6f0 <.L263+0x10>
     6ec:	0640306f          	j	3750 <.L259>
     6f0:	ce400e13          	li	t3,-796
     6f4:	01c5c463          	blt	a1,t3,6fc <.L252>
     6f8:	1e90806f          	j	90e0 <.L273>

000006fc <.L252>:
     6fc:	19c00e13          	li	t3,412
     700:	00ee5463          	bge	t3,a4,708 <.L252+0xc>
     704:	3400306f          	j	3a44 <.L276>
     708:	00e15e03          	lhu	t3,14(sp)
     70c:	00fe0e13          	addi	t3,t3,15
     710:	010e1e13          	slli	t3,t3,0x10
     714:	410e5e13          	srai	t3,t3,0x10

00000718 <.L275>:
     718:	01c11723          	sh	t3,14(sp)
     71c:	efb00e13          	li	t3,-261
     720:	01ca4463          	blt	s4,t3,728 <.L2833>
     724:	0640306f          	j	3788 <.L280>

00000728 <.L2833>:
     728:	08700e13          	li	t3,135
     72c:	006e5463          	bge	t3,t1,734 <.L2833+0xc>
     730:	3b80606f          	j	6ae8 <.L281>
     734:	02200e13          	li	t3,34
     738:	010e5463          	bge	t3,a6,740 <.L2833+0x18>
     73c:	3300606f          	j	6a6c <.L282>
     740:	00815e03          	lhu	t3,8(sp)
     744:	2df00c13          	li	s8,735
     748:	002e0e13          	addi	t3,t3,2
     74c:	01c11423          	sh	t3,8(sp)
     750:	00ec5463          	bge	s8,a4,758 <.L2685>
     754:	3300606f          	j	6a84 <.L297>

00000758 <.L2685>:
     758:	02051e03          	lh	t3,32(a0)
     75c:	00400c13          	li	s8,4
     760:	01cc5463          	bge	s8,t3,768 <.L2685+0x10>
     764:	61c0806f          	j	8d80 <.L299>
     768:	00a15c03          	lhu	s8,10(sp)
     76c:	08f00c93          	li	s9,143
     770:	ffcc0c13          	addi	s8,s8,-4
     774:	01811523          	sh	s8,10(sp)
     778:	00dcc463          	blt	s9,a3,780 <.L317>
     77c:	3ac0606f          	j	6b28 <.L2560>

00000780 <.L317>:
     780:	2b200c13          	li	s8,690
     784:	00ec5463          	bge	s8,a4,78c <.L317+0xc>
     788:	26c0606f          	j	69f4 <.L315>
     78c:	ef500c13          	li	s8,-267
     790:	0182c463          	blt	t0,s8,798 <.L317+0x18>
     794:	2a40606f          	j	6a38 <.L324>
     798:	00c15c03          	lhu	s8,12(sp)
     79c:	03c00c93          	li	s9,60
     7a0:	00bc0c13          	addi	s8,s8,11
     7a4:	01811623          	sh	s8,12(sp)
     7a8:	00fcd463          	bge	s9,a5,7b0 <.L2563>
     7ac:	0880306f          	j	3834 <.L325>

000007b0 <.L2563>:
     7b0:	d2500c13          	li	s8,-731
     7b4:	0185d463          	bge	a1,s8,7bc <.L334>
     7b8:	3140606f          	j	6acc <.L337>

000007bc <.L334>:
     7bc:	00e15c03          	lhu	s8,14(sp)
     7c0:	ff6c0c13          	addi	s8,s8,-10
     7c4:	010c1c13          	slli	s8,s8,0x10
     7c8:	410c5c13          	srai	s8,s8,0x10

000007cc <.L338>:
     7cc:	01811723          	sh	s8,14(sp)
     7d0:	efb00c13          	li	s8,-261
     7d4:	018a4463          	blt	s4,s8,7dc <.L2835>
     7d8:	0940306f          	j	386c <.L341>

000007dc <.L2835>:
     7dc:	00d00c13          	li	s8,13
     7e0:	013c5463          	bge	s8,s3,7e8 <.L2835+0xc>
     7e4:	1010606f          	j	70e4 <.L342>
     7e8:	0f400c13          	li	s8,244
     7ec:	006c5463          	bge	s8,t1,7f4 <.L2835+0x18>
     7f0:	6e00906f          	j	9ed0 <.L343>
     7f4:	00815c03          	lhu	s8,8(sp)
     7f8:	003c0c13          	addi	s8,s8,3
     7fc:	01811423          	sh	s8,8(sp)

00000800 <.L344>:
     800:	07600c13          	li	s8,118
     804:	00ec5463          	bge	s8,a4,80c <.L344+0xc>
     808:	3150206f          	j	331c <.L348>
     80c:	ffe00c13          	li	s8,-2
     810:	01864463          	blt	a2,s8,818 <.L344+0x18>
     814:	7cd0606f          	j	77e0 <.L349>
     818:	e2c00c13          	li	s8,-468
     81c:	0182c463          	blt	t0,s8,824 <.L344+0x24>
     820:	0490a06f          	j	b068 <.L350>
     824:	00a15c03          	lhu	s8,10(sp)
     828:	17000c93          	li	s9,368
     82c:	001c0c13          	addi	s8,s8,1
     830:	01811523          	sh	s8,10(sp)
     834:	00dcc463          	blt	s9,a3,83c <.L355>
     838:	6d80606f          	j	6f10 <.L351>

0000083c <.L355>:
     83c:	00c15c03          	lhu	s8,12(sp)
     840:	00cc0c13          	addi	s8,s8,12
     844:	010c1c13          	slli	s8,s8,0x10
     848:	410c5c13          	srai	s8,s8,0x10

0000084c <.L352>:
     84c:	01811623          	sh	s8,12(sp)
     850:	e9900c13          	li	s8,-359
     854:	0185d463          	bge	a1,s8,85c <.L372>
     858:	3210206f          	j	3378 <.L368>

0000085c <.L372>:
     85c:	03d00c13          	li	s8,61
     860:	00fc5463          	bge	s8,a5,868 <.L372+0xc>
     864:	6dc0606f          	j	6f40 <.L371>
     868:	03800c13          	li	s8,56
     86c:	00ec5463          	bge	s8,a4,874 <.L372+0x18>
     870:	5f00606f          	j	6e60 <.L370>
     874:	00e15c03          	lhu	s8,14(sp)
     878:	ffac0c13          	addi	s8,s8,-6
     87c:	010c1c13          	slli	s8,s8,0x10
     880:	410c5c13          	srai	s8,s8,0x10

00000884 <.L375>:
     884:	01811723          	sh	s8,14(sp)
     888:	0a900c13          	li	s8,169
     88c:	01ec5463          	bge	s8,t5,894 <.L2827>
     890:	3210206f          	j	33b0 <.L378>

00000894 <.L2827>:
     894:	01d00c13          	li	s8,29
     898:	010c5463          	bge	s8,a6,8a0 <.L2827+0xc>
     89c:	79d0506f          	j	6838 <.L379>
     8a0:	11800c13          	li	s8,280
     8a4:	012c5463          	bge	s8,s2,8ac <.L2827+0x18>
     8a8:	2090906f          	j	a2b0 <.L380>
     8ac:	00815c03          	lhu	s8,8(sp)
     8b0:	0b500c93          	li	s9,181
     8b4:	00bc0c13          	addi	s8,s8,11
     8b8:	01811423          	sh	s8,8(sp)
     8bc:	006cd463          	bge	s9,t1,8c4 <.L2566>
     8c0:	7a10506f          	j	6860 <.L381>

000008c4 <.L2566>:
     8c4:	00a00c13          	li	s8,10
     8c8:	011c4463          	blt	s8,a7,8d0 <.L388>
     8cc:	7b10506f          	j	687c <.L382>

000008d0 <.L388>:
     8d0:	00a15c03          	lhu	s8,10(sp)
     8d4:	ff7c0c13          	addi	s8,s8,-9
     8d8:	010c1c13          	slli	s8,s8,0x10
     8dc:	410c5c13          	srai	s8,s8,0x10

000008e0 <.L383>:
     8e0:	01811523          	sh	s8,10(sp)
     8e4:	06300c13          	li	s8,99
     8e8:	00dc5463          	bge	s8,a3,8f0 <.L2828>
     8ec:	3350206f          	j	3420 <.L400>

000008f0 <.L2828>:
     8f0:	f2100c13          	li	s8,-223
     8f4:	0185c463          	blt	a1,s8,8fc <.L2828+0xc>
     8f8:	7e10506f          	j	68d8 <.L401>
     8fc:	21800c13          	li	s8,536
     900:	016c5463          	bge	s8,s6,908 <.L2828+0x18>
     904:	1f10906f          	j	a2f4 <.L402>
     908:	00c15c03          	lhu	s8,12(sp)
     90c:	ff6c0c13          	addi	s8,s8,-10
     910:	010c1c13          	slli	s8,s8,0x10
     914:	410c5c13          	srai	s8,s8,0x10

00000918 <.L403>:
     918:	01811623          	sh	s8,12(sp)
     91c:	03b00c13          	li	s8,59
     920:	00fc5463          	bge	s8,a5,928 <.L2829>
     924:	3350206f          	j	3458 <.L411>

00000928 <.L2829>:
     928:	cd800c13          	li	s8,-808
     92c:	0185c463          	blt	a1,s8,934 <.L2829+0xc>
     930:	44d0706f          	j	857c <.L405>
     934:	00e15c03          	lhu	s8,14(sp)
     938:	008c0c13          	addi	s8,s8,8
     93c:	010c1c13          	slli	s8,s8,0x10
     940:	410c5c13          	srai	s8,s8,0x10

00000944 <.L412>:
     944:	01811723          	sh	s8,14(sp)
     948:	0a900c13          	li	s8,169
     94c:	01ec5463          	bge	s8,t5,954 <.L2830>
     950:	3410206f          	j	3490 <.L415>

00000954 <.L2830>:
     954:	01d00c13          	li	s8,29
     958:	010c4463          	blt	s8,a6,960 <.L2830+0xc>
     95c:	0440606f          	j	69a0 <.L418>
     960:	01c51c83          	lh	s9,28(a0)
     964:	03800c13          	li	s8,56
     968:	019c5463          	bge	s8,s9,970 <.L2830+0x1c>
     96c:	3700a06f          	j	acdc <.L421>
     970:	00815c03          	lhu	s8,8(sp)
     974:	ff8c0c13          	addi	s8,s8,-8
     978:	010c1c13          	slli	s8,s8,0x10
     97c:	410c5c13          	srai	s8,s8,0x10

00000980 <.L420>:
     980:	01811423          	sh	s8,8(sp)
     984:	03900c13          	li	s8,57
     988:	00ec5463          	bge	s8,a4,990 <.L2831>
     98c:	33d0206f          	j	34c8 <.L424>

00000990 <.L2831>:
     990:	00700c13          	li	s8,7
     994:	011c5463          	bge	s8,a7,99c <.L2831+0xc>
     998:	4b90206f          	j	3650 <.L425>
     99c:	00a00c13          	li	s8,10
     9a0:	01dc5463          	bge	s8,t4,9a8 <.L2831+0x18>
     9a4:	7010806f          	j	98a4 <.L426>
     9a8:	00a15c03          	lhu	s8,10(sp)
     9ac:	06300c93          	li	s9,99
     9b0:	ffcc0c13          	addi	s8,s8,-4
     9b4:	01811523          	sh	s8,10(sp)
     9b8:	00dcc463          	blt	s9,a3,9c0 <.L427>
     9bc:	4b90206f          	j	3674 <.L432>

000009c0 <.L427>:
     9c0:	ed000c13          	li	s8,-304
     9c4:	018ac463          	blt	s5,s8,9cc <.L433>
     9c8:	0dd0506f          	j	62a4 <.L430>

000009cc <.L433>:
     9cc:	00c15c03          	lhu	s8,12(sp)
     9d0:	008c0c13          	addi	s8,s8,8
     9d4:	010c1c13          	slli	s8,s8,0x10
     9d8:	410c5c13          	srai	s8,s8,0x10

000009dc <.L431>:
     9dc:	01811623          	sh	s8,12(sp)
     9e0:	e2500c13          	li	s8,-475
     9e4:	01844463          	blt	s0,s8,9ec <.L446>
     9e8:	4c50206f          	j	36ac <.L443>

000009ec <.L446>:
     9ec:	25500c13          	li	s8,597
     9f0:	009c4463          	blt	s8,s1,9f8 <.L446+0xc>
     9f4:	1a90506f          	j	639c <.L444>
     9f8:	c2600c13          	li	s8,-986
     9fc:	0185c463          	blt	a1,s8,a04 <.L446+0x18>
     a00:	1310506f          	j	6330 <.L445>
     a04:	00e15c03          	lhu	s8,14(sp)
     a08:	008c0c13          	addi	s8,s8,8

00000a0c <.L2571>:
     a0c:	01811723          	sh	s8,14(sp)

00000a10 <.L451>:
     a10:	02200c13          	li	s8,34
     a14:	010c5463          	bge	s8,a6,a1c <.L2904>
     a18:	1310506f          	j	6348 <.L457>

00000a1c <.L2904>:
     a1c:	0f600c13          	li	s8,246
     a20:	006c5463          	bge	s8,t1,a28 <.L2904+0xc>
     a24:	62d0806f          	j	9850 <.L458>
     a28:	00815c03          	lhu	s8,8(sp)
     a2c:	002c0c13          	addi	s8,s8,2
     a30:	010c1c13          	slli	s8,s8,0x10
     a34:	410c5c13          	srai	s8,s8,0x10

00000a38 <.L459>:
     a38:	01811423          	sh	s8,8(sp)
     a3c:	0b500c13          	li	s8,181
     a40:	006c5463          	bge	s8,t1,a48 <.L465>
     a44:	12d0506f          	j	6370 <.L460>

00000a48 <.L465>:
     a48:	00200c13          	li	s8,2
     a4c:	01cc5463          	bge	s8,t3,a54 <.L465+0xc>
     a50:	0950506f          	j	62e4 <.L468>
     a54:	00b00c13          	li	s8,11
     a58:	013c5463          	bge	s8,s3,a60 <.L465+0x18>
     a5c:	5cd0806f          	j	9828 <.L469>
     a60:	00a15c03          	lhu	s8,10(sp)
     a64:	ff9c0c13          	addi	s8,s8,-7
     a68:	010c1c13          	slli	s8,s8,0x10
     a6c:	410c5c13          	srai	s8,s8,0x10

00000a70 <.L470>:
     a70:	01811523          	sh	s8,10(sp)
     a74:	2be00c13          	li	s8,702
     a78:	00dc5463          	bge	s8,a3,a80 <.L470+0x10>
     a7c:	3d90406f          	j	5654 <.L479>
     a80:	0a300c13          	li	s8,163
     a84:	00ec5463          	bge	s8,a4,a8c <.L470+0x1c>
     a88:	7380806f          	j	91c0 <.L480>
     a8c:	04d00c13          	li	s8,77
     a90:	00dc5463          	bge	s8,a3,a98 <.L470+0x28>
     a94:	38d0a06f          	j	b620 <.L481>
     a98:	00c15c03          	lhu	s8,12(sp)
     a9c:	e0800c93          	li	s9,-504
     aa0:	ffbc0c13          	addi	s8,s8,-5
     aa4:	01811623          	sh	s8,12(sp)
     aa8:	01944463          	blt	s0,s9,ab0 <.L482>
     aac:	6a90506f          	j	6954 <.L2289>

00000ab0 <.L482>:
     ab0:	25500c13          	li	s8,597
     ab4:	009c5463          	bge	s8,s1,abc <.L482+0xc>
     ab8:	4f10606f          	j	77a8 <.L499>
     abc:	df100c13          	li	s8,-527
     ac0:	018a4463          	blt	s4,s8,ac8 <.L482+0x18>
     ac4:	2510906f          	j	a514 <.L500>
     ac8:	00e15c03          	lhu	s8,14(sp)
     acc:	0a900c93          	li	s9,169
     ad0:	ff9c0c13          	addi	s8,s8,-7
     ad4:	01811723          	sh	s8,14(sp)
     ad8:	01ecc463          	blt	s9,t5,ae0 <.L482+0x30>
     adc:	1c90306f          	j	44a4 <.L501>
     ae0:	01e00c13          	li	s8,30
     ae4:	013c5463          	bge	s8,s3,aec <.L502>
     ae8:	1610306f          	j	4448 <.L2756>

00000aec <.L502>:
     aec:	00815c03          	lhu	s8,8(sp)
     af0:	34b00c93          	li	s9,843
     af4:	ffcc0c13          	addi	s8,s8,-4
     af8:	01811423          	sh	s8,8(sp)
     afc:	00ecc463          	blt	s9,a4,b04 <.L2575>
     b00:	1610306f          	j	4460 <.L516>

00000b04 <.L2575>:
     b04:	00001c37          	lui	s8,0x1
     b08:	a9dc0c13          	addi	s8,s8,-1379 # a9d <.L470+0x2d>
     b0c:	48dc52e3          	bge	s8,a3,1790 <.L517>

00000b10 <.L518>:
     b10:	00b00c13          	li	s8,11
     b14:	01cc5463          	bge	s8,t3,b1c <.L518+0xc>
     b18:	3ac0a06f          	j	aec4 <.L534>
     b1c:	00a15c03          	lhu	s8,10(sp)
     b20:	fffc0c13          	addi	s8,s8,-1
     b24:	010c1c13          	slli	s8,s8,0x10
     b28:	010c5c13          	srli	s8,s8,0x10

00000b2c <.L535>:
     b2c:	01811523          	sh	s8,10(sp)
     b30:	3fa00c13          	li	s8,1018
     b34:	00ec4463          	blt	s8,a4,b3c <.L535+0x10>
     b38:	6680806f          	j	91a0 <.L526>
     b3c:	00001c37          	lui	s8,0x1
     b40:	b13c0c13          	addi	s8,s8,-1261 # b13 <.L518+0x3>
     b44:	00dc4463          	blt	s8,a3,b4c <.L535+0x20>
     b48:	1d10306f          	j	4518 <.L532>
     b4c:	00c15c03          	lhu	s8,12(sp)
     b50:	009c0c13          	addi	s8,s8,9
     b54:	010c1c13          	slli	s8,s8,0x10
     b58:	410c5c13          	srai	s8,s8,0x10

00000b5c <.L538>:
     b5c:	01811623          	sh	s8,12(sp)
     b60:	e9900c13          	li	s8,-359
     b64:	4785d6e3          	bge	a1,s8,17d0 <.L541>

00000b68 <.L2775>:
     b68:	20200c13          	li	s8,514
     b6c:	016c5463          	bge	s8,s6,b74 <.L2775+0xc>
     b70:	0f40606f          	j	6c64 <.L542>
     b74:	14600c13          	li	s8,326
     b78:	007c4863          	blt	s8,t2,b88 <.L543>
     b7c:	00e15c03          	lhu	s8,14(sp)
     b80:	009c0c13          	addi	s8,s8,9
     b84:	01811723          	sh	s8,14(sp)

00000b88 <.L543>:
     b88:	3c084ee3          	bltz	a6,1764 <.L2757>

00000b8c <.L546>:
     b8c:	00095463          	bgez	s2,b94 <.L546+0x8>
     b90:	0cc0806f          	j	8c5c <.L2758>
     b94:	02200c13          	li	s8,34
     b98:	010c4463          	blt	s8,a6,ba0 <.L546+0x14>
     b9c:	3880506f          	j	5f24 <.L2577>
     ba0:	00815c03          	lhu	s8,8(sp)
     ba4:	ff7c0c13          	addi	s8,s8,-9
     ba8:	010c1c13          	slli	s8,s8,0x10
     bac:	410c5c13          	srai	s8,s8,0x10

00000bb0 <.L552>:
     bb0:	01811423          	sh	s8,8(sp)
     bb4:	0f000c13          	li	s8,240
     bb8:	446c5ce3          	bge	s8,t1,1810 <.L549>
     bbc:	d6c00c13          	li	s8,-660
     bc0:	018ad463          	bge	s5,s8,bc8 <.L552+0x18>
     bc4:	1340806f          	j	8cf8 <.L2759>
     bc8:	18000c13          	li	s8,384
     bcc:	009c5863          	bge	s8,s1,bdc <.L567>
     bd0:	00a15c03          	lhu	s8,10(sp)
     bd4:	007c0c13          	addi	s8,s8,7

00000bd8 <.L2578>:
     bd8:	01811523          	sh	s8,10(sp)

00000bdc <.L567>:
     bdc:	17000c13          	li	s8,368
     be0:	00dc5463          	bge	s8,a3,be8 <.L563>
     be4:	4350406f          	j	5818 <.L575>

00000be8 <.L563>:
     be8:	f5200c13          	li	s8,-174
     bec:	0185c463          	blt	a1,s8,bf4 <.L563+0xc>
     bf0:	7680606f          	j	7358 <.L576>
     bf4:	03200c13          	li	s8,50
     bf8:	00fc5463          	bge	s8,a5,c00 <.L563+0x18>
     bfc:	6240906f          	j	a220 <.L577>
     c00:	00c15c03          	lhu	s8,12(sp)
     c04:	002c0c13          	addi	s8,s8,2
     c08:	010c1c13          	slli	s8,s8,0x10
     c0c:	010c5c13          	srli	s8,s8,0x10

00000c10 <.L578>:
     c10:	01811623          	sh	s8,12(sp)
     c14:	e0800c13          	li	s8,-504
     c18:	01845463          	bge	s0,s8,c20 <.L581>
     c1c:	42d0406f          	j	5848 <.L584>

00000c20 <.L581>:
     c20:	0de00c13          	li	s8,222
     c24:	012c5463          	bge	s8,s2,c2c <.L581+0xc>
     c28:	2250706f          	j	864c <.L586>
     c2c:	02600c13          	li	s8,38
     c30:	42dc4ee3          	blt	s8,a3,186c <.L585>

00000c34 <.L607>:
     c34:	0a900c13          	li	s8,169
     c38:	45ec54e3          	bge	s8,t5,1880 <.L600>

00000c3c <.L610>:
     c3c:	10700c13          	li	s8,263
     c40:	007c4463          	blt	s8,t2,c48 <.L610+0xc>
     c44:	2c90506f          	j	670c <.L603>
     c48:	e4300c13          	li	s8,-445
     c4c:	01845463          	bge	s0,s8,c54 <.L617>
     c50:	42d0406f          	j	587c <.L602>

00000c54 <.L617>:
     c54:	00815c03          	lhu	s8,8(sp)
     c58:	004c0c13          	addi	s8,s8,4
     c5c:	01811423          	sh	s8,8(sp)

00000c60 <.L614>:
     c60:	03900c13          	li	s8,57
     c64:	44ec42e3          	blt	s8,a4,18a8 <.L618>

00000c68 <.L2777>:
     c68:	00900c13          	li	s8,9
     c6c:	011c5463          	bge	s8,a7,c74 <.L2777+0xc>
     c70:	1f10506f          	j	6660 <.L619>
     c74:	fff00c13          	li	s8,-1
     c78:	01875463          	bge	a4,s8,c80 <.L2777+0x18>
     c7c:	6900a06f          	j	b30c <.L2760>
     c80:	00a15c03          	lhu	s8,10(sp)
     c84:	08900c93          	li	s9,137
     c88:	006c0c13          	addi	s8,s8,6
     c8c:	01811523          	sh	s8,10(sp)
     c90:	00dcd463          	bge	s9,a3,c98 <.L621>
     c94:	5c50606f          	j	7a58 <.L2582>

00000c98 <.L621>:
     c98:	03700c13          	li	s8,55
     c9c:	00fc5463          	bge	s8,a5,ca4 <.L2274>
     ca0:	1f10506f          	j	6690 <.L634>

00000ca4 <.L2274>:
     ca4:	00c15c03          	lhu	s8,12(sp)
     ca8:	ff7c0c13          	addi	s8,s8,-9
     cac:	01811623          	sh	s8,12(sp)

00000cb0 <.L636>:
     cb0:	03000c13          	li	s8,48
     cb4:	45fc4ae3          	blt	s8,t6,1908 <.L646>

00000cb8 <.L2778>:
     cb8:	00e15c03          	lhu	s8,14(sp)
     cbc:	0a900c93          	li	s9,169
     cc0:	0009d463          	bgez	s3,cc8 <.L2586>
     cc4:	7800a06f          	j	b444 <.L2761>

00000cc8 <.L2586>:
     cc8:	009c0c13          	addi	s8,s8,9
     ccc:	01811723          	sh	s8,14(sp)
     cd0:	45ecdce3          	bge	s9,t5,1928 <.L648>

00000cd4 <.L2584>:
     cd4:	01e00c13          	li	s8,30
     cd8:	013c5463          	bge	s8,s3,ce0 <.L652>
     cdc:	50c0506f          	j	61e8 <.L653>

00000ce0 <.L652>:
     ce0:	00815c03          	lhu	s8,8(sp)
     ce4:	fffc0c13          	addi	s8,s8,-1
     ce8:	01811423          	sh	s8,8(sp)

00000cec <.L649>:
     cec:	0b500c13          	li	s8,181
     cf0:	466c40e3          	blt	s8,t1,1950 <.L659>

00000cf4 <.L2779>:
     cf4:	00b00c13          	li	s8,11
     cf8:	011c5463          	bge	s8,a7,d00 <.L2779+0xc>
     cfc:	4140606f          	j	7110 <.L660>
     d00:	f8700c13          	li	s8,-121
     d04:	01844463          	blt	s0,s8,d0c <.L2779+0x18>
     d08:	2e50906f          	j	a7ec <.L661>
     d0c:	00a15c03          	lhu	s8,10(sp)
     d10:	006c0c13          	addi	s8,s8,6
     d14:	010c1c13          	slli	s8,s8,0x10
     d18:	410c5c13          	srai	s8,s8,0x10

00000d1c <.L662>:
     d1c:	01811523          	sh	s8,10(sp)
     d20:	27a00c13          	li	s8,634
     d24:	46dc40e3          	blt	s8,a3,1984 <.L667>

00000d28 <.L2780>:
     d28:	02200c13          	li	s8,34
     d2c:	01dc5463          	bge	s8,t4,d34 <.L2780+0xc>
     d30:	7540706f          	j	8484 <.L668>
     d34:	ff400c13          	li	s8,-12
     d38:	01864463          	blt	a2,s8,d40 <.L2780+0x18>
     d3c:	7350806f          	j	9c70 <.L669>
     d40:	00c15c03          	lhu	s8,12(sp)
     d44:	007c0c13          	addi	s8,s8,7
     d48:	01811623          	sh	s8,12(sp)

00000d4c <.L670>:
     d4c:	d8200c13          	li	s8,-638
     d50:	4585dee3          	bge	a1,s8,19ac <.L673>

00000d54 <.L2781>:
     d54:	25500c13          	li	s8,597
     d58:	009c5463          	bge	s8,s1,d60 <.L2781+0xc>
     d5c:	4bc0506f          	j	6218 <.L674>
     d60:	47700c13          	li	s8,1143
     d64:	007c5463          	bge	s8,t2,d6c <.L2781+0x18>
     d68:	4190806f          	j	9980 <.L675>
     d6c:	00e15c03          	lhu	s8,14(sp)
     d70:	00ac0c13          	addi	s8,s8,10
     d74:	010c1c13          	slli	s8,s8,0x10
     d78:	410c5c13          	srai	s8,s8,0x10

00000d7c <.L676>:
     d7c:	01811723          	sh	s8,14(sp)
     d80:	44084ee3          	bltz	a6,19dc <.L2269>

00000d84 <.L682>:
     d84:	00a00c13          	li	s8,10
     d88:	012c5463          	bge	s8,s2,d90 <.L682+0xc>
     d8c:	1d40506f          	j	5f60 <.L693>
     d90:	02e00c13          	li	s8,46
     d94:	01dc5463          	bge	s8,t4,d9c <.L682+0x18>
     d98:	7280806f          	j	94c0 <.L694>
     d9c:	00815c03          	lhu	s8,8(sp)
     da0:	006c0c13          	addi	s8,s8,6
     da4:	010c1c13          	slli	s8,s8,0x10
     da8:	410c5c13          	srai	s8,s8,0x10

00000dac <.L692>:
     dac:	01811423          	sh	s8,8(sp)
     db0:	07200c13          	li	s8,114
     db4:	00ec5463          	bge	s8,a4,dbc <.L685>
     db8:	70c0406f          	j	54c4 <.L696>

00000dbc <.L685>:
     dbc:	ffa00c13          	li	s8,-6
     dc0:	01865463          	bge	a2,s8,dc8 <.L685+0xc>
     dc4:	07c0706f          	j	7e40 <.L688>
     dc8:	ed100c13          	li	s8,-303
     dcc:	018ac463          	blt	s5,s8,dd4 <.L685+0x18>
     dd0:	0e00a06f          	j	aeb0 <.L698>
     dd4:	00a15c03          	lhu	s8,10(sp)
     dd8:	00ac0c13          	addi	s8,s8,10
     ddc:	010c1c13          	slli	s8,s8,0x10
     de0:	010c5c13          	srli	s8,s8,0x10

00000de4 <.L699>:
     de4:	01811523          	sh	s8,10(sp)

00000de8 <.L703>:
     de8:	01c51c83          	lh	s9,28(a0)
     dec:	03c00c13          	li	s8,60
     df0:	019c5463          	bge	s8,s9,df8 <.L703+0x10>
     df4:	2d10706f          	j	88c4 <.L708>
     df8:	03600c13          	li	s8,54
     dfc:	01fc5463          	bge	s8,t6,e04 <.L703+0x1c>
     e00:	7380906f          	j	a538 <.L709>
     e04:	00c15c03          	lhu	s8,12(sp)
     e08:	ffec0c13          	addi	s8,s8,-2
     e0c:	010c1c13          	slli	s8,s8,0x10
     e10:	410c5c13          	srai	s8,s8,0x10

00000e14 <.L706>:
     e14:	01811623          	sh	s8,12(sp)
     e18:	03900c13          	li	s8,57
     e1c:	44fc44e3          	blt	s8,a5,1a64 <.L710>

00000e20 <.L2783>:
     e20:	feb00c13          	li	s8,-21
     e24:	01834463          	blt	t1,s8,e2c <.L2783+0xc>
     e28:	2b10706f          	j	88d8 <.L711>
     e2c:	07700c13          	li	s8,119
     e30:	007c5463          	bge	s8,t2,e38 <.L2783+0x18>
     e34:	4b40206f          	j	32e8 <.L712>
     e38:	00e15c03          	lhu	s8,14(sp)
     e3c:	0a900c93          	li	s9,169
     e40:	ffac0c13          	addi	s8,s8,-6
     e44:	01811723          	sh	s8,14(sp)
     e48:	01ecc463          	blt	s9,t5,e50 <.L2783+0x30>
     e4c:	5d90506f          	j	6c24 <.L2731>
     e50:	02400c13          	li	s8,36
     e54:	007c5463          	bge	s8,t2,e5c <.L729>
     e58:	4b40206f          	j	330c <.L714>

00000e5c <.L729>:
     e5c:	00815c03          	lhu	s8,8(sp)
     e60:	004c0c13          	addi	s8,s8,4
     e64:	01811423          	sh	s8,8(sp)

00000e68 <.L715>:
     e68:	00200c13          	li	s8,2
     e6c:	01cc5463          	bge	s8,t3,e74 <.L715+0xc>
     e70:	5d90506f          	j	6c48 <.L736>
     e74:	03b00c13          	li	s8,59
     e78:	00fc4463          	blt	s8,a5,e80 <.L715+0x18>
     e7c:	4d00906f          	j	a34c <.L2265>
     e80:	00a15c03          	lhu	s8,10(sp)
     e84:	ff9c0c13          	addi	s8,s8,-7
     e88:	010c1c13          	slli	s8,s8,0x10
     e8c:	410c5c13          	srai	s8,s8,0x10

00000e90 <.L745>:
     e90:	01811523          	sh	s8,10(sp)
     e94:	0dd00c13          	li	s8,221
     e98:	00dc4463          	blt	s8,a3,ea0 <.L745+0x10>
     e9c:	3100406f          	j	51ac <.L749>
     ea0:	25b00c13          	li	s8,603
     ea4:	44ec5ae3          	bge	s8,a4,1af8 <.L750>
     ea8:	ddb00c13          	li	s8,-549
     eac:	018ad463          	bge	s5,s8,eb4 <.L745+0x24>
     eb0:	0080406f          	j	4eb8 <.L772>
     eb4:	00c15c03          	lhu	s8,12(sp)
     eb8:	03e00c93          	li	s9,62
     ebc:	ff7c0c13          	addi	s8,s8,-9
     ec0:	01811623          	sh	s8,12(sp)
     ec4:	46fcd2e3          	bge	s9,a5,1b28 <.L751>
     ec8:	fec00c13          	li	s8,-20
     ecc:	01864463          	blt	a2,s8,ed4 <.L780>
     ed0:	54d0706f          	j	8c1c <.L2762>

00000ed4 <.L780>:
     ed4:	08900c13          	li	s8,137
     ed8:	012c5463          	bge	s8,s2,ee0 <.L780+0xc>
     edc:	1fc0906f          	j	a0d8 <.L782>
     ee0:	00e15c03          	lhu	s8,14(sp)
     ee4:	ffe00c93          	li	s9,-2
     ee8:	ff9c0c13          	addi	s8,s8,-7
     eec:	01811723          	sh	s8,14(sp)
     ef0:	01985463          	bge	a6,s9,ef8 <.L784>
     ef4:	72d0306f          	j	4e20 <.L783>

00000ef8 <.L784>:
     ef8:	00815c03          	lhu	s8,8(sp)
     efc:	002c0c13          	addi	s8,s8,2
     f00:	010c1c13          	slli	s8,s8,0x10
     f04:	410c5c13          	srai	s8,s8,0x10

00000f08 <.L778>:
     f08:	01811423          	sh	s8,8(sp)
     f0c:	03300c13          	li	s8,51
     f10:	47fc5ae3          	bge	s8,t6,1b84 <.L788>

00000f14 <.L794>:
     f14:	01400c13          	li	s8,20
     f18:	010c4463          	blt	s8,a6,f20 <.L794+0xc>
     f1c:	7350306f          	j	4e50 <.L789>
     f20:	00b00c13          	li	s8,11
     f24:	011c5463          	bge	s8,a7,f2c <.L794+0x18>
     f28:	7a80806f          	j	96d0 <.L804>
     f2c:	00a15c03          	lhu	s8,10(sp)
     f30:	ffc00c93          	li	s9,-4
     f34:	005c0c13          	addi	s8,s8,5
     f38:	01811523          	sh	s8,10(sp)
     f3c:	47964ae3          	blt	a2,s9,1bb0 <.L797>

00000f40 <.L812>:
     f40:	00c15c03          	lhu	s8,12(sp)
     f44:	03e00c93          	li	s9,62
     f48:	ff7c0c13          	addi	s8,s8,-9
     f4c:	01811623          	sh	s8,12(sp)
     f50:	00fcc463          	blt	s9,a5,f58 <.L817>
     f54:	2300406f          	j	5184 <.L816>

00000f58 <.L817>:
     f58:	00e15c03          	lhu	s8,14(sp)
     f5c:	009c0c13          	addi	s8,s8,9
     f60:	010c1c13          	slli	s8,s8,0x10
     f64:	410c5c13          	srai	s8,s8,0x10

00000f68 <.L820>:
     f68:	01811723          	sh	s8,14(sp)
     f6c:	01f00c13          	li	s8,31
     f70:	493c4ee3          	blt	s8,s3,1c0c <.L822>

00000f74 <.L2785>:
     f74:	01c04463          	bgtz	t3,f7c <.L2785+0x8>
     f78:	0e00806f          	j	9058 <.L2763>
     f7c:	00300c13          	li	s8,3
     f80:	01cc4463          	blt	s8,t3,f88 <.L2785+0x14>
     f84:	17c0606f          	j	7100 <.L824>
     f88:	00815c03          	lhu	s8,8(sp)
     f8c:	001c0c13          	addi	s8,s8,1
     f90:	01811423          	sh	s8,8(sp)

00000f94 <.L825>:
     f94:	1ac00c13          	li	s8,428
     f98:	496c48e3          	blt	s8,s6,1c28 <.L826>

00000f9c <.L2786>:
     f9c:	ff900c13          	li	s8,-7
     fa0:	01864463          	blt	a2,s8,fa8 <.L2786+0xc>
     fa4:	4f90506f          	j	6c9c <.L827>
     fa8:	00100c13          	li	s8,1
     fac:	01cc4463          	blt	s8,t3,fb4 <.L2786+0x18>
     fb0:	3bc0a06f          	j	b36c <.L2764>
     fb4:	00a15c03          	lhu	s8,10(sp)
     fb8:	ff8c0c13          	addi	s8,s8,-8
     fbc:	010c1c13          	slli	s8,s8,0x10
     fc0:	410c5c13          	srai	s8,s8,0x10

00000fc4 <.L829>:
     fc4:	01811523          	sh	s8,10(sp)
     fc8:	27a00c13          	li	s8,634
     fcc:	48dc48e3          	blt	s8,a3,1c5c <.L837>

00000fd0 <.L2787>:
     fd0:	02200c13          	li	s8,34
     fd4:	01dc5463          	bge	s8,t4,fdc <.L2787+0xc>
     fd8:	4f50506f          	j	6ccc <.L833>
     fdc:	ff000c13          	li	s8,-16
     fe0:	01865863          	bge	a2,s8,ff0 <.L838>
     fe4:	00c15c03          	lhu	s8,12(sp)
     fe8:	00ac0c13          	addi	s8,s8,10
     fec:	01811623          	sh	s8,12(sp)

00000ff0 <.L838>:
     ff0:	d2a00c13          	li	s8,-726
     ff4:	0185d463          	bge	a1,s8,ffc <.L840>
     ff8:	1c90406f          	j	59c0 <.L850>

00000ffc <.L840>:
     ffc:	eea00c13          	li	s8,-278
    1000:	018a4463          	blt	s4,s8,1008 <.L840+0xc>
    1004:	5090506f          	j	6d0c <.L845>
    1008:	02700c13          	li	s8,39
    100c:	48dc46e3          	blt	s8,a3,1c98 <.L852>

00001010 <.L846>:
    1010:	0a900c13          	li	s8,169
    1014:	49ec5ce3          	bge	s8,t5,1cac <.L860>

00001018 <.L2788>:
    1018:	01e00c13          	li	s8,30
    101c:	013c5463          	bge	s8,s3,1024 <.L2788+0xc>
    1020:	5190506f          	j	6d38 <.L858>
    1024:	03c00c13          	li	s8,60
    1028:	00fc4463          	blt	s8,a5,1030 <.L2788+0x18>
    102c:	5700706f          	j	859c <.L864>
    1030:	00815c03          	lhu	s8,8(sp)
    1034:	005c0c13          	addi	s8,s8,5
    1038:	01811423          	sh	s8,8(sp)

0000103c <.L859>:
    103c:	0b500c13          	li	s8,181
    1040:	486c4ae3          	blt	s8,t1,1cd4 <.L865>

00001044 <.L2790>:
    1044:	00300c13          	li	s8,3
    1048:	01cc4463          	blt	s8,t3,1050 <.L2790+0xc>
    104c:	4000506f          	j	644c <.L2261>
    1050:	47000c13          	li	s8,1136
    1054:	007c5463          	bge	s8,t2,105c <.L2790+0x18>
    1058:	4990906f          	j	acf0 <.L875>
    105c:	00a15c03          	lhu	s8,10(sp)
    1060:	ff8c0c13          	addi	s8,s8,-8
    1064:	01811523          	sh	s8,10(sp)

00001068 <.L874>:
    1068:	f6a00c13          	li	s8,-150
    106c:	4985c6e3          	blt	a1,s8,1cf8 <.L878>
    1070:	f5b00c13          	li	s8,-165
    1074:	0182d463          	bge	t0,s8,107c <.L874+0x14>
    1078:	4400506f          	j	64b8 <.L871>
    107c:	0ed00c13          	li	s8,237
    1080:	00dc4463          	blt	s8,a3,1088 <.L874+0x20>
    1084:	3f40506f          	j	6478 <.L894>
    1088:	00c15c03          	lhu	s8,12(sp)
    108c:	02f00c93          	li	s9,47
    1090:	003c0c13          	addi	s8,s8,3
    1094:	01811623          	sh	s8,12(sp)
    1098:	490cc6e3          	blt	s9,a6,1d24 <.L889>

0000109c <.L888>:
    109c:	03800c13          	li	s8,56
    10a0:	01fc5463          	bge	s8,t6,10a8 <.L890>
    10a4:	3f40506f          	j	6498 <.L881>

000010a8 <.L890>:
    10a8:	00e15c03          	lhu	s8,14(sp)
    10ac:	ff8c0c13          	addi	s8,s8,-8
    10b0:	010c1c13          	slli	s8,s8,0x10
    10b4:	410c5c13          	srai	s8,s8,0x10

000010b8 <.L896>:
    10b8:	01811723          	sh	s8,14(sp)
    10bc:	ec600c13          	li	s8,-314
    10c0:	498446e3          	blt	s0,s8,1d4c <.L904>

000010c4 <.L2791>:
    10c4:	ebf00c13          	li	s8,-321
    10c8:	0185c463          	blt	a1,s8,10d0 <.L2791+0xc>
    10cc:	6190706f          	j	8ee4 <.L908>
    10d0:	03c00c13          	li	s8,60
    10d4:	00fc5463          	bge	s8,a5,10dc <.L2595>
    10d8:	6ac0806f          	j	9784 <.L901>

000010dc <.L2595>:
    10dc:	00815c03          	lhu	s8,8(sp)
    10e0:	006c0c13          	addi	s8,s8,6
    10e4:	01811423          	sh	s8,8(sp)

000010e8 <.L906>:
    10e8:	03400c13          	li	s8,52
    10ec:	49dc46e3          	blt	s8,t4,1d78 <.L909>

000010f0 <.L2793>:
    10f0:	ff800c13          	li	s8,-8
    10f4:	01864463          	blt	a2,s8,10fc <.L2793+0xc>
    10f8:	6600606f          	j	7758 <.L910>
    10fc:	01e00c13          	li	s8,30
    1100:	011c5463          	bge	s8,a7,1108 <.L2793+0x18>
    1104:	6740606f          	j	7778 <.L911>
    1108:	00a15c03          	lhu	s8,10(sp)
    110c:	ffdc0c13          	addi	s8,s8,-3
    1110:	010c1c13          	slli	s8,s8,0x10
    1114:	410c5c13          	srai	s8,s8,0x10

00001118 <.L912>:
    1118:	01811523          	sh	s8,10(sp)
    111c:	03300c13          	li	s8,51
    1120:	00fc4463          	blt	s8,a5,1128 <.L914>
    1124:	2000406f          	j	5324 <.L923>

00001128 <.L914>:
    1128:	d7800c13          	li	s8,-648
    112c:	018a5463          	bge	s4,s8,1134 <.L914+0xc>
    1130:	04d0606f          	j	797c <.L927>
    1134:	01500c93          	li	s9,21
    1138:	47dccee3          	blt	s9,t4,1db4 <.L920>
    113c:	00c15c03          	lhu	s8,12(sp)
    1140:	03900d13          	li	s10,57
    1144:	001c0c13          	addi	s8,s8,1
    1148:	01811623          	sh	s8,12(sp)
    114c:	48fd44e3          	blt	s10,a5,1dd4 <.L941>
    1150:	006cc463          	blt	s9,t1,1158 <.L933>
    1154:	1840206f          	j	32d8 <.L934>

00001158 <.L933>:
    1158:	27700c13          	li	s8,631
    115c:	012c5463          	bge	s8,s2,1164 <.L933+0xc>
    1160:	5600806f          	j	96c0 <.L942>
    1164:	00e15c03          	lhu	s8,14(sp)
    1168:	ff7c0c13          	addi	s8,s8,-9
    116c:	01811723          	sh	s8,14(sp)

00001170 <.L940>:
    1170:	00c00c13          	li	s8,12
    1174:	493c44e3          	blt	s8,s3,1dfc <.L935>

00001178 <.L2794>:
    1178:	1b000c13          	li	s8,432
    117c:	009c5463          	bge	s8,s1,1184 <.L2794+0xc>
    1180:	55c0706f          	j	86dc <.L946>
    1184:	10600c13          	li	s8,262
    1188:	00ec4463          	blt	s8,a4,1190 <.L2794+0x18>
    118c:	5490506f          	j	6ed4 <.L952>
    1190:	00815c03          	lhu	s8,8(sp)
    1194:	03300c93          	li	s9,51
    1198:	008c0c13          	addi	s8,s8,8
    119c:	01811423          	sh	s8,8(sp)
    11a0:	01fcc463          	blt	s9,t6,11a8 <.L949>
    11a4:	5580306f          	j	46fc <.L956>

000011a8 <.L949>:
    11a8:	03b00c13          	li	s8,59
    11ac:	00fc5463          	bge	s8,a5,11b4 <.L949+0xc>
    11b0:	7e80906f          	j	a998 <.L973>
    11b4:	00a15c03          	lhu	s8,10(sp)
    11b8:	005c0c13          	addi	s8,s8,5
    11bc:	010c1c13          	slli	s8,s8,0x10
    11c0:	410c5c13          	srai	s8,s8,0x10

000011c4 <.L969>:
    11c4:	01811523          	sh	s8,10(sp)
    11c8:	03900c13          	li	s8,57
    11cc:	00dc5463          	bge	s8,a3,11d4 <.L960>
    11d0:	4d10506f          	j	6ea0 <.L970>

000011d4 <.L960>:
    11d4:	01300c13          	li	s8,19
    11d8:	491c44e3          	blt	s8,a7,1e60 <.L974>

000011dc <.L2795>:
    11dc:	20f00c13          	li	s8,527
    11e0:	009c5463          	bge	s8,s1,11e8 <.L2795+0xc>
    11e4:	78c0906f          	j	a970 <.L975>
    11e8:	00c15c03          	lhu	s8,12(sp)
    11ec:	cf000c93          	li	s9,-784
    11f0:	ffec0c13          	addi	s8,s8,-2
    11f4:	01811623          	sh	s8,12(sp)
    11f8:	4995dae3          	bge	a1,s9,1e8c <.L976>

000011fc <.L982>:
    11fc:	e2c00c13          	li	s8,-468
    1200:	0182c463          	blt	t0,s8,1208 <.L982+0xc>
    1204:	73c0906f          	j	a940 <.L2765>
    1208:	00e15c03          	lhu	s8,14(sp)
    120c:	ffec0c13          	addi	s8,s8,-2
    1210:	01811723          	sh	s8,14(sp)

00001214 <.L989>:
    1214:	00400c13          	li	s8,4
    1218:	011c4863          	blt	s8,a7,1228 <.L1002>
    121c:	00815c03          	lhu	s8,8(sp)
    1220:	00cc0c13          	addi	s8,s8,12
    1224:	01811423          	sh	s8,8(sp)

00001228 <.L1002>:
    1228:	1ac00c13          	li	s8,428
    122c:	4b6c42e3          	blt	s8,s6,1ed0 <.L1004>

00001230 <.L2796>:
    1230:	00400c13          	li	s8,4
    1234:	01cc5463          	bge	s8,t3,123c <.L2796+0xc>
    1238:	4610406f          	j	5e98 <.L1005>
    123c:	16a00c13          	li	s8,362
    1240:	007c5463          	bge	s8,t2,1248 <.L2796+0x18>
    1244:	4950906f          	j	aed8 <.L1006>
    1248:	00a15c03          	lhu	s8,10(sp)
    124c:	003c0c13          	addi	s8,s8,3
    1250:	010c1c13          	slli	s8,s8,0x10
    1254:	410c5c13          	srai	s8,s8,0x10

00001258 <.L1007>:
    1258:	01811523          	sh	s8,10(sp)
    125c:	03d00c13          	li	s8,61
    1260:	4afc42e3          	blt	s8,a5,1f04 <.L1017>

00001264 <.L1013>:
    1264:	00100c13          	li	s8,1
    1268:	01cc5463          	bge	s8,t3,1270 <.L1013+0xc>
    126c:	4590406f          	j	5ec4 <.L1016>
    1270:	e4e00c13          	li	s8,-434
    1274:	0185c463          	blt	a1,s8,127c <.L1013+0x18>
    1278:	1500a06f          	j	b3c8 <.L1018>
    127c:	00c15c03          	lhu	s8,12(sp)
    1280:	004c0c13          	addi	s8,s8,4
    1284:	010c1c13          	slli	s8,s8,0x10
    1288:	410c5c13          	srai	s8,s8,0x10

0000128c <.L1019>:
    128c:	01811623          	sh	s8,12(sp)
    1290:	03900c13          	li	s8,57
    1294:	48fc4ae3          	blt	s8,a5,1f28 <.L1014>
    1298:	03200c13          	li	s8,50
    129c:	01dc4463          	blt	s8,t4,12a4 <.L1019+0x18>
    12a0:	4490406f          	j	5ee8 <.L1026>
    12a4:	ebb00c13          	li	s8,-325
    12a8:	0182c463          	blt	t0,s8,12b0 <.L1019+0x24>
    12ac:	3850906f          	j	ae30 <.L1029>
    12b0:	00e15c03          	lhu	s8,14(sp)
    12b4:	ffbc0c13          	addi	s8,s8,-5
    12b8:	010c1c13          	slli	s8,s8,0x10
    12bc:	410c5c13          	srai	s8,s8,0x10

000012c0 <.L1028>:
    12c0:	01811723          	sh	s8,14(sp)
    12c4:	01f00c13          	li	s8,31
    12c8:	013c4463          	blt	s8,s3,12d0 <.L1037>
    12cc:	7e10306f          	j	52ac <.L1038>

000012d0 <.L1037>:
    12d0:	00600c13          	li	s8,6
    12d4:	011c5863          	bge	s8,a7,12e4 <.L1043>

000012d8 <.L1046>:
    12d8:	00815c03          	lhu	s8,8(sp)
    12dc:	ff7c0c13          	addi	s8,s8,-9
    12e0:	01811423          	sh	s8,8(sp)

000012e4 <.L1043>:
    12e4:	03100c13          	li	s8,49
    12e8:	01fc5463          	bge	s8,t6,12f0 <.L2893>
    12ec:	7e90306f          	j	52d4 <.L1051>

000012f0 <.L2893>:
    12f0:	1f500c13          	li	s8,501
    12f4:	00ec5463          	bge	s8,a4,12fc <.L1052>
    12f8:	76d0406f          	j	6264 <.L1042>

000012fc <.L1052>:
    12fc:	ff900c13          	li	s8,-7
    1300:	01884463          	blt	a6,s8,1308 <.L1052+0xc>
    1304:	0500806f          	j	9354 <.L1041>
    1308:	00a15c03          	lhu	s8,10(sp)
    130c:	ffec0c13          	addi	s8,s8,-2
    1310:	010c1c13          	slli	s8,s8,0x10
    1314:	410c5c13          	srai	s8,s8,0x10

00001318 <.L1045>:
    1318:	01811523          	sh	s8,10(sp)
    131c:	0c100c13          	li	s8,193
    1320:	469c48e3          	blt	s8,s1,1f90 <.L1056>

00001324 <.L2797>:
    1324:	03800c13          	li	s8,56
    1328:	00fc5463          	bge	s8,a5,1330 <.L2797+0xc>
    132c:	2d10506f          	j	6dfc <.L1057>
    1330:	ff900c93          	li	s9,-7
    1334:	01964463          	blt	a2,s9,133c <.L2797+0x18>
    1338:	7780706f          	j	8ab0 <.L1058>
    133c:	00c15c83          	lhu	s9,12(sp)
    1340:	02f00d13          	li	s10,47
    1344:	005c8c93          	addi	s9,s9,5
    1348:	01911623          	sh	s9,12(sp)
    134c:	010d4463          	blt	s10,a6,1354 <.L2797+0x30>
    1350:	2780206f          	j	35c8 <.L2732>
    1354:	e1900c13          	li	s8,-487
    1358:	018a4463          	blt	s4,s8,1360 <.L1062>
    135c:	0d90a06f          	j	bc34 <.L2766>

00001360 <.L1062>:
    1360:	00300c13          	li	s8,3
    1364:	00dc5463          	bge	s8,a3,136c <.L1062+0xc>
    1368:	5600906f          	j	a8c8 <.L1073>
    136c:	00815c03          	lhu	s8,8(sp)
    1370:	003c0c13          	addi	s8,s8,3
    1374:	010c1c13          	slli	s8,s8,0x10
    1378:	410c5c13          	srai	s8,s8,0x10

0000137c <.L1092>:
    137c:	01811423          	sh	s8,8(sp)
    1380:	30000c13          	li	s8,768
    1384:	4bec44e3          	blt	s8,t5,202c <.L1095>

00001388 <.L1085>:
    1388:	ff800c13          	li	s8,-8
    138c:	01864463          	blt	a2,s8,1394 <.L1085+0xc>
    1390:	7740706f          	j	8b04 <.L1096>
    1394:	1dc00c13          	li	s8,476
    1398:	016c4863          	blt	s8,s6,13a8 <.L1097>
    139c:	00a15c03          	lhu	s8,10(sp)
    13a0:	ff9c0c13          	addi	s8,s8,-7
    13a4:	01811523          	sh	s8,10(sp)

000013a8 <.L1097>:
    13a8:	04900c13          	li	s8,73
    13ac:	011c5463          	bge	s8,a7,13b4 <.L1097+0xc>
    13b0:	0240406f          	j	53d4 <.L1105>
    13b4:	02000c13          	li	s8,32
    13b8:	01dc5463          	bge	s8,t4,13c0 <.L1097+0x18>
    13bc:	2e50606f          	j	7ea0 <.L1103>
    13c0:	16300c13          	li	s8,355
    13c4:	4bec42e3          	blt	s8,t5,2068 <.L1102>
    13c8:	00c15c03          	lhu	s8,12(sp)
    13cc:	fffc0c13          	addi	s8,s8,-1
    13d0:	01811623          	sh	s8,12(sp)

000013d4 <.L1108>:
    13d4:	e4a00c13          	li	s8,-438
    13d8:	4b82d2e3          	bge	t0,s8,207c <.L1112>

000013dc <.L2798>:
    13dc:	03d00c13          	li	s8,61
    13e0:	00fc4463          	blt	s8,a5,13e8 <.L2798+0xc>
    13e4:	0440606f          	j	7428 <.L1113>
    13e8:	01100c13          	li	s8,17
    13ec:	011c5463          	bge	s8,a7,13f4 <.L2798+0x18>
    13f0:	0200406f          	j	5410 <.L1114>
    13f4:	00e15c03          	lhu	s8,14(sp)
    13f8:	01500c93          	li	s9,21
    13fc:	008c0c13          	addi	s8,s8,8
    1400:	01811723          	sh	s8,14(sp)
    1404:	4a7cd2e3          	bge	s9,t2,20a8 <.L1118>

00001408 <.L2602>:
    1408:	0fd00c13          	li	s8,253
    140c:	007c4463          	blt	s8,t2,1414 <.L1120>
    1410:	18c0406f          	j	559c <.L1119>

00001414 <.L1120>:
    1414:	e4300c13          	li	s8,-445
    1418:	01844463          	blt	s0,s8,1420 <.L1120+0xc>
    141c:	5180806f          	j	9934 <.L1131>
    1420:	00815c03          	lhu	s8,8(sp)
    1424:	ff7c0c13          	addi	s8,s8,-9
    1428:	010c1c13          	slli	s8,s8,0x10
    142c:	410c5c13          	srai	s8,s8,0x10

00001430 <.L1127>:
    1430:	01811423          	sh	s8,8(sp)
    1434:	03300c13          	li	s8,51
    1438:	4bfc42e3          	blt	s8,t6,20dc <.L1129>

0000143c <.L2799>:
    143c:	fe200c13          	li	s8,-30
    1440:	01864463          	blt	a2,s8,1448 <.L2799+0xc>
    1444:	64c0606f          	j	7a90 <.L1128>
    1448:	e3d00c13          	li	s8,-451
    144c:	01844463          	blt	s0,s8,1454 <.L2799+0x18>
    1450:	5080806f          	j	9958 <.L1132>
    1454:	00a15c03          	lhu	s8,10(sp)
    1458:	ffac0c13          	addi	s8,s8,-6
    145c:	010c1c13          	slli	s8,s8,0x10
    1460:	410c5c13          	srai	s8,s8,0x10

00001464 <.L1133>:
    1464:	01811523          	sh	s8,10(sp)
    1468:	00100c13          	li	s8,1
    146c:	4bcc52e3          	bge	s8,t3,2110 <.L2767>

00001470 <.L1138>:
    1470:	01500c13          	li	s8,21
    1474:	01dc5463          	bge	s8,t4,147c <.L1138+0xc>
    1478:	2910406f          	j	5f08 <.L1142>
    147c:	20f00c13          	li	s8,527
    1480:	016c4463          	blt	s8,s6,1488 <.L1138+0x18>
    1484:	2f90406f          	j	5f7c <.L1144>
    1488:	00c15c03          	lhu	s8,12(sp)
    148c:	00ac0c13          	addi	s8,s8,10
    1490:	010c1c13          	slli	s8,s8,0x10
    1494:	410c5c13          	srai	s8,s8,0x10

00001498 <.L1140>:
    1498:	01811623          	sh	s8,12(sp)
    149c:	03e00c13          	li	s8,62
    14a0:	48fc4ce3          	blt	s8,a5,2138 <.L1145>

000014a4 <.L2800>:
    14a4:	03800c13          	li	s8,56
    14a8:	01fc5463          	bge	s8,t6,14b0 <.L2800+0xc>
    14ac:	2e90606f          	j	7f94 <.L1146>
    14b0:	f5400c13          	li	s8,-172
    14b4:	01844463          	blt	s0,s8,14bc <.L2800+0x18>
    14b8:	62c0806f          	j	9ae4 <.L1147>
    14bc:	00e15c03          	lhu	s8,14(sp)
    14c0:	005c0c13          	addi	s8,s8,5
    14c4:	010c1c13          	slli	s8,s8,0x10
    14c8:	410c5c13          	srai	s8,s8,0x10

000014cc <.L1148>:
    14cc:	01811723          	sh	s8,14(sp)
    14d0:	01f00c13          	li	s8,31
    14d4:	013c5463          	bge	s8,s3,14dc <.L1148+0x10>
    14d8:	3bc0306f          	j	4894 <.L1152>
    14dc:	03b00c13          	li	s8,59
    14e0:	00fc5463          	bge	s8,a5,14e8 <.L1148+0x1c>
    14e4:	6b00706f          	j	8b94 <.L1153>
    14e8:	1ed00c13          	li	s8,493
    14ec:	009c5463          	bge	s8,s1,14f4 <.L1148+0x28>
    14f0:	0950506f          	j	6d84 <.L1154>
    14f4:	00815c03          	lhu	s8,8(sp)
    14f8:	1b900c93          	li	s9,441
    14fc:	ffec0c13          	addi	s8,s8,-2
    1500:	01811423          	sh	s8,8(sp)
    1504:	01ecc463          	blt	s9,t5,150c <.L1155>
    1508:	0950506f          	j	6d9c <.L1158>

0000150c <.L1155>:
    150c:	03200c13          	li	s8,50
    1510:	01dc5463          	bge	s8,t4,1518 <.L1155+0xc>
    1514:	7650706f          	j	9478 <.L1176>
    1518:	ff200c13          	li	s8,-14
    151c:	01864463          	blt	a2,s8,1524 <.L1155+0x18>
    1520:	7040a06f          	j	bc24 <.L1177>
    1524:	00a15c03          	lhu	s8,10(sp)
    1528:	ff7c0c13          	addi	s8,s8,-9
    152c:	01811523          	sh	s8,10(sp)

00001530 <.L1174>:
    1530:	00f00c13          	li	s8,15
    1534:	010c5463          	bge	s8,a6,153c <.L1188>
    1538:	56c0206f          	j	3aa4 <.L1196>

0000153c <.L1188>:
    153c:	f6300c13          	li	s8,-157
    1540:	0185c463          	blt	a1,s8,1548 <.L1188+0xc>
    1544:	7d10606f          	j	8514 <.L2768>
    1548:	00c15c03          	lhu	s8,12(sp)
    154c:	ffcc0c13          	addi	s8,s8,-4
    1550:	010c1c13          	slli	s8,s8,0x10
    1554:	410c5c13          	srai	s8,s8,0x10
    1558:	01811623          	sh	s8,12(sp)
    155c:	0d800c13          	li	s8,216
    1560:	492c50e3          	bge	s8,s2,21e0 <.L2769>

00001564 <.L1195>:
    1564:	38f00c13          	li	s8,911
    1568:	006c5463          	bge	s8,t1,1570 <.L1195+0xc>
    156c:	5440606f          	j	7ab0 <.L1202>
    1570:	1ca00c13          	li	s8,458
    1574:	01ec5463          	bge	s8,t5,157c <.L1195+0x18>
    1578:	4410206f          	j	41b8 <.L1203>
    157c:	00e15c03          	lhu	s8,14(sp)
    1580:	00400c93          	li	s9,4
    1584:	007c0c13          	addi	s8,s8,7
    1588:	01811723          	sh	s8,14(sp)
    158c:	011cc463          	blt	s9,a7,1594 <.L1195+0x30>
    1590:	1a10306f          	j	4f30 <.L1208>
    1594:	00e00c13          	li	s8,14
    1598:	01dc4463          	blt	s8,t4,15a0 <.L1195+0x3c>
    159c:	43d0206f          	j	41d8 <.L1217>
    15a0:	0ac00c13          	li	s8,172
    15a4:	01ec4463          	blt	s8,t5,15ac <.L1195+0x48>
    15a8:	5380606f          	j	7ae0 <.L1218>
    15ac:	03500c13          	li	s8,53
    15b0:	00ec5463          	bge	s8,a4,15b8 <.L1214>
    15b4:	5440606f          	j	7af8 <.L2608>

000015b8 <.L1214>:
    15b8:	01900c13          	li	s8,25
    15bc:	00dc5463          	bge	s8,a3,15c4 <.L1214+0xc>
    15c0:	64c0606f          	j	7c0c <.L1224>
    15c4:	00c00c13          	li	s8,12
    15c8:	49cc48e3          	blt	s8,t3,2258 <.L2694>
    15cc:	00a15c03          	lhu	s8,10(sp)
    15d0:	0c100c93          	li	s9,193
    15d4:	001c0c13          	addi	s8,s8,1
    15d8:	01811523          	sh	s8,10(sp)
    15dc:	489cc8e3          	blt	s9,s1,226c <.L2609>

000015e0 <.L1227>:
    15e0:	fae00c13          	li	s8,-82
    15e4:	0185c463          	blt	a1,s8,15ec <.L1227+0xc>
    15e8:	0fd0606f          	j	7ee4 <.L1237>
    15ec:	ea900c13          	li	s8,-343
    15f0:	018a4463          	blt	s4,s8,15f8 <.L1227+0x18>
    15f4:	56c0906f          	j	ab60 <.L1238>
    15f8:	00c15c03          	lhu	s8,12(sp)
    15fc:	002c0c13          	addi	s8,s8,2
    1600:	010c1c13          	slli	s8,s8,0x10
    1604:	410c5c13          	srai	s8,s8,0x10
    1608:	01811623          	sh	s8,12(sp)
    160c:	03600c13          	li	s8,54
    1610:	48fc52e3          	bge	s8,a5,2294 <.L2770>

00001614 <.L1243>:
    1614:	e4a00c13          	li	s8,-438
    1618:	0182c463          	blt	t0,s8,1620 <.L1243+0xc>
    161c:	3d90506f          	j	71f4 <.L1256>
    1620:	03d00c13          	li	s8,61
    1624:	00fc5463          	bge	s8,a5,162c <.L1243+0x18>
    1628:	49d0706f          	j	92c4 <.L1257>
    162c:	00e15c03          	lhu	s8,14(sp)
    1630:	ff8c0c13          	addi	s8,s8,-8
    1634:	010c1c13          	slli	s8,s8,0x10
    1638:	410c5c13          	srai	s8,s8,0x10

0000163c <.L1258>:
    163c:	01811723          	sh	s8,14(sp)
    1640:	01500c13          	li	s8,21
    1644:	007c4463          	blt	s8,t2,164c <.L1258+0x10>
    1648:	7dd0206f          	j	4624 <.L1253>
    164c:	11d00c13          	li	s8,285
    1650:	007c5463          	bge	s8,t2,1658 <.L1258+0x1c>
    1654:	4950706f          	j	92e8 <.L1255>
    1658:	03b00c13          	li	s8,59
    165c:	00fc4463          	blt	s8,a5,1664 <.L1259>
    1660:	4e00706f          	j	8b40 <.L1254>

00001664 <.L1259>:
    1664:	00815c03          	lhu	s8,8(sp)
    1668:	08c00c93          	li	s9,140
    166c:	001c0c13          	addi	s8,s8,1
    1670:	01811423          	sh	s8,8(sp)
    1674:	466cd4e3          	bge	s9,t1,22dc <.L1249>
    1678:	00c00c13          	li	s8,12
    167c:	01cc5463          	bge	s8,t3,1684 <.L1259+0x20>
    1680:	7dd0206f          	j	465c <.L1274>
    1684:	01700c13          	li	s8,23
    1688:	49dc50e3          	bge	s8,t4,2308 <.L1278>

0000168c <.L1267>:
    168c:	00a15c03          	lhu	s8,10(sp)
    1690:	03300c93          	li	s9,51
    1694:	007c0c13          	addi	s8,s8,7
    1698:	01811523          	sh	s8,10(sp)
    169c:	00fcc463          	blt	s9,a5,16a4 <.L1267+0x18>
    16a0:	7e90206f          	j	4688 <.L2735>
    16a4:	04700c13          	li	s8,71
    16a8:	007c5463          	bge	s8,t2,16b0 <.L1265>
    16ac:	6d40406f          	j	5d80 <.L1294>

000016b0 <.L1265>:
    16b0:	2bd00c13          	li	s8,701
    16b4:	009c5463          	bge	s8,s1,16bc <.L1265+0xc>
    16b8:	5550806f          	j	a40c <.L2771>
    16bc:	00c15c03          	lhu	s8,12(sp)
    16c0:	03c00c93          	li	s9,60
    16c4:	ff7c0c13          	addi	s8,s8,-9
    16c8:	01811623          	sh	s8,12(sp)
    16cc:	00fcc463          	blt	s9,a5,16d4 <.L2613>
    16d0:	7dd0206f          	j	46ac <.L1291>

000016d4 <.L2613>:
    16d4:	0d400c13          	li	s8,212
    16d8:	00ec5463          	bge	s8,a4,16e0 <.L1309>
    16dc:	7900706f          	j	8e6c <.L1306>

000016e0 <.L1309>:
    16e0:	00e15c03          	lhu	s8,14(sp)
    16e4:	ffe00c93          	li	s9,-2
    16e8:	008c0c13          	addi	s8,s8,8
    16ec:	01811723          	sh	s8,14(sp)
    16f0:	45985ee3          	bge	a6,s9,234c <.L1320>

000016f4 <.L1299>:
    16f4:	0ce00c13          	li	s8,206
    16f8:	00dc5463          	bge	s8,a3,1700 <.L1299+0xc>
    16fc:	7980206f          	j	3e94 <.L2772>
    1700:	01c51c83          	lh	s9,28(a0)
    1704:	03500c13          	li	s8,53
    1708:	019c4463          	blt	s8,s9,1710 <.L1299+0x1c>
    170c:	0690906f          	j	af74 <.L1321>
    1710:	03400c13          	li	s8,52
    1714:	01dc4463          	blt	s8,t4,171c <.L1322>
    1718:	79c0206f          	j	3eb4 <.L1328>

0000171c <.L1322>:
    171c:	1db00c13          	li	s8,475
    1720:	016c5463          	bge	s8,s6,1728 <.L1329>
    1724:	6d80606f          	j	7dfc <.L1325>

00001728 <.L1329>:
    1728:	00a15c03          	lhu	s8,10(sp)
    172c:	02a00c93          	li	s9,42
    1730:	005c0c13          	addi	s8,s8,5
    1734:	01811523          	sh	s8,10(sp)
    1738:	46dcd4e3          	bge	s9,a3,23a0 <.L1326>

0000173c <.L1327>:
    173c:	02700c13          	li	s8,39
    1740:	00ec5463          	bge	s8,a4,1748 <.L1327+0xc>
    1744:	66d0306f          	j	55b0 <.L2773>
    1748:	00900c13          	li	s8,9
    174c:	012c5463          	bge	s8,s2,1754 <.L1327+0x18>
    1750:	5ed0906f          	j	b53c <.L2774>
    1754:	00c15c03          	lhu	s8,12(sp)
    1758:	001c0c13          	addi	s8,s8,1
    175c:	01811623          	sh	s8,12(sp)
    1760:	4590006f          	j	23b8 <.L1359>

00001764 <.L2757>:
    1764:	18f00c13          	li	s8,399
    1768:	00dc5463          	bge	s8,a3,1770 <.L2757+0xc>
    176c:	0680406f          	j	57d4 <.L550>
    1770:	1aa00c13          	li	s8,426
    1774:	016c5463          	bge	s8,s6,177c <.L2757+0x18>
    1778:	5f50906f          	j	b56c <.L551>
    177c:	00815c03          	lhu	s8,8(sp)
    1780:	007c0c13          	addi	s8,s8,7
    1784:	010c1c13          	slli	s8,s8,0x10
    1788:	410c5c13          	srai	s8,s8,0x10
    178c:	c24ff06f          	j	bb0 <.L552>

00001790 <.L517>:
    1790:	00a15c03          	lhu	s8,10(sp)
    1794:	17000c93          	li	s9,368
    1798:	009c0c13          	addi	s8,s8,9
    179c:	01811523          	sh	s8,10(sp)
    17a0:	00dcd463          	bge	s9,a3,17a8 <.L2576>
    17a4:	5690206f          	j	450c <.L533>

000017a8 <.L2576>:
    17a8:	02200c13          	li	s8,34
    17ac:	01dc4463          	blt	s8,t4,17b4 <.L531>
    17b0:	2bd0706f          	j	926c <.L530>

000017b4 <.L531>:
    17b4:	00c15c03          	lhu	s8,12(sp)
    17b8:	ff6c0c13          	addi	s8,s8,-10
    17bc:	010c1c13          	slli	s8,s8,0x10
    17c0:	410c5c13          	srai	s8,s8,0x10
    17c4:	01811623          	sh	s8,12(sp)
    17c8:	e9900c13          	li	s8,-359
    17cc:	b985ce63          	blt	a1,s8,b68 <.L2775>

000017d0 <.L541>:
    17d0:	ee600c13          	li	s8,-282
    17d4:	018ac463          	blt	s5,s8,17dc <.L541+0xc>
    17d8:	4280506f          	j	6c00 <.L545>
    17dc:	ffc00c13          	li	s8,-4
    17e0:	01834463          	blt	t1,s8,17e8 <.L541+0x18>
    17e4:	2040406f          	j	59e8 <.L544>
    17e8:	00e15c03          	lhu	s8,14(sp)
    17ec:	002c0c13          	addi	s8,s8,2
    17f0:	01811723          	sh	s8,14(sp)
    17f4:	b8085c63          	bgez	a6,b8c <.L546>
    17f8:	18f00c13          	li	s8,399
    17fc:	00dc4463          	blt	s8,a3,1804 <.L547>
    1800:	6600a06f          	j	be60 <.L2776>

00001804 <.L547>:
    1804:	00815c03          	lhu	s8,8(sp)
    1808:	007c0c13          	addi	s8,s8,7
    180c:	01811423          	sh	s8,8(sp)

00001810 <.L549>:
    1810:	00400c13          	li	s8,4
    1814:	01cc5463          	bge	s8,t3,181c <.L549+0xc>
    1818:	26d0406f          	j	6284 <.L561>
    181c:	12e00c13          	li	s8,302
    1820:	00ec5463          	bge	s8,a4,1828 <.L549+0x18>
    1824:	4800806f          	j	9ca4 <.L562>
    1828:	00a15c03          	lhu	s8,10(sp)
    182c:	17000c93          	li	s9,368
    1830:	ffec0c13          	addi	s8,s8,-2
    1834:	01811523          	sh	s8,10(sp)
    1838:	badcd863          	bge	s9,a3,be8 <.L563>

0000183c <.L564>:
    183c:	ea700c13          	li	s8,-345
    1840:	018ad463          	bge	s5,s8,1848 <.L564+0xc>
    1844:	4e40706f          	j	8d28 <.L571>
    1848:	00c15c03          	lhu	s8,12(sp)
    184c:	e0800c93          	li	s9,-504
    1850:	ffdc0c13          	addi	s8,s8,-3
    1854:	01811623          	sh	s8,12(sp)
    1858:	01945463          	bge	s0,s9,1860 <.L2375>
    185c:	7ed0306f          	j	5848 <.L584>

00001860 <.L2375>:
    1860:	0de00c13          	li	s8,222
    1864:	012c5463          	bge	s8,s2,186c <.L585>
    1868:	5e50606f          	j	864c <.L586>

0000186c <.L585>:
    186c:	00e15c03          	lhu	s8,14(sp)
    1870:	ff8c0c13          	addi	s8,s8,-8
    1874:	01811723          	sh	s8,14(sp)
    1878:	0a900c13          	li	s8,169
    187c:	bdec4063          	blt	s8,t5,c3c <.L610>

00001880 <.L600>:
    1880:	01a00c13          	li	s8,26
    1884:	010c5463          	bge	s8,a6,188c <.L600+0xc>
    1888:	0a90506f          	j	7130 <.L611>
    188c:	11800c13          	li	s8,280
    1890:	bd2c4863          	blt	s8,s2,c60 <.L614>
    1894:	00815c03          	lhu	s8,8(sp)
    1898:	009c0c13          	addi	s8,s8,9
    189c:	01811423          	sh	s8,8(sp)
    18a0:	03900c13          	li	s8,57
    18a4:	bcec5263          	bge	s8,a4,c68 <.L2777>

000018a8 <.L618>:
    18a8:	ff900c13          	li	s8,-7
    18ac:	01864463          	blt	a2,s8,18b4 <.L618+0xc>
    18b0:	6790406f          	j	6728 <.L627>
    18b4:	1d700c13          	li	s8,471
    18b8:	016c5463          	bge	s8,s6,18c0 <.L618+0x18>
    18bc:	52c0906f          	j	ade8 <.L628>
    18c0:	00a15c03          	lhu	s8,10(sp)
    18c4:	ff9c0c13          	addi	s8,s8,-7
    18c8:	010c1c13          	slli	s8,s8,0x10
    18cc:	410c5c13          	srai	s8,s8,0x10

000018d0 <.L629>:
    18d0:	01811523          	sh	s8,10(sp)
    18d4:	08900c13          	li	s8,137
    18d8:	00dc5463          	bge	s8,a3,18e0 <.L2909>
    18dc:	6790406f          	j	6754 <.L633>

000018e0 <.L2909>:
    18e0:	03700c13          	li	s8,55
    18e4:	00fc5463          	bge	s8,a5,18ec <.L2909+0xc>
    18e8:	5a90406f          	j	6690 <.L634>
    18ec:	00900c13          	li	s8,9
    18f0:	bb1c5a63          	bge	s8,a7,ca4 <.L2274>

000018f4 <.L635>:
    18f4:	00c15c03          	lhu	s8,12(sp)
    18f8:	002c0c13          	addi	s8,s8,2
    18fc:	01811623          	sh	s8,12(sp)
    1900:	03000c13          	li	s8,48
    1904:	bbfc5a63          	bge	s8,t6,cb8 <.L2778>

00001908 <.L646>:
    1908:	faf00c13          	li	s8,-81
    190c:	018a4463          	blt	s4,s8,1914 <.L646+0xc>
    1910:	64d0806f          	j	a75c <.L654>
    1914:	00e15c03          	lhu	s8,14(sp)
    1918:	0a900c93          	li	s9,169
    191c:	ff6c0c13          	addi	s8,s8,-10
    1920:	01811723          	sh	s8,14(sp)
    1924:	bbecc863          	blt	s9,t5,cd4 <.L2584>

00001928 <.L648>:
    1928:	01a00c13          	li	s8,26
    192c:	010c5463          	bge	s8,a6,1934 <.L648+0xc>
    1930:	7d90506f          	j	7908 <.L651>
    1934:	11800c13          	li	s8,280
    1938:	bb2c4a63          	blt	s8,s2,cec <.L649>
    193c:	00815c03          	lhu	s8,8(sp)
    1940:	008c0c13          	addi	s8,s8,8
    1944:	01811423          	sh	s8,8(sp)
    1948:	0b500c13          	li	s8,181
    194c:	ba6c5463          	bge	s8,t1,cf4 <.L2779>

00001950 <.L659>:
    1950:	00400c13          	li	s8,4
    1954:	01cc5463          	bge	s8,t3,195c <.L659+0xc>
    1958:	0350406f          	j	618c <.L664>
    195c:	0bb00c13          	li	s8,187
    1960:	016c5463          	bge	s8,s6,1968 <.L659+0x18>
    1964:	5b10706f          	j	9714 <.L665>
    1968:	00a15c03          	lhu	s8,10(sp)
    196c:	ff7c0c13          	addi	s8,s8,-9
    1970:	010c1c13          	slli	s8,s8,0x10
    1974:	410c5c13          	srai	s8,s8,0x10
    1978:	01811523          	sh	s8,10(sp)
    197c:	27a00c13          	li	s8,634
    1980:	badc5463          	bge	s8,a3,d28 <.L2780>

00001984 <.L667>:
    1984:	ed100c13          	li	s8,-303
    1988:	018ac463          	blt	s5,s8,1990 <.L667+0xc>
    198c:	0480506f          	j	69d4 <.L672>
    1990:	3fa00c13          	li	s8,1018
    1994:	baec4c63          	blt	s8,a4,d4c <.L670>
    1998:	00c15c03          	lhu	s8,12(sp)
    199c:	00ac0c13          	addi	s8,s8,10
    19a0:	01811623          	sh	s8,12(sp)
    19a4:	d8200c13          	li	s8,-638
    19a8:	bb85c663          	blt	a1,s8,d54 <.L2781>

000019ac <.L673>:
    19ac:	0de00c13          	li	s8,222
    19b0:	012c5463          	bge	s8,s2,19b8 <.L673+0xc>
    19b4:	5840406f          	j	5f38 <.L678>
    19b8:	03e00c13          	li	s8,62
    19bc:	00fc5463          	bge	s8,a5,19c4 <.L673+0x18>
    19c0:	2c00806f          	j	9c80 <.L679>
    19c4:	00e15c03          	lhu	s8,14(sp)
    19c8:	ffbc0c13          	addi	s8,s8,-5
    19cc:	010c1c13          	slli	s8,s8,0x10
    19d0:	410c5c13          	srai	s8,s8,0x10
    19d4:	01811723          	sh	s8,14(sp)
    19d8:	ba085663          	bgez	a6,d84 <.L682>

000019dc <.L2269>:
    19dc:	0cd00c13          	li	s8,205
    19e0:	00dc5463          	bge	s8,a3,19e8 <.L2269+0xc>
    19e4:	6440706f          	j	9028 <.L683>
    19e8:	1aa00c13          	li	s8,426
    19ec:	016c5463          	bge	s8,s6,19f4 <.L2269+0x18>
    19f0:	1ed0906f          	j	b3dc <.L684>
    19f4:	00815c03          	lhu	s8,8(sp)
    19f8:	07200c93          	li	s9,114
    19fc:	006c0c13          	addi	s8,s8,6
    1a00:	01811423          	sh	s8,8(sp)
    1a04:	baecdc63          	bge	s9,a4,dbc <.L685>

00001a08 <.L690>:
    1a08:	03300c13          	li	s8,51
    1a0c:	01fc5463          	bge	s8,t6,1a14 <.L690+0xc>
    1a10:	3600806f          	j	9d70 <.L2782>
    1a14:	00a15c03          	lhu	s8,10(sp)
    1a18:	ffac0c13          	addi	s8,s8,-6
    1a1c:	010c1c13          	slli	s8,s8,0x10
    1a20:	410c5c13          	srai	s8,s8,0x10

00001a24 <.L701>:
    1a24:	01811523          	sh	s8,10(sp)
    1a28:	ffa00c13          	li	s8,-6
    1a2c:	bb865e63          	bge	a2,s8,de8 <.L703>

00001a30 <.L2268>:
    1a30:	01000c13          	li	s8,16
    1a34:	01dc5463          	bge	s8,t4,1a3c <.L2929>
    1a38:	42c0606f          	j	7e64 <.L704>

00001a3c <.L2929>:
    1a3c:	00c00c13          	li	s8,12
    1a40:	011c5463          	bge	s8,a7,1a48 <.L2929+0xc>
    1a44:	7510706f          	j	9994 <.L705>
    1a48:	00c15c03          	lhu	s8,12(sp)
    1a4c:	001c0c13          	addi	s8,s8,1
    1a50:	010c1c13          	slli	s8,s8,0x10
    1a54:	410c5c13          	srai	s8,s8,0x10
    1a58:	01811623          	sh	s8,12(sp)
    1a5c:	03900c13          	li	s8,57
    1a60:	bcfc5063          	bge	s8,a5,e20 <.L2783>

00001a64 <.L710>:
    1a64:	e4a00c13          	li	s8,-438
    1a68:	0182c463          	blt	t0,s8,1a70 <.L710+0xc>
    1a6c:	1780506f          	j	6be4 <.L723>
    1a70:	03d00c13          	li	s8,61
    1a74:	00fc5463          	bge	s8,a5,1a7c <.L710+0x18>
    1a78:	1b40806f          	j	9c2c <.L724>
    1a7c:	00e15c03          	lhu	s8,14(sp)
    1a80:	ff8c0c13          	addi	s8,s8,-8
    1a84:	01811723          	sh	s8,14(sp)

00001a88 <.L722>:
    1a88:	0a900c13          	li	s8,169
    1a8c:	01ec5463          	bge	s8,t5,1a94 <.L722+0xc>
    1a90:	6790306f          	j	5908 <.L725>
    1a94:	01a00c13          	li	s8,26
    1a98:	010c5463          	bge	s8,a6,1aa0 <.L722+0x18>
    1a9c:	08d0706f          	j	9328 <.L726>
    1aa0:	11800c13          	li	s8,280
    1aa4:	012c4863          	blt	s8,s2,1ab4 <.L718>
    1aa8:	00815c03          	lhu	s8,8(sp)
    1aac:	008c0c13          	addi	s8,s8,8
    1ab0:	01811423          	sh	s8,8(sp)

00001ab4 <.L718>:
    1ab4:	0f000c13          	li	s8,240
    1ab8:	ba6c5863          	bge	s8,t1,e68 <.L715>
    1abc:	d6c00c13          	li	s8,-660
    1ac0:	018ac463          	blt	s5,s8,1ac8 <.L718+0x14>
    1ac4:	5010506f          	j	77c4 <.L747>
    1ac8:	ff400c13          	li	s8,-12
    1acc:	01864463          	blt	a2,s8,1ad4 <.L718+0x20>
    1ad0:	67c0506f          	j	714c <.L748>
    1ad4:	00a15c03          	lhu	s8,10(sp)
    1ad8:	0dd00c93          	li	s9,221
    1adc:	ff7c0c13          	addi	s8,s8,-9
    1ae0:	01811523          	sh	s8,10(sp)
    1ae4:	00dcc463          	blt	s9,a3,1aec <.L718+0x38>
    1ae8:	6c40306f          	j	51ac <.L749>
    1aec:	25b00c13          	li	s8,603
    1af0:	00ec5463          	bge	s8,a4,1af8 <.L750>
    1af4:	3c40306f          	j	4eb8 <.L772>

00001af8 <.L750>:
    1af8:	03d00c13          	li	s8,61
    1afc:	00fc4463          	blt	s8,a5,1b04 <.L750+0xc>
    1b00:	5c80806f          	j	a0c8 <.L753>
    1b04:	00c15c03          	lhu	s8,12(sp)
    1b08:	03e00c93          	li	s9,62
    1b0c:	ffcc0c13          	addi	s8,s8,-4
    1b10:	01811623          	sh	s8,12(sp)
    1b14:	01978463          	beq	a5,s9,1b1c <.L754>
    1b18:	3b80306f          	j	4ed0 <.L752>

00001b1c <.L754>:
    1b1c:	03800c13          	li	s8,56
    1b20:	00ec4463          	blt	s8,a4,1b28 <.L751>
    1b24:	2dc0306f          	j	4e00 <.L769>

00001b28 <.L751>:
    1b28:	c3900c13          	li	s8,-967
    1b2c:	0185c463          	blt	a1,s8,1b34 <.L751+0xc>
    1b30:	4680706f          	j	8f98 <.L767>
    1b34:	00e15c03          	lhu	s8,14(sp)
    1b38:	008c0c13          	addi	s8,s8,8
    1b3c:	010c1c13          	slli	s8,s8,0x10
    1b40:	410c5c13          	srai	s8,s8,0x10

00001b44 <.L779>:
    1b44:	01811723          	sh	s8,14(sp)
    1b48:	ffe00c13          	li	s8,-2
    1b4c:	01885463          	bge	a6,s8,1b54 <.L786>
    1b50:	2d00306f          	j	4e20 <.L783>

00001b54 <.L786>:
    1b54:	0ba00c13          	li	s8,186
    1b58:	012c5463          	bge	s8,s2,1b60 <.L786+0xc>
    1b5c:	3a00306f          	j	4efc <.L777>
    1b60:	03800c13          	li	s8,56
    1b64:	b8fc4a63          	blt	s8,a5,ef8 <.L784>

00001b68 <.L792>:
    1b68:	00815c03          	lhu	s8,8(sp)
    1b6c:	ffdc0c13          	addi	s8,s8,-3
    1b70:	010c1c13          	slli	s8,s8,0x10
    1b74:	410c5c13          	srai	s8,s8,0x10
    1b78:	01811423          	sh	s8,8(sp)
    1b7c:	03300c13          	li	s8,51
    1b80:	b9fc4a63          	blt	s8,t6,f14 <.L794>

00001b84 <.L788>:
    1b84:	fe200c13          	li	s8,-30
    1b88:	01864463          	blt	a2,s8,1b90 <.L788+0xc>
    1b8c:	62c0506f          	j	71b8 <.L795>
    1b90:	e3d00c13          	li	s8,-451
    1b94:	01844463          	blt	s0,s8,1b9c <.L788+0x18>
    1b98:	50c0806f          	j	a0a4 <.L796>
    1b9c:	00a15c03          	lhu	s8,10(sp)
    1ba0:	ff8c0c13          	addi	s8,s8,-8
    1ba4:	010c1c13          	slli	s8,s8,0x10
    1ba8:	010c5c13          	srli	s8,s8,0x10
    1bac:	01811523          	sh	s8,10(sp)

00001bb0 <.L797>:
    1bb0:	01000c13          	li	s8,16
    1bb4:	01dc5463          	bge	s8,t4,1bbc <.L797+0xc>
    1bb8:	5910606f          	j	8948 <.L808>
    1bbc:	00100c13          	li	s8,1
    1bc0:	01cc4463          	blt	s8,t3,1bc8 <.L797+0x18>
    1bc4:	7bc0906f          	j	b380 <.L2784>
    1bc8:	00c15c03          	lhu	s8,12(sp)
    1bcc:	009c0c13          	addi	s8,s8,9
    1bd0:	010c1c13          	slli	s8,s8,0x10
    1bd4:	410c5c13          	srai	s8,s8,0x10

00001bd8 <.L810>:
    1bd8:	01811623          	sh	s8,12(sp)
    1bdc:	03e00c13          	li	s8,62
    1be0:	00fc4463          	blt	s8,a5,1be8 <.L810+0x10>
    1be4:	5a00306f          	j	5184 <.L816>
    1be8:	fec00c13          	li	s8,-20
    1bec:	b7865663          	bge	a2,s8,f58 <.L817>
    1bf0:	00e15c03          	lhu	s8,14(sp)
    1bf4:	ffec0c13          	addi	s8,s8,-2
    1bf8:	010c1c13          	slli	s8,s8,0x10
    1bfc:	410c5c13          	srai	s8,s8,0x10
    1c00:	01811723          	sh	s8,14(sp)
    1c04:	01f00c13          	li	s8,31
    1c08:	b73c5663          	bge	s8,s3,f74 <.L2785>

00001c0c <.L822>:
    1c0c:	00500c13          	li	s8,5
    1c10:	b91c5263          	bge	s8,a7,f94 <.L825>
    1c14:	00815c03          	lhu	s8,8(sp)
    1c18:	ff7c0c13          	addi	s8,s8,-9
    1c1c:	01811423          	sh	s8,8(sp)
    1c20:	1ac00c13          	li	s8,428
    1c24:	b76c5c63          	bge	s8,s6,f9c <.L2786>

00001c28 <.L826>:
    1c28:	0a500c13          	li	s8,165
    1c2c:	00ec5463          	bge	s8,a4,1c34 <.L826+0xc>
    1c30:	5980406f          	j	61c8 <.L834>
    1c34:	1ff00c13          	li	s8,511
    1c38:	009c5463          	bge	s8,s1,1c40 <.L826+0x18>
    1c3c:	2650806f          	j	a6a0 <.L835>
    1c40:	00a15c03          	lhu	s8,10(sp)
    1c44:	006c0c13          	addi	s8,s8,6
    1c48:	010c1c13          	slli	s8,s8,0x10
    1c4c:	410c5c13          	srai	s8,s8,0x10
    1c50:	01811523          	sh	s8,10(sp)
    1c54:	27a00c13          	li	s8,634
    1c58:	b6dc5c63          	bge	s8,a3,fd0 <.L2787>

00001c5c <.L837>:
    1c5c:	ff700c13          	li	s8,-9
    1c60:	01864463          	blt	a2,s8,1c68 <.L837+0xc>
    1c64:	5390306f          	j	599c <.L831>
    1c68:	0e600c13          	li	s8,230
    1c6c:	009c5463          	bge	s8,s1,1c74 <.L837+0x18>
    1c70:	3a50806f          	j	a814 <.L843>
    1c74:	00c15c03          	lhu	s8,12(sp)
    1c78:	d2a00c93          	li	s9,-726
    1c7c:	ffcc0c13          	addi	s8,s8,-4
    1c80:	01811623          	sh	s8,12(sp)
    1c84:	0195d463          	bge	a1,s9,1c8c <.L2593>
    1c88:	0680506f          	j	6cf0 <.L844>

00001c8c <.L2593>:
    1c8c:	eea00c13          	li	s8,-278
    1c90:	018a4463          	blt	s4,s8,1c98 <.L852>
    1c94:	0780506f          	j	6d0c <.L845>

00001c98 <.L852>:
    1c98:	00e15c03          	lhu	s8,14(sp)
    1c9c:	ff8c0c13          	addi	s8,s8,-8
    1ca0:	01811723          	sh	s8,14(sp)
    1ca4:	0a900c13          	li	s8,169
    1ca8:	b7ec4863          	blt	s8,t5,1018 <.L2788>

00001cac <.L860>:
    1cac:	fff00c13          	li	s8,-1
    1cb0:	018e5463          	bge	t3,s8,1cb8 <.L860+0xc>
    1cb4:	76c0406f          	j	6420 <.L2789>
    1cb8:	09e00c13          	li	s8,158
    1cbc:	b92c4063          	blt	s8,s2,103c <.L859>
    1cc0:	00815c03          	lhu	s8,8(sp)
    1cc4:	008c0c13          	addi	s8,s8,8
    1cc8:	01811423          	sh	s8,8(sp)
    1ccc:	0b500c13          	li	s8,181
    1cd0:	b66c5a63          	bge	s8,t1,1044 <.L2790>

00001cd4 <.L865>:
    1cd4:	f5700c13          	li	s8,-169
    1cd8:	0185c463          	blt	a1,s8,1ce0 <.L865+0xc>
    1cdc:	0210406f          	j	64fc <.L876>
    1ce0:	ff100c13          	li	s8,-15
    1ce4:	01864463          	blt	a2,s8,1cec <.L865+0x18>
    1ce8:	26d0706f          	j	9754 <.L877>
    1cec:	00a15c03          	lhu	s8,10(sp)
    1cf0:	fffc0c13          	addi	s8,s8,-1
    1cf4:	01811523          	sh	s8,10(sp)

00001cf8 <.L878>:
    1cf8:	17000c13          	li	s8,368
    1cfc:	00dc4463          	blt	s8,a3,1d04 <.L880>
    1d00:	0440706f          	j	8d44 <.L885>

00001d04 <.L880>:
    1d04:	2ba00c13          	li	s8,698
    1d08:	00ec5463          	bge	s8,a4,1d10 <.L880+0xc>
    1d0c:	7ad0706f          	j	9cb8 <.L887>
    1d10:	00c15c03          	lhu	s8,12(sp)
    1d14:	02f00c93          	li	s9,47
    1d18:	006c0c13          	addi	s8,s8,6
    1d1c:	01811623          	sh	s8,12(sp)
    1d20:	b70cde63          	bge	s9,a6,109c <.L888>

00001d24 <.L889>:
    1d24:	e0400c13          	li	s8,-508
    1d28:	0182c463          	blt	t0,s8,1d30 <.L889+0xc>
    1d2c:	0190406f          	j	6544 <.L903>
    1d30:	00e15c03          	lhu	s8,14(sp)
    1d34:	ffdc0c13          	addi	s8,s8,-3
    1d38:	010c1c13          	slli	s8,s8,0x10
    1d3c:	410c5c13          	srai	s8,s8,0x10
    1d40:	01811723          	sh	s8,14(sp)
    1d44:	ec600c13          	li	s8,-314
    1d48:	b7845e63          	bge	s0,s8,10c4 <.L2791>

00001d4c <.L904>:
    1d4c:	01c51c83          	lh	s9,28(a0)
    1d50:	02600c13          	li	s8,38
    1d54:	019c5463          	bge	s8,s9,1d5c <.L904+0x10>
    1d58:	3400606f          	j	8098 <.L2792>
    1d5c:	e9900c13          	li	s8,-359
    1d60:	b982d463          	bge	t0,s8,10e8 <.L906>

00001d64 <.L907>:
    1d64:	00815c03          	lhu	s8,8(sp)
    1d68:	ff7c0c13          	addi	s8,s8,-9
    1d6c:	01811423          	sh	s8,8(sp)
    1d70:	03400c13          	li	s8,52
    1d74:	b7dc5e63          	bge	s8,t4,10f0 <.L2793>

00001d78 <.L909>:
    1d78:	1db00c13          	li	s8,475
    1d7c:	016c5463          	bge	s8,s6,1d84 <.L909+0xc>
    1d80:	5800306f          	j	5300 <.L916>
    1d84:	ff400c13          	li	s8,-12
    1d88:	01864463          	blt	a2,s8,1d90 <.L909+0x18>
    1d8c:	7750806f          	j	ad00 <.L917>
    1d90:	00a15c03          	lhu	s8,10(sp)
    1d94:	03300c93          	li	s9,51
    1d98:	ffec0c13          	addi	s8,s8,-2
    1d9c:	01811523          	sh	s8,10(sp)
    1da0:	00fcc463          	blt	s9,a5,1da8 <.L918>
    1da4:	5800306f          	j	5324 <.L923>

00001da8 <.L918>:
    1da8:	d7800c13          	li	s8,-648
    1dac:	018a5463          	bge	s4,s8,1db4 <.L920>
    1db0:	3cd0506f          	j	797c <.L927>

00001db4 <.L920>:
    1db4:	00c15c03          	lhu	s8,12(sp)
    1db8:	ffbc0c13          	addi	s8,s8,-5
    1dbc:	010c1c13          	slli	s8,s8,0x10
    1dc0:	410c5c13          	srai	s8,s8,0x10

00001dc4 <.L931>:
    1dc4:	01811623          	sh	s8,12(sp)
    1dc8:	03900c13          	li	s8,57
    1dcc:	00fc4463          	blt	s8,a5,1dd4 <.L941>
    1dd0:	56c0306f          	j	533c <.L928>

00001dd4 <.L941>:
    1dd4:	e4a00c13          	li	s8,-438
    1dd8:	0182d463          	bge	t0,s8,1de0 <.L941+0xc>
    1ddc:	7c50606f          	j	8da0 <.L943>
    1de0:	02200c13          	li	s8,34
    1de4:	b90c5663          	bge	s8,a6,1170 <.L940>
    1de8:	00e15c03          	lhu	s8,14(sp)
    1dec:	008c0c13          	addi	s8,s8,8
    1df0:	01811723          	sh	s8,14(sp)
    1df4:	00c00c13          	li	s8,12
    1df8:	b93c5063          	bge	s8,s3,1178 <.L2794>

00001dfc <.L935>:
    1dfc:	01c51c83          	lh	s9,28(a0)
    1e00:	03500c13          	li	s8,53
    1e04:	019c5463          	bge	s8,s9,1e0c <.L935+0x10>
    1e08:	1580506f          	j	6f60 <.L953>
    1e0c:	ffa00c13          	li	s8,-6
    1e10:	01894463          	blt	s2,s8,1e18 <.L935+0x1c>
    1e14:	7d40706f          	j	95e8 <.L954>
    1e18:	00815c03          	lhu	s8,8(sp)
    1e1c:	004c0c13          	addi	s8,s8,4
    1e20:	010c1c13          	slli	s8,s8,0x10
    1e24:	410c5c13          	srai	s8,s8,0x10

00001e28 <.L948>:
    1e28:	01811423          	sh	s8,8(sp)
    1e2c:	03300c13          	li	s8,51
    1e30:	01fc4463          	blt	s8,t6,1e38 <.L948+0x10>
    1e34:	0c90206f          	j	46fc <.L956>
    1e38:	01b00c13          	li	s8,27
    1e3c:	b6ec4663          	blt	s8,a4,11a8 <.L949>
    1e40:	fcd00c13          	li	s8,-51
    1e44:	0186c463          	blt	a3,s8,1e4c <.L948+0x24>
    1e48:	05c0706f          	j	8ea4 <.L971>
    1e4c:	00a15c03          	lhu	s8,10(sp)
    1e50:	006c0c13          	addi	s8,s8,6
    1e54:	01811523          	sh	s8,10(sp)
    1e58:	01300c13          	li	s8,19
    1e5c:	b91c5063          	bge	s8,a7,11dc <.L2795>

00001e60 <.L974>:
    1e60:	d8400c13          	li	s8,-636
    1e64:	0182c463          	blt	t0,s8,1e6c <.L974+0xc>
    1e68:	2c50806f          	j	a92c <.L980>
    1e6c:	00c15c03          	lhu	s8,12(sp)
    1e70:	002c0c13          	addi	s8,s8,2
    1e74:	010c1c13          	slli	s8,s8,0x10
    1e78:	410c5c13          	srai	s8,s8,0x10

00001e7c <.L979>:
    1e7c:	01811623          	sh	s8,12(sp)
    1e80:	cf000c13          	li	s8,-784
    1e84:	0185d463          	bge	a1,s8,1e8c <.L976>
    1e88:	0bd0206f          	j	4744 <.L962>

00001e8c <.L976>:
    1e8c:	0de00c13          	li	s8,222
    1e90:	012c5463          	bge	s8,s2,1e98 <.L976+0xc>
    1e94:	6d50406f          	j	6d68 <.L984>
    1e98:	02600c13          	li	s8,38
    1e9c:	00dc5463          	bge	s8,a3,1ea4 <.L976+0x18>
    1ea0:	1350206f          	j	47d4 <.L988>
    1ea4:	fa300c13          	li	s8,-93
    1ea8:	0182d463          	bge	t0,s8,1eb0 <.L994>
    1eac:	7690306f          	j	5e14 <.L985>

00001eb0 <.L994>:
    1eb0:	efb00c13          	li	s8,-261
    1eb4:	0185d463          	bge	a1,s8,1ebc <.L994+0xc>
    1eb8:	0c90206f          	j	4780 <.L990>
    1ebc:	00815c03          	lhu	s8,8(sp)
    1ec0:	00ac0c13          	addi	s8,s8,10
    1ec4:	01811423          	sh	s8,8(sp)
    1ec8:	1ac00c13          	li	s8,428
    1ecc:	b76c5263          	bge	s8,s6,1230 <.L2796>

00001ed0 <.L1004>:
    1ed0:	0a500c13          	li	s8,165
    1ed4:	00ec5463          	bge	s8,a4,1edc <.L1004+0xc>
    1ed8:	5f80506f          	j	74d0 <.L1010>
    1edc:	1ff00c13          	li	s8,511
    1ee0:	009c4463          	blt	s8,s1,1ee8 <.L1004+0x18>
    1ee4:	1990506f          	j	787c <.L1012>
    1ee8:	00a15c03          	lhu	s8,10(sp)
    1eec:	ffac0c13          	addi	s8,s8,-6
    1ef0:	010c1c13          	slli	s8,s8,0x10
    1ef4:	410c5c13          	srai	s8,s8,0x10
    1ef8:	01811523          	sh	s8,10(sp)
    1efc:	03d00c13          	li	s8,61
    1f00:	b6fc5263          	bge	s8,a5,1264 <.L1013>

00001f04 <.L1017>:
    1f04:	d9500c13          	li	s8,-619
    1f08:	018ad463          	bge	s5,s8,1f10 <.L1017+0xc>
    1f0c:	5e40506f          	j	74f0 <.L1024>
    1f10:	55900c13          	li	s8,1369
    1f14:	00dc5463          	bge	s8,a3,1f1c <.L1017+0x18>
    1f18:	2400806f          	j	a158 <.L1025>
    1f1c:	00c15c03          	lhu	s8,12(sp)
    1f20:	ff7c0c13          	addi	s8,s8,-9
    1f24:	01811623          	sh	s8,12(sp)

00001f28 <.L1014>:
    1f28:	11a00c13          	li	s8,282
    1f2c:	007c5463          	bge	s8,t2,1f34 <.L1014+0xc>
    1f30:	48c0406f          	j	63bc <.L1030>
    1f34:	0db00c13          	li	s8,219
    1f38:	00ec5463          	bge	s8,a4,1f40 <.L1014+0x18>
    1f3c:	1c10706f          	j	98fc <.L1031>
    1f40:	00e15c03          	lhu	s8,14(sp)
    1f44:	01f00c93          	li	s9,31
    1f48:	005c0c13          	addi	s8,s8,5
    1f4c:	01811723          	sh	s8,14(sp)
    1f50:	013cc463          	blt	s9,s3,1f58 <.L1014+0x30>
    1f54:	3580306f          	j	52ac <.L1038>
    1f58:	00600c13          	li	s8,6
    1f5c:	b71c4e63          	blt	s8,a7,12d8 <.L1046>
    1f60:	03100c13          	li	s8,49
    1f64:	b9fc5c63          	bge	s8,t6,12fc <.L1052>
    1f68:	01400c13          	li	s8,20
    1f6c:	010c4463          	blt	s8,a6,1f74 <.L1054>
    1f70:	3700306f          	j	52e0 <.L2260>

00001f74 <.L1054>:
    1f74:	00a15c03          	lhu	s8,10(sp)
    1f78:	003c0c13          	addi	s8,s8,3
    1f7c:	010c1c13          	slli	s8,s8,0x10
    1f80:	410c5c13          	srai	s8,s8,0x10
    1f84:	01811523          	sh	s8,10(sp)
    1f88:	0c100c13          	li	s8,193
    1f8c:	b89c5c63          	bge	s8,s1,1324 <.L2797>

00001f90 <.L1056>:
    1f90:	f6900c13          	li	s8,-151
    1f94:	0185c463          	blt	a1,s8,1f9c <.L1056+0xc>
    1f98:	2600406f          	j	61f8 <.L1075>
    1f9c:	11400c13          	li	s8,276
    1fa0:	00dc5463          	bge	s8,a3,1fa8 <.L1056+0x18>
    1fa4:	15c0706f          	j	9100 <.L1076>
    1fa8:	00c15c03          	lhu	s8,12(sp)
    1fac:	ffdc0c13          	addi	s8,s8,-3
    1fb0:	010c1c13          	slli	s8,s8,0x10
    1fb4:	410c5c13          	srai	s8,s8,0x10

00001fb8 <.L1074>:
    1fb8:	01811623          	sh	s8,12(sp)
    1fbc:	02f00c13          	li	s8,47
    1fc0:	010c5463          	bge	s8,a6,1fc8 <.L1074+0x10>
    1fc4:	0c90306f          	j	588c <.L1082>
    1fc8:	03800c13          	li	s8,56
    1fcc:	01fc5463          	bge	s8,t6,1fd4 <.L1074+0x1c>
    1fd0:	1540706f          	j	9124 <.L1078>
    1fd4:	08d00c13          	li	s8,141
    1fd8:	00dc5463          	bge	s8,a3,1fe0 <.L1074+0x28>
    1fdc:	0c90806f          	j	a8a4 <.L1067>
    1fe0:	00e15c03          	lhu	s8,14(sp)
    1fe4:	ffe00c93          	li	s9,-2
    1fe8:	004c0c13          	addi	s8,s8,4
    1fec:	01811723          	sh	s8,14(sp)
    1ff0:	01985463          	bge	a6,s9,1ff8 <.L1080>
    1ff4:	6000106f          	j	35f4 <.L1064>

00001ff8 <.L1080>:
    1ff8:	03c00c13          	li	s8,60
    1ffc:	b6fc5263          	bge	s8,a5,1360 <.L1062>

00002000 <.L1089>:
    2000:	01c51c83          	lh	s9,28(a0)
    2004:	01e00c13          	li	s8,30
    2008:	019c5463          	bge	s8,s9,2010 <.L1089+0x10>
    200c:	0710706f          	j	987c <.L1094>
    2010:	00815c03          	lhu	s8,8(sp)
    2014:	ff9c0c13          	addi	s8,s8,-7
    2018:	010c1c13          	slli	s8,s8,0x10
    201c:	410c5c13          	srai	s8,s8,0x10
    2020:	01811423          	sh	s8,8(sp)
    2024:	30000c13          	li	s8,768
    2028:	b7ec5063          	bge	s8,t5,1388 <.L1085>

0000202c <.L1095>:
    202c:	03d00c13          	li	s8,61
    2030:	01fc4463          	blt	s8,t6,2038 <.L1095+0xc>
    2034:	5e40106f          	j	3618 <.L1086>
    2038:	ff300c13          	li	s8,-13
    203c:	01864463          	blt	a2,s8,2044 <.L1095+0x18>
    2040:	5a90706f          	j	9de8 <.L1106>
    2044:	00a15c03          	lhu	s8,10(sp)
    2048:	04900c93          	li	s9,73
    204c:	ff5c0c13          	addi	s8,s8,-11
    2050:	01811523          	sh	s8,10(sp)
    2054:	011cd463          	bge	s9,a7,205c <.L1104>
    2058:	37c0306f          	j	53d4 <.L1105>

0000205c <.L1104>:
    205c:	02000c13          	li	s8,32
    2060:	01dc5463          	bge	s8,t4,2068 <.L1102>
    2064:	63d0506f          	j	7ea0 <.L1103>

00002068 <.L1102>:
    2068:	00c15c03          	lhu	s8,12(sp)
    206c:	004c0c13          	addi	s8,s8,4
    2070:	01811623          	sh	s8,12(sp)
    2074:	e4a00c13          	li	s8,-438
    2078:	b782c263          	blt	t0,s8,13dc <.L2798>

0000207c <.L1112>:
    207c:	00300c13          	li	s8,3
    2080:	01cc5463          	bge	s8,t3,2088 <.L1112+0xc>
    2084:	4cc0306f          	j	5550 <.L1121>
    2088:	f0e00c13          	li	s8,-242
    208c:	0182c463          	blt	t0,s8,2094 <.L1112+0x18>
    2090:	4d80306f          	j	5568 <.L1122>
    2094:	00e15c03          	lhu	s8,14(sp)
    2098:	01500c93          	li	s9,21
    209c:	ff6c0c13          	addi	s8,s8,-10
    20a0:	01811723          	sh	s8,14(sp)
    20a4:	b67cc263          	blt	s9,t2,1408 <.L2602>

000020a8 <.L1118>:
    20a8:	0ac00c13          	li	s8,172
    20ac:	006c5463          	bge	s8,t1,20b4 <.L1118+0xc>
    20b0:	4ec0306f          	j	559c <.L1119>
    20b4:	ffe00c13          	li	s8,-2
    20b8:	01864463          	blt	a2,s8,20c0 <.L1118+0x18>
    20bc:	1bd0506f          	j	7a78 <.L1126>
    20c0:	00815c03          	lhu	s8,8(sp)
    20c4:	009c0c13          	addi	s8,s8,9
    20c8:	010c1c13          	slli	s8,s8,0x10
    20cc:	410c5c13          	srai	s8,s8,0x10
    20d0:	01811423          	sh	s8,8(sp)
    20d4:	03300c13          	li	s8,51
    20d8:	b7fc5263          	bge	s8,t6,143c <.L2799>

000020dc <.L1129>:
    20dc:	01400c13          	li	s8,20
    20e0:	010c5463          	bge	s8,a6,20e8 <.L1129+0xc>
    20e4:	3ec0606f          	j	84d0 <.L1135>
    20e8:	01300c13          	li	s8,19
    20ec:	00ec5463          	bge	s8,a4,20f4 <.L1129+0x18>
    20f0:	4950706f          	j	9d84 <.L1136>
    20f4:	00a15c03          	lhu	s8,10(sp)
    20f8:	ffcc0c13          	addi	s8,s8,-4
    20fc:	010c1c13          	slli	s8,s8,0x10
    2100:	410c5c13          	srai	s8,s8,0x10
    2104:	01811523          	sh	s8,10(sp)
    2108:	00100c13          	li	s8,1
    210c:	b7cc4263          	blt	s8,t3,1470 <.L1138>

00002110 <.L2767>:
    2110:	e4e00c13          	li	s8,-434
    2114:	0185c463          	blt	a1,s8,211c <.L2767+0xc>
    2118:	6e10606f          	j	8ff8 <.L1139>
    211c:	00c15c03          	lhu	s8,12(sp)
    2120:	003c0c13          	addi	s8,s8,3
    2124:	010c1c13          	slli	s8,s8,0x10
    2128:	410c5c13          	srai	s8,s8,0x10
    212c:	01811623          	sh	s8,12(sp)
    2130:	03e00c13          	li	s8,62
    2134:	b6fc5863          	bge	s8,a5,14a4 <.L2800>

00002138 <.L1145>:
    2138:	fec00c13          	li	s8,-20
    213c:	01864463          	blt	a2,s8,2144 <.L1145+0xc>
    2140:	23d0606f          	j	8b7c <.L1150>
    2144:	00e15c03          	lhu	s8,14(sp)
    2148:	01f00c93          	li	s9,31
    214c:	ffdc0c13          	addi	s8,s8,-3
    2150:	01811723          	sh	s8,14(sp)
    2154:	013cd463          	bge	s9,s3,215c <.L1145+0x24>
    2158:	73c0206f          	j	4894 <.L1152>
    215c:	e2100c13          	li	s8,-479
    2160:	0182c463          	blt	t0,s8,2168 <.L1145+0x30>
    2164:	0f50106f          	j	3a58 <.L1160>
    2168:	00815c03          	lhu	s8,8(sp)
    216c:	1b900c93          	li	s9,441
    2170:	ff7c0c13          	addi	s8,s8,-9
    2174:	01811423          	sh	s8,8(sp)
    2178:	01ecc463          	blt	s9,t5,2180 <.L1162>
    217c:	0f50106f          	j	3a70 <.L1161>

00002180 <.L1162>:
    2180:	03200c13          	li	s8,50
    2184:	01dc5463          	bge	s8,t4,218c <.L1162+0xc>
    2188:	0a00706f          	j	9228 <.L1178>
    218c:	ff200c13          	li	s8,-14
    2190:	01864463          	blt	a2,s8,2198 <.L1162+0x18>
    2194:	3780906f          	j	b50c <.L1179>
    2198:	00a15c03          	lhu	s8,10(sp)
    219c:	03c00c93          	li	s9,60
    21a0:	ff7c0c13          	addi	s8,s8,-9
    21a4:	01811523          	sh	s8,10(sp)
    21a8:	b8fcd463          	bge	s9,a5,1530 <.L1174>

000021ac <.L1171>:
    21ac:	daa00c13          	li	s8,-598
    21b0:	018ad463          	bge	s5,s8,21b8 <.L1171+0xc>
    21b4:	34c0506f          	j	7500 <.L1187>
    21b8:	00b00c13          	li	s8,11
    21bc:	01dc5463          	bge	s8,t4,21c4 <.L1171+0x18>
    21c0:	0980706f          	j	9258 <.L1184>
    21c4:	00c15c03          	lhu	s8,12(sp)
    21c8:	004c0c13          	addi	s8,s8,4
    21cc:	010c1c13          	slli	s8,s8,0x10
    21d0:	410c5c13          	srai	s8,s8,0x10

000021d4 <.L1189>:
    21d4:	01811623          	sh	s8,12(sp)
    21d8:	0d800c13          	li	s8,216
    21dc:	b92c4463          	blt	s8,s2,1564 <.L1195>

000021e0 <.L2769>:
    21e0:	cf000c13          	li	s8,-784
    21e4:	0185c463          	blt	a1,s8,21ec <.L2769+0xc>
    21e8:	3440606f          	j	852c <.L1194>
    21ec:	e1800c13          	li	s8,-488
    21f0:	018a4463          	blt	s4,s8,21f8 <.L2769+0x18>
    21f4:	4290706f          	j	9e1c <.L1198>
    21f8:	00e15c03          	lhu	s8,14(sp)
    21fc:	fffc0c13          	addi	s8,s8,-1
    2200:	010c1c13          	slli	s8,s8,0x10
    2204:	010c5c13          	srli	s8,s8,0x10

00002208 <.L2606>:
    2208:	01811723          	sh	s8,14(sp)

0000220c <.L1200>:
    220c:	00400c13          	li	s8,4
    2210:	011c4463          	blt	s8,a7,2218 <.L1200+0xc>
    2214:	51d0206f          	j	4f30 <.L1208>
    2218:	00e00c13          	li	s8,14
    221c:	01dc5463          	bge	s8,t4,2224 <.L1200+0x18>
    2220:	0b50506f          	j	7ad4 <.L1216>
    2224:	00094463          	bltz	s2,222c <.L1200+0x20>
    2228:	7b10106f          	j	41d8 <.L1217>
    222c:	00815c03          	lhu	s8,8(sp)
    2230:	008c0c13          	addi	s8,s8,8
    2234:	01811423          	sh	s8,8(sp)

00002238 <.L1209>:
    2238:	03500c13          	li	s8,53
    223c:	b6ec5e63          	bge	s8,a4,15b8 <.L1214>
    2240:	0e100c13          	li	s8,225
    2244:	00dc5463          	bge	s8,a3,224c <.L1219>
    2248:	5950606f          	j	8fdc <.L1222>

0000224c <.L1219>:
    224c:	03200c13          	li	s8,50
    2250:	01fc5463          	bge	s8,t6,2258 <.L2694>
    2254:	7340606f          	j	8988 <.L1221>

00002258 <.L2694>:
    2258:	00a15c03          	lhu	s8,10(sp)
    225c:	0c100c93          	li	s9,193
    2260:	ff7c0c13          	addi	s8,s8,-9
    2264:	01811523          	sh	s8,10(sp)
    2268:	b69cdc63          	bge	s9,s1,15e0 <.L1227>

0000226c <.L2609>:
    226c:	f6900c13          	li	s8,-151
    2270:	0185c463          	blt	a1,s8,2278 <.L1229>
    2274:	7ac0506f          	j	7a20 <.L1234>

00002278 <.L1229>:
    2278:	00c15c03          	lhu	s8,12(sp)
    227c:	fffc0c13          	addi	s8,s8,-1
    2280:	010c1c13          	slli	s8,s8,0x10
    2284:	410c5c13          	srai	s8,s8,0x10

00002288 <.L1239>:
    2288:	01811623          	sh	s8,12(sp)
    228c:	03600c13          	li	s8,54
    2290:	b8fc4263          	blt	s8,a5,1614 <.L1243>

00002294 <.L2770>:
    2294:	04c00c13          	li	s8,76
    2298:	016c5463          	bge	s8,s6,22a0 <.L2770+0xc>
    229c:	0850606f          	j	8b20 <.L1244>
    22a0:	00e15c03          	lhu	s8,14(sp)
    22a4:	01500c93          	li	s9,21
    22a8:	002c0c13          	addi	s8,s8,2
    22ac:	01811723          	sh	s8,14(sp)
    22b0:	007cc463          	blt	s9,t2,22b8 <.L2770+0x24>
    22b4:	3700206f          	j	4624 <.L1253>
    22b8:	11d00c13          	li	s8,285
    22bc:	007c5463          	bge	s8,t2,22c4 <.L2770+0x30>
    22c0:	2690706f          	j	9d28 <.L1248>
    22c4:	00815c03          	lhu	s8,8(sp)
    22c8:	08c00c93          	li	s9,140
    22cc:	ffdc0c13          	addi	s8,s8,-3
    22d0:	01811423          	sh	s8,8(sp)
    22d4:	006cd463          	bge	s9,t1,22dc <.L1249>
    22d8:	4b80806f          	j	a790 <.L2801>

000022dc <.L1249>:
    22dc:	00900c13          	li	s8,9
    22e0:	011c5463          	bge	s8,a7,22e8 <.L1249+0xc>
    22e4:	2850506f          	j	7d68 <.L2802>
    22e8:	01dc5463          	bge	s8,t4,22f0 <.L1249+0x14>
    22ec:	2650306f          	j	5d50 <.L1277>
    22f0:	00a15c03          	lhu	s8,10(sp)
    22f4:	03300c93          	li	s9,51
    22f8:	ffac0c13          	addi	s8,s8,-6
    22fc:	01811523          	sh	s8,10(sp)
    2300:	00fcc463          	blt	s9,a5,2308 <.L1278>
    2304:	2290506f          	j	7d2c <.L2612>

00002308 <.L1278>:
    2308:	04700c13          	li	s8,71
    230c:	ba7c5263          	bge	s8,t2,16b0 <.L1265>

00002310 <.L1288>:
    2310:	00c15c03          	lhu	s8,12(sp)
    2314:	003c0c13          	addi	s8,s8,3
    2318:	010c1c13          	slli	s8,s8,0x10
    231c:	410c5c13          	srai	s8,s8,0x10

00002320 <.L1280>:
    2320:	01811623          	sh	s8,12(sp)
    2324:	03c00c13          	li	s8,60
    2328:	00fc4463          	blt	s8,a5,2330 <.L1280+0x10>
    232c:	3800206f          	j	46ac <.L1291>
    2330:	0d400c13          	li	s8,212
    2334:	00ec5463          	bge	s8,a4,233c <.L1280+0x1c>
    2338:	3350606f          	j	8e6c <.L1306>
    233c:	0a100c13          	li	s8,161
    2340:	ba7c5063          	bge	s8,t2,16e0 <.L1309>
    2344:	ffe00c13          	li	s8,-2
    2348:	bb884663          	blt	a6,s8,16f4 <.L1299>

0000234c <.L1320>:
    234c:	ec700c13          	li	s8,-313
    2350:	01844463          	blt	s0,s8,2358 <.L2941>
    2354:	33d0606f          	j	8e90 <.L1332>

00002358 <.L2941>:
    2358:	00815c03          	lhu	s8,8(sp)
    235c:	fffc0c13          	addi	s8,s8,-1
    2360:	010c1c13          	slli	s8,s8,0x10
    2364:	410c5c13          	srai	s8,s8,0x10

00002368 <.L1331>:
    2368:	01811423          	sh	s8,8(sp)
    236c:	03400c13          	li	s8,52
    2370:	01dc4463          	blt	s8,t4,2378 <.L1331+0x10>
    2374:	3410106f          	j	3eb4 <.L1328>
    2378:	1db00c13          	li	s8,475
    237c:	016c5463          	bge	s8,s6,2384 <.L1331+0x1c>
    2380:	27d0506f          	j	7dfc <.L1325>
    2384:	00800c13          	li	s8,8
    2388:	bb0c5063          	bge	s8,a6,1728 <.L1329>
    238c:	00a15c03          	lhu	s8,10(sp)
    2390:	02a00c93          	li	s9,42
    2394:	ff4c0c13          	addi	s8,s8,-12
    2398:	01811523          	sh	s8,10(sp)
    239c:	badcc063          	blt	s9,a3,173c <.L1327>

000023a0 <.L1326>:
    23a0:	fba00c13          	li	s8,-70
    23a4:	0185c463          	blt	a1,s8,23ac <.L1356>
    23a8:	70d0606f          	j	92b4 <.L1337>

000023ac <.L1356>:
    23ac:	00c15c03          	lhu	s8,12(sp)
    23b0:	ffbc0c13          	addi	s8,s8,-5
    23b4:	01811623          	sh	s8,12(sp)

000023b8 <.L1359>:
    23b8:	03600c13          	li	s8,54
    23bc:	00fc4463          	blt	s8,a5,23c4 <.L1355>
    23c0:	2140306f          	j	55d4 <.L1340>

000023c4 <.L1355>:
    23c4:	ff600c13          	li	s8,-10
    23c8:	01865463          	bge	a2,s8,23d0 <.L1354>
    23cc:	3490106f          	j	3f14 <.L1341>

000023d0 <.L1354>:
    23d0:	eea00c13          	li	s8,-278
    23d4:	018a4463          	blt	s4,s8,23dc <.L1354+0xc>
    23d8:	3790806f          	j	af50 <.L1369>
    23dc:	00e15c03          	lhu	s8,14(sp)
    23e0:	ffdc0c13          	addi	s8,s8,-3
    23e4:	010c1c13          	slli	s8,s8,0x10
    23e8:	410c5c13          	srai	s8,s8,0x10

000023ec <.L1365>:
    23ec:	01811723          	sh	s8,14(sp)
    23f0:	fa300c13          	li	s8,-93
    23f4:	0182c463          	blt	t0,s8,23fc <.L2849>
    23f8:	3490106f          	j	3f40 <.L1366>

000023fc <.L2849>:
    23fc:	fa100c13          	li	s8,-95
    2400:	0182c463          	blt	t0,s8,2408 <.L2849+0xc>
    2404:	2b90506f          	j	7ebc <.L1368>
    2408:	01c04463          	bgtz	t3,2410 <.L2849+0x14>
    240c:	7890806f          	j	b394 <.L2803>
    2410:	03900c13          	li	s8,57
    2414:	006c4463          	blt	s8,t1,241c <.L2849+0x20>
    2418:	4040206f          	j	481c <.L1371>
    241c:	ff800c13          	li	s8,-8
    2420:	01864463          	blt	a2,s8,2428 <.L1372>
    2424:	1850906f          	j	bda8 <.L2804>

00002428 <.L1372>:
    2428:	01c51c83          	lh	s9,28(a0)
    242c:	01e00c13          	li	s8,30
    2430:	019c5463          	bge	s8,s9,2438 <.L1372+0x10>
    2434:	3900806f          	j	a7c4 <.L2805>
    2438:	00a15c03          	lhu	s8,10(sp)
    243c:	002c0c13          	addi	s8,s8,2
    2440:	010c1c13          	slli	s8,s8,0x10
    2444:	410c5c13          	srai	s8,s8,0x10

00002448 <.L1398>:
    2448:	01811523          	sh	s8,10(sp)
    244c:	00100c13          	li	s8,1
    2450:	01cc4463          	blt	s8,t3,2458 <.L1395>
    2454:	4110306f          	j	6064 <.L1374>

00002458 <.L1395>:
    2458:	02000c13          	li	s8,32
    245c:	01dc4463          	blt	s8,t4,2464 <.L1401>
    2460:	0c40706f          	j	9524 <.L2806>

00002464 <.L1401>:
    2464:	34700c13          	li	s8,839
    2468:	00dc5463          	bge	s8,a3,2470 <.L1401+0xc>
    246c:	07c0706f          	j	94e8 <.L1413>
    2470:	00c15c03          	lhu	s8,12(sp)
    2474:	03c00c93          	li	s9,60
    2478:	ff9c0c13          	addi	s8,s8,-7
    247c:	01811623          	sh	s8,12(sp)
    2480:	00fcd463          	bge	s9,a5,2488 <.L2627>
    2484:	3e80206f          	j	486c <.L1389>

00002488 <.L2627>:
    2488:	e4f00c13          	li	s8,-433
    248c:	018ac463          	blt	s5,s8,2494 <.L1390>
    2490:	11c0606f          	j	85ac <.L1415>

00002494 <.L1390>:
    2494:	c5a00c13          	li	s8,-934
    2498:	0185d463          	bge	a1,s8,24a0 <.L1390+0xc>
    249c:	1100606f          	j	85ac <.L1415>
    24a0:	00e15c03          	lhu	s8,14(sp)
    24a4:	ff6c0c13          	addi	s8,s8,-10
    24a8:	01811723          	sh	s8,14(sp)

000024ac <.L1410>:
    24ac:	01f00c13          	li	s8,31
    24b0:	013c5463          	bge	s8,s3,24b8 <.L1407>
    24b4:	3110106f          	j	3fc4 <.L1421>

000024b8 <.L1407>:
    24b8:	03d00c13          	li	s8,61
    24bc:	01fc5463          	bge	s8,t6,24c4 <.L1407+0xc>
    24c0:	5b90406f          	j	7278 <.L1422>
    24c4:	01c04863          	bgtz	t3,24d4 <.L1423>
    24c8:	00815c03          	lhu	s8,8(sp)
    24cc:	005c0c13          	addi	s8,s8,5
    24d0:	01811423          	sh	s8,8(sp)

000024d4 <.L1423>:
    24d4:	03300c13          	li	s8,51
    24d8:	01fc5463          	bge	s8,t6,24e0 <.L2850>
    24dc:	30d0106f          	j	3fe8 <.L1425>

000024e0 <.L2850>:
    24e0:	1c600c93          	li	s9,454
    24e4:	00ecd463          	bge	s9,a4,24ec <.L2850+0xc>
    24e8:	5550406f          	j	723c <.L1426>
    24ec:	018f9463          	bne	t6,s8,24f4 <.L2850+0x14>
    24f0:	0c80906f          	j	b5b8 <.L1427>
    24f4:	00a15c03          	lhu	s8,10(sp)
    24f8:	ff7c0c13          	addi	s8,s8,-9
    24fc:	01811523          	sh	s8,10(sp)

00002500 <.L1428>:
    2500:	f9800c13          	li	s8,-104
    2504:	01844463          	blt	s0,s8,250c <.L2851>
    2508:	3110106f          	j	4018 <.L1432>

0000250c <.L2851>:
    250c:	0c700c13          	li	s8,199
    2510:	016c5463          	bge	s8,s6,2518 <.L2851+0xc>
    2514:	5100606f          	j	8a24 <.L1433>
    2518:	ea900c13          	li	s8,-343
    251c:	018a4863          	blt	s4,s8,252c <.L1434>
    2520:	00c15c03          	lhu	s8,12(sp)
    2524:	ff7c0c13          	addi	s8,s8,-9
    2528:	01811623          	sh	s8,12(sp)

0000252c <.L1434>:
    252c:	d2a00c13          	li	s8,-726
    2530:	0185c463          	blt	a1,s8,2538 <.L2852>
    2534:	3150106f          	j	4048 <.L1439>

00002538 <.L2852>:
    2538:	25d00c13          	li	s8,605
    253c:	009c5463          	bge	s8,s1,2544 <.L2852+0xc>
    2540:	6580306f          	j	5b98 <.L1440>
    2544:	e2e00c13          	li	s8,-466
    2548:	0182d463          	bge	t0,s8,2550 <.L2852+0x18>
    254c:	3d80706f          	j	9924 <.L1441>
    2550:	00e15c03          	lhu	s8,14(sp)
    2554:	00400c93          	li	s9,4
    2558:	008c0c13          	addi	s8,s8,8
    255c:	01811723          	sh	s8,14(sp)
    2560:	011cd463          	bge	s9,a7,2568 <.L1444>
    2564:	64c0306f          	j	5bb0 <.L1443>

00002568 <.L1444>:
    2568:	03800c13          	li	s8,56
    256c:	01fc5463          	bge	s8,t6,2574 <.L1444+0xc>
    2570:	4a50406f          	j	7214 <.L1449>
    2574:	00815c03          	lhu	s8,8(sp)
    2578:	00bc0c13          	addi	s8,s8,11
    257c:	01811423          	sh	s8,8(sp)

00002580 <.L2738>:
    2580:	00c00c13          	li	s8,12
    2584:	01cc4463          	blt	s8,t3,258c <.L2738+0xc>
    2588:	6d50606f          	j	945c <.L1452>
    258c:	23200c13          	li	s8,562
    2590:	01ec5463          	bge	s8,t5,2598 <.L2738+0x18>
    2594:	49c0806f          	j	aa30 <.L1453>
    2598:	00a15c03          	lhu	s8,10(sp)
    259c:	ff7c0c13          	addi	s8,s8,-9
    25a0:	01811523          	sh	s8,10(sp)

000025a4 <.L1454>:
    25a4:	02700c13          	li	s8,39
    25a8:	01dc5463          	bge	s8,t4,25b0 <.L1475>
    25ac:	3050106f          	j	40b0 <.L1476>

000025b0 <.L1475>:
    25b0:	15500c13          	li	s8,341
    25b4:	01ec5463          	bge	s8,t5,25bc <.L1475+0xc>
    25b8:	4900806f          	j	aa48 <.L1481>
    25bc:	00c15c03          	lhu	s8,12(sp)
    25c0:	ffec0c13          	addi	s8,s8,-2
    25c4:	01811623          	sh	s8,12(sp)

000025c8 <.L1486>:
    25c8:	0a000c13          	li	s8,160
    25cc:	009c5463          	bge	s8,s1,25d4 <.L2854>
    25d0:	3050106f          	j	40d4 <.L1490>

000025d4 <.L2854>:
    25d4:	09b00c13          	li	s8,155
    25d8:	009c5463          	bge	s8,s1,25e0 <.L2854+0xc>
    25dc:	0240506f          	j	7600 <.L1491>
    25e0:	0a300c13          	li	s8,163
    25e4:	012c5463          	bge	s8,s2,25ec <.L2854+0x18>
    25e8:	2d10806f          	j	b0b8 <.L1492>
    25ec:	00e15c03          	lhu	s8,14(sp)
    25f0:	39000c93          	li	s9,912
    25f4:	ffcc0c13          	addi	s8,s8,-4
    25f8:	01811723          	sh	s8,14(sp)
    25fc:	006cc463          	blt	s9,t1,2604 <.L2854+0x30>
    2600:	7890106f          	j	4588 <.L1501>
    2604:	14e00c13          	li	s8,334
    2608:	00dc5463          	bge	s8,a3,2610 <.L1511>
    260c:	6c40906f          	j	bcd0 <.L2807>

00002610 <.L1511>:
    2610:	00900c13          	li	s8,9
    2614:	013c5463          	bge	s8,s3,261c <.L1511+0xc>
    2618:	0450706f          	j	9e5c <.L1513>
    261c:	00815c03          	lhu	s8,8(sp)
    2620:	003c0c13          	addi	s8,s8,3
    2624:	01811423          	sh	s8,8(sp)

00002628 <.L1510>:
    2628:	00c00c13          	li	s8,12
    262c:	01cc4463          	blt	s8,t3,2634 <.L1504>
    2630:	4590206f          	j	5288 <.L1519>

00002634 <.L1504>:
    2634:	1dc00c13          	li	s8,476
    2638:	016c5463          	bge	s8,s6,2640 <.L1504+0xc>
    263c:	3a00806f          	j	a9dc <.L1524>
    2640:	00a15c03          	lhu	s8,10(sp)
    2644:	f9800c93          	li	s9,-104
    2648:	ff3c0c13          	addi	s8,s8,-13
    264c:	01811523          	sh	s8,10(sp)
    2650:	01944463          	blt	s0,s9,2658 <.L1505>
    2654:	7790106f          	j	45cc <.L1506>

00002658 <.L1505>:
    2658:	0c700c13          	li	s8,199
    265c:	016c4463          	blt	s8,s6,2664 <.L1520>
    2660:	7700606f          	j	8dd0 <.L1527>

00002664 <.L1520>:
    2664:	00c15c03          	lhu	s8,12(sp)
    2668:	01800c93          	li	s9,24
    266c:	fffc0c13          	addi	s8,s8,-1
    2670:	01811623          	sh	s8,12(sp)
    2674:	010cc463          	blt	s9,a6,267c <.L1533>
    2678:	7850106f          	j	45fc <.L1543>

0000267c <.L1533>:
    267c:	eee00c13          	li	s8,-274
    2680:	018ac463          	blt	s5,s8,2688 <.L1533+0xc>
    2684:	6380106f          	j	3cbc <.L1548>
    2688:	01c51c83          	lh	s9,28(a0)
    268c:	02300c13          	li	s8,35
    2690:	019c5463          	bge	s8,s9,2698 <.L1539>
    2694:	3150106f          	j	41a8 <.L2808>

00002698 <.L1539>:
    2698:	00e15c03          	lhu	s8,14(sp)
    269c:	005c0c13          	addi	s8,s8,5
    26a0:	01811723          	sh	s8,14(sp)

000026a4 <.L1538>:
    26a4:	0a900c13          	li	s8,169
    26a8:	01ec5463          	bge	s8,t5,26b0 <.L2842>
    26ac:	6280106f          	j	3cd4 <.L1549>

000026b0 <.L2842>:
    26b0:	01c00c13          	li	s8,28
    26b4:	00fc5463          	bge	s8,a5,26bc <.L2842+0xc>
    26b8:	5450506f          	j	83fc <.L1550>
    26bc:	07300c13          	li	s8,115
    26c0:	01ec5463          	bge	s8,t5,26c8 <.L2842+0x18>
    26c4:	1250706f          	j	9fe8 <.L1551>
    26c8:	00815c03          	lhu	s8,8(sp)
    26cc:	006c0c13          	addi	s8,s8,6
    26d0:	010c1c13          	slli	s8,s8,0x10
    26d4:	410c5c13          	srai	s8,s8,0x10

000026d8 <.L1552>:
    26d8:	01811423          	sh	s8,8(sp)
    26dc:	03300c13          	li	s8,51
    26e0:	01fc5463          	bge	s8,t6,26e8 <.L2843>
    26e4:	61c0106f          	j	3d00 <.L1556>

000026e8 <.L2843>:
    26e8:	00001c37          	lui	s8,0x1
    26ec:	cbbc0c13          	addi	s8,s8,-837 # cbb <.L2778+0x3>
    26f0:	00ec5463          	bge	s8,a4,26f8 <.L2843+0x10>
    26f4:	4d90506f          	j	83cc <.L1557>
    26f8:	dba00c13          	li	s8,-582
    26fc:	0185c863          	blt	a1,s8,270c <.L1558>
    2700:	00a15c03          	lhu	s8,10(sp)
    2704:	ff9c0c13          	addi	s8,s8,-7
    2708:	01811523          	sh	s8,10(sp)

0000270c <.L1558>:
    270c:	10b00c13          	li	s8,267
    2710:	00dc4463          	blt	s8,a3,2718 <.L1567>
    2714:	3050606f          	j	9218 <.L1564>

00002718 <.L1567>:
    2718:	e8500c13          	li	s8,-379
    271c:	018ad463          	bge	s5,s8,2724 <.L1567+0xc>
    2720:	4fd0506f          	j	841c <.L1571>
    2724:	18c00c13          	li	s8,396
    2728:	00ec5463          	bge	s8,a4,2730 <.L1567+0x18>
    272c:	4bd0506f          	j	83e8 <.L1568>
    2730:	00c15c03          	lhu	s8,12(sp)
    2734:	001c0c13          	addi	s8,s8,1
    2738:	010c1c13          	slli	s8,s8,0x10
    273c:	410c5c13          	srai	s8,s8,0x10

00002740 <.L1573>:
    2740:	01811623          	sh	s8,12(sp)
    2744:	02700c93          	li	s9,39
    2748:	007cd463          	bge	s9,t2,2750 <.L2844>
    274c:	6040106f          	j	3d50 <.L1576>

00002750 <.L2844>:
    2750:	03d00c93          	li	s9,61
    2754:	00fcd463          	bge	s9,a5,275c <.L2844+0xc>
    2758:	2c10506f          	j	8218 <.L1577>
    275c:	02000c93          	li	s9,32
    2760:	010cd463          	bge	s9,a6,2768 <.L2844+0x18>
    2764:	2a50506f          	j	8208 <.L1578>
    2768:	00e15c83          	lhu	s9,14(sp)
    276c:	ff7c8c93          	addi	s9,s9,-9
    2770:	01911723          	sh	s9,14(sp)

00002774 <.L1579>:
    2774:	01f00c93          	li	s9,31
    2778:	013cd463          	bge	s9,s3,2780 <.L2845>
    277c:	6040106f          	j	3d80 <.L1581>

00002780 <.L2845>:
    2780:	03d00c93          	li	s9,61
    2784:	01fcd463          	bge	s9,t6,278c <.L2845+0xc>
    2788:	1b50506f          	j	813c <.L1582>
    278c:	f7800c93          	li	s9,-136
    2790:	019a4863          	blt	s4,s9,27a0 <.L1583>
    2794:	00815c83          	lhu	s9,8(sp)
    2798:	004c8c93          	addi	s9,s9,4
    279c:	01911423          	sh	s9,8(sp)

000027a0 <.L1583>:
    27a0:	e2c00c93          	li	s9,-468
    27a4:	0192d463          	bge	t0,s9,27ac <.L2846>
    27a8:	5fc0106f          	j	3da4 <.L1589>

000027ac <.L2846>:
    27ac:	03c00c13          	li	s8,60
    27b0:	01fc5463          	bge	s8,t6,27b8 <.L2846+0xc>
    27b4:	1a90506f          	j	815c <.L1585>
    27b8:	00900c93          	li	s9,9
    27bc:	01ccd463          	bge	s9,t3,27c4 <.L2846+0x18>
    27c0:	2ac0306f          	j	5a6c <.L1610>
    27c4:	00a15c03          	lhu	s8,10(sp)
    27c8:	001c0c13          	addi	s8,s8,1
    27cc:	010c1c13          	slli	s8,s8,0x10
    27d0:	410c5c13          	srai	s8,s8,0x10

000027d4 <.L1611>:
    27d4:	01811523          	sh	s8,10(sp)
    27d8:	03c00c13          	li	s8,60
    27dc:	00fc4463          	blt	s8,a5,27e4 <.L1614>
    27e0:	2380306f          	j	5a18 <.L1603>

000027e4 <.L1614>:
    27e4:	e6500c13          	li	s8,-411
    27e8:	0182d463          	bge	t0,s8,27f0 <.L1614+0xc>
    27ec:	0090906f          	j	bff4 <.L1616>
    27f0:	00e00c13          	li	s8,14
    27f4:	01dc5463          	bge	s8,t4,27fc <.L1614+0x18>
    27f8:	7280706f          	j	9f20 <.L1618>
    27fc:	00300c13          	li	s8,3
    2800:	01cc5463          	bge	s8,t3,2808 <.L1614+0x24>
    2804:	2900306f          	j	5a94 <.L1617>
    2808:	0c100c13          	li	s8,193
    280c:	012c5463          	bge	s8,s2,2814 <.L1634>
    2810:	4a40906f          	j	bcb4 <.L2809>

00002814 <.L1634>:
    2814:	02f00c13          	li	s8,47
    2818:	01fc5463          	bge	s8,t6,2820 <.L1634+0xc>
    281c:	6f40706f          	j	9f10 <.L2810>
    2820:	00e15c03          	lhu	s8,14(sp)
    2824:	00400c93          	li	s9,4
    2828:	019c0c33          	add	s8,s8,s9
    282c:	01811723          	sh	s8,14(sp)
    2830:	011cc463          	blt	s9,a7,2838 <.L1634+0x24>
    2834:	3000406f          	j	6b34 <.L1650>
    2838:	00e00c13          	li	s8,14
    283c:	01dc5463          	bge	s8,t4,2844 <.L1645>
    2840:	5290606f          	j	9568 <.L2811>

00002844 <.L1645>:
    2844:	f9c00c13          	li	s8,-100
    2848:	01844463          	blt	s0,s8,2850 <.L1643>
    284c:	31d0606f          	j	9368 <.L1667>

00002850 <.L1643>:
    2850:	00815c03          	lhu	s8,8(sp)
    2854:	01d00c93          	li	s9,29
    2858:	ffac0c13          	addi	s8,s8,-6
    285c:	01811423          	sh	s8,8(sp)
    2860:	011cd463          	bge	s9,a7,2868 <.L2718>
    2864:	31d0606f          	j	9380 <.L1668>

00002868 <.L2718>:
    2868:	00a15c03          	lhu	s8,10(sp)
    286c:	00100c93          	li	s9,1
    2870:	ffec0c13          	addi	s8,s8,-2
    2874:	01811523          	sh	s8,10(sp)
    2878:	01ccc463          	blt	s9,t3,2880 <.L1658>
    287c:	4700906f          	j	bcec <.L2812>

00002880 <.L1658>:
    2880:	ff000c13          	li	s8,-16
    2884:	01864463          	blt	a2,s8,288c <.L1658+0xc>
    2888:	0790206f          	j	5100 <.L2813>
    288c:	00c15c03          	lhu	s8,12(sp)
    2890:	ff600c93          	li	s9,-10
    2894:	007c0c13          	addi	s8,s8,7
    2898:	01811623          	sh	s8,12(sp)
    289c:	01964463          	blt	a2,s9,28a4 <.L1681>
    28a0:	06d0206f          	j	510c <.L1682>

000028a4 <.L1681>:
    28a4:	0da00c13          	li	s8,218
    28a8:	012c5463          	bge	s8,s2,28b0 <.L1681+0xc>
    28ac:	5190606f          	j	95c4 <.L1695>
    28b0:	00e15c03          	lhu	s8,14(sp)
    28b4:	ff9c0c13          	addi	s8,s8,-7
    28b8:	010c1c13          	slli	s8,s8,0x10
    28bc:	010c5c13          	srli	s8,s8,0x10

000028c0 <.L1696>:
    28c0:	01811723          	sh	s8,14(sp)

000028c4 <.L1698>:
    28c4:	e4300c13          	li	s8,-445
    28c8:	01844463          	blt	s0,s8,28d0 <.L1698+0xc>
    28cc:	6e80206f          	j	4fb4 <.L1702>
    28d0:	0d400c13          	li	s8,212
    28d4:	007c5463          	bge	s8,t2,28dc <.L1698+0x18>
    28d8:	6840506f          	j	7f5c <.L1705>
    28dc:	0d100c13          	li	s8,209
    28e0:	007c4463          	blt	s8,t2,28e8 <.L1698+0x24>
    28e4:	2dd0606f          	j	93c0 <.L1701>
    28e8:	00815c03          	lhu	s8,8(sp)
    28ec:	03b00c93          	li	s9,59
    28f0:	008c0c13          	addi	s8,s8,8
    28f4:	01811423          	sh	s8,8(sp)
    28f8:	00fcd463          	bge	s9,a5,2900 <.L2645>
    28fc:	6780506f          	j	7f74 <.L1707>

00002900 <.L2645>:
    2900:	03500c13          	li	s8,53
    2904:	00ec4463          	blt	s8,a4,290c <.L1709>
    2908:	1210506f          	j	8228 <.L1708>

0000290c <.L1709>:
    290c:	00a15c03          	lhu	s8,10(sp)
    2910:	005c0c13          	addi	s8,s8,5
    2914:	010c1c13          	slli	s8,s8,0x10
    2918:	410c5c13          	srai	s8,s8,0x10

0000291c <.L1720>:
    291c:	01811523          	sh	s8,10(sp)
    2920:	02200c13          	li	s8,34
    2924:	011c5463          	bge	s8,a7,292c <.L2888>
    2928:	6f00206f          	j	5018 <.L1729>

0000292c <.L2888>:
    292c:	01700c13          	li	s8,23
    2930:	01dc5463          	bge	s8,t4,2938 <.L2888+0xc>
    2934:	3bd0506f          	j	84f0 <.L1726>
    2938:	1dc00c13          	li	s8,476
    293c:	01ec5863          	bge	s8,t5,294c <.L1730>

00002940 <.L1728>:
    2940:	00c15c03          	lhu	s8,12(sp)
    2944:	008c0c13          	addi	s8,s8,8
    2948:	01811623          	sh	s8,12(sp)

0000294c <.L1730>:
    294c:	02600c13          	li	s8,38
    2950:	00dc5463          	bge	s8,a3,2958 <.L1730+0xc>
    2954:	4740206f          	j	4dc8 <.L1727>
    2958:	00f00c13          	li	s8,15
    295c:	00dc5463          	bge	s8,a3,2964 <.L1730+0x18>
    2960:	7950506f          	j	88f4 <.L1737>
    2964:	08c00c13          	li	s8,140
    2968:	007c5463          	bge	s8,t2,2970 <.L1730+0x24>
    296c:	5340806f          	j	aea0 <.L1738>
    2970:	00e15c03          	lhu	s8,14(sp)
    2974:	01500c93          	li	s9,21
    2978:	003c0c13          	addi	s8,s8,3
    297c:	01811723          	sh	s8,14(sp)
    2980:	007cc463          	blt	s9,t2,2988 <.L1740>
    2984:	2a90206f          	j	542c <.L1739>

00002988 <.L1740>:
    2988:	ff700c13          	li	s8,-9
    298c:	01864863          	blt	a2,s8,299c <.L1748>
    2990:	00815c03          	lhu	s8,8(sp)
    2994:	ffcc0c13          	addi	s8,s8,-4
    2998:	01811423          	sh	s8,8(sp)

0000299c <.L1748>:
    299c:	0f000c13          	li	s8,240
    29a0:	006c5463          	bge	s8,t1,29a8 <.L1748+0xc>
    29a4:	39c0206f          	j	4d40 <.L1752>
    29a8:	00200c13          	li	s8,2
    29ac:	01cc5463          	bge	s8,t3,29b4 <.L1748+0x18>
    29b0:	0580606f          	j	8a08 <.L1753>
    29b4:	03500c13          	li	s8,53
    29b8:	00fc5463          	bge	s8,a5,29c0 <.L1748+0x24>
    29bc:	4150706f          	j	a5d0 <.L1754>
    29c0:	00a15c03          	lhu	s8,10(sp)
    29c4:	007c0c13          	addi	s8,s8,7
    29c8:	01811523          	sh	s8,10(sp)

000029cc <.L1755>:
    29cc:	f9800c13          	li	s8,-104
    29d0:	01844463          	blt	s0,s8,29d8 <.L1767>
    29d4:	39c0206f          	j	4d70 <.L2814>

000029d8 <.L1767>:
    29d8:	f6600c13          	li	s8,-154
    29dc:	01844463          	blt	s0,s8,29e4 <.L1767+0xc>
    29e0:	00c0606f          	j	89ec <.L1759>
    29e4:	0c600c13          	li	s8,198
    29e8:	009c4863          	blt	s8,s1,29f8 <.L1769>

000029ec <.L1771>:
    29ec:	00c15c03          	lhu	s8,12(sp)
    29f0:	ffbc0c13          	addi	s8,s8,-5
    29f4:	01811623          	sh	s8,12(sp)

000029f8 <.L1769>:
    29f8:	02700c13          	li	s8,39
    29fc:	007c5463          	bge	s8,t2,2a04 <.L1769+0xc>
    2a00:	3180206f          	j	4d18 <.L1762>
    2a04:	0e400c13          	li	s8,228
    2a08:	006c5463          	bge	s8,t1,2a10 <.L1769+0x18>
    2a0c:	24d0506f          	j	8458 <.L1761>
    2a10:	01b00c13          	li	s8,27
    2a14:	010c5463          	bge	s8,a6,2a1c <.L1769+0x24>
    2a18:	1980706f          	j	9bb0 <.L1773>
    2a1c:	00e15c03          	lhu	s8,14(sp)
    2a20:	ff8c0c13          	addi	s8,s8,-8
    2a24:	01811723          	sh	s8,14(sp)

00002a28 <.L1774>:
    2a28:	00400c13          	li	s8,4
    2a2c:	011c5463          	bge	s8,a7,2a34 <.L1774+0xc>
    2a30:	1780206f          	j	4ba8 <.L1777>
    2a34:	03a00c13          	li	s8,58
    2a38:	01fc5463          	bge	s8,t6,2a40 <.L1774+0x18>
    2a3c:	4a50206f          	j	56e0 <.L1778>
    2a40:	00815c03          	lhu	s8,8(sp)
    2a44:	02e00c93          	li	s9,46
    2a48:	009c0c13          	addi	s8,s8,9
    2a4c:	01811423          	sh	s8,8(sp)
    2a50:	01dcd463          	bge	s9,t4,2a58 <.L1782>
    2a54:	6f10206f          	j	5944 <.L1779>

00002a58 <.L1782>:
    2a58:	01200c13          	li	s8,18
    2a5c:	01dc5463          	bge	s8,t4,2a64 <.L1782+0xc>
    2a60:	56c0806f          	j	afcc <.L2815>
    2a64:	00a15c03          	lhu	s8,10(sp)
    2a68:	ffec0c13          	addi	s8,s8,-2
    2a6c:	010c1c13          	slli	s8,s8,0x10
    2a70:	410c5c13          	srai	s8,s8,0x10

00002a74 <.L1792>:
    2a74:	01811523          	sh	s8,10(sp)
    2a78:	01500c13          	li	s8,21
    2a7c:	010c4463          	blt	s8,a6,2a84 <.L1792+0x10>
    2a80:	48d0206f          	j	570c <.L1786>
    2a84:	03b00c13          	li	s8,59
    2a88:	00fc5463          	bge	s8,a5,2a90 <.L1792+0x1c>
    2a8c:	16c0206f          	j	4bf8 <.L1795>
    2a90:	ffb00c13          	li	s8,-5
    2a94:	01865463          	bge	a2,s8,2a9c <.L2648>
    2a98:	1c00206f          	j	4c58 <.L1794>

00002a9c <.L2648>:
    2a9c:	00c15c03          	lhu	s8,12(sp)
    2aa0:	ffac0c13          	addi	s8,s8,-6
    2aa4:	01811623          	sh	s8,12(sp)

00002aa8 <.L1807>:
    2aa8:	00300c13          	li	s8,3
    2aac:	01cc5463          	bge	s8,t3,2ab4 <.L2883>
    2ab0:	1c00206f          	j	4c70 <.L1800>

00002ab4 <.L2883>:
    2ab4:	01300c13          	li	s8,19
    2ab8:	01dc5463          	bge	s8,t4,2ac0 <.L2883+0xc>
    2abc:	1c80206f          	j	4c84 <.L2649>
    2ac0:	02e00c13          	li	s8,46
    2ac4:	012c5463          	bge	s8,s2,2acc <.L2883+0x18>
    2ac8:	0a40306f          	j	5b6c <.L1814>
    2acc:	00e15c03          	lhu	s8,14(sp)
    2ad0:	0a900c93          	li	s9,169
    2ad4:	ff9c0c13          	addi	s8,s8,-7
    2ad8:	01811723          	sh	s8,14(sp)
    2adc:	01ecd463          	bge	s9,t5,2ae4 <.L1817>
    2ae0:	0a40306f          	j	5b84 <.L2650>

00002ae4 <.L1817>:
    2ae4:	01c00c13          	li	s8,28
    2ae8:	00fc5463          	bge	s8,a5,2af0 <.L1817+0xc>
    2aec:	76c0406f          	j	7258 <.L1827>
    2af0:	06700c13          	li	s8,103
    2af4:	016c5463          	bge	s8,s6,2afc <.L1817+0x18>
    2af8:	6150106f          	j	490c <.L1828>
    2afc:	00815c03          	lhu	s8,8(sp)
    2b00:	03300c93          	li	s9,51
    2b04:	005c0c13          	addi	s8,s8,5
    2b08:	01811423          	sh	s8,8(sp)
    2b0c:	01fcc463          	blt	s9,t6,2b14 <.L1830>
    2b10:	6150106f          	j	4924 <.L1831>

00002b14 <.L1830>:
    2b14:	08000c13          	li	s8,128
    2b18:	00ec5863          	bge	s8,a4,2b28 <.L1844>
    2b1c:	00a15c03          	lhu	s8,10(sp)
    2b20:	005c0c13          	addi	s8,s8,5
    2b24:	01811523          	sh	s8,10(sp)

00002b28 <.L1844>:
    2b28:	00100c13          	li	s8,1
    2b2c:	01cc4463          	blt	s8,t3,2b34 <.L1848>
    2b30:	62d0106f          	j	495c <.L2816>

00002b34 <.L1848>:
    2b34:	02700c13          	li	s8,39
    2b38:	006c5463          	bge	s8,t1,2b40 <.L1848+0xc>
    2b3c:	4540306f          	j	5f90 <.L1856>
    2b40:	ff800c13          	li	s8,-8
    2b44:	01864463          	blt	a2,s8,2b4c <.L1848+0x18>
    2b48:	1cd0606f          	j	9514 <.L1857>
    2b4c:	00c15c03          	lhu	s8,12(sp)
    2b50:	ffcc0c13          	addi	s8,s8,-4
    2b54:	01811623          	sh	s8,12(sp)

00002b58 <.L1855>:
    2b58:	c0000c13          	li	s8,-1024
    2b5c:	0185c463          	blt	a1,s8,2b64 <.L1855+0xc>
    2b60:	1910206f          	j	54f0 <.L1858>
    2b64:	00e15c03          	lhu	s8,14(sp)
    2b68:	01f00c93          	li	s9,31
    2b6c:	007c0c13          	addi	s8,s8,7
    2b70:	01811723          	sh	s8,14(sp)
    2b74:	013ccc63          	blt	s9,s3,2b8c <.L1859>
    2b78:	04600c13          	li	s8,70
    2b7c:	011c4463          	blt	s8,a7,2b84 <.L1855+0x2c>
    2b80:	2bd0806f          	j	b63c <.L2817>
    2b84:	03b00c13          	li	s8,59
    2b88:	006c5863          	bge	s8,t1,2b98 <.L1873>

00002b8c <.L1859>:
    2b8c:	00815c03          	lhu	s8,8(sp)
    2b90:	ff9c0c13          	addi	s8,s8,-7
    2b94:	01811423          	sh	s8,8(sp)

00002b98 <.L1873>:
    2b98:	ff900c13          	li	s8,-7
    2b9c:	01864463          	blt	a2,s8,2ba4 <.L1873+0xc>
    2ba0:	5380506f          	j	80d8 <.L1875>
    2ba4:	1d800c13          	li	s8,472
    2ba8:	016c5463          	bge	s8,s6,2bb0 <.L1873+0x18>
    2bac:	5310706f          	j	a8dc <.L1876>
    2bb0:	00a15c03          	lhu	s8,10(sp)
    2bb4:	ffdc0c13          	addi	s8,s8,-3
    2bb8:	01811523          	sh	s8,10(sp)

00002bbc <.L1879>:
    2bbc:	fdb00c13          	li	s8,-37
    2bc0:	01874463          	blt	a4,s8,2bc8 <.L2874>
    2bc4:	6010106f          	j	49c4 <.L1881>

00002bc8 <.L2874>:
    2bc8:	01200c13          	li	s8,18
    2bcc:	010c5463          	bge	s8,a6,2bd4 <.L2874+0xc>
    2bd0:	3c40406f          	j	6f94 <.L1882>
    2bd4:	00c15c03          	lhu	s8,12(sp)
    2bd8:	05800c93          	li	s9,88
    2bdc:	ff8c0c13          	addi	s8,s8,-8
    2be0:	01811623          	sh	s8,12(sp)
    2be4:	009cd463          	bge	s9,s1,2bec <.L2874+0x24>
    2be8:	5640206f          	j	514c <.L1883>
    2bec:	f5300c13          	li	s8,-173
    2bf0:	01845463          	bge	s0,s8,2bf8 <.L1885>
    2bf4:	7c40506f          	j	83b8 <.L1884>

00002bf8 <.L1885>:
    2bf8:	00e15c03          	lhu	s8,14(sp)
    2bfc:	003c0c13          	addi	s8,s8,3
    2c00:	010c1c13          	slli	s8,s8,0x10
    2c04:	410c5c13          	srai	s8,s8,0x10

00002c08 <.L1896>:
    2c08:	01811723          	sh	s8,14(sp)
    2c0c:	07300c13          	li	s8,115
    2c10:	012c4463          	blt	s8,s2,2c18 <.L1899>
    2c14:	6110106f          	j	4a24 <.L1893>

00002c18 <.L1899>:
    2c18:	00600c13          	li	s8,6
    2c1c:	010c5463          	bge	s8,a6,2c24 <.L1899+0xc>
    2c20:	3b00406f          	j	6fd0 <.L1894>
    2c24:	ffe00c13          	li	s8,-2
    2c28:	01884863          	blt	a6,s8,2c38 <.L1908>
    2c2c:	00815c03          	lhu	s8,8(sp)
    2c30:	ff7c0c13          	addi	s8,s8,-9
    2c34:	01811423          	sh	s8,8(sp)

00002c38 <.L1908>:
    2c38:	01e00c13          	li	s8,30
    2c3c:	013c4463          	blt	s8,s3,2c44 <.L1908+0xc>
    2c40:	6050106f          	j	4a44 <.L1911>
    2c44:	efa00c13          	li	s8,-262
    2c48:	01845863          	bge	s0,s8,2c58 <.L1913>
    2c4c:	00a15c03          	lhu	s8,10(sp)
    2c50:	009c0c13          	addi	s8,s8,9
    2c54:	01811523          	sh	s8,10(sp)

00002c58 <.L1913>:
    2c58:	00100c13          	li	s8,1
    2c5c:	01cc4463          	blt	s8,t3,2c64 <.L2495>
    2c60:	6090106f          	j	4a68 <.L1915>

00002c64 <.L2495>:
    2c64:	01f00c13          	li	s8,31
    2c68:	01dc4463          	blt	s8,t4,2c70 <.L2495+0xc>
    2c6c:	4580206f          	j	50c4 <.L1922>
    2c70:	11500c13          	li	s8,277
    2c74:	00dc4463          	blt	s8,a3,2c7c <.L2495+0x18>
    2c78:	6e10206f          	j	5b58 <.L2653>
    2c7c:	00c15c03          	lhu	s8,12(sp)
    2c80:	001c0c13          	addi	s8,s8,1
    2c84:	010c1c13          	slli	s8,s8,0x10
    2c88:	410c5c13          	srai	s8,s8,0x10

00002c8c <.L1921>:
    2c8c:	01811623          	sh	s8,12(sp)
    2c90:	ff600c13          	li	s8,-10
    2c94:	01864463          	blt	a2,s8,2c9c <.L2875>
    2c98:	5fd0106f          	j	4a94 <.L1929>

00002c9c <.L2875>:
    2c9c:	02800c13          	li	s8,40
    2ca0:	01dc4463          	blt	s8,t4,2ca8 <.L2875+0xc>
    2ca4:	4400206f          	j	50e4 <.L1930>
    2ca8:	03900c13          	li	s8,57
    2cac:	01fc4463          	blt	s8,t6,2cb4 <.L2875+0x18>
    2cb0:	2fc0306f          	j	5fac <.L2654>
    2cb4:	00e15c03          	lhu	s8,14(sp)
    2cb8:	ffbc0c13          	addi	s8,s8,-5
    2cbc:	01811723          	sh	s8,14(sp)

00002cc0 <.L1933>:
    2cc0:	39000c13          	li	s8,912
    2cc4:	006c5463          	bge	s8,t1,2ccc <.L2877>
    2cc8:	5fd0106f          	j	4ac4 <.L1938>

00002ccc <.L2877>:
    2ccc:	0ba00c13          	li	s8,186
    2cd0:	012c5463          	bge	s8,s2,2cd8 <.L2877+0xc>
    2cd4:	6710406f          	j	7b44 <.L1939>
    2cd8:	0b700c13          	li	s8,183
    2cdc:	012c5863          	bge	s8,s2,2cec <.L1940>
    2ce0:	00815c03          	lhu	s8,8(sp)
    2ce4:	008c0c13          	addi	s8,s8,8
    2ce8:	01811423          	sh	s8,8(sp)

00002cec <.L1940>:
    2cec:	e2400c13          	li	s8,-476
    2cf0:	0182c463          	blt	t0,s8,2cf8 <.L2878>
    2cf4:	5f50106f          	j	4ae8 <.L1944>

00002cf8 <.L2878>:
    2cf8:	e0200c13          	li	s8,-510
    2cfc:	018ac463          	blt	s5,s8,2d04 <.L2878+0xc>
    2d00:	2ec0406f          	j	6fec <.L1945>
    2d04:	ff400c13          	li	s8,-12
    2d08:	01864463          	blt	a2,s8,2d10 <.L2878+0x18>
    2d0c:	2f80806f          	j	b004 <.L1946>
    2d10:	00a15c03          	lhu	s8,10(sp)
    2d14:	ffbc0c13          	addi	s8,s8,-5
    2d18:	010c1c13          	slli	s8,s8,0x10
    2d1c:	410c5c13          	srai	s8,s8,0x10

00002d20 <.L1947>:
    2d20:	01811523          	sh	s8,10(sp)
    2d24:	03c00c13          	li	s8,60
    2d28:	00fc4463          	blt	s8,a5,2d30 <.L1958>
    2d2c:	5f50106f          	j	4b20 <.L1962>

00002d30 <.L1958>:
    2d30:	daa00c13          	li	s8,-598
    2d34:	018ac463          	blt	s5,s8,2d3c <.L1958+0xc>
    2d38:	2e00406f          	j	7018 <.L1952>
    2d3c:	ff300c13          	li	s8,-13
    2d40:	01864463          	blt	a2,s8,2d48 <.L1980>
    2d44:	2e40806f          	j	b028 <.L1951>

00002d48 <.L1980>:
    2d48:	00c15c03          	lhu	s8,12(sp)
    2d4c:	05800c93          	li	s9,88
    2d50:	006c0c13          	addi	s8,s8,6
    2d54:	01811623          	sh	s8,12(sp)
    2d58:	009cc463          	blt	s9,s1,2d60 <.L1983>
    2d5c:	5240506f          	j	8280 <.L1981>

00002d60 <.L1983>:
    2d60:	1a500c13          	li	s8,421
    2d64:	007c5463          	bge	s8,t2,2d6c <.L1982>
    2d68:	7000806f          	j	b468 <.L1989>

00002d6c <.L1982>:
    2d6c:	00e15c03          	lhu	s8,14(sp)
    2d70:	001c0c13          	addi	s8,s8,1
    2d74:	01811723          	sh	s8,14(sp)

00002d78 <.L1967>:
    2d78:	01500c13          	li	s8,21
    2d7c:	007c5463          	bge	s8,t2,2d84 <.L1965>
    2d80:	6840406f          	j	7404 <.L1974>

00002d84 <.L1965>:
    2d84:	07000c13          	li	s8,112
    2d88:	012c4863          	blt	s8,s2,2d98 <.L1971>
    2d8c:	00815c03          	lhu	s8,8(sp)
    2d90:	007c0c13          	addi	s8,s8,7
    2d94:	01811423          	sh	s8,8(sp)

00002d98 <.L1971>:
    2d98:	02e00c13          	li	s8,46
    2d9c:	01dc4463          	blt	s8,t4,2da4 <.L2879>
    2da0:	5e10106f          	j	4b80 <.L1992>

00002da4 <.L2879>:
    2da4:	03900c13          	li	s8,57
    2da8:	01fc4463          	blt	s8,t6,2db0 <.L2879+0xc>
    2dac:	55c0506f          	j	8308 <.L1997>
    2db0:	03d00c13          	li	s8,61
    2db4:	00fc4463          	blt	s8,a5,2dbc <.L1998>
    2db8:	4a10606f          	j	9a58 <.L2005>

00002dbc <.L1998>:
    2dbc:	25b00c13          	li	s8,603
    2dc0:	00ec5463          	bge	s8,a4,2dc8 <.L1998+0xc>
    2dc4:	4240106f          	j	41e8 <.L2003>
    2dc8:	0fe00c13          	li	s8,254
    2dcc:	00dc5463          	bge	s8,a3,2dd4 <.L1998+0x18>
    2dd0:	3610506f          	j	8930 <.L2007>
    2dd4:	f5600c13          	li	s8,-170
    2dd8:	018a4463          	blt	s4,s8,2de0 <.L1998+0x24>
    2ddc:	2ec0506f          	j	80c8 <.L2008>
    2de0:	00c15c03          	lhu	s8,12(sp)
    2de4:	fffc0c13          	addi	s8,s8,-1
    2de8:	01811623          	sh	s8,12(sp)

00002dec <.L2009>:
    2dec:	02700c13          	li	s8,39
    2df0:	007c5463          	bge	s8,t2,2df8 <.L2856>
    2df4:	4240106f          	j	4218 <.L2012>

00002df8 <.L2856>:
    2df8:	03d00c13          	li	s8,61
    2dfc:	00fc5463          	bge	s8,a5,2e04 <.L2856+0xc>
    2e00:	1fc0506f          	j	7ffc <.L2013>
    2e04:	00e15c03          	lhu	s8,14(sp)
    2e08:	ff9c0c13          	addi	s8,s8,-7
    2e0c:	010c1c13          	slli	s8,s8,0x10
    2e10:	410c5c13          	srai	s8,s8,0x10

00002e14 <.L2014>:
    2e14:	01811723          	sh	s8,14(sp)
    2e18:	00400c13          	li	s8,4
    2e1c:	011c5463          	bge	s8,a7,2e24 <.L2857>
    2e20:	4300106f          	j	4250 <.L2018>

00002e24 <.L2857>:
    2e24:	03800c13          	li	s8,56
    2e28:	01fc5463          	bge	s8,t6,2e30 <.L2857+0xc>
    2e2c:	1e40506f          	j	8010 <.L2019>
    2e30:	00815c03          	lhu	s8,8(sp)
    2e34:	008c0c13          	addi	s8,s8,8
    2e38:	01811423          	sh	s8,8(sp)

00002e3c <.L2020>:
    2e3c:	0f000c13          	li	s8,240
    2e40:	006c4463          	blt	s8,t1,2e48 <.L2858>
    2e44:	43c0106f          	j	4280 <.L2028>

00002e48 <.L2858>:
    2e48:	f5200c13          	li	s8,-174
    2e4c:	0185c463          	blt	a1,s8,2e54 <.L2858+0xc>
    2e50:	22c0506f          	j	807c <.L2025>
    2e54:	03700c13          	li	s8,55
    2e58:	01fc5463          	bge	s8,t6,2e60 <.L2858+0x18>
    2e5c:	1690806f          	j	b7c4 <.L2037>
    2e60:	00a15c03          	lhu	s8,10(sp)
    2e64:	01500c93          	li	s9,21
    2e68:	ffec0c13          	addi	s8,s8,-2
    2e6c:	01811523          	sh	s8,10(sp)
    2e70:	010cd463          	bge	s9,a6,2e78 <.L2034>
    2e74:	5e80206f          	j	545c <.L2038>

00002e78 <.L2034>:
    2e78:	02200c13          	li	s8,34
    2e7c:	011c4463          	blt	s8,a7,2e84 <.L2034+0xc>
    2e80:	1c80506f          	j	8048 <.L2039>
    2e84:	00c15c03          	lhu	s8,12(sp)
    2e88:	001c0c13          	addi	s8,s8,1
    2e8c:	010c1c13          	slli	s8,s8,0x10
    2e90:	410c5c13          	srai	s8,s8,0x10

00002e94 <.L2042>:
    2e94:	01811623          	sh	s8,12(sp)
    2e98:	01c04463          	bgtz	t3,2ea0 <.L2044>
    2e9c:	43c0106f          	j	42d8 <.L2818>

00002ea0 <.L2044>:
    2ea0:	ff600c13          	li	s8,-10
    2ea4:	01864463          	blt	a2,s8,2eac <.L2044+0xc>
    2ea8:	6b90506f          	j	8d60 <.L2819>
    2eac:	02900c13          	li	s8,41
    2eb0:	01dc5463          	bge	s8,t4,2eb8 <.L2044+0x18>
    2eb4:	3980806f          	j	b24c <.L2820>
    2eb8:	00e15c03          	lhu	s8,14(sp)
    2ebc:	ffbc0c13          	addi	s8,s8,-5
    2ec0:	010c1c13          	slli	s8,s8,0x10
    2ec4:	410c5c13          	srai	s8,s8,0x10

00002ec8 <.L2057>:
    2ec8:	01811723          	sh	s8,14(sp)
    2ecc:	0a900c13          	li	s8,169
    2ed0:	01ec5463          	bge	s8,t5,2ed8 <.L2049>
    2ed4:	4240106f          	j	42f8 <.L2055>

00002ed8 <.L2049>:
    2ed8:	01c00b13          	li	s6,28
    2edc:	00fb5463          	bge	s6,a5,2ee4 <.L2049+0xc>
    2ee0:	5c00206f          	j	54a0 <.L2047>
    2ee4:	07300b13          	li	s6,115
    2ee8:	01eb5463          	bge	s6,t5,2ef0 <.L2049+0x18>
    2eec:	7250706f          	j	ae10 <.L2068>
    2ef0:	00815b03          	lhu	s6,8(sp)
    2ef4:	005b0b13          	addi	s6,s6,5
    2ef8:	01611423          	sh	s6,8(sp)

00002efc <.L2069>:
    2efc:	08300b13          	li	s6,131
    2f00:	009b5463          	bge	s6,s1,2f08 <.L2069+0xc>
    2f04:	13c0206f          	j	5040 <.L2072>
    2f08:	01900b13          	li	s6,25
    2f0c:	013b4463          	blt	s6,s3,2f14 <.L2069+0x18>
    2f10:	4140106f          	j	4324 <.L2075>
    2f14:	00a15b03          	lhu	s6,10(sp)
    2f18:	02700c13          	li	s8,39
    2f1c:	fffb0b13          	addi	s6,s6,-1
    2f20:	01611523          	sh	s6,10(sp)
    2f24:	006c5463          	bge	s8,t1,2f2c <.L2073>
    2f28:	4140106f          	j	433c <.L2074>

00002f2c <.L2073>:
    2f2c:	ff800b13          	li	s6,-8
    2f30:	01665463          	bge	a2,s6,2f38 <.L2091>
    2f34:	17c0406f          	j	70b0 <.L2088>

00002f38 <.L2091>:
    2f38:	00c15b03          	lhu	s6,12(sp)
    2f3c:	ffeb0b13          	addi	s6,s6,-2
    2f40:	010b1b13          	slli	s6,s6,0x10
    2f44:	410b5b13          	srai	s6,s6,0x10

00002f48 <.L2081>:
    2f48:	01611623          	sh	s6,12(sp)
    2f4c:	c5700b13          	li	s6,-937
    2f50:	0165c463          	blt	a1,s6,2f58 <.L2860>
    2f54:	41c0106f          	j	4370 <.L2093>

00002f58 <.L2860>:
    2f58:	00e15b03          	lhu	s6,14(sp)
    2f5c:	006b0b13          	addi	s6,s6,6
    2f60:	01611723          	sh	s6,14(sp)

00002f64 <.L2094>:
    2f64:	01e00b13          	li	s6,30
    2f68:	013b5463          	bge	s6,s3,2f70 <.L2094+0xc>
    2f6c:	7e10106f          	j	4f4c <.L2107>
    2f70:	03d00b13          	li	s6,61
    2f74:	01fb4463          	blt	s6,t6,2f7c <.L2094+0x18>
    2f78:	1500606f          	j	90c8 <.L2821>
    2f7c:	07100b13          	li	s6,113
    2f80:	012b5463          	bge	s6,s2,2f88 <.L2094+0x24>
    2f84:	1700706f          	j	a0f4 <.L2110>
    2f88:	00815b03          	lhu	s6,8(sp)
    2f8c:	02e00c13          	li	s8,46
    2f90:	009b0b13          	addi	s6,s6,9
    2f94:	01611423          	sh	s6,8(sp)
    2f98:	01dc4463          	blt	s8,t4,2fa0 <.L2111>
    2f9c:	4140106f          	j	43b0 <.L2098>

00002fa0 <.L2111>:
    2fa0:	02b00b13          	li	s6,43
    2fa4:	011b5463          	bge	s6,a7,2fac <.L2111+0xc>
    2fa8:	6680606f          	j	9610 <.L2120>
    2fac:	00a15b03          	lhu	s6,10(sp)
    2fb0:	008b0b13          	addi	s6,s6,8
    2fb4:	01611523          	sh	s6,10(sp)

00002fb8 <.L2114>:
    2fb8:	25b00b13          	li	s6,603
    2fbc:	00eb4463          	blt	s6,a4,2fc4 <.L2862>
    2fc0:	4200106f          	j	43e0 <.L2119>

00002fc4 <.L2862>:
    2fc4:	fe900b13          	li	s6,-23
    2fc8:	01664463          	blt	a2,s6,2fd0 <.L2862+0xc>
    2fcc:	0950406f          	j	7860 <.L2116>
    2fd0:	dde00b13          	li	s6,-546
    2fd4:	016a4463          	blt	s4,s6,2fdc <.L2862+0x18>
    2fd8:	46d0706f          	j	ac44 <.L2128>
    2fdc:	00c15b03          	lhu	s6,12(sp)
    2fe0:	005b0b13          	addi	s6,s6,5
    2fe4:	01611623          	sh	s6,12(sp)

00002fe8 <.L2123>:
    2fe8:	02600b13          	li	s6,38
    2fec:	00db5463          	bge	s6,a3,2ff4 <.L2864>
    2ff0:	4200106f          	j	4410 <.L2127>

00002ff4 <.L2864>:
    2ff4:	01300b13          	li	s6,19
    2ff8:	00db5463          	bge	s6,a3,3000 <.L2864+0xc>
    2ffc:	7040506f          	j	8700 <.L2126>
    3000:	08400b13          	li	s6,132
    3004:	007b5463          	bge	s6,t2,300c <.L2864+0x18>
    3008:	7180406f          	j	7720 <.L2663>
    300c:	00e15b03          	lhu	s6,14(sp)
    3010:	00400c13          	li	s8,4
    3014:	003b0b13          	addi	s6,s6,3
    3018:	01611723          	sh	s6,14(sp)
    301c:	011c4463          	blt	s8,a7,3024 <.L2864+0x30>
    3020:	7140206f          	j	5734 <.L2147>
    3024:	ff800b13          	li	s6,-8
    3028:	296658e3          	bge	a2,s6,3ab8 <.L2153>

0000302c <.L2133>:
    302c:	01f00b13          	li	s6,31
    3030:	011b5463          	bge	s6,a7,3038 <.L2133+0xc>
    3034:	6540406f          	j	7688 <.L2822>
    3038:	00815b03          	lhu	s6,8(sp)
    303c:	002b0b13          	addi	s6,s6,2
    3040:	010b1b13          	slli	s6,s6,0x10
    3044:	410b5b13          	srai	s6,s6,0x10

00003048 <.L2134>:
    3048:	01611423          	sh	s6,8(sp)
    304c:	03b00b13          	li	s6,59
    3050:	28fb42e3          	blt	s6,a5,3ad4 <.L2145>

00003054 <.L2836>:
    3054:	33f00b13          	li	s6,831
    3058:	00eb5463          	bge	s6,a4,3060 <.L2836+0xc>
    305c:	6500406f          	j	76ac <.L2148>
    3060:	01400b13          	li	s6,20
    3064:	011b4463          	blt	s6,a7,306c <.L2152>
    3068:	6fc0206f          	j	5764 <.L2150>

0000306c <.L2152>:
    306c:	00a15b03          	lhu	s6,10(sp)
    3070:	ffcb0b13          	addi	s6,s6,-4
    3074:	010b1b13          	slli	s6,s6,0x10
    3078:	410b5b13          	srai	s6,s6,0x10
    307c:	01611523          	sh	s6,10(sp)
    3080:	fdb00b13          	li	s6,-37
    3084:	01675463          	bge	a4,s6,308c <.L2178>
    3088:	6fc0206f          	j	5784 <.L2823>

0000308c <.L2178>:
    308c:	02600b13          	li	s6,38
    3090:	00eb5463          	bge	s6,a4,3098 <.L2178+0xc>
    3094:	6300406f          	j	76c4 <.L2155>
    3098:	03c00b13          	li	s6,60
    309c:	00db5863          	bge	s6,a3,30ac <.L2163>

000030a0 <.L2170>:
    30a0:	00c15683          	lhu	a3,12(sp)
    30a4:	00668693          	addi	a3,a3,6
    30a8:	00d11623          	sh	a3,12(sp)

000030ac <.L2163>:
    30ac:	03100693          	li	a3,49
    30b0:	00f6d463          	bge	a3,a5,30b8 <.L2896>
    30b4:	6f40206f          	j	57a8 <.L2169>

000030b8 <.L2896>:
    30b8:	00e15683          	lhu	a3,14(sp)
    30bc:	ffa68693          	addi	a3,a3,-6
    30c0:	01069693          	slli	a3,a3,0x10
    30c4:	4106d693          	srai	a3,a3,0x10

000030c8 <.L2182>:
    30c8:	00d11723          	sh	a3,14(sp)
    30cc:	0a900b13          	li	s6,169
    30d0:	27eb48e3          	blt	s6,t5,3b40 <.L2186>

000030d4 <.L2837>:
    30d4:	000e5463          	bgez	t3,30dc <.L2837+0x8>
    30d8:	7710506f          	j	9048 <.L2824>
    30dc:	02d00f13          	li	t5,45
    30e0:	01ff5463          	bge	t5,t6,30e8 <.L2837+0x14>
    30e4:	3cc0606f          	j	94b0 <.L2189>
    30e8:	00815f03          	lhu	t5,8(sp)
    30ec:	ffef0f13          	addi	t5,t5,-2
    30f0:	01e11423          	sh	t5,8(sp)

000030f4 <.L2188>:
    30f4:	ef600f13          	li	t5,-266
    30f8:	27ead8e3          	bge	s5,t5,3b68 <.L2192>

000030fc <.L2838>:
    30fc:	ff800f13          	li	t5,-8
    3100:	01e64463          	blt	a2,t5,3108 <.L2838+0xc>
    3104:	7550306f          	j	7058 <.L2193>
    3108:	01c51e83          	lh	t4,28(a0)
    310c:	01e00513          	li	a0,30
    3110:	01d55463          	bge	a0,t4,3118 <.L2838+0x1c>
    3114:	3ec0706f          	j	a500 <.L2194>
    3118:	00a15503          	lhu	a0,10(sp)
    311c:	00250513          	addi	a0,a0,2
    3120:	01051513          	slli	a0,a0,0x10
    3124:	41055513          	srai	a0,a0,0x10

00003128 <.L2195>:
    3128:	00a11523          	sh	a0,10(sp)
    312c:	25b00513          	li	a0,603
    3130:	26e546e3          	blt	a0,a4,3b9c <.L2204>

00003134 <.L2200>:
    3134:	00e00513          	li	a0,14
    3138:	01055463          	bge	a0,a6,3140 <.L2200+0xc>
    313c:	4e00406f          	j	761c <.L2825>
    3140:	f6300513          	li	a0,-157
    3144:	00a5c463          	blt	a1,a0,314c <.L2200+0x18>
    3148:	74d0706f          	j	b094 <.L2205>
    314c:	00c15503          	lhu	a0,12(sp)
    3150:	ffc50513          	addi	a0,a0,-4
    3154:	01051513          	slli	a0,a0,0x10
    3158:	41055513          	srai	a0,a0,0x10

0000315c <.L2206>:
    315c:	00a11623          	sh	a0,12(sp)
    3160:	02800513          	li	a0,40
    3164:	00755463          	bge	a0,t2,316c <.L2206+0x10>
    3168:	48c0206f          	j	55f4 <.L2208>
    316c:	03c00513          	li	a0,60
    3170:	00f54463          	blt	a0,a5,3178 <.L2209>
    3174:	4c80406f          	j	763c <.L2221>

00003178 <.L2209>:
    3178:	f7a00693          	li	a3,-134
    317c:	26da48e3          	blt	s4,a3,3bec <.L2826>

00003180 <.L2215>:
    3180:	00b00693          	li	a3,11
    3184:	0136d463          	bge	a3,s3,318c <.L2215+0xc>
    3188:	3c10306f          	j	6d48 <.L2231>
    318c:	19f00693          	li	a3,415
    3190:	0126d463          	bge	a3,s2,3198 <.L2215+0x18>
    3194:	3b80706f          	j	a54c <.L2232>
    3198:	00815683          	lhu	a3,8(sp)
    319c:	00868693          	addi	a3,a3,8
    31a0:	01069693          	slli	a3,a3,0x10
    31a4:	4106d693          	srai	a3,a3,0x10

000031a8 <.L2233>:
    31a8:	00d11423          	sh	a3,8(sp)

000031ac <.L2230>:
    31ac:	03300693          	li	a3,51
    31b0:	27f6c4e3          	blt	a3,t6,3c18 <.L2238>

000031b4 <.L2840>:
    31b4:	11700693          	li	a3,279
    31b8:	00e6d463          	bge	a3,a4,31c0 <.L2840+0xc>
    31bc:	3880106f          	j	4544 <.L2235>
    31c0:	ffe00713          	li	a4,-2
    31c4:	00e84463          	blt	a6,a4,31cc <.L2840+0x18>
    31c8:	7340706f          	j	a8fc <.L2239>
    31cc:	00a15703          	lhu	a4,10(sp)
    31d0:	f5b00693          	li	a3,-165
    31d4:	fff70713          	addi	a4,a4,-1
    31d8:	00e11523          	sh	a4,10(sp)
    31dc:	00d2c463          	blt	t0,a3,31e4 <.L2671>
    31e0:	3880106f          	j	4568 <.L2240>

000031e4 <.L2671>:
    31e4:	f5600793          	li	a5,-170
    31e8:	00fa4463          	blt	s4,a5,31f0 <.L2243>
    31ec:	2d00406f          	j	74bc <.L2241>

000031f0 <.L2243>:
    31f0:	00c15783          	lhu	a5,12(sp)
    31f4:	ffe78793          	addi	a5,a5,-2
    31f8:	01079793          	slli	a5,a5,0x10
    31fc:	4107d793          	srai	a5,a5,0x10

00003200 <.L2242>:
    3200:	00f11623          	sh	a5,12(sp)
    3204:	c0000793          	li	a5,-1024
    3208:	26f5dae3          	bge	a1,a5,3c7c <.L2249>

0000320c <.L2841>:
    320c:	00e15783          	lhu	a5,14(sp)
    3210:	00678793          	addi	a5,a5,6
    3214:	00f11723          	sh	a5,14(sp)

00003218 <.L2250>:
    3218:	cc817057          	vsetivli	zero,2,e16,m1,ta,ma
    321c:	00810793          	addi	a5,sp,8
    3220:	0207d107          	vle16.v	v2,(a5)
    3224:	02000713          	li	a4,32
    3228:	5e0741d7          	vmv.v.x	v3,a4
    322c:	020bd087          	vle16.v	v1,(s7)
    3230:	02218157          	vadd.vv	v2,v2,v3
    3234:	021180d7          	vadd.vv	v1,v1,v3
    3238:	3e20b1d7          	vslidedown.vi	v3,v2,1
    323c:	422026d7          	vmv.x.s	a3,v2
    3240:	0207d127          	vse16.v	v2,(a5)
    3244:	42302557          	vmv.x.s	a0,v3
    3248:	020bd0a7          	vse16.v	v1,(s7)
    324c:	01069693          	slli	a3,a3,0x10
    3250:	01051513          	slli	a0,a0,0x10
    3254:	4106d693          	srai	a3,a3,0x10
    3258:	41055513          	srai	a0,a0,0x10
    325c:	00a6a533          	slt	a0,a3,a0
    3260:	00151693          	slli	a3,a0,0x1
    3264:	42102757          	vmv.x.s	a4,v1
    3268:	00d78633          	add	a2,a5,a3
    326c:	00061603          	lh	a2,0(a2)
    3270:	01071713          	slli	a4,a4,0x10
    3274:	41075713          	srai	a4,a4,0x10
    3278:	00e65663          	bge	a2,a4,3284 <.L2252>
    327c:	00200513          	li	a0,2
    3280:	00400693          	li	a3,4

00003284 <.L2252>:
    3284:	3e10b0d7          	vslidedown.vi	v1,v1,1
    3288:	00d787b3          	add	a5,a5,a3
    328c:	00079703          	lh	a4,0(a5)
    3290:	421027d7          	vmv.x.s	a5,v1
    3294:	01079793          	slli	a5,a5,0x10
    3298:	4107d793          	srai	a5,a5,0x10
    329c:	00f75463          	bge	a4,a5,32a4 <.L2541>
    32a0:	00300513          	li	a0,3

000032a4 <.L2541>:
    32a4:	03c12403          	lw	s0,60(sp)
    32a8:	03812483          	lw	s1,56(sp)
    32ac:	03412903          	lw	s2,52(sp)
    32b0:	03012983          	lw	s3,48(sp)
    32b4:	02c12a03          	lw	s4,44(sp)
    32b8:	02812a83          	lw	s5,40(sp)
    32bc:	02412b03          	lw	s6,36(sp)
    32c0:	02012b83          	lw	s7,32(sp)
    32c4:	01c12c03          	lw	s8,28(sp)
    32c8:	01812c83          	lw	s9,24(sp)
    32cc:	01412d03          	lw	s10,20(sp)
    32d0:	04010113          	addi	sp,sp,64
    32d4:	00008067          	ret

000032d8 <.L934>:
    32d8:	00e15c03          	lhu	s8,14(sp)
    32dc:	ffac0c13          	addi	s8,s8,-6
    32e0:	01811723          	sh	s8,14(sp)
    32e4:	e8dfd06f          	j	1170 <.L940>

000032e8 <.L712>:
    32e8:	00e15c03          	lhu	s8,14(sp)
    32ec:	0a900c93          	li	s9,169
    32f0:	00cc0c13          	addi	s8,s8,12
    32f4:	01811723          	sh	s8,14(sp)
    32f8:	01ecc463          	blt	s9,t5,3300 <.L712+0x18>
    32fc:	1290306f          	j	6c24 <.L2731>
    3300:	10700c13          	li	s8,263
    3304:	007c5463          	bge	s8,t2,330c <.L714>
    3308:	75c0806f          	j	ba64 <.L2534>

0000330c <.L714>:
    330c:	00815c03          	lhu	s8,8(sp)
    3310:	ffcc0c13          	addi	s8,s8,-4
    3314:	01811423          	sh	s8,8(sp)
    3318:	b51fd06f          	j	e68 <.L715>

0000331c <.L348>:
    331c:	ff700c13          	li	s8,-9
    3320:	01864463          	blt	a2,s8,3328 <.L348+0xc>
    3324:	3c50306f          	j	6ee8 <.L360>
    3328:	03100c13          	li	s8,49
    332c:	01dc5463          	bge	s8,t4,3334 <.L348+0x18>
    3330:	2e10306f          	j	6e10 <.L361>
    3334:	00a15c03          	lhu	s8,10(sp)
    3338:	17000c93          	li	s9,368
    333c:	ffac0c13          	addi	s8,s8,-6
    3340:	01811523          	sh	s8,10(sp)
    3344:	00dcd463          	bge	s9,a3,334c <.L353>
    3348:	2e10306f          	j	6e28 <.L362>

0000334c <.L353>:
    334c:	01200c13          	li	s8,18
    3350:	01dc5463          	bge	s8,t4,3358 <.L353+0xc>
    3354:	4140706f          	j	a768 <.L363>
    3358:	00c15c03          	lhu	s8,12(sp)
    335c:	006c0c13          	addi	s8,s8,6
    3360:	010c1c13          	slli	s8,s8,0x10
    3364:	410c5c13          	srai	s8,s8,0x10
    3368:	01811623          	sh	s8,12(sp)
    336c:	e9900c13          	li	s8,-359
    3370:	0185c463          	blt	a1,s8,3378 <.L368>
    3374:	ce8fd06f          	j	85c <.L372>

00003378 <.L368>:
    3378:	20200c13          	li	s8,514
    337c:	016c5463          	bge	s8,s6,3384 <.L368+0xc>
    3380:	1c40506f          	j	8544 <.L373>
    3384:	df000c13          	li	s8,-528
    3388:	0182c463          	blt	t0,s8,3390 <.L368+0x18>
    338c:	2490606f          	j	9dd4 <.L374>
    3390:	00e15c03          	lhu	s8,14(sp)
    3394:	ff7c0c13          	addi	s8,s8,-9
    3398:	010c1c13          	slli	s8,s8,0x10
    339c:	410c5c13          	srai	s8,s8,0x10
    33a0:	01811723          	sh	s8,14(sp)
    33a4:	0a900c13          	li	s8,169
    33a8:	01ec4463          	blt	s8,t5,33b0 <.L378>
    33ac:	ce8fd06f          	j	894 <.L2827>

000033b0 <.L378>:
    33b0:	ea900c13          	li	s8,-343
    33b4:	018a4463          	blt	s4,s8,33bc <.L378+0xc>
    33b8:	34d0406f          	j	7f04 <.L393>
    33bc:	00d00c13          	li	s8,13
    33c0:	013c5463          	bge	s8,s3,33c8 <.L378+0x18>
    33c4:	6e40606f          	j	9aa8 <.L394>
    33c8:	00815c03          	lhu	s8,8(sp)
    33cc:	ffdc0c13          	addi	s8,s8,-3
    33d0:	010c1c13          	slli	s8,s8,0x10
    33d4:	410c5c13          	srai	s8,s8,0x10

000033d8 <.L395>:
    33d8:	01811423          	sh	s8,8(sp)
    33dc:	0b500c13          	li	s8,181
    33e0:	006c5463          	bge	s8,t1,33e8 <.L2930>
    33e4:	34d0406f          	j	7f30 <.L397>

000033e8 <.L2930>:
    33e8:	00a00c13          	li	s8,10
    33ec:	011c4463          	blt	s8,a7,33f4 <.L2930+0xc>
    33f0:	48c0306f          	j	687c <.L382>
    33f4:	18f00c13          	li	s8,399
    33f8:	01ec4463          	blt	s8,t5,3400 <.L2930+0x18>
    33fc:	cd4fd06f          	j	8d0 <.L388>
    3400:	00a15c03          	lhu	s8,10(sp)
    3404:	ffdc0c13          	addi	s8,s8,-3
    3408:	010c1c13          	slli	s8,s8,0x10
    340c:	410c5c13          	srai	s8,s8,0x10
    3410:	01811523          	sh	s8,10(sp)
    3414:	06300c13          	li	s8,99
    3418:	00dc4463          	blt	s8,a3,3420 <.L400>
    341c:	cd4fd06f          	j	8f0 <.L2828>

00003420 <.L400>:
    3420:	ff700c13          	li	s8,-9
    3424:	01864463          	blt	a2,s8,342c <.L400+0xc>
    3428:	1b90406f          	j	7de0 <.L408>
    342c:	03300c13          	li	s8,51
    3430:	01dc4463          	blt	s8,t4,3438 <.L400+0x18>
    3434:	1990406f          	j	7dcc <.L410>
    3438:	00c15c03          	lhu	s8,12(sp)
    343c:	ffdc0c13          	addi	s8,s8,-3
    3440:	010c1c13          	slli	s8,s8,0x10
    3444:	410c5c13          	srai	s8,s8,0x10
    3448:	01811623          	sh	s8,12(sp)
    344c:	03b00c13          	li	s8,59
    3450:	00fc4463          	blt	s8,a5,3458 <.L411>
    3454:	cd4fd06f          	j	928 <.L2829>

00003458 <.L411>:
    3458:	e4700c13          	li	s8,-441
    345c:	0182c463          	blt	t0,s8,3464 <.L411+0xc>
    3460:	51c0306f          	j	697c <.L407>
    3464:	bf300c13          	li	s8,-1037
    3468:	0185c463          	blt	a1,s8,3470 <.L411+0x18>
    346c:	4980306f          	j	6904 <.L406>
    3470:	00e15c03          	lhu	s8,14(sp)
    3474:	00ac0c13          	addi	s8,s8,10
    3478:	010c1c13          	slli	s8,s8,0x10
    347c:	410c5c13          	srai	s8,s8,0x10
    3480:	01811723          	sh	s8,14(sp)
    3484:	0a900c13          	li	s8,169
    3488:	01ec4463          	blt	s8,t5,3490 <.L415>
    348c:	cc8fd06f          	j	954 <.L2830>

00003490 <.L415>:
    3490:	01e00c13          	li	s8,30
    3494:	013c5463          	bge	s8,s3,349c <.L415+0xc>
    3498:	1240506f          	j	85bc <.L422>
    349c:	ea900c13          	li	s8,-343
    34a0:	018a4463          	blt	s4,s8,34a8 <.L415+0x18>
    34a4:	2480606f          	j	96ec <.L423>
    34a8:	00815c03          	lhu	s8,8(sp)
    34ac:	ffbc0c13          	addi	s8,s8,-5
    34b0:	010c1c13          	slli	s8,s8,0x10
    34b4:	410c5c13          	srai	s8,s8,0x10
    34b8:	01811423          	sh	s8,8(sp)
    34bc:	03900c13          	li	s8,57
    34c0:	00ec4463          	blt	s8,a4,34c8 <.L424>
    34c4:	cccfd06f          	j	990 <.L2831>

000034c8 <.L424>:
    34c8:	08c00c13          	li	s8,140
    34cc:	006c5463          	bge	s8,t1,34d4 <.L424+0xc>
    34d0:	0b00306f          	j	6580 <.L435>
    34d4:	00a00c13          	li	s8,10
    34d8:	011c5463          	bge	s8,a7,34e0 <.L424+0x18>
    34dc:	2dc0606f          	j	97b8 <.L436>
    34e0:	00a15c03          	lhu	s8,10(sp)
    34e4:	008c0c13          	addi	s8,s8,8
    34e8:	010c1c13          	slli	s8,s8,0x10
    34ec:	410c5c13          	srai	s8,s8,0x10

000034f0 <.L437>:
    34f0:	01811523          	sh	s8,10(sp)
    34f4:	06300c13          	li	s8,99
    34f8:	16dc5e63          	bge	s8,a3,3674 <.L432>
    34fc:	ed000c13          	li	s8,-304
    3500:	018ac463          	blt	s5,s8,3508 <.L437+0x18>
    3504:	5a10206f          	j	62a4 <.L430>
    3508:	25b00c13          	li	s8,603
    350c:	00ec4463          	blt	s8,a4,3514 <.L437+0x24>
    3510:	cbcfd06f          	j	9cc <.L433>
    3514:	00c15c03          	lhu	s8,12(sp)
    3518:	e2500c93          	li	s9,-475
    351c:	ffec0c13          	addi	s8,s8,-2
    3520:	01811623          	sh	s8,12(sp)
    3524:	01945463          	bge	s0,s9,352c <.L447>
    3528:	cc4fd06f          	j	9ec <.L446>

0000352c <.L447>:
    352c:	03d00c13          	li	s8,61
    3530:	01fc5463          	bge	s8,t6,3538 <.L447+0xc>
    3534:	0a10706f          	j	add4 <.L455>
    3538:	00e15c03          	lhu	s8,14(sp)
    353c:	ff8c0c13          	addi	s8,s8,-8
    3540:	010c1c13          	slli	s8,s8,0x10
    3544:	410c5c13          	srai	s8,s8,0x10

00003548 <.L454>:
    3548:	01811723          	sh	s8,14(sp)
    354c:	f5c00c13          	li	s8,-164
    3550:	01845463          	bge	s0,s8,3558 <.L454+0x10>
    3554:	cbcfd06f          	j	a10 <.L451>
    3558:	0bb00c13          	li	s8,187
    355c:	012c5463          	bge	s8,s2,3564 <.L454+0x1c>
    3560:	7f90206f          	j	6558 <.L462>
    3564:	18500c13          	li	s8,389
    3568:	009c5463          	bge	s8,s1,3570 <.L454+0x28>
    356c:	1cc0606f          	j	9738 <.L463>
    3570:	00815c03          	lhu	s8,8(sp)
    3574:	0b500c93          	li	s9,181
    3578:	009c0c13          	addi	s8,s8,9
    357c:	01811423          	sh	s8,8(sp)
    3580:	006cc463          	blt	s9,t1,3588 <.L472>
    3584:	cc4fd06f          	j	a48 <.L465>

00003588 <.L472>:
    3588:	01300c13          	li	s8,19
    358c:	00ec5463          	bge	s8,a4,3594 <.L472+0xc>
    3590:	3880306f          	j	6918 <.L474>
    3594:	00a15c03          	lhu	s8,10(sp)
    3598:	2be00c93          	li	s9,702
    359c:	ffac0c13          	addi	s8,s8,-6
    35a0:	01811523          	sh	s8,10(sp)
    35a4:	00dcc463          	blt	s9,a3,35ac <.L472+0x24>
    35a8:	3940306f          	j	693c <.L475>
    35ac:	e4e00c13          	li	s8,-434
    35b0:	018ac463          	blt	s5,s8,35b8 <.L2572>
    35b4:	4d80806f          	j	ba8c <.L2573>

000035b8 <.L2572>:
    35b8:	00c15c03          	lhu	s8,12(sp)
    35bc:	00bc0c13          	addi	s8,s8,11
    35c0:	01811623          	sh	s8,12(sp)
    35c4:	41d0506f          	j	91e0 <.L498>

000035c8 <.L2732>:
    35c8:	01fc5463          	bge	s8,t6,35d0 <.L2732+0x8>
    35cc:	3d10606f          	j	a19c <.L1070>
    35d0:	08d00c13          	li	s8,141
    35d4:	00dc5463          	bge	s8,a3,35dc <.L2732+0x14>
    35d8:	0090806f          	j	bde0 <.L1065>
    35dc:	00e15c03          	lhu	s8,14(sp)
    35e0:	ffe00c93          	li	s9,-2
    35e4:	004c0c13          	addi	s8,s8,4
    35e8:	01811723          	sh	s8,14(sp)
    35ec:	01984463          	blt	a6,s9,35f4 <.L1064>
    35f0:	d71fd06f          	j	1360 <.L1062>

000035f4 <.L1064>:
    35f4:	de600c13          	li	s8,-538
    35f8:	018a4463          	blt	s4,s8,3600 <.L1064+0xc>
    35fc:	0a50806f          	j	bea0 <.L1084>
    3600:	00815c03          	lhu	s8,8(sp)
    3604:	30000c93          	li	s9,768
    3608:	ffac0c13          	addi	s8,s8,-6
    360c:	01811423          	sh	s8,8(sp)
    3610:	01ecc463          	blt	s9,t5,3618 <.L1086>
    3614:	d75fd06f          	j	1388 <.L1085>

00003618 <.L1086>:
    3618:	01c51c83          	lh	s9,28(a0)
    361c:	fdf00c13          	li	s8,-33
    3620:	018cc463          	blt	s9,s8,3628 <.L1086+0x10>
    3624:	5990106f          	j	53bc <.L1100>
    3628:	04900c13          	li	s8,73
    362c:	011c4463          	blt	s8,a7,3634 <.L1086+0x1c>
    3630:	a2dfe06f          	j	205c <.L1104>
    3634:	08600c13          	li	s8,134
    3638:	01dc5463          	bge	s8,t4,3640 <.L2258>
    363c:	0490406f          	j	7e84 <.L1110>

00003640 <.L2258>:
    3640:	e4a00c13          	li	s8,-438
    3644:	0182c463          	blt	t0,s8,364c <.L2258+0xc>
    3648:	a35fe06f          	j	207c <.L1112>
    364c:	5b90106f          	j	5404 <.L1115>

00003650 <.L425>:
    3650:	42700c13          	li	s8,1063
    3654:	007c5463          	bge	s8,t2,365c <.L425+0xc>
    3658:	2080606f          	j	9860 <.L434>
    365c:	00a15c03          	lhu	s8,10(sp)
    3660:	06300c93          	li	s9,99
    3664:	ff7c0c13          	addi	s8,s8,-9
    3668:	01811523          	sh	s8,10(sp)
    366c:	00dcd463          	bge	s9,a3,3674 <.L432>
    3670:	b50fd06f          	j	9c0 <.L427>

00003674 <.L432>:
    3674:	f2100c13          	li	s8,-223
    3678:	0185c463          	blt	a1,s8,3680 <.L432+0xc>
    367c:	4890206f          	j	6304 <.L2832>
    3680:	23000c13          	li	s8,560
    3684:	01ec5463          	bge	s8,t5,368c <.L432+0x18>
    3688:	24c0606f          	j	98d4 <.L440>
    368c:	00c15c03          	lhu	s8,12(sp)
    3690:	ff7c0c13          	addi	s8,s8,-9
    3694:	010c1c13          	slli	s8,s8,0x10
    3698:	410c5c13          	srai	s8,s8,0x10
    369c:	01811623          	sh	s8,12(sp)
    36a0:	e2500c13          	li	s8,-475
    36a4:	01845463          	bge	s0,s8,36ac <.L443>
    36a8:	b44fd06f          	j	9ec <.L446>

000036ac <.L443>:
    36ac:	03800c13          	li	s8,56
    36b0:	e6ec4ee3          	blt	s8,a4,352c <.L447>
    36b4:	03a00c13          	li	s8,58
    36b8:	00fc5463          	bge	s8,a5,36c0 <.L443+0x14>
    36bc:	4e10606f          	j	a39c <.L453>
    36c0:	00e15c03          	lhu	s8,14(sp)
    36c4:	ff9c0c13          	addi	s8,s8,-7
    36c8:	010c1c13          	slli	s8,s8,0x10
    36cc:	410c5c13          	srai	s8,s8,0x10
    36d0:	e79ff06f          	j	3548 <.L454>

000036d4 <.L192>:
    36d4:	00e15e03          	lhu	t3,14(sp)
    36d8:	0d900c13          	li	s8,217
    36dc:	002e0e13          	addi	t3,t3,2
    36e0:	01c11723          	sh	t3,14(sp)
    36e4:	01ec5463          	bge	s8,t5,36ec <.L194>
    36e8:	f89fc06f          	j	670 <.L2356>

000036ec <.L194>:
    36ec:	01a00e13          	li	t3,26
    36f0:	010e5463          	bge	t3,a6,36f8 <.L194+0xc>
    36f4:	4310406f          	j	8324 <.L206>
    36f8:	0da00e13          	li	t3,218
    36fc:	012e4463          	blt	t3,s2,3704 <.L194+0x18>
    3700:	0750606f          	j	9f74 <.L207>
    3704:	08000e13          	li	t3,128
    3708:	00ee4463          	blt	t3,a4,3710 <.L2557>
    370c:	f89fc06f          	j	694 <.L215>

00003710 <.L2557>:
    3710:	03d00e13          	li	t3,61
    3714:	00fe4463          	blt	t3,a5,371c <.L213>
    3718:	51d0506f          	j	9434 <.L211>

0000371c <.L213>:
    371c:	00a15e03          	lhu	t3,10(sp)
    3720:	08c00c13          	li	s8,140
    3724:	ff7e0e13          	addi	t3,t3,-9
    3728:	01c11523          	sh	t3,10(sp)
    372c:	00dc5463          	bge	s8,a3,3734 <.L249>
    3730:	2350206f          	j	6164 <.L2728>

00003734 <.L249>:
    3734:	01c51c03          	lh	s8,28(a0)
    3738:	03b00e13          	li	t3,59
    373c:	018e5463          	bge	t3,s8,3744 <.L249+0x10>
    3740:	0080806f          	j	b748 <.L260>
    3744:	00c15e03          	lhu	t3,12(sp)
    3748:	ff7e0e13          	addi	t3,t3,-9
    374c:	01c11623          	sh	t3,12(sp)

00003750 <.L259>:
    3750:	1e500e13          	li	t3,485
    3754:	01ee5463          	bge	t3,t5,375c <.L259+0xc>
    3758:	3f50406f          	j	834c <.L277>
    375c:	ec100e13          	li	t3,-319
    3760:	01c44463          	blt	s0,t3,3768 <.L259+0x18>
    3764:	5700606f          	j	9cd4 <.L278>
    3768:	00e15e03          	lhu	t3,14(sp)
    376c:	00ce0e13          	addi	t3,t3,12
    3770:	010e1e13          	slli	t3,t3,0x10
    3774:	410e5e13          	srai	t3,t3,0x10
    3778:	01c11723          	sh	t3,14(sp)
    377c:	efb00e13          	li	t3,-261
    3780:	01ca5463          	bge	s4,t3,3788 <.L280>
    3784:	fa5fc06f          	j	728 <.L2833>

00003788 <.L280>:
    3788:	01f00e13          	li	t3,31
    378c:	013e5463          	bge	t3,s3,3794 <.L280+0xc>
    3790:	1410306f          	j	70d0 <.L302>
    3794:	0d800e13          	li	t3,216
    3798:	012e5463          	bge	t3,s2,37a0 <.L280+0x18>
    379c:	34c0706f          	j	aae8 <.L303>
    37a0:	00815e03          	lhu	t3,8(sp)
    37a4:	00be0e13          	addi	t3,t3,11
    37a8:	010e1e13          	slli	t3,t3,0x10
    37ac:	410e5e13          	srai	t3,t3,0x10

000037b0 <.L304>:
    37b0:	01c11423          	sh	t3,8(sp)
    37b4:	2df00e13          	li	t3,735
    37b8:	00ee4463          	blt	t3,a4,37c0 <.L304+0x10>
    37bc:	5100206f          	j	5ccc <.L305>
    37c0:	00001e37          	lui	t3,0x1
    37c4:	bace0e13          	addi	t3,t3,-1108 # bac <.L546+0x20>
    37c8:	00de5463          	bge	t3,a3,37d0 <.L304+0x20>
    37cc:	2180306f          	j	69e4 <.L309>
    37d0:	f5100e13          	li	t3,-175
    37d4:	01ca5463          	bge	s4,t3,37dc <.L304+0x2c>
    37d8:	1110806f          	j	c0e8 <.L2834>
    37dc:	00a15e03          	lhu	t3,10(sp)
    37e0:	08f00c13          	li	s8,143
    37e4:	ff8e0e13          	addi	t3,t3,-8
    37e8:	01c11523          	sh	t3,10(sp)
    37ec:	00dc5463          	bge	s8,a3,37f4 <.L304+0x44>
    37f0:	67c0606f          	j	9e6c <.L2564>
    37f4:	03300e13          	li	t3,51
    37f8:	00fe4463          	blt	t3,a5,3800 <.L2562>
    37fc:	4480806f          	j	bc44 <.L316>

00003800 <.L2562>:
    3800:	02051e03          	lh	t3,32(a0)

00003804 <.L313>:
    3804:	01c51c83          	lh	s9,28(a0)
    3808:	03b00c13          	li	s8,59
    380c:	019c5463          	bge	s8,s9,3814 <.L313+0x10>
    3810:	31c0606f          	j	9b2c <.L322>
    3814:	00c15c03          	lhu	s8,12(sp)
    3818:	ff8c0c13          	addi	s8,s8,-8
    381c:	010c1c13          	slli	s8,s8,0x10
    3820:	010c5c13          	srli	s8,s8,0x10

00003824 <.L323>:
    3824:	01811623          	sh	s8,12(sp)
    3828:	03c00c13          	li	s8,60
    382c:	00fc4463          	blt	s8,a5,3834 <.L325>
    3830:	4f80206f          	j	5d28 <.L319>

00003834 <.L325>:
    3834:	e2d00c13          	li	s8,-467
    3838:	0182c463          	blt	t0,s8,3840 <.L325+0xc>
    383c:	2140306f          	j	6a50 <.L329>
    3840:	03e00c13          	li	s8,62
    3844:	00fc5463          	bge	s8,a5,384c <.L325+0x18>
    3848:	6b40606f          	j	9efc <.L339>
    384c:	00e15c03          	lhu	s8,14(sp)
    3850:	ff7c0c13          	addi	s8,s8,-9
    3854:	010c1c13          	slli	s8,s8,0x10
    3858:	410c5c13          	srai	s8,s8,0x10
    385c:	01811723          	sh	s8,14(sp)
    3860:	efb00c13          	li	s8,-261
    3864:	018a5463          	bge	s4,s8,386c <.L341>
    3868:	f75fc06f          	j	7dc <.L2835>

0000386c <.L341>:
    386c:	01900c13          	li	s8,25
    3870:	013c5463          	bge	s8,s3,3878 <.L341+0xc>
    3874:	1390206f          	j	61ac <.L346>
    3878:	0be00c13          	li	s8,190
    387c:	012c5463          	bge	s8,s2,3884 <.L341+0x18>
    3880:	f81fc06f          	j	800 <.L344>
    3884:	00815c03          	lhu	s8,8(sp)
    3888:	00ac0c13          	addi	s8,s8,10
    388c:	01811423          	sh	s8,8(sp)
    3890:	f71fc06f          	j	800 <.L344>

00003894 <.L2318>:
    3894:	01e51583          	lh	a1,30(a0)
    3898:	00c51903          	lh	s2,12(a0)

0000389c <.L34>:
    389c:	0b400893          	li	a7,180
    38a0:	0128c463          	blt	a7,s2,38a8 <.L34+0xc>
    38a4:	7640606f          	j	a008 <.L37>
    38a8:	1b500893          	li	a7,437
    38ac:	00e8c463          	blt	a7,a4,38b4 <.L44>
    38b0:	ac9fc06f          	j	378 <.L2544>

000038b4 <.L44>:
    38b4:	40a00893          	li	a7,1034
    38b8:	00d8d463          	bge	a7,a3,38c0 <.L44+0xc>
    38bc:	7290206f          	j	67e4 <.L55>
    38c0:	10f00893          	li	a7,271
    38c4:	0098d463          	bge	a7,s1,38cc <.L44+0x18>
    38c8:	1990606f          	j	a260 <.L56>
    38cc:	00a15883          	lhu	a7,10(sp)
    38d0:	df700e13          	li	t3,-521
    38d4:	ffe88893          	addi	a7,a7,-2
    38d8:	01111523          	sh	a7,10(sp)
    38dc:	01ca4463          	blt	s4,t3,38e4 <.L60>
    38e0:	7290206f          	j	6808 <.L2548>

000038e4 <.L60>:
    38e4:	ff400893          	li	a7,-12
    38e8:	01165463          	bge	a2,a7,38f0 <.L60+0xc>
    38ec:	1b10406f          	j	829c <.L2324>
    38f0:	02a51883          	lh	a7,42(a0)

000038f4 <.L59>:
    38f4:	00c15e03          	lhu	t3,12(sp)
    38f8:	ff6e0e13          	addi	t3,t3,-10
    38fc:	010e1e13          	slli	t3,t3,0x10
    3900:	410e5e13          	srai	t3,t3,0x10
    3904:	8d1fc06f          	j	1d4 <.L65>

00003908 <.L136>:
    3908:	01c51c03          	lh	s8,28(a0)
    390c:	03500e13          	li	t3,53
    3910:	018e5463          	bge	t3,s8,3918 <.L136+0x10>
    3914:	1e80706f          	j	aafc <.L141>
    3918:	00815e03          	lhu	t3,8(sp)
    391c:	0a600c13          	li	s8,166
    3920:	ff7e0e13          	addi	t3,t3,-9
    3924:	01c11423          	sh	t3,8(sp)
    3928:	00ec5463          	bge	s8,a4,3930 <.L143>
    392c:	bb5fc06f          	j	4e0 <.L2552>

00003930 <.L143>:
    3930:	ffe00e13          	li	t3,-2
    3934:	01c64463          	blt	a2,t3,393c <.L143+0xc>
    3938:	4800306f          	j	6db8 <.L149>
    393c:	e2c00e13          	li	t3,-468
    3940:	01c2c463          	blt	t0,t3,3948 <.L143+0x18>
    3944:	4500206f          	j	5d94 <.L150>
    3948:	00a15e03          	lhu	t3,10(sp)
    394c:	10b00c13          	li	s8,267
    3950:	001e0e13          	addi	t3,t3,1
    3954:	01c11523          	sh	t3,10(sp)
    3958:	00dc4463          	blt	s8,a3,3960 <.L152>
    395c:	4500206f          	j	5dac <.L161>

00003960 <.L152>:
    3960:	00c15e03          	lhu	t3,12(sp)
    3964:	012e0e13          	addi	t3,t3,18
    3968:	010e1e13          	slli	t3,t3,0x10
    396c:	410e5e13          	srai	t3,t3,0x10

00003970 <.L175>:
    3970:	01c11623          	sh	t3,12(sp)
    3974:	03c00e13          	li	t3,60
    3978:	00fe5463          	bge	t3,a5,3980 <.L170>
    397c:	cc5fc06f          	j	640 <.L174>

00003980 <.L170>:
    3980:	ce400e13          	li	t3,-796
    3984:	01c5c463          	blt	a1,t3,398c <.L2901>
    3988:	4540206f          	j	5ddc <.L188>

0000398c <.L2901>:
    398c:	19c00e13          	li	t3,412
    3990:	00ee5463          	bge	t3,a4,3998 <.L2901+0xc>
    3994:	73c0206f          	j	60d0 <.L189>
    3998:	00e15e03          	lhu	t3,14(sp)
    399c:	012e0e13          	addi	t3,t3,18
    39a0:	010e1e13          	slli	t3,t3,0x10
    39a4:	410e5e13          	srai	t3,t3,0x10

000039a8 <.L190>:
    39a8:	01c11723          	sh	t3,14(sp)
    39ac:	0d900e13          	li	t3,217
    39b0:	d3ee5ee3          	bge	t3,t5,36ec <.L194>
    39b4:	07a00e13          	li	t3,122
    39b8:	006e4463          	blt	t3,t1,39c0 <.L190+0x18>
    39bc:	7f90306f          	j	79b4 <.L196>
    39c0:	02700e13          	li	t3,39
    39c4:	00fe5463          	bge	t3,a5,39cc <.L190+0x24>
    39c8:	6f40806f          	j	c0bc <.L221>
    39cc:	00815e03          	lhu	t3,8(sp)
    39d0:	08000c13          	li	s8,128
    39d4:	004e0e13          	addi	t3,t3,4
    39d8:	01c11423          	sh	t3,8(sp)
    39dc:	00ec4463          	blt	s8,a4,39e4 <.L190+0x3c>
    39e0:	cb5fc06f          	j	694 <.L215>
    39e4:	f2000e13          	li	t3,-224
    39e8:	01ca4463          	blt	s4,t3,39f0 <.L190+0x48>
    39ec:	0800706f          	j	aa6c <.L223>
    39f0:	00a15e03          	lhu	t3,10(sp)
    39f4:	08c00c13          	li	s8,140
    39f8:	009e0e13          	addi	t3,t3,9
    39fc:	01c11523          	sh	t3,10(sp)
    3a00:	00dc4463          	blt	s8,a3,3a08 <.L240>
    3a04:	45c0206f          	j	5e60 <.L224>

00003a08 <.L240>:
    3a08:	2df00e13          	li	t3,735
    3a0c:	00ee4463          	blt	t3,a4,3a14 <.L240+0xc>
    3a10:	cb5fc06f          	j	6c4 <.L236>
    3a14:	7e700e13          	li	t3,2023
    3a18:	00de5463          	bge	t3,a3,3a20 <.L240+0x18>
    3a1c:	43d0706f          	j	b658 <.L268>
    3a20:	00c15e03          	lhu	t3,12(sp)
    3a24:	03d00c13          	li	s8,61
    3a28:	ff6e0e13          	addi	t3,t3,-10
    3a2c:	01c11623          	sh	t3,12(sp)
    3a30:	01879463          	bne	a5,s8,3a38 <.L269>
    3a34:	43d0706f          	j	b670 <.L270>

00003a38 <.L269>:
    3a38:	ce400e13          	li	t3,-796
    3a3c:	01c5c463          	blt	a1,t3,3a44 <.L276>
    3a40:	6a00506f          	j	90e0 <.L273>

00003a44 <.L276>:
    3a44:	00e15e03          	lhu	t3,14(sp)
    3a48:	ffae0e13          	addi	t3,t3,-6
    3a4c:	010e1e13          	slli	t3,t3,0x10
    3a50:	410e5e13          	srai	t3,t3,0x10
    3a54:	cc5fc06f          	j	718 <.L275>

00003a58 <.L1160>:
    3a58:	00815c03          	lhu	s8,8(sp)
    3a5c:	1b900c93          	li	s9,441
    3a60:	004c0c13          	addi	s8,s8,4
    3a64:	01811423          	sh	s8,8(sp)
    3a68:	01ecd463          	bge	s9,t5,3a70 <.L1161>
    3a6c:	f14fe06f          	j	2180 <.L1162>

00003a70 <.L1161>:
    3a70:	00a15c03          	lhu	s8,10(sp)
    3a74:	ff8c0c13          	addi	s8,s8,-8
    3a78:	010c1c13          	slli	s8,s8,0x10
    3a7c:	410c5c13          	srai	s8,s8,0x10

00003a80 <.L1169>:
    3a80:	01811523          	sh	s8,10(sp)
    3a84:	03c00c13          	li	s8,60
    3a88:	00fc5463          	bge	s8,a5,3a90 <.L1167>
    3a8c:	f20fe06f          	j	21ac <.L1171>

00003a90 <.L1167>:
    3a90:	00f00c13          	li	s8,15
    3a94:	010c4463          	blt	s8,a6,3a9c <.L1167+0xc>
    3a98:	aa5fd06f          	j	153c <.L1188>
    3a9c:	ffc00c13          	li	s8,-4
    3aa0:	65865ce3          	bge	a2,s8,48f8 <.L1192>

00003aa4 <.L1196>:
    3aa4:	00c15c03          	lhu	s8,12(sp)
    3aa8:	005c0c13          	addi	s8,s8,5
    3aac:	010c1c13          	slli	s8,s8,0x10
    3ab0:	410c5c13          	srai	s8,s8,0x10
    3ab4:	f20fe06f          	j	21d4 <.L1189>

00003ab8 <.L2153>:
    3ab8:	00815b03          	lhu	s6,8(sp)
    3abc:	ffcb0b13          	addi	s6,s6,-4
    3ac0:	010b1b13          	slli	s6,s6,0x10
    3ac4:	410b5b13          	srai	s6,s6,0x10
    3ac8:	01611423          	sh	s6,8(sp)
    3acc:	03b00b13          	li	s6,59
    3ad0:	d8fb5263          	bge	s6,a5,3054 <.L2836>

00003ad4 <.L2145>:
    3ad4:	ec100b13          	li	s6,-319
    3ad8:	01644463          	blt	s0,s6,3ae0 <.L2145+0xc>
    3adc:	2790306f          	j	7554 <.L2156>
    3ae0:	ef600b13          	li	s6,-266
    3ae4:	016ac463          	blt	s5,s6,3aec <.L2145+0x18>
    3ae8:	18d0606f          	j	a474 <.L2157>
    3aec:	00a15b03          	lhu	s6,10(sp)
    3af0:	fdb00c13          	li	s8,-37
    3af4:	002b0b13          	addi	s6,s6,2
    3af8:	01611523          	sh	s6,10(sp)
    3afc:	01875463          	bge	a4,s8,3b04 <.L2158>
    3b00:	18d0606f          	j	a48c <.L2164>

00003b04 <.L2158>:
    3b04:	02600b13          	li	s6,38
    3b08:	00eb5463          	bge	s6,a4,3b10 <.L2158+0xc>
    3b0c:	4010706f          	j	b70c <.L2177>
    3b10:	03c00b13          	li	s6,60
    3b14:	d8db4663          	blt	s6,a3,30a0 <.L2170>

00003b18 <.L2160>:
    3b18:	05800693          	li	a3,88
    3b1c:	0096d463          	bge	a3,s1,3b24 <.L2254>
    3b20:	6c50306f          	j	79e4 <.L2183>

00003b24 <.L2254>:
    3b24:	00e15683          	lhu	a3,14(sp)
    3b28:	0a900b13          	li	s6,169
    3b2c:	00c68693          	addi	a3,a3,12
    3b30:	01069693          	slli	a3,a3,0x10
    3b34:	4106d693          	srai	a3,a3,0x10
    3b38:	00d11723          	sh	a3,14(sp)
    3b3c:	d9eb5c63          	bge	s6,t5,30d4 <.L2837>

00003b40 <.L2186>:
    3b40:	0ba00f13          	li	t5,186
    3b44:	012f5463          	bge	t5,s2,3b4c <.L2186+0xc>
    3b48:	5550206f          	j	689c <.L2190>
    3b4c:	0ac00f13          	li	t5,172
    3b50:	db2f5263          	bge	t5,s2,30f4 <.L2188>
    3b54:	00815f03          	lhu	t5,8(sp)
    3b58:	007f0f13          	addi	t5,t5,7
    3b5c:	01e11423          	sh	t5,8(sp)
    3b60:	ef600f13          	li	t5,-266
    3b64:	d9eacc63          	blt	s5,t5,30fc <.L2838>

00003b68 <.L2192>:
    3b68:	00c00513          	li	a0,12
    3b6c:	01155463          	bge	a0,a7,3b74 <.L2192+0xc>
    3b70:	3710306f          	j	76e0 <.L2201>
    3b74:	00b00513          	li	a0,11
    3b78:	01d55463          	bge	a0,t4,3b80 <.L2192+0x18>
    3b7c:	1f90606f          	j	a574 <.L2202>
    3b80:	00a15503          	lhu	a0,10(sp)
    3b84:	ffb50513          	addi	a0,a0,-5
    3b88:	01051513          	slli	a0,a0,0x10
    3b8c:	41055513          	srai	a0,a0,0x10
    3b90:	00a11523          	sh	a0,10(sp)
    3b94:	25b00513          	li	a0,603
    3b98:	d8e55e63          	bge	a0,a4,3134 <.L2200>

00003b9c <.L2204>:
    3b9c:	fe900513          	li	a0,-23
    3ba0:	00a64463          	blt	a2,a0,3ba8 <.L2204+0xc>
    3ba4:	4cc0306f          	j	7070 <.L2197>
    3ba8:	dde00513          	li	a0,-546
    3bac:	00aa4463          	blt	s4,a0,3bb4 <.L2204+0x18>
    3bb0:	3e00706f          	j	af90 <.L2210>
    3bb4:	00c15503          	lhu	a0,12(sp)
    3bb8:	02800e93          	li	t4,40
    3bbc:	00450513          	addi	a0,a0,4
    3bc0:	00a11623          	sh	a0,12(sp)
    3bc4:	167ed4e3          	bge	t4,t2,452c <.L2211>
    3bc8:	06b00513          	li	a0,107
    3bcc:	169546e3          	blt	a0,s1,4538 <.L2214>

00003bd0 <.L2212>:
    3bd0:	f9500513          	li	a0,-107
    3bd4:	00a44463          	blt	s0,a0,3bdc <.L2212+0xc>
    3bd8:	3440706f          	j	af1c <.L2839>
    3bdc:	00968693          	addi	a3,a3,9
    3be0:	00d11723          	sh	a3,14(sp)
    3be4:	f7a00693          	li	a3,-134
    3be8:	d8da5c63          	bge	s4,a3,3180 <.L2215>

00003bec <.L2826>:
    3bec:	f4000693          	li	a3,-192
    3bf0:	00da5463          	bge	s4,a3,3bf8 <.L2826+0xc>
    3bf4:	2350106f          	j	5628 <.L2216>
    3bf8:	ff700693          	li	a3,-9
    3bfc:	00d64463          	blt	a2,a3,3c04 <.L2217>
    3c00:	2450106f          	j	5644 <.L2227>

00003c04 <.L2217>:
    3c04:	00815683          	lhu	a3,8(sp)
    3c08:	00768693          	addi	a3,a3,7
    3c0c:	00d11423          	sh	a3,8(sp)
    3c10:	03300693          	li	a3,51
    3c14:	dbf6d063          	bge	a3,t6,31b4 <.L2840>

00003c18 <.L2238>:
    3c18:	02b00693          	li	a3,43
    3c1c:	0106d463          	bge	a3,a6,3c24 <.L2236>
    3c20:	05c0506f          	j	8c7c <.L2245>

00003c24 <.L2236>:
    3c24:	00c00713          	li	a4,12
    3c28:	01c75463          	bge	a4,t3,3c30 <.L2236+0xc>
    3c2c:	6f00606f          	j	a31c <.L2246>
    3c30:	00a15703          	lhu	a4,10(sp)
    3c34:	00170713          	addi	a4,a4,1
    3c38:	01071713          	slli	a4,a4,0x10
    3c3c:	41075713          	srai	a4,a4,0x10

00003c40 <.L2247>:
    3c40:	00e11523          	sh	a4,10(sp)
    3c44:	f5b00713          	li	a4,-165
    3c48:	12e2d0e3          	bge	t0,a4,4568 <.L2240>
    3c4c:	f5600793          	li	a5,-170
    3c50:	00fa4463          	blt	s4,a5,3c58 <.L2247+0x18>
    3c54:	0690306f          	j	74bc <.L2241>
    3c58:	03a00793          	li	a5,58
    3c5c:	d9f7da63          	bge	a5,t6,31f0 <.L2243>
    3c60:	00c15783          	lhu	a5,12(sp)
    3c64:	00278793          	addi	a5,a5,2
    3c68:	01079793          	slli	a5,a5,0x10
    3c6c:	4107d793          	srai	a5,a5,0x10
    3c70:	00f11623          	sh	a5,12(sp)
    3c74:	c0000793          	li	a5,-1024
    3c78:	d8f5ca63          	blt	a1,a5,320c <.L2841>

00003c7c <.L2249>:
    3c7c:	02c00793          	li	a5,44
    3c80:	0117d463          	bge	a5,a7,3c88 <.L2249+0xc>
    3c84:	5680406f          	j	81ec <.L2251>
    3c88:	d8f89863          	bne	a7,a5,3218 <.L2250>
    3c8c:	00e15783          	lhu	a5,14(sp)
    3c90:	00878793          	addi	a5,a5,8
    3c94:	00f11723          	sh	a5,14(sp)
    3c98:	d80ff06f          	j	3218 <.L2250>

00003c9c <.L1542>:
    3c9c:	00c15c03          	lhu	s8,12(sp)
    3ca0:	01800c93          	li	s9,24
    3ca4:	016c0c13          	addi	s8,s8,22
    3ca8:	01811623          	sh	s8,12(sp)
    3cac:	150cd8e3          	bge	s9,a6,45fc <.L1543>

00003cb0 <.L1544>:
    3cb0:	02600c13          	li	s8,38
    3cb4:	006c4463          	blt	s8,t1,3cbc <.L1548>
    3cb8:	9edfe06f          	j	26a4 <.L1538>

00003cbc <.L1548>:
    3cbc:	00e15c03          	lhu	s8,14(sp)
    3cc0:	00bc0c13          	addi	s8,s8,11
    3cc4:	01811723          	sh	s8,14(sp)
    3cc8:	0a900c13          	li	s8,169
    3ccc:	01ec4463          	blt	s8,t5,3cd4 <.L1549>
    3cd0:	9e1fe06f          	j	26b0 <.L2842>

00003cd4 <.L1549>:
    3cd4:	01700c13          	li	s8,23
    3cd8:	01dc5463          	bge	s8,t4,3ce0 <.L1549+0xc>
    3cdc:	0450306f          	j	7520 <.L1554>
    3ce0:	00815c03          	lhu	s8,8(sp)
    3ce4:	fffc0c13          	addi	s8,s8,-1
    3ce8:	010c1c13          	slli	s8,s8,0x10
    3cec:	410c5c13          	srai	s8,s8,0x10
    3cf0:	01811423          	sh	s8,8(sp)
    3cf4:	03300c13          	li	s8,51
    3cf8:	01fc4463          	blt	s8,t6,3d00 <.L1556>
    3cfc:	9edfe06f          	j	26e8 <.L2843>

00003d00 <.L1556>:
    3d00:	06f00c13          	li	s8,111
    3d04:	00dc5463          	bge	s8,a3,3d0c <.L1556+0xc>
    3d08:	6590306f          	j	7b60 <.L1561>
    3d0c:	01b00c13          	li	s8,27
    3d10:	00ec5463          	bge	s8,a4,3d18 <.L1556+0x18>
    3d14:	4f80506f          	j	920c <.L1562>
    3d18:	00a15c03          	lhu	s8,10(sp)
    3d1c:	fffc0c13          	addi	s8,s8,-1
    3d20:	01811523          	sh	s8,10(sp)

00003d24 <.L1563>:
    3d24:	02a00c13          	li	s8,42
    3d28:	00dc5463          	bge	s8,a3,3d30 <.L1563+0xc>
    3d2c:	6810306f          	j	7bac <.L1572>
    3d30:	00c15c03          	lhu	s8,12(sp)
    3d34:	02700c93          	li	s9,39
    3d38:	ffec0c13          	addi	s8,s8,-2
    3d3c:	010c1c13          	slli	s8,s8,0x10
    3d40:	410c5c13          	srai	s8,s8,0x10
    3d44:	01811623          	sh	s8,12(sp)
    3d48:	007cc463          	blt	s9,t2,3d50 <.L1576>
    3d4c:	a05fe06f          	j	2750 <.L2844>

00003d50 <.L1576>:
    3d50:	05800c93          	li	s9,88
    3d54:	009cd463          	bge	s9,s1,3d5c <.L1576+0xc>
    3d58:	6140406f          	j	836c <.L1580>
    3d5c:	f9500c93          	li	s9,-107
    3d60:	01944463          	blt	s0,s9,3d68 <.L1576+0x18>
    3d64:	4a40406f          	j	8208 <.L1578>
    3d68:	00e15c83          	lhu	s9,14(sp)
    3d6c:	010c8c93          	addi	s9,s9,16
    3d70:	01911723          	sh	s9,14(sp)
    3d74:	01f00c93          	li	s9,31
    3d78:	013cc463          	blt	s9,s3,3d80 <.L1581>
    3d7c:	a05fe06f          	j	2780 <.L2845>

00003d80 <.L1581>:
    3d80:	e1800c93          	li	s9,-488
    3d84:	019a4463          	blt	s4,s9,3d8c <.L1581+0xc>
    3d88:	3880406f          	j	8110 <.L1588>
    3d8c:	00815c83          	lhu	s9,8(sp)
    3d90:	ffec8c93          	addi	s9,s9,-2
    3d94:	01911423          	sh	s9,8(sp)
    3d98:	e2c00c93          	li	s9,-468
    3d9c:	0192c463          	blt	t0,s9,3da4 <.L1589>
    3da0:	a0dfe06f          	j	27ac <.L2846>

00003da4 <.L1589>:
    3da4:	e0200c93          	li	s9,-510
    3da8:	019ac463          	blt	s5,s9,3db0 <.L1589+0xc>
    3dac:	0d50406f          	j	8680 <.L1587>
    3db0:	fef00c93          	li	s9,-17
    3db4:	01964463          	blt	a2,s9,3dbc <.L1589+0x18>
    3db8:	4490106f          	j	5a00 <.L1591>
    3dbc:	00a15c83          	lhu	s9,10(sp)
    3dc0:	03c00d13          	li	s10,60
    3dc4:	ffac8c93          	addi	s9,s9,-6
    3dc8:	01911523          	sh	s9,10(sp)
    3dcc:	00fd5463          	bge	s10,a5,3dd4 <.L1589+0x30>
    3dd0:	0d10406f          	j	86a0 <.L2713>
    3dd4:	00f00c93          	li	s9,15
    3dd8:	010cd463          	bge	s9,a6,3de0 <.L1589+0x3c>
    3ddc:	1d00506f          	j	8fac <.L1598>
    3de0:	f6300c13          	li	s8,-157
    3de4:	0185c463          	blt	a1,s8,3dec <.L1589+0x48>
    3de8:	1b00806f          	j	bf98 <.L1599>
    3dec:	00c15c03          	lhu	s8,12(sp)
    3df0:	00300c93          	li	s9,3
    3df4:	ffcc0c13          	addi	s8,s8,-4
    3df8:	01811623          	sh	s8,12(sp)
    3dfc:	01ccd463          	bge	s9,t3,3e04 <.L1620>
    3e00:	1c00506f          	j	8fc0 <.L1595>

00003e04 <.L1620>:
    3e04:	0c100c13          	li	s8,193
    3e08:	012c4463          	blt	s8,s2,3e10 <.L1620+0xc>
    3e0c:	a09fe06f          	j	2814 <.L1634>
    3e10:	00e15c03          	lhu	s8,14(sp)
    3e14:	ffdc0c13          	addi	s8,s8,-3
    3e18:	01811723          	sh	s8,14(sp)

00003e1c <.L1627>:
    3e1c:	00400c13          	li	s8,4
    3e20:	011c4463          	blt	s8,a7,3e28 <.L1627+0xc>
    3e24:	4910106f          	j	5ab4 <.L1642>
    3e28:	00e00c13          	li	s8,14
    3e2c:	01dc4463          	blt	s8,t4,3e34 <.L1644>
    3e30:	a15fe06f          	j	2844 <.L1645>

00003e34 <.L1644>:
    3e34:	ffc00c13          	li	s8,-4
    3e38:	01864863          	blt	a2,s8,3e48 <.L1672>

00003e3c <.L1664>:
    3e3c:	00815c03          	lhu	s8,8(sp)
    3e40:	006c0c13          	addi	s8,s8,6
    3e44:	01811423          	sh	s8,8(sp)

00003e48 <.L1672>:
    3e48:	02e00c13          	li	s8,46
    3e4c:	01dc5463          	bge	s8,t4,3e54 <.L1665>
    3e50:	58d0406f          	j	8bdc <.L1673>

00003e54 <.L1665>:
    3e54:	01d00c13          	li	s8,29
    3e58:	011c4463          	blt	s8,a7,3e60 <.L1665+0xc>
    3e5c:	1e80806f          	j	c044 <.L2847>
    3e60:	3b500c13          	li	s8,949
    3e64:	00ec5463          	bge	s8,a4,3e6c <.L1665+0x18>
    3e68:	0800806f          	j	bee8 <.L1686>
    3e6c:	00a15c03          	lhu	s8,10(sp)
    3e70:	00100c93          	li	s9,1
    3e74:	ff7c0c13          	addi	s8,s8,-9
    3e78:	01811523          	sh	s8,10(sp)
    3e7c:	01ccc463          	blt	s9,t3,3e84 <.L1688>
    3e80:	0800806f          	j	bf00 <.L1687>

00003e84 <.L1688>:
    3e84:	02000c13          	li	s8,32
    3e88:	01dc4463          	blt	s8,t4,3e90 <.L1688+0xc>
    3e8c:	9f5fe06f          	j	2880 <.L1658>
    3e90:	4790106f          	j	5b08 <.L1691>

00003e94 <.L2772>:
    3e94:	02c00c13          	li	s8,44
    3e98:	01dc5e63          	bge	s8,t4,3eb4 <.L1328>
    3e9c:	00815c03          	lhu	s8,8(sp)
    3ea0:	03400c93          	li	s9,52
    3ea4:	ffac0c13          	addi	s8,s8,-6
    3ea8:	01811423          	sh	s8,8(sp)
    3eac:	01dcd463          	bge	s9,t4,3eb4 <.L1328>
    3eb0:	86dfd06f          	j	171c <.L1322>

00003eb4 <.L1328>:
    3eb4:	ff100c13          	li	s8,-15
    3eb8:	01864463          	blt	a2,s8,3ec0 <.L1328+0xc>
    3ebc:	6d40306f          	j	7590 <.L2848>
    3ec0:	00200c13          	li	s8,2
    3ec4:	01cc5463          	bge	s8,t3,3ecc <.L1328+0x18>
    3ec8:	3100706f          	j	b1d8 <.L1334>
    3ecc:	00a15c03          	lhu	s8,10(sp)
    3ed0:	02a00c93          	li	s9,42
    3ed4:	006c0c13          	addi	s8,s8,6
    3ed8:	01811523          	sh	s8,10(sp)
    3edc:	00dcc463          	blt	s9,a3,3ee4 <.L1328+0x30>
    3ee0:	6dc0306f          	j	75bc <.L1344>
    3ee4:	02700c13          	li	s8,39
    3ee8:	00ec5463          	bge	s8,a4,3ef0 <.L2699>
    3eec:	6110706f          	j	bcfc <.L1338>

00003ef0 <.L2699>:
    3ef0:	00900c13          	li	s8,9
    3ef4:	012c5463          	bge	s8,s2,3efc <.L1345>
    3ef8:	5a10706f          	j	bc98 <.L1339>

00003efc <.L1345>:
    3efc:	00c15c03          	lhu	s8,12(sp)
    3f00:	03600c93          	li	s9,54
    3f04:	001c0c13          	addi	s8,s8,1
    3f08:	01811623          	sh	s8,12(sp)
    3f0c:	00fcc463          	blt	s9,a5,3f14 <.L1341>
    3f10:	6c40106f          	j	55d4 <.L1340>

00003f14 <.L1341>:
    3f14:	00c00c13          	li	s8,12
    3f18:	01cc5463          	bge	s8,t3,3f20 <.L1363>
    3f1c:	0e80206f          	j	6004 <.L1353>

00003f20 <.L1363>:
    3f20:	00e15c03          	lhu	s8,14(sp)
    3f24:	ffac0c13          	addi	s8,s8,-6
    3f28:	010c1c13          	slli	s8,s8,0x10
    3f2c:	410c5c13          	srai	s8,s8,0x10
    3f30:	01811723          	sh	s8,14(sp)
    3f34:	fa300c13          	li	s8,-93
    3f38:	0182d463          	bge	t0,s8,3f40 <.L1366>
    3f3c:	cc0fe06f          	j	23fc <.L2849>

00003f40 <.L1366>:
    3f40:	01f00c13          	li	s8,31
    3f44:	0d0c42e3          	blt	s8,a6,4808 <.L1375>
    3f48:	1a000c13          	li	s8,416
    3f4c:	012c5463          	bge	s8,s2,3f54 <.L1366+0x14>
    3f50:	2040706f          	j	b154 <.L1383>
    3f54:	00815c03          	lhu	s8,8(sp)
    3f58:	03900c93          	li	s9,57
    3f5c:	009c0c13          	addi	s8,s8,9
    3f60:	01811423          	sh	s8,8(sp)
    3f64:	0a6cdce3          	bge	s9,t1,481c <.L1371>

00003f68 <.L2621>:
    3f68:	ff800c13          	li	s8,-8
    3f6c:	01865463          	bge	a2,s8,3f74 <.L1384>
    3f70:	cb8fe06f          	j	2428 <.L1372>

00003f74 <.L1384>:
    3f74:	00100c13          	li	s8,1
    3f78:	01cc4463          	blt	s8,t3,3f80 <.L2626>
    3f7c:	0e80206f          	j	6064 <.L1374>

00003f80 <.L2626>:
    3f80:	02000c13          	li	s8,32
    3f84:	01dc5463          	bge	s8,t4,3f8c <.L1393>
    3f88:	cdcfe06f          	j	2464 <.L1401>

00003f8c <.L1393>:
    3f8c:	03c00c13          	li	s8,60
    3f90:	0cfc4ee3          	blt	s8,a5,486c <.L1389>

00003f94 <.L1402>:
    3f94:	e4f00c13          	li	s8,-433
    3f98:	018ad463          	bge	s5,s8,3fa0 <.L1402+0xc>
    3f9c:	cf8fe06f          	j	2494 <.L1390>
    3fa0:	01700c13          	li	s8,23
    3fa4:	01dc5463          	bge	s8,t4,3fac <.L1391>
    3fa8:	6040406f          	j	85ac <.L1415>

00003fac <.L1391>:
    3fac:	00e15c03          	lhu	s8,14(sp)
    3fb0:	ffbc0c13          	addi	s8,s8,-5
    3fb4:	01811723          	sh	s8,14(sp)
    3fb8:	01f00c13          	li	s8,31
    3fbc:	013c4463          	blt	s8,s3,3fc4 <.L1421>
    3fc0:	cf8fe06f          	j	24b8 <.L1407>

00003fc4 <.L1421>:
    3fc4:	00700c13          	li	s8,7
    3fc8:	011c5463          	bge	s8,a7,3fd0 <.L1421+0xc>
    3fcc:	5510306f          	j	7d1c <.L1408>
    3fd0:	00815c03          	lhu	s8,8(sp)
    3fd4:	fffc0c13          	addi	s8,s8,-1
    3fd8:	01811423          	sh	s8,8(sp)
    3fdc:	03300c13          	li	s8,51
    3fe0:	01fc4463          	blt	s8,t6,3fe8 <.L1425>
    3fe4:	cfcfe06f          	j	24e0 <.L2850>

00003fe8 <.L1425>:
    3fe8:	03b00c13          	li	s8,59
    3fec:	00fc5463          	bge	s8,a5,3ff4 <.L2919>
    3ff0:	2ac0306f          	j	729c <.L1430>

00003ff4 <.L2919>:
    3ff4:	0a500c13          	li	s8,165
    3ff8:	007c5463          	bge	s8,t2,4000 <.L2919+0xc>
    3ffc:	d04fe06f          	j	2500 <.L1428>
    4000:	00a15c03          	lhu	s8,10(sp)
    4004:	005c0c13          	addi	s8,s8,5
    4008:	01811523          	sh	s8,10(sp)
    400c:	f9800c13          	li	s8,-104
    4010:	01845463          	bge	s0,s8,4018 <.L1432>
    4014:	cf8fe06f          	j	250c <.L2851>

00004018 <.L1432>:
    4018:	f6d00c13          	li	s8,-147
    401c:	018ac463          	blt	s5,s8,4024 <.L1432+0xc>
    4020:	3800306f          	j	73a0 <.L1436>
    4024:	0c700c13          	li	s8,199
    4028:	01ec5463          	bge	s8,t5,4030 <.L1432+0x18>
    402c:	04d0606f          	j	a878 <.L1437>
    4030:	00c15c03          	lhu	s8,12(sp)
    4034:	017c0c13          	addi	s8,s8,23
    4038:	01811623          	sh	s8,12(sp)
    403c:	d2a00c13          	li	s8,-726
    4040:	0185d463          	bge	a1,s8,4048 <.L1439>
    4044:	cf4fe06f          	j	2538 <.L2852>

00004048 <.L1439>:
    4048:	02c00c13          	li	s8,44
    404c:	011c5463          	bge	s8,a7,4054 <.L1439+0xc>
    4050:	1f10406f          	j	8a40 <.L1445>
    4054:	01889463          	bne	a7,s8,405c <.L1439+0x14>
    4058:	3950106f          	j	5bec <.L2853>
    405c:	00400c13          	li	s8,4
    4060:	011c5463          	bge	s8,a7,4068 <.L1439+0x20>
    4064:	34d0106f          	j	5bb0 <.L1443>
    4068:	03800c13          	li	s8,56
    406c:	01fc5463          	bge	s8,t6,4074 <.L1439+0x2c>
    4070:	1a40306f          	j	7214 <.L1449>
    4074:	00815c03          	lhu	s8,8(sp)
    4078:	f8b00c93          	li	s9,-117
    407c:	00bc0c13          	addi	s8,s8,11
    4080:	01811423          	sh	s8,8(sp)
    4084:	0195d463          	bge	a1,s9,408c <.L1463>
    4088:	cf8fe06f          	j	2580 <.L2738>

0000408c <.L1463>:
    408c:	ffe00c13          	li	s8,-2
    4090:	01865463          	bge	a2,s8,4098 <.L1463+0xc>
    4094:	3490106f          	j	5bdc <.L1467>
    4098:	00a15c03          	lhu	s8,10(sp)
    409c:	ffec0c13          	addi	s8,s8,-2
    40a0:	01811523          	sh	s8,10(sp)
    40a4:	02700c13          	li	s8,39
    40a8:	01dc4463          	blt	s8,t4,40b0 <.L1476>
    40ac:	d04fe06f          	j	25b0 <.L1475>

000040b0 <.L1476>:
    40b0:	34900c13          	li	s8,841
    40b4:	00dc5463          	bge	s8,a3,40bc <.L1476+0xc>
    40b8:	d10fe06f          	j	25c8 <.L1486>
    40bc:	00c15c03          	lhu	s8,12(sp)
    40c0:	ff7c0c13          	addi	s8,s8,-9
    40c4:	01811623          	sh	s8,12(sp)
    40c8:	0a000c13          	li	s8,160
    40cc:	009c4463          	blt	s8,s1,40d4 <.L1490>
    40d0:	d04fe06f          	j	25d4 <.L2854>

000040d4 <.L1490>:
    40d4:	eb800c13          	li	s8,-328
    40d8:	01844463          	blt	s0,s8,40e0 <.L1490+0xc>
    40dc:	3c40306f          	j	74a0 <.L1498>
    40e0:	eb100c13          	li	s8,-335
    40e4:	01844863          	blt	s0,s8,40f4 <.L1496>
    40e8:	00e15c03          	lhu	s8,14(sp)
    40ec:	009c0c13          	addi	s8,s8,9
    40f0:	01811723          	sh	s8,14(sp)

000040f4 <.L1496>:
    40f4:	39000c13          	li	s8,912
    40f8:	006c5463          	bge	s8,t1,4100 <.L1496+0xc>
    40fc:	1680106f          	j	5264 <.L1500>
    4100:	0ba00c13          	li	s8,186
    4104:	492c5263          	bge	s8,s2,4588 <.L1501>
    4108:	00815c03          	lhu	s8,8(sp)
    410c:	12e00c93          	li	s9,302
    4110:	01c04463          	bgtz	t3,4118 <.L1496+0x24>
    4114:	3080706f          	j	b41c <.L2855>
    4118:	ffac0c13          	addi	s8,s8,-6
    411c:	01811423          	sh	s8,8(sp)
    4120:	006cd463          	bge	s9,t1,4128 <.L1503>
    4124:	d04fe06f          	j	2628 <.L1510>

00004128 <.L1503>:
    4128:	02a00c13          	li	s8,42
    412c:	00dc5463          	bge	s8,a3,4134 <.L1503+0xc>
    4130:	1b00306f          	j	72e0 <.L1514>
    4134:	04b00c13          	li	s8,75
    4138:	00ec5463          	bge	s8,a4,4140 <.L1503+0x18>
    413c:	0f50506f          	j	9a30 <.L1515>
    4140:	00a15c03          	lhu	s8,10(sp)
    4144:	fffc0c13          	addi	s8,s8,-1
    4148:	010c1c13          	slli	s8,s8,0x10
    414c:	410c5c13          	srai	s8,s8,0x10

00004150 <.L1516>:
    4150:	01811523          	sh	s8,10(sp)
    4154:	f9800c13          	li	s8,-104
    4158:	47845a63          	bge	s0,s8,45cc <.L1506>
    415c:	0c700c13          	li	s8,199
    4160:	016c4463          	blt	s8,s6,4168 <.L1528>
    4164:	46d0406f          	j	8dd0 <.L1527>

00004168 <.L1528>:
    4168:	0aa00c13          	li	s8,170
    416c:	006c5463          	bge	s8,t1,4174 <.L1528+0xc>
    4170:	cf4fe06f          	j	2664 <.L1520>
    4174:	00c15c03          	lhu	s8,12(sp)
    4178:	002c0c13          	addi	s8,s8,2
    417c:	010c1c13          	slli	s8,s8,0x10
    4180:	410c5c13          	srai	s8,s8,0x10
    4184:	01811623          	sh	s8,12(sp)
    4188:	01800c13          	li	s8,24
    418c:	470c5863          	bge	s8,a6,45fc <.L1543>

00004190 <.L1531>:
    4190:	eee00c13          	li	s8,-274
    4194:	b18adee3          	bge	s5,s8,3cb0 <.L1544>
    4198:	01c51c83          	lh	s9,28(a0)
    419c:	02300c13          	li	s8,35
    41a0:	019c4463          	blt	s8,s9,41a8 <.L2808>
    41a4:	cf4fe06f          	j	2698 <.L1539>

000041a8 <.L2808>:
    41a8:	00e15c03          	lhu	s8,14(sp)
    41ac:	ffac0c13          	addi	s8,s8,-6
    41b0:	01811723          	sh	s8,14(sp)
    41b4:	cf0fe06f          	j	26a4 <.L1538>

000041b8 <.L1203>:
    41b8:	00e15c03          	lhu	s8,14(sp)
    41bc:	00400c93          	li	s9,4
    41c0:	ffcc0c13          	addi	s8,s8,-4
    41c4:	01811723          	sh	s8,14(sp)
    41c8:	571cd4e3          	bge	s9,a7,4f30 <.L1208>
    41cc:	00e00c13          	li	s8,14
    41d0:	01dc5463          	bge	s8,t4,41d8 <.L1217>
    41d4:	864fe06f          	j	2238 <.L1209>

000041d8 <.L1217>:
    41d8:	00815c03          	lhu	s8,8(sp)
    41dc:	ffac0c13          	addi	s8,s8,-6
    41e0:	01811423          	sh	s8,8(sp)
    41e4:	854fe06f          	j	2238 <.L1209>

000041e8 <.L2003>:
    41e8:	fe900c13          	li	s8,-23
    41ec:	01864463          	blt	a2,s8,41f4 <.L2003+0xc>
    41f0:	7240406f          	j	8914 <.L2010>
    41f4:	dde00c13          	li	s8,-546
    41f8:	018a4463          	blt	s4,s8,4200 <.L2003+0x18>
    41fc:	32c0606f          	j	a528 <.L2011>
    4200:	00c15c03          	lhu	s8,12(sp)
    4204:	005c0c13          	addi	s8,s8,5
    4208:	01811623          	sh	s8,12(sp)
    420c:	02700c13          	li	s8,39
    4210:	007c4463          	blt	s8,t2,4218 <.L2012>
    4214:	be5fe06f          	j	2df8 <.L2856>

00004218 <.L2012>:
    4218:	03000c13          	li	s8,48
    421c:	007c5463          	bge	s8,t2,4224 <.L2012+0xc>
    4220:	6890306f          	j	80a8 <.L2015>
    4224:	0b800c13          	li	s8,184
    4228:	009c5463          	bge	s8,s1,4230 <.L2012+0x18>
    422c:	1b80606f          	j	a3e4 <.L2016>
    4230:	00e15c03          	lhu	s8,14(sp)
    4234:	00bc0c13          	addi	s8,s8,11
    4238:	010c1c13          	slli	s8,s8,0x10
    423c:	410c5c13          	srai	s8,s8,0x10
    4240:	01811723          	sh	s8,14(sp)
    4244:	00400c13          	li	s8,4
    4248:	011c4463          	blt	s8,a7,4250 <.L2018>
    424c:	bd9fe06f          	j	2e24 <.L2857>

00004250 <.L2018>:
    4250:	00e00c13          	li	s8,14
    4254:	01dc5463          	bge	s8,t4,425c <.L2018+0xc>
    4258:	6050306f          	j	805c <.L2026>
    425c:	f9c00c13          	li	s8,-100
    4260:	01844463          	blt	s0,s8,4268 <.L2018+0x18>
    4264:	6090306f          	j	806c <.L2027>
    4268:	00815c03          	lhu	s8,8(sp)
    426c:	ffbc0c13          	addi	s8,s8,-5
    4270:	01811423          	sh	s8,8(sp)
    4274:	0f000c13          	li	s8,240
    4278:	006c5463          	bge	s8,t1,4280 <.L2028>
    427c:	bcdfe06f          	j	2e48 <.L2858>

00004280 <.L2028>:
    4280:	00200c13          	li	s8,2
    4284:	01cc5463          	bge	s8,t3,428c <.L2028+0xc>
    4288:	1b40106f          	j	543c <.L2859>
    428c:	03500c13          	li	s8,53
    4290:	00fc5463          	bge	s8,a5,4298 <.L2028+0x18>
    4294:	7a10506f          	j	a234 <.L2030>
    4298:	00a15c03          	lhu	s8,10(sp)
    429c:	01500c93          	li	s9,21
    42a0:	006c0c13          	addi	s8,s8,6
    42a4:	01811523          	sh	s8,10(sp)
    42a8:	010cc463          	blt	s9,a6,42b0 <.L2050>
    42ac:	5fc0106f          	j	58a8 <.L2031>

000042b0 <.L2050>:
    42b0:	00b00c13          	li	s8,11
    42b4:	011c4463          	blt	s8,a7,42bc <.L2050+0xc>
    42b8:	3810506f          	j	9e38 <.L2032>
    42bc:	00c15c03          	lhu	s8,12(sp)
    42c0:	009c0c13          	addi	s8,s8,9
    42c4:	010c1c13          	slli	s8,s8,0x10
    42c8:	410c5c13          	srai	s8,s8,0x10
    42cc:	01811623          	sh	s8,12(sp)
    42d0:	01c05463          	blez	t3,42d8 <.L2818>
    42d4:	bcdfe06f          	j	2ea0 <.L2044>

000042d8 <.L2818>:
    42d8:	00e15c03          	lhu	s8,14(sp)
    42dc:	ffac0c13          	addi	s8,s8,-6
    42e0:	010c1c13          	slli	s8,s8,0x10
    42e4:	410c5c13          	srai	s8,s8,0x10
    42e8:	01811723          	sh	s8,14(sp)
    42ec:	0a900c13          	li	s8,169
    42f0:	01ec4463          	blt	s8,t5,42f8 <.L2055>
    42f4:	be5fe06f          	j	2ed8 <.L2049>

000042f8 <.L2055>:
    42f8:	eba00c13          	li	s8,-326
    42fc:	0185c463          	blt	a1,s8,4304 <.L2055+0xc>
    4300:	5ec0106f          	j	58ec <.L2045>
    4304:	01400b13          	li	s6,20
    4308:	013b5463          	bge	s6,s3,4310 <.L2055+0x18>
    430c:	3410506f          	j	9e4c <.L2071>
    4310:	00815b03          	lhu	s6,8(sp)
    4314:	08300c13          	li	s8,131
    4318:	003b0b13          	addi	s6,s6,3
    431c:	01611423          	sh	s6,8(sp)
    4320:	529c40e3          	blt	s8,s1,5040 <.L2072>

00004324 <.L2075>:
    4324:	00a15b03          	lhu	s6,10(sp)
    4328:	02700c13          	li	s8,39
    432c:	ff9b0b13          	addi	s6,s6,-7
    4330:	01611523          	sh	s6,10(sp)
    4334:	006c4463          	blt	s8,t1,433c <.L2074>
    4338:	bf5fe06f          	j	2f2c <.L2073>

0000433c <.L2074>:
    433c:	ecb00b13          	li	s6,-309
    4340:	016ac463          	blt	s5,s6,4348 <.L2074+0xc>
    4344:	2ac0406f          	j	85f0 <.L2080>
    4348:	ff900b13          	li	s6,-7
    434c:	536642e3          	blt	a2,s6,5070 <.L2087>

00004350 <.L2086>:
    4350:	00c15b03          	lhu	s6,12(sp)
    4354:	ffbb0b13          	addi	s6,s6,-5
    4358:	010b1b13          	slli	s6,s6,0x10
    435c:	410b5b13          	srai	s6,s6,0x10
    4360:	01611623          	sh	s6,12(sp)
    4364:	c5700b13          	li	s6,-937
    4368:	0165d463          	bge	a1,s6,4370 <.L2093>
    436c:	bedfe06f          	j	2f58 <.L2860>

00004370 <.L2093>:
    4370:	02c00b13          	li	s6,44
    4374:	011b5463          	bge	s6,a7,437c <.L2093+0xc>
    4378:	4a80306f          	j	7820 <.L2095>
    437c:	03100b13          	li	s6,49
    4380:	01fb5463          	bge	s6,t6,4388 <.L2093+0x18>
    4384:	be1fe06f          	j	2f64 <.L2094>
    4388:	00e15b03          	lhu	s6,14(sp)
    438c:	01e00c13          	li	s8,30
    4390:	006b0b13          	addi	s6,s6,6
    4394:	01611723          	sh	s6,14(sp)
    4398:	013c5463          	bge	s8,s3,43a0 <.L2093+0x30>
    439c:	2dc0706f          	j	b678 <.L2096>
    43a0:	01c04463          	bgtz	t3,43a8 <.L2102>
    43a4:	2850706f          	j	be28 <.L2097>

000043a8 <.L2102>:
    43a8:	02e00b13          	li	s6,46
    43ac:	3ddb44e3          	blt	s6,t4,4f74 <.L2099>

000043b0 <.L2098>:
    43b0:	ff200b13          	li	s6,-14
    43b4:	01664463          	blt	a2,s6,43bc <.L2098+0xc>
    43b8:	4840306f          	j	783c <.L2861>
    43bc:	ea400b13          	li	s6,-348
    43c0:	016ac463          	blt	s5,s6,43c8 <.L2098+0x18>
    43c4:	bf5fe06f          	j	2fb8 <.L2114>
    43c8:	00a15b03          	lhu	s6,10(sp)
    43cc:	ff7b0b13          	addi	s6,s6,-9
    43d0:	01611523          	sh	s6,10(sp)
    43d4:	25b00b13          	li	s6,603
    43d8:	00eb5463          	bge	s6,a4,43e0 <.L2119>
    43dc:	be9fe06f          	j	2fc4 <.L2862>

000043e0 <.L2119>:
    43e0:	ec500b13          	li	s6,-315
    43e4:	0165c463          	blt	a1,s6,43ec <.L2119+0xc>
    43e8:	5f10206f          	j	71d8 <.L2863>
    43ec:	22200b13          	li	s6,546
    43f0:	007b5463          	bge	s6,t2,43f8 <.L2119+0x18>
    43f4:	30c0306f          	j	7700 <.L2122>
    43f8:	00c15b03          	lhu	s6,12(sp)
    43fc:	ffbb0b13          	addi	s6,s6,-5
    4400:	01611623          	sh	s6,12(sp)
    4404:	02600b13          	li	s6,38
    4408:	00db4463          	blt	s6,a3,4410 <.L2127>
    440c:	be9fe06f          	j	2ff4 <.L2864>

00004410 <.L2127>:
    4410:	00300b13          	li	s6,3
    4414:	75cb48e3          	blt	s6,t3,5364 <.L2142>
    4418:	03d00b13          	li	s6,61
    441c:	00fb4463          	blt	s6,a5,4424 <.L2127+0x14>
    4420:	5ed0506f          	j	a20c <.L2143>
    4424:	00400b13          	li	s6,4
    4428:	771b44e3          	blt	s6,a7,5390 <.L2139>
    442c:	06a00b13          	li	s6,106
    4430:	012b4463          	blt	s6,s2,4438 <.L2127+0x28>
    4434:	19d0706f          	j	bdd0 <.L2865>
    4438:	00815b03          	lhu	s6,8(sp)
    443c:	001b0b13          	addi	s6,s6,1
    4440:	01611423          	sh	s6,8(sp)
    4444:	e90ff06f          	j	3ad4 <.L2145>

00004448 <.L2756>:
    4448:	00815c03          	lhu	s8,8(sp)
    444c:	34b00c93          	li	s9,843
    4450:	ff6c0c13          	addi	s8,s8,-10
    4454:	01811423          	sh	s8,8(sp)
    4458:	00ecd463          	bge	s9,a4,4460 <.L516>
    445c:	ea8fc06f          	j	b04 <.L2575>

00004460 <.L516>:
    4460:	ff900c13          	li	s8,-7
    4464:	01864463          	blt	a2,s8,446c <.L516+0xc>
    4468:	7e90206f          	j	7450 <.L520>
    446c:	1ba00c13          	li	s8,442
    4470:	016c4463          	blt	s8,s6,4478 <.L516+0x18>
    4474:	5150406f          	j	9188 <.L521>
    4478:	17000c13          	li	s8,368
    447c:	00dc5463          	bge	s8,a3,4484 <.L522>
    4480:	5210406f          	j	91a0 <.L526>

00004484 <.L522>:
    4484:	02200c13          	li	s8,34
    4488:	01dc5463          	bge	s8,t4,4490 <.L2277>
    448c:	7f50206f          	j	7480 <.L536>

00004490 <.L2277>:
    4490:	00c15c03          	lhu	s8,12(sp)
    4494:	002c0c13          	addi	s8,s8,2
    4498:	010c1c13          	slli	s8,s8,0x10
    449c:	410c5c13          	srai	s8,s8,0x10
    44a0:	ebcfc06f          	j	b5c <.L538>

000044a4 <.L501>:
    44a4:	01d00c13          	li	s8,29
    44a8:	010c5463          	bge	s8,a6,44b0 <.L501+0xc>
    44ac:	68d0206f          	j	7338 <.L510>
    44b0:	11800c13          	li	s8,280
    44b4:	012c5463          	bge	s8,s2,44bc <.L501+0x18>
    44b8:	2680606f          	j	a720 <.L511>
    44bc:	00815c03          	lhu	s8,8(sp)
    44c0:	009c0c13          	addi	s8,s8,9
    44c4:	010c1c13          	slli	s8,s8,0x10
    44c8:	410c5c13          	srai	s8,s8,0x10

000044cc <.L512>:
    44cc:	01811423          	sh	s8,8(sp)
    44d0:	34b00c13          	li	s8,843
    44d4:	f8ec56e3          	bge	s8,a4,4460 <.L516>
    44d8:	00001c37          	lui	s8,0x1
    44dc:	a9dc0c13          	addi	s8,s8,-1379 # a9d <.L470+0x2d>
    44e0:	00dc5463          	bge	s8,a3,44e8 <.L512+0x1c>
    44e4:	e2cfc06f          	j	b10 <.L518>
    44e8:	f5100c13          	li	s8,-175
    44ec:	018a5463          	bge	s4,s8,44f4 <.L512+0x28>
    44f0:	aa0fd06f          	j	1790 <.L517>
    44f4:	00a15c03          	lhu	s8,10(sp)
    44f8:	17000c93          	li	s9,368
    44fc:	ffbc0c13          	addi	s8,s8,-5
    4500:	01811523          	sh	s8,10(sp)
    4504:	00dcc463          	blt	s9,a3,450c <.L533>
    4508:	aa0fd06f          	j	17a8 <.L2576>

0000450c <.L533>:
    450c:	3fa00c13          	li	s8,1018
    4510:	00ec4463          	blt	s8,a4,4518 <.L532>
    4514:	48d0406f          	j	91a0 <.L526>

00004518 <.L532>:
    4518:	00c15c03          	lhu	s8,12(sp)
    451c:	ff7c0c13          	addi	s8,s8,-9
    4520:	010c1c13          	slli	s8,s8,0x10
    4524:	410c5c13          	srai	s8,s8,0x10
    4528:	e34fc06f          	j	b5c <.L538>

0000452c <.L2211>:
    452c:	03c00613          	li	a2,60
    4530:	00f64463          	blt	a2,a5,4538 <.L2214>
    4534:	0850706f          	j	bdb8 <.L2866>

00004538 <.L2214>:
    4538:	03300713          	li	a4,51
    453c:	01f75463          	bge	a4,t6,4544 <.L2235>
    4540:	5ec0606f          	j	ab2c <.L2867>

00004544 <.L2235>:
    4544:	0ff00713          	li	a4,255
    4548:	00675463          	bge	a4,t1,4550 <.L2235+0xc>
    454c:	5e50506f          	j	a330 <.L2244>
    4550:	00a15703          	lhu	a4,10(sp)
    4554:	f5b00693          	li	a3,-165
    4558:	ffd70713          	addi	a4,a4,-3
    455c:	00e11523          	sh	a4,10(sp)
    4560:	00d2d463          	bge	t0,a3,4568 <.L2240>
    4564:	c81fe06f          	j	31e4 <.L2671>

00004568 <.L2240>:
    4568:	01600713          	li	a4,22
    456c:	00f75463          	bge	a4,a5,4574 <.L2240+0xc>
    4570:	7d10206f          	j	7540 <.L2248>
    4574:	00c15783          	lhu	a5,12(sp)
    4578:	00178793          	addi	a5,a5,1
    457c:	01079793          	slli	a5,a5,0x10
    4580:	4107d793          	srai	a5,a5,0x10
    4584:	c7dfe06f          	j	3200 <.L2242>

00004588 <.L1501>:
    4588:	03800c13          	li	s8,56
    458c:	00fc5463          	bge	s8,a5,4594 <.L1501+0xc>
    4590:	6180606f          	j	aba8 <.L2868>
    4594:	00815c03          	lhu	s8,8(sp)
    4598:	12e00c93          	li	s9,302
    459c:	ffec0c13          	addi	s8,s8,-2
    45a0:	01811423          	sh	s8,8(sp)
    45a4:	b86cd2e3          	bge	s9,t1,4128 <.L1503>

000045a8 <.L2632>:
    45a8:	00c00c13          	li	s8,12
    45ac:	01cc5463          	bge	s8,t3,45b4 <.L1507>
    45b0:	884fe06f          	j	2634 <.L1504>

000045b4 <.L1507>:
    45b4:	00a15c03          	lhu	s8,10(sp)
    45b8:	f9800c93          	li	s9,-104
    45bc:	006c0c13          	addi	s8,s8,6
    45c0:	01811523          	sh	s8,10(sp)
    45c4:	01945463          	bge	s0,s9,45cc <.L1506>
    45c8:	890fe06f          	j	2658 <.L1505>

000045cc <.L1506>:
    45cc:	f6d00c13          	li	s8,-147
    45d0:	018ac463          	blt	s5,s8,45d8 <.L1506+0xc>
    45d4:	6900306f          	j	7c64 <.L1541>
    45d8:	f4700c13          	li	s8,-185
    45dc:	ed8ad063          	bge	s5,s8,3c9c <.L1542>
    45e0:	00c15c03          	lhu	s8,12(sp)
    45e4:	005c0c13          	addi	s8,s8,5
    45e8:	010c1c13          	slli	s8,s8,0x10
    45ec:	410c5c13          	srai	s8,s8,0x10
    45f0:	01811623          	sh	s8,12(sp)
    45f4:	01800c13          	li	s8,24
    45f8:	b90c4ce3          	blt	s8,a6,4190 <.L1531>

000045fc <.L1543>:
    45fc:	11a00c13          	li	s8,282
    4600:	007c4463          	blt	s8,t2,4608 <.L1535>
    4604:	6840306f          	j	7c88 <.L1536>

00004608 <.L1535>:
    4608:	ccd00c13          	li	s8,-819
    460c:	0185c463          	blt	a1,s8,4614 <.L1535+0xc>
    4610:	1a40606f          	j	a7b4 <.L1547>
    4614:	00e15c03          	lhu	s8,14(sp)
    4618:	004c0c13          	addi	s8,s8,4
    461c:	01811723          	sh	s8,14(sp)
    4620:	884fe06f          	j	26a4 <.L1538>

00004624 <.L1253>:
    4624:	07000c13          	li	s8,112
    4628:	012c5463          	bge	s8,s2,4630 <.L1253+0xc>
    462c:	5f80306f          	j	7c24 <.L2869>
    4630:	00815c03          	lhu	s8,8(sp)
    4634:	008c0c13          	addi	s8,s8,8
    4638:	010c1c13          	slli	s8,s8,0x10
    463c:	410c5c13          	srai	s8,s8,0x10

00004640 <.L1252>:
    4640:	01811423          	sh	s8,8(sp)
    4644:	08c00c13          	li	s8,140
    4648:	006c4463          	blt	s8,t1,4650 <.L1252+0x10>
    464c:	c91fd06f          	j	22dc <.L1249>
    4650:	00c00c13          	li	s8,12
    4654:	01cc4463          	blt	s8,t3,465c <.L1274>
    4658:	1400606f          	j	a798 <.L1250>

0000465c <.L1274>:
    465c:	1fa00c13          	li	s8,506
    4660:	016c4463          	blt	s8,s6,4668 <.L1274+0xc>
    4664:	6e40506f          	j	9d48 <.L1251>
    4668:	00a15c03          	lhu	s8,10(sp)
    466c:	002c0c13          	addi	s8,s8,2
    4670:	010c1c13          	slli	s8,s8,0x10
    4674:	010c5c13          	srli	s8,s8,0x10

00004678 <.L1296>:
    4678:	01811523          	sh	s8,10(sp)
    467c:	03300c13          	li	s8,51
    4680:	00fc5463          	bge	s8,a5,4688 <.L2735>
    4684:	6e40106f          	j	5d68 <.L1283>

00004688 <.L2735>:
    4688:	00900c13          	li	s8,9
    468c:	011c4463          	blt	s8,a7,4694 <.L1286>
    4690:	69c0306f          	j	7d2c <.L2612>

00004694 <.L1286>:
    4694:	00300c13          	li	s8,3
    4698:	010c5463          	bge	s8,a6,46a0 <.L1286+0xc>
    469c:	6fc0306f          	j	7d98 <.L1290>
    46a0:	00c15c03          	lhu	s8,12(sp)
    46a4:	ffec0c13          	addi	s8,s8,-2
    46a8:	01811623          	sh	s8,12(sp)

000046ac <.L1291>:
    46ac:	f3900c13          	li	s8,-199
    46b0:	018a5463          	bge	s4,s8,46b8 <.L1298>
    46b4:	68d0406f          	j	9540 <.L1301>

000046b8 <.L1298>:
    46b8:	01800c13          	li	s8,24
    46bc:	012c4463          	blt	s8,s2,46c4 <.L1298+0xc>
    46c0:	68c0306f          	j	7d4c <.L2615>
    46c4:	00e15c03          	lhu	s8,14(sp)
    46c8:	ffe00c93          	li	s9,-2
    46cc:	005c0c13          	addi	s8,s8,5
    46d0:	01811723          	sh	s8,14(sp)
    46d4:	01985463          	bge	a6,s9,46dc <.L1300>
    46d8:	81cfd06f          	j	16f4 <.L1299>

000046dc <.L1300>:
    46dc:	00300c13          	li	s8,3
    46e0:	00dc5463          	bge	s8,a3,46e8 <.L1300+0xc>
    46e4:	4940506f          	j	9b78 <.L1330>
    46e8:	00815c03          	lhu	s8,8(sp)
    46ec:	003c0c13          	addi	s8,s8,3
    46f0:	010c1c13          	slli	s8,s8,0x10
    46f4:	410c5c13          	srai	s8,s8,0x10
    46f8:	c71fd06f          	j	2368 <.L1331>

000046fc <.L956>:
    46fc:	fe200c13          	li	s8,-30
    4700:	01864463          	blt	a2,s8,4708 <.L956+0xc>
    4704:	7700206f          	j	6e74 <.L2870>
    4708:	e3d00c13          	li	s8,-451
    470c:	09845263          	bge	s0,s8,4790 <.L958>
    4710:	00a15c03          	lhu	s8,10(sp)
    4714:	03900c93          	li	s9,57
    4718:	ff9c0c13          	addi	s8,s8,-7
    471c:	01811523          	sh	s8,10(sp)
    4720:	00dcc463          	blt	s9,a3,4728 <.L956+0x2c>
    4724:	ab1fc06f          	j	11d4 <.L960>
    4728:	02700c13          	li	s8,39
    472c:	08ec4463          	blt	s8,a4,47b4 <.L966>

00004730 <.L961>:
    4730:	00c15c03          	lhu	s8,12(sp)
    4734:	cf000c93          	li	s9,-784
    4738:	fffc0c13          	addi	s8,s8,-1
    473c:	01811623          	sh	s8,12(sp)
    4740:	0995d463          	bge	a1,s9,47c8 <.L2408>

00004744 <.L962>:
    4744:	25d00c13          	li	s8,605
    4748:	009c4463          	blt	s8,s1,4750 <.L962+0xc>
    474c:	ab1fc06f          	j	11fc <.L982>
    4750:	0f600c13          	li	s8,246
    4754:	007c5463          	bge	s8,t2,475c <.L962+0x18>
    4758:	6a40106f          	j	5dfc <.L992>
    475c:	00e15c03          	lhu	s8,14(sp)
    4760:	fa300c93          	li	s9,-93
    4764:	ffac0c13          	addi	s8,s8,-6
    4768:	01811723          	sh	s8,14(sp)
    476c:	0192d463          	bge	t0,s9,4774 <.L2596>
    4770:	6a40106f          	j	5e14 <.L985>

00004774 <.L2596>:
    4774:	11c00c13          	li	s8,284
    4778:	012c5463          	bge	s8,s2,4780 <.L990>
    477c:	6d40406f          	j	8e50 <.L991>

00004780 <.L990>:
    4780:	00815c03          	lhu	s8,8(sp)
    4784:	001c0c13          	addi	s8,s8,1
    4788:	01811423          	sh	s8,8(sp)
    478c:	a9dfc06f          	j	1228 <.L1002>

00004790 <.L958>:
    4790:	00a15c03          	lhu	s8,10(sp)
    4794:	03900c93          	li	s9,57
    4798:	005c0c13          	addi	s8,s8,5
    479c:	01811523          	sh	s8,10(sp)
    47a0:	00dcc463          	blt	s9,a3,47a8 <.L958+0x18>
    47a4:	a31fc06f          	j	11d4 <.L960>
    47a8:	02700c13          	li	s8,39
    47ac:	00ec4463          	blt	s8,a4,47b4 <.L966>
    47b0:	70c0406f          	j	8ebc <.L972>

000047b4 <.L966>:
    47b4:	00c15c03          	lhu	s8,12(sp)
    47b8:	cf000c93          	li	s9,-784
    47bc:	002c0c13          	addi	s8,s8,2
    47c0:	01811623          	sh	s8,12(sp)
    47c4:	f995c0e3          	blt	a1,s9,4744 <.L962>

000047c8 <.L2408>:
    47c8:	0de00c13          	li	s8,222
    47cc:	012c5463          	bge	s8,s2,47d4 <.L988>
    47d0:	5980206f          	j	6d68 <.L984>

000047d4 <.L988>:
    47d4:	00e15c03          	lhu	s8,14(sp)
    47d8:	fa300c93          	li	s9,-93
    47dc:	ffac0c13          	addi	s8,s8,-6
    47e0:	01811723          	sh	s8,14(sp)
    47e4:	0192d463          	bge	t0,s9,47ec <.L988+0x18>
    47e8:	62c0106f          	j	5e14 <.L985>
    47ec:	11c00c13          	li	s8,284
    47f0:	012c4463          	blt	s8,s2,47f8 <.L995>
    47f4:	ebcfd06f          	j	1eb0 <.L994>

000047f8 <.L995>:
    47f8:	00815c03          	lhu	s8,8(sp)
    47fc:	006c0c13          	addi	s8,s8,6
    4800:	01811423          	sh	s8,8(sp)
    4804:	a25fc06f          	j	1228 <.L1002>

00004808 <.L1375>:
    4808:	00815c03          	lhu	s8,8(sp)
    480c:	03900c93          	li	s9,57
    4810:	ffdc0c13          	addi	s8,s8,-3
    4814:	01811423          	sh	s8,8(sp)
    4818:	f46cc863          	blt	s9,t1,3f68 <.L2621>

0000481c <.L1371>:
    481c:	00800c13          	li	s8,8
    4820:	011c5463          	bge	s8,a7,4828 <.L1371+0xc>
    4824:	49c0306f          	j	7cc0 <.L2871>
    4828:	00900c13          	li	s8,9
    482c:	01dc5463          	bge	s8,t4,4834 <.L1371+0x18>
    4830:	3240406f          	j	8b54 <.L1386>
    4834:	00a15c03          	lhu	s8,10(sp)
    4838:	00100c93          	li	s9,1
    483c:	ffbc0c13          	addi	s8,s8,-5
    4840:	01811523          	sh	s8,10(sp)
    4844:	01ccc463          	blt	s9,t3,484c <.L1371+0x30>
    4848:	13c0706f          	j	b984 <.L1387>
    484c:	ff000c13          	li	s8,-16
    4850:	01864463          	blt	a2,s8,4858 <.L1388>
    4854:	63c0706f          	j	be90 <.L2872>

00004858 <.L1388>:
    4858:	00c15c03          	lhu	s8,12(sp)
    485c:	007c0c13          	addi	s8,s8,7
    4860:	01811623          	sh	s8,12(sp)
    4864:	03c00c13          	li	s8,60
    4868:	f2fc5663          	bge	s8,a5,3f94 <.L1402>

0000486c <.L1389>:
    486c:	0dc00c13          	li	s8,220
    4870:	00ec4463          	blt	s8,a4,4878 <.L1389+0xc>
    4874:	0010406f          	j	9074 <.L2873>
    4878:	01f00c13          	li	s8,31
    487c:	010c5463          	bge	s8,a6,4884 <.L1389+0x18>
    4880:	6000606f          	j	ae80 <.L1420>
    4884:	00e15c03          	lhu	s8,14(sp)
    4888:	ff8c0c13          	addi	s8,s8,-8
    488c:	01811723          	sh	s8,14(sp)
    4890:	c1dfd06f          	j	24ac <.L1410>

00004894 <.L1152>:
    4894:	00700c13          	li	s8,7
    4898:	011c5463          	bge	s8,a7,48a0 <.L1152+0xc>
    489c:	2310206f          	j	72cc <.L1165>
    48a0:	00815c03          	lhu	s8,8(sp)
    48a4:	fffc0c13          	addi	s8,s8,-1
    48a8:	010c1c13          	slli	s8,s8,0x10
    48ac:	010c5c13          	srli	s8,s8,0x10

000048b0 <.L1166>:
    48b0:	01811423          	sh	s8,8(sp)
    48b4:	1b900c13          	li	s8,441
    48b8:	01ec5463          	bge	s8,t5,48c0 <.L1166+0x10>
    48bc:	8c5fd06f          	j	2180 <.L1162>
    48c0:	03b00c13          	li	s8,59
    48c4:	00fc4463          	blt	s8,a5,48cc <.L1164>
    48c8:	4d40206f          	j	6d9c <.L1158>

000048cc <.L1164>:
    48cc:	ffe00c13          	li	s8,-2
    48d0:	9b864063          	blt	a2,s8,3a70 <.L1161>
    48d4:	00a15c03          	lhu	s8,10(sp)
    48d8:	03c00c93          	li	s9,60
    48dc:	002c0c13          	addi	s8,s8,2
    48e0:	01811523          	sh	s8,10(sp)
    48e4:	00fcd463          	bge	s9,a5,48ec <.L1164+0x20>
    48e8:	8c5fd06f          	j	21ac <.L1171>
    48ec:	00f00c13          	li	s8,15
    48f0:	010c4463          	blt	s8,a6,48f8 <.L1192>
    48f4:	c49fc06f          	j	153c <.L1188>

000048f8 <.L1192>:
    48f8:	00c15c03          	lhu	s8,12(sp)
    48fc:	ff8c0c13          	addi	s8,s8,-8
    4900:	010c1c13          	slli	s8,s8,0x10
    4904:	410c5c13          	srai	s8,s8,0x10
    4908:	8cdfd06f          	j	21d4 <.L1189>

0000490c <.L1828>:
    490c:	00815c03          	lhu	s8,8(sp)
    4910:	03300c93          	li	s9,51
    4914:	ff3c0c13          	addi	s8,s8,-13
    4918:	01811423          	sh	s8,8(sp)
    491c:	01fcd463          	bge	s9,t6,4924 <.L1831>
    4920:	9f4fe06f          	j	2b14 <.L1830>

00004924 <.L1831>:
    4924:	1c600c13          	li	s8,454
    4928:	00ec5463          	bge	s8,a4,4930 <.L1831+0xc>
    492c:	0780406f          	j	89a4 <.L1840>
    4930:	03300c13          	li	s8,51
    4934:	018f9463          	bne	t6,s8,493c <.L1831+0x18>
    4938:	4a10606f          	j	b5d8 <.L1841>
    493c:	00a15c03          	lhu	s8,10(sp)
    4940:	ff8c0c13          	addi	s8,s8,-8
    4944:	010c1c13          	slli	s8,s8,0x10
    4948:	410c5c13          	srai	s8,s8,0x10
    494c:	01811523          	sh	s8,10(sp)

00004950 <.L2884>:
    4950:	00100c13          	li	s8,1
    4954:	01cc5463          	bge	s8,t3,495c <.L2816>
    4958:	9dcfe06f          	j	2b34 <.L1848>

0000495c <.L2816>:
    495c:	01100c13          	li	s8,17
    4960:	011c5463          	bge	s8,a7,4968 <.L2816+0xc>
    4964:	6b40406f          	j	9018 <.L1849>
    4968:	00c15c03          	lhu	s8,12(sp)
    496c:	c0000c93          	li	s9,-1024
    4970:	ff8c0c13          	addi	s8,s8,-8
    4974:	01811623          	sh	s8,12(sp)
    4978:	0195d463          	bge	a1,s9,4980 <.L2816+0x24>
    497c:	1ad0606f          	j	b328 <.L1850>
    4980:	01f00c13          	li	s8,31
    4984:	013c4463          	blt	s8,s3,498c <.L2816+0x30>
    4988:	0240706f          	j	b9ac <.L1851>
    498c:	00815c03          	lhu	s8,8(sp)
    4990:	f8b00c93          	li	s9,-117
    4994:	ff9c0c13          	addi	s8,s8,-7
    4998:	01811423          	sh	s8,8(sp)
    499c:	0195d463          	bge	a1,s9,49a4 <.L1854>
    49a0:	9f8fe06f          	j	2b98 <.L1873>

000049a4 <.L1854>:
    49a4:	00a15c03          	lhu	s8,10(sp)
    49a8:	ffec0c13          	addi	s8,s8,-2
    49ac:	010c1c13          	slli	s8,s8,0x10
    49b0:	410c5c13          	srai	s8,s8,0x10
    49b4:	01811523          	sh	s8,10(sp)

000049b8 <.L2894>:
    49b8:	fdb00c13          	li	s8,-37
    49bc:	01875463          	bge	a4,s8,49c4 <.L1881>
    49c0:	a08fe06f          	j	2bc8 <.L2874>

000049c4 <.L1881>:
    49c4:	02700c13          	li	s8,39
    49c8:	00ec5463          	bge	s8,a4,49d0 <.L1881+0xc>
    49cc:	1bd0306f          	j	8388 <.L1887>
    49d0:	03c00c13          	li	s8,60
    49d4:	00dc5863          	bge	s8,a3,49e4 <.L1888>
    49d8:	00c15c03          	lhu	s8,12(sp)
    49dc:	007c0c13          	addi	s8,s8,7
    49e0:	01811623          	sh	s8,12(sp)

000049e4 <.L1888>:
    49e4:	05800c13          	li	s8,88
    49e8:	769c4263          	blt	s8,s1,514c <.L1883>
    49ec:	f5300c13          	li	s8,-173
    49f0:	01845463          	bge	s0,s8,49f8 <.L1888+0x14>
    49f4:	1c50306f          	j	83b8 <.L1884>
    49f8:	ff900c13          	li	s8,-7
    49fc:	01875463          	bge	a4,s8,4a04 <.L1898>
    4a00:	9f8fe06f          	j	2bf8 <.L1885>

00004a04 <.L1898>:
    4a04:	00e15c03          	lhu	s8,14(sp)
    4a08:	ffbc0c13          	addi	s8,s8,-5
    4a0c:	010c1c13          	slli	s8,s8,0x10
    4a10:	410c5c13          	srai	s8,s8,0x10
    4a14:	01811723          	sh	s8,14(sp)
    4a18:	07300c13          	li	s8,115
    4a1c:	012c5463          	bge	s8,s2,4a24 <.L1893>
    4a20:	9f8fe06f          	j	2c18 <.L1899>

00004a24 <.L1893>:
    4a24:	00c00c13          	li	s8,12
    4a28:	651c4e63          	blt	s8,a7,5084 <.L1900>
    4a2c:	673c4663          	blt	s8,s3,5098 <.L1906>
    4a30:	00815c03          	lhu	s8,8(sp)
    4a34:	02b00c93          	li	s9,43
    4a38:	009c0c13          	addi	s8,s8,9
    4a3c:	01811423          	sh	s8,8(sp)
    4a40:	670cc263          	blt	s9,a6,50a4 <.L1902>

00004a44 <.L1911>:
    4a44:	d7400c13          	li	s8,-652
    4a48:	018ac463          	blt	s5,s8,4a50 <.L1911+0xc>
    4a4c:	a0cfe06f          	j	2c58 <.L1913>
    4a50:	00a15c03          	lhu	s8,10(sp)
    4a54:	ff9c0c13          	addi	s8,s8,-7
    4a58:	01811523          	sh	s8,10(sp)
    4a5c:	00100c13          	li	s8,1
    4a60:	01cc5463          	bge	s8,t3,4a68 <.L1915>
    4a64:	a00fe06f          	j	2c64 <.L2495>

00004a68 <.L1915>:
    4a68:	02100c13          	li	s8,33
    4a6c:	00ec5463          	bge	s8,a4,4a74 <.L1915+0xc>
    4a70:	0e80106f          	j	5b58 <.L2653>
    4a74:	00c15c03          	lhu	s8,12(sp)
    4a78:	fffc0c13          	addi	s8,s8,-1
    4a7c:	010c1c13          	slli	s8,s8,0x10
    4a80:	410c5c13          	srai	s8,s8,0x10
    4a84:	01811623          	sh	s8,12(sp)
    4a88:	ff600c13          	li	s8,-10
    4a8c:	01865463          	bge	a2,s8,4a94 <.L1929>
    4a90:	a0cfe06f          	j	2c9c <.L2875>

00004a94 <.L1929>:
    4a94:	ff600c13          	li	s8,-10
    4a98:	01861463          	bne	a2,s8,4aa0 <.L1929+0xc>
    4a9c:	1410406f          	j	93dc <.L2876>
    4aa0:	01400c13          	li	s8,20
    4aa4:	013c5463          	bge	s8,s3,4aac <.L1936>
    4aa8:	5040106f          	j	5fac <.L2654>

00004aac <.L1936>:
    4aac:	00e15c03          	lhu	s8,14(sp)
    4ab0:	fffc0c13          	addi	s8,s8,-1
    4ab4:	01811723          	sh	s8,14(sp)
    4ab8:	39000c13          	li	s8,912
    4abc:	006c4463          	blt	s8,t1,4ac4 <.L1938>
    4ac0:	a0cfe06f          	j	2ccc <.L2877>

00004ac4 <.L1938>:
    4ac4:	01c00c13          	li	s8,28
    4ac8:	00ec5463          	bge	s8,a4,4ad0 <.L1938+0xc>
    4acc:	6540306f          	j	8120 <.L1942>
    4ad0:	00815c03          	lhu	s8,8(sp)
    4ad4:	00bc0c13          	addi	s8,s8,11
    4ad8:	01811423          	sh	s8,8(sp)
    4adc:	e2400c13          	li	s8,-476
    4ae0:	0182d463          	bge	t0,s8,4ae8 <.L1944>
    4ae4:	a14fe06f          	j	2cf8 <.L2878>

00004ae8 <.L1944>:
    4ae8:	03c00c13          	li	s8,60
    4aec:	01fc5463          	bge	s8,t6,4af4 <.L1944+0xc>
    4af0:	0cd0206f          	j	73bc <.L1955>
    4af4:	00900c13          	li	s8,9
    4af8:	01cc5463          	bge	s8,t3,4b00 <.L1944+0x18>
    4afc:	6340606f          	j	b130 <.L1956>
    4b00:	00a15c03          	lhu	s8,10(sp)
    4b04:	001c0c13          	addi	s8,s8,1
    4b08:	010c1c13          	slli	s8,s8,0x10
    4b0c:	410c5c13          	srai	s8,s8,0x10
    4b10:	01811523          	sh	s8,10(sp)
    4b14:	03c00c13          	li	s8,60
    4b18:	00fc5463          	bge	s8,a5,4b20 <.L1962>
    4b1c:	a14fe06f          	j	2d30 <.L1958>

00004b20 <.L1962>:
    4b20:	42200c13          	li	s8,1058
    4b24:	007c4463          	blt	s8,t2,4b2c <.L1950>
    4b28:	3d40406f          	j	8efc <.L1949>

00004b2c <.L1950>:
    4b2c:	e2300c13          	li	s8,-477
    4b30:	01844463          	blt	s0,s8,4b38 <.L1950+0xc>
    4b34:	6bd0406f          	j	99f0 <.L1975>
    4b38:	00c15c03          	lhu	s8,12(sp)
    4b3c:	05800c93          	li	s9,88
    4b40:	006c0c13          	addi	s8,s8,6
    4b44:	01811623          	sh	s8,12(sp)
    4b48:	009cd463          	bge	s9,s1,4b50 <.L2657>
    4b4c:	6c90406f          	j	9a14 <.L1976>

00004b50 <.L2657>:
    4b50:	00e15c03          	lhu	s8,14(sp)
    4b54:	00ec0c13          	addi	s8,s8,14
    4b58:	01811723          	sh	s8,14(sp)

00004b5c <.L1994>:
    4b5c:	e7b00c13          	li	s8,-389
    4b60:	0185c463          	blt	a1,s8,4b68 <.L1994+0xc>
    4b64:	4e40206f          	j	7048 <.L1987>
    4b68:	00815c03          	lhu	s8,8(sp)
    4b6c:	ffac0c13          	addi	s8,s8,-6
    4b70:	01811423          	sh	s8,8(sp)
    4b74:	02e00c13          	li	s8,46
    4b78:	01dc5463          	bge	s8,t4,4b80 <.L1992>
    4b7c:	a28fe06f          	j	2da4 <.L2879>

00004b80 <.L1992>:
    4b80:	01d00c13          	li	s8,29
    4b84:	011c5463          	bge	s8,a7,4b8c <.L1992+0xc>
    4b88:	56c0306f          	j	80f4 <.L2880>
    4b8c:	ffe00c13          	li	s8,-2
    4b90:	01884463          	blt	a6,s8,4b98 <.L2501>
    4b94:	a28fe06f          	j	2dbc <.L1998>

00004b98 <.L2501>:
    4b98:	00a15c03          	lhu	s8,10(sp)
    4b9c:	ff9c0c13          	addi	s8,s8,-7
    4ba0:	01811523          	sh	s8,10(sp)
    4ba4:	a18fe06f          	j	2dbc <.L1998>

00004ba8 <.L1777>:
    4ba8:	ff800c13          	li	s8,-8
    4bac:	01864463          	blt	a2,s8,4bb4 <.L1777+0xc>
    4bb0:	5750206f          	j	7924 <.L1784>
    4bb4:	01f00c13          	li	s8,31
    4bb8:	571c4ce3          	blt	s8,a7,5930 <.L1785>
    4bbc:	00815c03          	lhu	s8,8(sp)
    4bc0:	02e00c93          	li	s9,46
    4bc4:	003c0c13          	addi	s8,s8,3
    4bc8:	01811423          	sh	s8,8(sp)
    4bcc:	57dccce3          	blt	s9,t4,5944 <.L1779>
    4bd0:	01700c13          	li	s8,23
    4bd4:	011c4463          	blt	s8,a7,4bdc <.L1788>
    4bd8:	e81fd06f          	j	2a58 <.L1782>

00004bdc <.L1788>:
    4bdc:	00a15c03          	lhu	s8,10(sp)
    4be0:	01500c93          	li	s9,21
    4be4:	ff9c0c13          	addi	s8,s8,-7
    4be8:	01811523          	sh	s8,10(sp)
    4bec:	330cd0e3          	bge	s9,a6,570c <.L1786>
    4bf0:	03b00c13          	li	s8,59
    4bf4:	06fc5263          	bge	s8,a5,4c58 <.L1794>

00004bf8 <.L1795>:
    4bf8:	1df00c13          	li	s8,479
    4bfc:	01ec4463          	blt	s8,t5,4c04 <.L1795+0xc>
    4c00:	e9dfd06f          	j	2a9c <.L2648>
    4c04:	00c15c03          	lhu	s8,12(sp)
    4c08:	00300c93          	li	s9,3
    4c0c:	019c0c33          	add	s8,s8,s9
    4c10:	01811623          	sh	s8,12(sp)
    4c14:	01ccd463          	bge	s9,t3,4c1c <.L1795+0x24>
    4c18:	3e50606f          	j	b7fc <.L1809>
    4c1c:	01300c13          	li	s8,19
    4c20:	01dc5463          	bge	s8,t4,4c28 <.L1795+0x30>
    4c24:	0400706f          	j	bc64 <.L2881>
    4c28:	02e00c13          	li	s8,46
    4c2c:	012c5463          	bge	s8,s2,4c34 <.L1795+0x3c>
    4c30:	3480706f          	j	bf78 <.L2882>
    4c34:	00e15c83          	lhu	s9,14(sp)
    4c38:	00815c03          	lhu	s8,8(sp)
    4c3c:	ff9c8c93          	addi	s9,s9,-7

00004c40 <.L2651>:
    4c40:	fffc0c13          	addi	s8,s8,-1
    4c44:	01811423          	sh	s8,8(sp)
    4c48:	01911723          	sh	s9,14(sp)
    4c4c:	03300c13          	li	s8,51
    4c50:	09fc4463          	blt	s8,t6,4cd8 <.L1845>
    4c54:	cd1ff06f          	j	4924 <.L1831>

00004c58 <.L1794>:
    4c58:	00c15c03          	lhu	s8,12(sp)
    4c5c:	008c0c13          	addi	s8,s8,8
    4c60:	01811623          	sh	s8,12(sp)
    4c64:	00300c13          	li	s8,3
    4c68:	01cc4463          	blt	s8,t3,4c70 <.L1800>
    4c6c:	e49fd06f          	j	2ab4 <.L2883>

00004c70 <.L1800>:
    4c70:	e4a00c13          	li	s8,-438
    4c74:	0182c463          	blt	t0,s8,4c7c <.L1800+0xc>
    4c78:	1900406f          	j	8e08 <.L1820>
    4c7c:	de700c13          	li	s8,-537
    4c80:	0185c863          	blt	a1,s8,4c90 <.L1821>

00004c84 <.L2649>:
    4c84:	00e15c03          	lhu	s8,14(sp)
    4c88:	ff8c0c13          	addi	s8,s8,-8
    4c8c:	01811723          	sh	s8,14(sp)

00004c90 <.L1821>:
    4c90:	0a900c13          	li	s8,169
    4c94:	01ec4463          	blt	s8,t5,4c9c <.L1826>
    4c98:	e4dfd06f          	j	2ae4 <.L1817>

00004c9c <.L1826>:
    4c9c:	01700c13          	li	s8,23
    4ca0:	6fdc52e3          	bge	s8,t4,5b84 <.L2650>

00004ca4 <.L1835>:
    4ca4:	01c51c83          	lh	s9,28(a0)
    4ca8:	02500c13          	li	s8,37
    4cac:	6d9c5ce3          	bge	s8,s9,5b84 <.L2650>
    4cb0:	00815c03          	lhu	s8,8(sp)
    4cb4:	004c0c13          	addi	s8,s8,4
    4cb8:	010c1c13          	slli	s8,s8,0x10
    4cbc:	410c5c13          	srai	s8,s8,0x10

00004cc0 <.L1834>:
    4cc0:	01811423          	sh	s8,8(sp)
    4cc4:	03300c13          	li	s8,51
    4cc8:	c5fc5ee3          	bge	s8,t6,4924 <.L1831>
    4ccc:	03b00c13          	li	s8,59
    4cd0:	00fc4463          	blt	s8,a5,4cd8 <.L1845>
    4cd4:	e41fd06f          	j	2b14 <.L1830>

00004cd8 <.L1845>:
    4cd8:	17900c13          	li	s8,377
    4cdc:	009c5463          	bge	s8,s1,4ce4 <.L1845+0xc>
    4ce0:	e49fd06f          	j	2b28 <.L1844>
    4ce4:	00a15c03          	lhu	s8,10(sp)
    4ce8:	ff9c0c13          	addi	s8,s8,-7
    4cec:	01811523          	sh	s8,10(sp)
    4cf0:	c61ff06f          	j	4950 <.L2884>

00004cf4 <.L1758>:
    4cf4:	faf00c13          	li	s8,-81
    4cf8:	01844463          	blt	s0,s8,4d00 <.L1758+0xc>
    4cfc:	7440306f          	j	8440 <.L2885>
    4d00:	00c15c03          	lhu	s8,12(sp)
    4d04:	02700c93          	li	s9,39
    4d08:	001c0c13          	addi	s8,s8,1
    4d0c:	01811623          	sh	s8,12(sp)
    4d10:	007cc463          	blt	s9,t2,4d18 <.L1762>
    4d14:	7440306f          	j	8458 <.L1761>

00004d18 <.L1762>:
    4d18:	03000c13          	li	s8,48
    4d1c:	007c5463          	bge	s8,t2,4d24 <.L1762+0xc>
    4d20:	68d0106f          	j	6bac <.L1775>
    4d24:	0b800c13          	li	s8,184
    4d28:	009c5463          	bge	s8,s1,4d30 <.L1762+0x18>
    4d2c:	1640606f          	j	ae90 <.L1776>
    4d30:	00e15c03          	lhu	s8,14(sp)
    4d34:	00dc0c13          	addi	s8,s8,13
    4d38:	01811723          	sh	s8,14(sp)
    4d3c:	cedfd06f          	j	2a28 <.L1774>

00004d40 <.L1752>:
    4d40:	00c00c13          	li	s8,12
    4d44:	01cc5463          	bge	s8,t3,4d4c <.L1752+0xc>
    4d48:	6810106f          	j	6bc8 <.L1756>
    4d4c:	03300c13          	li	s8,51
    4d50:	01fc5463          	bge	s8,t6,4d58 <.L1752+0x18>
    4d54:	4750306f          	j	89c8 <.L1757>
    4d58:	00a15c03          	lhu	s8,10(sp)
    4d5c:	ffac0c13          	addi	s8,s8,-6
    4d60:	01811523          	sh	s8,10(sp)
    4d64:	f9800c13          	li	s8,-104
    4d68:	01845463          	bge	s0,s8,4d70 <.L2814>
    4d6c:	c6dfd06f          	j	29d8 <.L1767>

00004d70 <.L2814>:
    4d70:	faf00c13          	li	s8,-81
    4d74:	01844463          	blt	s0,s8,4d7c <.L2814+0xc>
    4d78:	c75fd06f          	j	29ec <.L1771>
    4d7c:	03200c13          	li	s8,50
    4d80:	01fc5463          	bge	s8,t6,4d88 <.L2814+0x18>
    4d84:	7240606f          	j	b4a8 <.L1772>
    4d88:	00c15c03          	lhu	s8,12(sp)
    4d8c:	011c0c13          	addi	s8,s8,17
    4d90:	01811623          	sh	s8,12(sp)
    4d94:	c65fd06f          	j	29f8 <.L1769>

00004d98 <.L1724>:
    4d98:	00a15c03          	lhu	s8,10(sp)
    4d9c:	02200c93          	li	s9,34
    4da0:	ff5c0c13          	addi	s8,s8,-11
    4da4:	01811523          	sh	s8,10(sp)
    4da8:	011cd463          	bge	s9,a7,4db0 <.L1724+0x18>
    4dac:	1490606f          	j	b6f4 <.L1725>
    4db0:	01700c13          	li	s8,23
    4db4:	01dc5463          	bge	s8,t4,4dbc <.L1724+0x24>
    4db8:	7380306f          	j	84f0 <.L1726>
    4dbc:	1dc00c13          	li	s8,476
    4dc0:	01ec5463          	bge	s8,t5,4dc8 <.L1727>
    4dc4:	b7dfd06f          	j	2940 <.L1728>

00004dc8 <.L1727>:
    4dc8:	01d00c13          	li	s8,29
    4dcc:	453c4463          	blt	s8,s3,5214 <.L1744>
    4dd0:	ff500c13          	li	s8,-11
    4dd4:	01894463          	blt	s2,s8,4ddc <.L1727+0x14>
    4dd8:	6d00506f          	j	a4a8 <.L1745>
    4ddc:	00e15c03          	lhu	s8,14(sp)
    4de0:	01500c93          	li	s9,21
    4de4:	004c0c13          	addi	s8,s8,4
    4de8:	01811723          	sh	s8,14(sp)
    4dec:	447cc863          	blt	s9,t2,523c <.L1741>

00004df0 <.L1746>:
    4df0:	00815c03          	lhu	s8,8(sp)
    4df4:	008c0c13          	addi	s8,s8,8
    4df8:	01811423          	sh	s8,8(sp)
    4dfc:	ba1fd06f          	j	299c <.L1748>

00004e00 <.L769>:
    4e00:	00e15c03          	lhu	s8,14(sp)
    4e04:	004c0c13          	addi	s8,s8,4
    4e08:	010c1c13          	slli	s8,s8,0x10
    4e0c:	410c5c13          	srai	s8,s8,0x10
    4e10:	01811723          	sh	s8,14(sp)
    4e14:	ffe00c13          	li	s8,-2
    4e18:	01884463          	blt	a6,s8,4e20 <.L783>
    4e1c:	d39fc06f          	j	1b54 <.L786>

00004e20 <.L783>:
    4e20:	0a400c13          	li	s8,164
    4e24:	00dc5463          	bge	s8,a3,4e2c <.L783+0xc>
    4e28:	60d0306f          	j	8c34 <.L776>
    4e2c:	1aa00c13          	li	s8,426
    4e30:	016c5463          	bge	s8,s6,4e38 <.L783+0x18>
    4e34:	7680506f          	j	a59c <.L787>
    4e38:	00815c03          	lhu	s8,8(sp)
    4e3c:	03300c93          	li	s9,51
    4e40:	007c0c13          	addi	s8,s8,7
    4e44:	01811423          	sh	s8,8(sp)
    4e48:	01fcc463          	blt	s9,t6,4e50 <.L789>
    4e4c:	d39fc06f          	j	1b84 <.L788>

00004e50 <.L789>:
    4e50:	0c400c13          	li	s8,196
    4e54:	016c5463          	bge	s8,s6,4e5c <.L789+0xc>
    4e58:	2410606f          	j	b898 <.L802>
    4e5c:	00a15c03          	lhu	s8,10(sp)
    4e60:	ff8c0c13          	addi	s8,s8,-8
    4e64:	010c1c13          	slli	s8,s8,0x10
    4e68:	410c5c13          	srai	s8,s8,0x10

00004e6c <.L800>:
    4e6c:	01811523          	sh	s8,10(sp)
    4e70:	ffc00c13          	li	s8,-4
    4e74:	01865463          	bge	a2,s8,4e7c <.L800+0x10>
    4e78:	d39fc06f          	j	1bb0 <.L797>
    4e7c:	01005463          	blez	a6,4e84 <.L803>
    4e80:	8c0fc06f          	j	f40 <.L812>

00004e84 <.L803>:
    4e84:	03500c13          	li	s8,53
    4e88:	2efc4263          	blt	s8,a5,516c <.L813>
    4e8c:	00c15c03          	lhu	s8,12(sp)
    4e90:	03800c93          	li	s9,56
    4e94:	ff9c0c13          	addi	s8,s8,-7
    4e98:	01811623          	sh	s8,12(sp)
    4e9c:	00ecd463          	bge	s9,a4,4ea4 <.L814>
    4ea0:	51d0306f          	j	8bbc <.L815>

00004ea4 <.L814>:
    4ea4:	00e15c03          	lhu	s8,14(sp)
    4ea8:	ff7c0c13          	addi	s8,s8,-9
    4eac:	010c1c13          	slli	s8,s8,0x10
    4eb0:	410c5c13          	srai	s8,s8,0x10
    4eb4:	8b4fc06f          	j	f68 <.L820>

00004eb8 <.L772>:
    4eb8:	00c15c03          	lhu	s8,12(sp)
    4ebc:	03e00c93          	li	s9,62
    4ec0:	004c0c13          	addi	s8,s8,4
    4ec4:	01811623          	sh	s8,12(sp)
    4ec8:	00fcc463          	blt	s9,a5,4ed0 <.L752>
    4ecc:	c5dfc06f          	j	1b28 <.L751>

00004ed0 <.L752>:
    4ed0:	fec00c13          	li	s8,-20
    4ed4:	01865463          	bge	a2,s8,4edc <.L755>
    4ed8:	ffdfb06f          	j	ed4 <.L780>

00004edc <.L755>:
    4edc:	00e15c03          	lhu	s8,14(sp)
    4ee0:	ffe00c93          	li	s9,-2
    4ee4:	009c0c13          	addi	s8,s8,9
    4ee8:	01811723          	sh	s8,14(sp)
    4eec:	f3984ae3          	blt	a6,s9,4e20 <.L783>

00004ef0 <.L2387>:
    4ef0:	0ba00c13          	li	s8,186
    4ef4:	012c4463          	blt	s8,s2,4efc <.L777>
    4ef8:	800fc06f          	j	ef8 <.L784>

00004efc <.L777>:
    4efc:	00815c03          	lhu	s8,8(sp)
    4f00:	01c04463          	bgtz	t3,4f08 <.L777+0xc>
    4f04:	3ec0606f          	j	b2f0 <.L2886>
    4f08:	ff8c0c13          	addi	s8,s8,-8
    4f0c:	010c1c13          	slli	s8,s8,0x10
    4f10:	410c5c13          	srai	s8,s8,0x10
    4f14:	ff5fb06f          	j	f08 <.L778>

00004f18 <.L1210>:
    4f18:	00e15c03          	lhu	s8,14(sp)
    4f1c:	00400c93          	li	s9,4
    4f20:	ff6c0c13          	addi	s8,s8,-10
    4f24:	01811723          	sh	s8,14(sp)
    4f28:	011cd463          	bge	s9,a7,4f30 <.L1208>
    4f2c:	39d0206f          	j	7ac8 <.L2607>

00004f30 <.L1208>:
    4f30:	03a00c13          	li	s8,58
    4f34:	01fc5463          	bge	s8,t6,4f3c <.L1208+0xc>
    4f38:	2310306f          	j	8968 <.L1213>
    4f3c:	00815c03          	lhu	s8,8(sp)
    4f40:	00cc0c13          	addi	s8,s8,12
    4f44:	01811423          	sh	s8,8(sp)
    4f48:	af0fd06f          	j	2238 <.L1209>

00004f4c <.L2107>:
    4f4c:	0a400b13          	li	s6,164
    4f50:	01eb5863          	bge	s6,t5,4f60 <.L2101>
    4f54:	00815b03          	lhu	s6,8(sp)
    4f58:	ff9b0b13          	addi	s6,s6,-7
    4f5c:	01611423          	sh	s6,8(sp)

00004f60 <.L2101>:
    4f60:	02e00b13          	li	s6,46
    4f64:	c5db5663          	bge	s6,t4,43b0 <.L2098>
    4f68:	03900b13          	li	s6,57
    4f6c:	01fb5463          	bge	s6,t6,4f74 <.L2099>
    4f70:	830fe06f          	j	2fa0 <.L2111>

00004f74 <.L2099>:
    4f74:	00e00b13          	li	s6,14
    4f78:	010b5463          	bge	s6,a6,4f80 <.L2099+0xc>
    4f7c:	65c0406f          	j	95d8 <.L2887>
    4f80:	00a15b03          	lhu	s6,10(sp)
    4f84:	004b0b13          	addi	s6,s6,4
    4f88:	01611523          	sh	s6,10(sp)
    4f8c:	82cfe06f          	j	2fb8 <.L2114>

00004f90 <.L2890>:
    4f90:	07400c13          	li	s8,116
    4f94:	007c5463          	bge	s8,t2,4f9c <.L2890+0xc>
    4f98:	6300606f          	j	b5c8 <.L1700>
    4f9c:	00e15c03          	lhu	s8,14(sp)
    4fa0:	e4300c93          	li	s9,-445
    4fa4:	ffdc0c13          	addi	s8,s8,-3
    4fa8:	01811723          	sh	s8,14(sp)
    4fac:	01945463          	bge	s0,s9,4fb4 <.L1702>
    4fb0:	4100406f          	j	93c0 <.L1701>

00004fb4 <.L1702>:
    4fb4:	03b00c13          	li	s8,59
    4fb8:	00fc5463          	bge	s8,a5,4fc0 <.L1702+0xc>
    4fbc:	7f90206f          	j	7fb4 <.L1713>
    4fc0:	d6700c13          	li	s8,-665
    4fc4:	018ac463          	blt	s5,s8,4fcc <.L1702+0x18>
    4fc8:	3f80506f          	j	a3c0 <.L1714>
    4fcc:	00815c03          	lhu	s8,8(sp)
    4fd0:	00fc0c13          	addi	s8,s8,15
    4fd4:	010c1c13          	slli	s8,s8,0x10
    4fd8:	010c5c13          	srli	s8,s8,0x10

00004fdc <.L1715>:
    4fdc:	01811423          	sh	s8,8(sp)

00004fe0 <.L1711>:
    4fe0:	03500c13          	li	s8,53
    4fe4:	00ec4463          	blt	s8,a4,4fec <.L1711+0xc>
    4fe8:	2400306f          	j	8228 <.L1708>
    4fec:	1a200c13          	li	s8,418
    4ff0:	007c4463          	blt	s8,t2,4ff8 <.L1711+0x18>
    4ff4:	919fd06f          	j	290c <.L1709>
    4ff8:	00a15c03          	lhu	s8,10(sp)
    4ffc:	ffcc0c13          	addi	s8,s8,-4
    5000:	010c1c13          	slli	s8,s8,0x10
    5004:	410c5c13          	srai	s8,s8,0x10
    5008:	01811523          	sh	s8,10(sp)
    500c:	02200c13          	li	s8,34
    5010:	011c4463          	blt	s8,a7,5018 <.L1729>
    5014:	919fd06f          	j	292c <.L2888>

00005018 <.L1729>:
    5018:	e6b00c13          	li	s8,-405
    501c:	0182c463          	blt	t0,s8,5024 <.L1729+0xc>
    5020:	5cd0306f          	j	8dec <.L1736>
    5024:	03300c13          	li	s8,51
    5028:	01dc5463          	bge	s8,t4,5030 <.L1734>
    502c:	921fd06f          	j	294c <.L1730>

00005030 <.L1734>:
    5030:	00c15c03          	lhu	s8,12(sp)
    5034:	009c0c13          	addi	s8,s8,9
    5038:	01811623          	sh	s8,12(sp)
    503c:	911fd06f          	j	294c <.L1730>

00005040 <.L2072>:
    5040:	ff900b13          	li	s6,-7
    5044:	01664463          	blt	a2,s6,504c <.L2072+0xc>
    5048:	5c80306f          	j	8610 <.L2077>
    504c:	09000b13          	li	s6,144
    5050:	012b5463          	bge	s6,s2,5058 <.L2072+0x18>
    5054:	0380206f          	j	708c <.L2078>
    5058:	02700b13          	li	s6,39
    505c:	006b4463          	blt	s6,t1,5064 <.L2660>
    5060:	0440206f          	j	70a4 <.L2079>

00005064 <.L2660>:
    5064:	ecb00b13          	li	s6,-309
    5068:	016ac463          	blt	s5,s6,5070 <.L2087>
    506c:	5840306f          	j	85f0 <.L2080>

00005070 <.L2087>:
    5070:	00c15b03          	lhu	s6,12(sp)
    5074:	001b0b13          	addi	s6,s6,1
    5078:	010b1b13          	slli	s6,s6,0x10
    507c:	410b5b13          	srai	s6,s6,0x10
    5080:	ec9fd06f          	j	2f48 <.L2081>

00005084 <.L1900>:
    5084:	03c00c13          	li	s8,60
    5088:	01fc5863          	bge	s8,t6,5098 <.L1906>
    508c:	00815c03          	lhu	s8,8(sp)
    5090:	006c0c13          	addi	s8,s8,6
    5094:	01811423          	sh	s8,8(sp)

00005098 <.L1906>:
    5098:	02b00c13          	li	s8,43
    509c:	010c4463          	blt	s8,a6,50a4 <.L1902>
    50a0:	b99fd06f          	j	2c38 <.L1908>

000050a4 <.L1902>:
    50a4:	01400c13          	li	s8,20
    50a8:	01dc5463          	bge	s8,t4,50b0 <.L1902+0xc>
    50ac:	4140306f          	j	84c0 <.L1914>
    50b0:	00a15c03          	lhu	s8,10(sp)
    50b4:	00100c93          	li	s9,1
    50b8:	ff9c0c13          	addi	s8,s8,-7
    50bc:	01811523          	sh	s8,10(sp)
    50c0:	9bccd4e3          	bge	s9,t3,4a68 <.L1915>

000050c4 <.L1922>:
    50c4:	0ff00c13          	li	s8,255
    50c8:	009c5463          	bge	s8,s1,50d0 <.L1922+0xc>
    50cc:	3c80406f          	j	9494 <.L2889>
    50d0:	00c15c03          	lhu	s8,12(sp)
    50d4:	ff600c93          	li	s9,-10
    50d8:	ffec0c13          	addi	s8,s8,-2
    50dc:	01811623          	sh	s8,12(sp)
    50e0:	9b965ae3          	bge	a2,s9,4a94 <.L1929>

000050e4 <.L1930>:
    50e4:	03c00c13          	li	s8,60
    50e8:	01fc5463          	bge	s8,t6,50f0 <.L1930+0xc>
    50ec:	bd5fd06f          	j	2cc0 <.L1933>
    50f0:	00e15c03          	lhu	s8,14(sp)
    50f4:	ff8c0c13          	addi	s8,s8,-8
    50f8:	01811723          	sh	s8,14(sp)
    50fc:	bc5fd06f          	j	2cc0 <.L1933>

00005100 <.L2813>:
    5100:	ff600c13          	li	s8,-10
    5104:	01865463          	bge	a2,s8,510c <.L1682>
    5108:	f9cfd06f          	j	28a4 <.L1681>

0000510c <.L1682>:
    510c:	ff600c13          	li	s8,-10
    5110:	e98600e3          	beq	a2,s8,4f90 <.L2890>
    5114:	f2700c13          	li	s8,-217
    5118:	0182c463          	blt	t0,s8,5120 <.L1682+0x14>
    511c:	2dc0406f          	j	93f8 <.L1703>
    5120:	00e15c03          	lhu	s8,14(sp)
    5124:	ffdc0c13          	addi	s8,s8,-3
    5128:	010c1c13          	slli	s8,s8,0x10
    512c:	010c5c13          	srli	s8,s8,0x10
    5130:	f90fd06f          	j	28c0 <.L1696>

00005134 <.L1889>:
    5134:	00c15c03          	lhu	s8,12(sp)
    5138:	05800c93          	li	s9,88
    513c:	001c0c13          	addi	s8,s8,1
    5140:	01811623          	sh	s8,12(sp)
    5144:	009cc463          	blt	s9,s1,514c <.L1883>
    5148:	2640306f          	j	83ac <.L1890>

0000514c <.L1883>:
    514c:	03600c13          	li	s8,54
    5150:	00fc5463          	bge	s8,a5,5158 <.L1883+0xc>
    5154:	34d0206f          	j	7ca0 <.L1897>
    5158:	00e15c03          	lhu	s8,14(sp)
    515c:	ff8c0c13          	addi	s8,s8,-8
    5160:	010c1c13          	slli	s8,s8,0x10
    5164:	410c5c13          	srai	s8,s8,0x10
    5168:	aa1fd06f          	j	2c08 <.L1896>

0000516c <.L813>:
    516c:	00c15c03          	lhu	s8,12(sp)
    5170:	03e00c93          	li	s9,62
    5174:	00dc0c13          	addi	s8,s8,13
    5178:	01811623          	sh	s8,12(sp)
    517c:	00fcd463          	bge	s9,a5,5184 <.L816>
    5180:	dd9fb06f          	j	f58 <.L817>

00005184 <.L816>:
    5184:	03800c13          	li	s8,56
    5188:	00ec5463          	bge	s8,a4,5190 <.L816+0xc>
    518c:	2310306f          	j	8bbc <.L815>
    5190:	03600c13          	li	s8,54
    5194:	d0fc58e3          	bge	s8,a5,4ea4 <.L814>

00005198 <.L821>:
    5198:	00e15c03          	lhu	s8,14(sp)
    519c:	003c0c13          	addi	s8,s8,3
    51a0:	010c1c13          	slli	s8,s8,0x10
    51a4:	410c5c13          	srai	s8,s8,0x10
    51a8:	dc1fb06f          	j	f68 <.L820>

000051ac <.L749>:
    51ac:	f5000c13          	li	s8,-176
    51b0:	0185c463          	blt	a1,s8,51b8 <.L749+0xc>
    51b4:	5b50306f          	j	8f68 <.L2891>
    51b8:	00f00c13          	li	s8,15
    51bc:	010c5463          	bge	s8,a6,51c4 <.L749+0x18>
    51c0:	0fc0606f          	j	b2bc <.L761>
    51c4:	00c15c03          	lhu	s8,12(sp)
    51c8:	ff8c0c13          	addi	s8,s8,-8
    51cc:	010c1c13          	slli	s8,s8,0x10
    51d0:	010c5c13          	srli	s8,s8,0x10

000051d4 <.L762>:
    51d4:	01811623          	sh	s8,12(sp)
    51d8:	03e00c13          	li	s8,62
    51dc:	cefc4ae3          	blt	s8,a5,4ed0 <.L752>

000051e0 <.L741>:
