
header_editado.o:     formato de ficheiro elf32-littleriscv


Desmontagem da secção .text:

00000000 <get_num_target>:
       0:	00100513          	li	a0,1
       4:	00008067          	ret

00000008 <get_num_class>:
       8:	00400793          	li	a5,4
       c:	00f52023          	sw	a5,0(a0)
      10:	00008067          	ret

00000014 <get_num_feature>:
      14:	01600513          	li	a0,22
      18:	00008067          	ret

0000001c <get_threshold_type>:
      1c:	00000517          	auipc	a0,0x0
      20:	00050513          	mv	a0,a0
      24:	00008067          	ret

00000028 <get_leaf_output_type>:
      28:	00000517          	auipc	a0,0x0
      2c:	00050513          	mv	a0,a0
      30:	00008067          	ret

00000034 <predict>:
      34:	00451303          	lh	t1,4(a0) # 2c <get_leaf_output_type+0x4>
      38:	fc010113          	addi	sp,sp,-64
      3c:	03712023          	sw	s7,32(sp)
      40:	02812e23          	sw	s0,60(sp)
      44:	02912c23          	sw	s1,56(sp)
      48:	03212a23          	sw	s2,52(sp)
      4c:	03312823          	sw	s3,48(sp)
      50:	03412623          	sw	s4,44(sp)
      54:	03512423          	sw	s5,40(sp)
      58:	03612223          	sw	s6,36(sp)
      5c:	01812e23          	sw	s8,28(sp)
      60:	01912c23          	sw	s9,24(sp)
      64:	01a12a23          	sw	s10,20(sp)
      68:	04600793          	li	a5,70
      6c:	00c10b93          	addi	s7,sp,12
      70:	2067c463          	blt	a5,t1,278 <.L8>
      74:	02451983          	lh	s3,36(a0)
      78:	01900793          	li	a5,25
      7c:	4d37c063          	blt	a5,s3,53c <.L9>
      80:	01651a03          	lh	s4,22(a0)
      84:	efc00793          	li	a5,-260
      88:	4cfa4a63          	blt	s4,a5,55c <.L2291>
      8c:	02251f03          	lh	t5,34(a0)
      90:	00e51f83          	lh	t6,14(a0)
      94:	01a51403          	lh	s0,26(a0)
      98:	02400793          	li	a5,36

0000009c <.L10>:
      9c:	00251703          	lh	a4,2(a0)
      a0:	00f11423          	sh	a5,8(sp)
      a4:	2df00793          	li	a5,735
      a8:	20e7c463          	blt	a5,a4,2b0 <.L12>

000000ac <.L2751>:
      ac:	01851603          	lh	a2,24(a0)
      b0:	ffd00793          	li	a5,-3
      b4:	00f64463          	blt	a2,a5,bc <.L2751+0x10>
      b8:	4fc0606f          	j	65b4 <.L13>
      bc:	01251483          	lh	s1,18(a0)
      c0:	19100693          	li	a3,401
      c4:	ff600793          	li	a5,-10
      c8:	0096d463          	bge	a3,s1,d0 <.L14>
      cc:	00200793          	li	a5,2

000000d0 <.L14>:
      d0:	00651a83          	lh	s5,6(a0)
      d4:	00f11523          	sh	a5,10(sp)
      d8:	d5c00793          	li	a5,-676
      dc:	00fac463          	blt	s5,a5,e4 <.L14+0x14>
      e0:	4ec0b06f          	j	b5cc <.L2747>
      e4:	ff400793          	li	a5,-12
      e8:	00f64463          	blt	a2,a5,f0 <.L14+0x20>
      ec:	4f00606f          	j	65dc <.L16>
      f0:	00a51683          	lh	a3,10(a0)
      f4:	01051b03          	lh	s6,16(a0)
      f8:	02851e83          	lh	t4,40(a0)

000000fc <.L21>:
      fc:	06300793          	li	a5,99
     100:	01d7d463          	bge	a5,t4,108 <.L21+0xc>
     104:	46d0a06f          	j	ad70 <.L25>
     108:	00051783          	lh	a5,0(a0)
     10c:	02500593          	li	a1,37
     110:	00b11623          	sh	a1,12(sp)
     114:	03e00593          	li	a1,62
     118:	01451283          	lh	t0,20(a0)
     11c:	1ef5dc63          	bge	a1,a5,314 <.L26>

00000120 <.L27>:
     120:	ff600593          	li	a1,-10
     124:	00b11723          	sh	a1,14(sp)
     128:	05700593          	li	a1,87
     12c:	0065c463          	blt	a1,t1,134 <.L27+0x14>
     130:	2e50906f          	j	9c14 <.L2341>
     134:	01e51583          	lh	a1,30(a0)
     138:	00c51903          	lh	s2,12(a0)

0000013c <.L33>:
     13c:	0ac00813          	li	a6,172
     140:	01685463          	bge	a6,s6,148 <.L33+0xc>
     144:	4d00606f          	j	6614 <.L45>
     148:	03a00813          	li	a6,58
     14c:	00815883          	lhu	a7,8(sp)
     150:	01f85463          	bge	a6,t6,158 <.L33+0x1c>
     154:	3e10a06f          	j	ad34 <.L46>
     158:	01588893          	addi	a7,a7,21
     15c:	00851803          	lh	a6,8(a0)
     160:	01089893          	slli	a7,a7,0x10
     164:	4108d893          	srai	a7,a7,0x10

00000168 <.L47>:
     168:	01111423          	sh	a7,8(sp)
     16c:	1b500893          	li	a7,437
     170:	00e8d463          	bge	a7,a4,178 <.L47+0x10>
     174:	7140306f          	j	3888 <.L44>
     178:	02a51883          	lh	a7,42(a0)
     17c:	00800e13          	li	t3,8
     180:	011e4463          	blt	t3,a7,188 <.L47+0x20>
     184:	01c0806f          	j	81a0 <.L42>
     188:	0f200e13          	li	t3,242
     18c:	1e6e5e63          	bge	t3,t1,388 <.L41>
     190:	00a15e03          	lhu	t3,10(sp)
     194:	fffe0e13          	addi	t3,t3,-1
     198:	010e1e13          	slli	t3,t3,0x10
     19c:	410e5e13          	srai	t3,t3,0x10

000001a0 <.L51>:
     1a0:	01c11523          	sh	t3,10(sp)
     1a4:	df700e13          	li	t3,-521
     1a8:	1fca5e63          	bge	s4,t3,3a4 <.L57>

000001ac <.L52>:
     1ac:	ff400e13          	li	t3,-12
     1b0:	01c65463          	bge	a2,t3,1b8 <.L52+0xc>
     1b4:	0c00806f          	j	8274 <.L58>
     1b8:	03b00e13          	li	t3,59
     1bc:	00ee5463          	bge	t3,a4,1c4 <.L52+0x18>
     1c0:	7080306f          	j	38c8 <.L59>
     1c4:	00c15e03          	lhu	t3,12(sp)
     1c8:	012e0e13          	addi	t3,t3,18
     1cc:	010e1e13          	slli	t3,t3,0x10
     1d0:	410e5e13          	srai	t3,t3,0x10

000001d4 <.L65>:
     1d4:	01c11623          	sh	t3,12(sp)
     1d8:	03d00e13          	li	t3,61
     1dc:	1efe5663          	bge	t3,a5,3c8 <.L66>
     1e0:	dce00e13          	li	t3,-562
     1e4:	01cac463          	blt	s5,t3,1ec <.L65+0x18>
     1e8:	3a40606f          	j	658c <.L67>
     1ec:	00e15e03          	lhu	t3,14(sp)
     1f0:	0d900393          	li	t2,217
     1f4:	ff5e0e13          	addi	t3,t3,-11
     1f8:	01c11723          	sh	t3,14(sp)
     1fc:	21e3d263          	bge	t2,t5,400 <.L76>

00000200 <.L2344>:
     200:	05700e13          	li	t3,87
     204:	006e4463          	blt	t3,t1,20c <.L82>
     208:	5190806f          	j	8f20 <.L83>

0000020c <.L82>:
     20c:	00815e03          	lhu	t3,8(sp)
     210:	02651383          	lh	t2,38(a0)
     214:	ff7e0e13          	addi	t3,t3,-9

00000218 <.L2549>:
     218:	01c11423          	sh	t3,8(sp)

0000021c <.L85>:
     21c:	1de00e13          	li	t3,478
     220:	20ee5263          	bge	t3,a4,424 <.L90>

00000224 <.L93>:
     224:	4ae00e13          	li	t3,1198
     228:	00de5463          	bge	t3,a3,230 <.L93+0xc>
     22c:	5440806f          	j	8770 <.L92>
     230:	03e00e13          	li	t3,62
     234:	00fe4463          	blt	t3,a5,23c <.L93+0x18>
     238:	6310806f          	j	9068 <.L91>
     23c:	00a15e03          	lhu	t3,10(sp)
     240:	31a00c13          	li	s8,794
     244:	ff5e0e13          	addi	t3,t3,-11
     248:	01c11523          	sh	t3,10(sp)
     24c:	00dc5463          	bge	s8,a3,254 <.L93+0x30>
     250:	5e40b06f          	j	b834 <.L2748>
     254:	ea700e13          	li	t3,-345
     258:	01ca4463          	blt	s4,t3,260 <.L93+0x3c>
     25c:	01d0b06f          	j	ba78 <.L2749>
     260:	00c15e03          	lhu	t3,12(sp)
     264:	ff6e0e13          	addi	t3,t3,-10
     268:	010e1e13          	slli	t3,t3,0x10
     26c:	410e5e13          	srai	t3,t3,0x10
     270:	01c11623          	sh	t3,12(sp)
     274:	20c0006f          	j	480 <.L121>

00000278 <.L8>:
     278:	02251f03          	lh	t5,34(a0)
     27c:	0d900793          	li	a5,217
     280:	29e7ce63          	blt	a5,t5,51c <.L11>
     284:	00e51f83          	lh	t6,14(a0)
     288:	03c00793          	li	a5,60
     28c:	2ff7ce63          	blt	a5,t6,588 <.L2750>
     290:	00251703          	lh	a4,2(a0)
     294:	01c00793          	li	a5,28
     298:	00f11423          	sh	a5,8(sp)
     29c:	2df00793          	li	a5,735
     2a0:	02451983          	lh	s3,36(a0)
     2a4:	01651a03          	lh	s4,22(a0)
     2a8:	01a51403          	lh	s0,26(a0)
     2ac:	e0e7d0e3          	bge	a5,a4,ac <.L2751>

000002b0 <.L12>:
     2b0:	00a51683          	lh	a3,10(a0)
     2b4:	7e700793          	li	a5,2023
     2b8:	00d7d463          	bge	a5,a3,2c0 <.L12+0x10>
     2bc:	5280806f          	j	87e4 <.L18>
     2c0:	01051b03          	lh	s6,16(a0)
     2c4:	10100793          	li	a5,257
     2c8:	00651a83          	lh	s5,6(a0)
     2cc:	0167d463          	bge	a5,s6,2d4 <.L12+0x24>
     2d0:	1e40a06f          	j	a4b4 <.L19>
     2d4:	ffe00793          	li	a5,-2
     2d8:	00f11523          	sh	a5,10(sp)
     2dc:	d5c00793          	li	a5,-676
     2e0:	01851603          	lh	a2,24(a0)
     2e4:	00fac463          	blt	s5,a5,2ec <.L2337>
     2e8:	1e40a06f          	j	a4cc <.L2543>

000002ec <.L2337>:
     2ec:	ff400793          	li	a5,-12
     2f0:	01251483          	lh	s1,18(a0)
     2f4:	02851e83          	lh	t4,40(a0)
     2f8:	e0f642e3          	blt	a2,a5,fc <.L21>

000002fc <.L22>:
     2fc:	00051783          	lh	a5,0(a0)
     300:	ff500593          	li	a1,-11
     304:	00b11623          	sh	a1,12(sp)
     308:	03e00593          	li	a1,62
     30c:	01451283          	lh	t0,20(a0)
     310:	e0f5c8e3          	blt	a1,a5,120 <.L27>

00000314 <.L26>:
     314:	01e51583          	lh	a1,30(a0)
     318:	d8200813          	li	a6,-638
     31c:	0105c463          	blt	a1,a6,324 <.L26+0x10>
     320:	11c0806f          	j	843c <.L31>
     324:	27300813          	li	a6,627
     328:	01e84463          	blt	a6,t5,330 <.L26+0x1c>
     32c:	4a90906f          	j	9fd4 <.L2299>
     330:	00c51903          	lh	s2,12(a0)
     334:	ff900813          	li	a6,-7

00000338 <.L32>:
     338:	01011723          	sh	a6,14(sp)
     33c:	05700813          	li	a6,87
     340:	de684ee3          	blt	a6,t1,13c <.L33>
     344:	00851803          	lh	a6,8(a0)
     348:	02200893          	li	a7,34
     34c:	0108c463          	blt	a7,a6,354 <.L32+0x1c>
     350:	5200306f          	j	3870 <.L34>
     354:	fba00893          	li	a7,-70
     358:	011ad463          	bge	s5,a7,360 <.L32+0x28>
     35c:	0d10906f          	j	9c2c <.L35>
     360:	00815883          	lhu	a7,8(sp)
     364:	1b500e13          	li	t3,437
     368:	00188893          	addi	a7,a7,1
     36c:	01111423          	sh	a7,8(sp)
     370:	00ee5463          	bge	t3,a4,378 <.L2544>
     374:	5140306f          	j	3888 <.L44>

00000378 <.L2544>:
     378:	02a51883          	lh	a7,42(a0)
     37c:	00800e13          	li	t3,8
     380:	011e4463          	blt	t3,a7,388 <.L41>
     384:	61d0706f          	j	81a0 <.L42>

00000388 <.L41>:
     388:	00a15e03          	lhu	t3,10(sp)
     38c:	ff6e0e13          	addi	t3,t3,-10
     390:	010e1e13          	slli	t3,t3,0x10
     394:	410e5e13          	srai	t3,t3,0x10
     398:	01c11523          	sh	t3,10(sp)
     39c:	df700e13          	li	t3,-521
     3a0:	e1ca46e3          	blt	s4,t3,1ac <.L52>

000003a4 <.L57>:
     3a4:	eef00e13          	li	t3,-273
     3a8:	01c2c463          	blt	t0,t3,3b0 <.L2910>
     3ac:	4400606f          	j	67ec <.L68>

000003b0 <.L2910>:
     3b0:	03300e13          	li	t3,51
     3b4:	00fe5463          	bge	t3,a5,3bc <.L2910+0xc>
     3b8:	3f50a06f          	j	afac <.L69>
     3bc:	00c15e03          	lhu	t3,12(sp)
     3c0:	010e0e13          	addi	t3,t3,16
     3c4:	01c11623          	sh	t3,12(sp)

000003c8 <.L66>:
     3c8:	d8200e13          	li	t3,-638
     3cc:	01c5c463          	blt	a1,t3,3d4 <.L66+0xc>
     3d0:	3840606f          	j	6754 <.L71>
     3d4:	27300e13          	li	t3,627
     3d8:	01ee5463          	bge	t3,t5,3e0 <.L66+0x18>
     3dc:	1190a06f          	j	acf4 <.L72>
     3e0:	00e15e03          	lhu	t3,14(sp)
     3e4:	017e0e13          	addi	t3,t3,23
     3e8:	010e1e13          	slli	t3,t3,0x10
     3ec:	410e5e13          	srai	t3,t3,0x10

000003f0 <.L73>:
     3f0:	01c11723          	sh	t3,14(sp)
     3f4:	0d900e13          	li	t3,217
     3f8:	01ee5463          	bge	t3,t5,400 <.L76>
     3fc:	3840606f          	j	6780 <.L74>

00000400 <.L76>:
     400:	01a00e13          	li	t3,26
     404:	010e5463          	bge	t3,a6,40c <.L76+0xc>
     408:	3000706f          	j	7708 <.L80>
     40c:	0da00e13          	li	t3,218
     410:	012e4463          	blt	t3,s2,418 <.L76+0x18>
     414:	14c0a06f          	j	a560 <.L84>
     418:	1de00e13          	li	t3,478
     41c:	02651383          	lh	t2,38(a0)
     420:	e0ee42e3          	blt	t3,a4,224 <.L93>

00000424 <.L90>:
     424:	ffd00e13          	li	t3,-3
     428:	01c64463          	blt	a2,t3,430 <.L90+0xc>
     42c:	2ec0806f          	j	8718 <.L94>
     430:	1b300e13          	li	t3,435
     434:	009e5463          	bge	t3,s1,43c <.L90+0x18>
     438:	40d0906f          	j	a044 <.L95>
     43c:	00a15e03          	lhu	t3,10(sp)
     440:	31a00c13          	li	s8,794
     444:	ff7e0e13          	addi	t3,t3,-9
     448:	01c11523          	sh	t3,10(sp)
     44c:	00dc4463          	blt	s8,a3,454 <.L2349>
     450:	2ec0806f          	j	873c <.L96>

00000454 <.L2349>:
     454:	e4e00e13          	li	t3,-434
     458:	01cac463          	blt	s5,t3,460 <.L119>
     45c:	3b90906f          	j	a014 <.L101>

00000460 <.L119>:
     460:	00c15e03          	lhu	t3,12(sp)
     464:	015e0e13          	addi	t3,t3,21
     468:	010e1e13          	slli	t3,t3,0x10
     46c:	410e5e13          	srai	t3,t3,0x10

00000470 <.L120>:
     470:	01c11623          	sh	t3,12(sp)
     474:	03d00e13          	li	t3,61
     478:	00fe4463          	blt	t3,a5,480 <.L121>
     47c:	7e80506f          	j	5c64 <.L125>

00000480 <.L121>:
     480:	1f800e13          	li	t3,504
     484:	13ee4663          	blt	t3,t5,5b0 <.L131>
     488:	03a00e13          	li	t3,58
     48c:	01fe5463          	bge	t3,t6,494 <.L121+0x14>
     490:	1c00a06f          	j	a650 <.L132>
     494:	00e15e03          	lhu	t3,14(sp)
     498:	ff8e0e13          	addi	t3,t3,-8
     49c:	010e1e13          	slli	t3,t3,0x10
     4a0:	410e5e13          	srai	t3,t3,0x10

000004a4 <.L129>:
     4a4:	01c11723          	sh	t3,14(sp)
     4a8:	0d900e13          	li	t3,217
     4ac:	13ee4263          	blt	t3,t5,5d0 <.L135>
     4b0:	01a00e13          	li	t3,26
     4b4:	010e5463          	bge	t3,a6,4bc <.L129+0x18>
     4b8:	4240306f          	j	38dc <.L136>
     4bc:	11800e13          	li	t3,280
     4c0:	012e5463          	bge	t3,s2,4c8 <.L129+0x24>
     4c4:	1540a06f          	j	a618 <.L137>
     4c8:	00815e03          	lhu	t3,8(sp)
     4cc:	0a600c13          	li	s8,166
     4d0:	00ee0e13          	addi	t3,t3,14
     4d4:	01c11423          	sh	t3,8(sp)
     4d8:	00ec4463          	blt	s8,a4,4e0 <.L2552>
     4dc:	4280306f          	j	3904 <.L143>

000004e0 <.L2552>:
     4e0:	03d00e13          	li	t3,61
     4e4:	00fe4463          	blt	t3,a5,4ec <.L164>
     4e8:	3790506f          	j	6060 <.L144>

000004ec <.L164>:
     4ec:	00a15e03          	lhu	t3,10(sp)
     4f0:	10b00c13          	li	s8,267
     4f4:	ff5e0e13          	addi	t3,t3,-11
     4f8:	01c11523          	sh	t3,10(sp)
     4fc:	00dc5463          	bge	s8,a3,504 <.L164+0x18>
     500:	16c0906f          	j	966c <.L2354>
     504:	d6700e13          	li	t3,-665
     508:	13ca5663          	bge	s4,t3,634 <.L173>
     50c:	00c15e03          	lhu	t3,12(sp)
     510:	00be0e13          	addi	t3,t3,11
     514:	01c11623          	sh	t3,12(sp)
     518:	1280006f          	j	640 <.L174>

0000051c <.L11>:
     51c:	01a51403          	lh	s0,26(a0)
     520:	f2900793          	li	a5,-215
     524:	06f45c63          	bge	s0,a5,59c <.L2752>
     528:	02451983          	lh	s3,36(a0)
     52c:	01651a03          	lh	s4,22(a0)
     530:	00e51f83          	lh	t6,14(a0)
     534:	ff500793          	li	a5,-11
     538:	b65ff06f          	j	9c <.L10>

0000053c <.L9>:
     53c:	01f00793          	li	a5,31
     540:	0337c863          	blt	a5,s3,570 <.L2753>
     544:	01651a03          	lh	s4,22(a0)
     548:	02251f03          	lh	t5,34(a0)
     54c:	00e51f83          	lh	t6,14(a0)
     550:	01a51403          	lh	s0,26(a0)
     554:	00900793          	li	a5,9
     558:	b45ff06f          	j	9c <.L10>

0000055c <.L2291>:
     55c:	02251f03          	lh	t5,34(a0)
     560:	00e51f83          	lh	t6,14(a0)
     564:	01a51403          	lh	s0,26(a0)
     568:	01300793          	li	a5,19
     56c:	b31ff06f          	j	9c <.L10>

00000570 <.L2753>:
     570:	01651a03          	lh	s4,22(a0)
     574:	02251f03          	lh	t5,34(a0)
     578:	00e51f83          	lh	t6,14(a0)
     57c:	01a51403          	lh	s0,26(a0)
     580:	ff500793          	li	a5,-11
     584:	b19ff06f          	j	9c <.L10>

00000588 <.L2750>:
     588:	02451983          	lh	s3,36(a0)
     58c:	01651a03          	lh	s4,22(a0)
     590:	01a51403          	lh	s0,26(a0)
     594:	ff500793          	li	a5,-11
     598:	b05ff06f          	j	9c <.L10>

0000059c <.L2752>:
     59c:	02451983          	lh	s3,36(a0)
     5a0:	01651a03          	lh	s4,22(a0)
     5a4:	00e51f83          	lh	t6,14(a0)
     5a8:	ffc00793          	li	a5,-4
     5ac:	af1ff06f          	j	9c <.L10>

000005b0 <.L131>:
     5b0:	b6f00e13          	li	t3,-1169
     5b4:	01c44463          	blt	s0,t3,5bc <.L131+0xc>
     5b8:	0e40a06f          	j	a69c <.L133>
     5bc:	00e15e03          	lhu	t3,14(sp)
     5c0:	00ce0e13          	addi	t3,t3,12
     5c4:	010e1e13          	slli	t3,t3,0x10
     5c8:	010e5e13          	srli	t3,t3,0x10
     5cc:	01c11723          	sh	t3,14(sp)

000005d0 <.L135>:
     5d0:	03e00e13          	li	t3,62
     5d4:	006e5463          	bge	t3,t1,5dc <.L135+0xc>
     5d8:	69d0706f          	j	8474 <.L145>
     5dc:	02000e13          	li	t3,32
     5e0:	010e5463          	bge	t3,a6,5e8 <.L135+0x18>
     5e4:	1710606f          	j	6f54 <.L146>
     5e8:	00815e03          	lhu	t3,8(sp)
     5ec:	009e0e13          	addi	t3,t3,9
     5f0:	010e1e13          	slli	t3,t3,0x10
     5f4:	410e5e13          	srai	t3,t3,0x10

000005f8 <.L147>:
     5f8:	01c11423          	sh	t3,8(sp)
     5fc:	0a600e13          	li	t3,166
     600:	00ee4463          	blt	t3,a4,608 <.L147+0x10>
     604:	3000306f          	j	3904 <.L143>
     608:	03d00e13          	li	t3,61
     60c:	00fe4463          	blt	t3,a5,614 <.L147+0x1c>
     610:	2510506f          	j	6060 <.L144>
     614:	21a00e13          	li	t3,538
     618:	edee5ae3          	bge	t3,t5,4ec <.L164>
     61c:	10b00e13          	li	t3,267
     620:	00de5463          	bge	t3,a3,628 <.L147+0x30>
     624:	0480906f          	j	966c <.L2354>
     628:	d6700e13          	li	t3,-665
     62c:	01ca5463          	bge	s4,t3,634 <.L173>
     630:	2890506f          	j	60b8 <.L2754>

00000634 <.L173>:
     634:	00c15e03          	lhu	t3,12(sp)
     638:	ff6e0e13          	addi	t3,t3,-10
     63c:	01c11623          	sh	t3,12(sp)

00000640 <.L174>:
     640:	1e500e13          	li	t3,485
     644:	01ee5463          	bge	t3,t5,64c <.L174+0xc>
     648:	27d0506f          	j	60c4 <.L172>
     64c:	ec100e13          	li	t3,-319
     650:	01c44463          	blt	s0,t3,658 <.L174+0x18>
     654:	0540306f          	j	36a8 <.L192>
     658:	00e15e03          	lhu	t3,14(sp)
     65c:	0d900c13          	li	s8,217
     660:	00ee0e13          	addi	t3,t3,14
     664:	01c11723          	sh	t3,14(sp)
     668:	01ec4463          	blt	s8,t5,670 <.L2356>
     66c:	0540306f          	j	36c0 <.L194>

00000670 <.L2356>:
     670:	07a00e13          	li	t3,122
     674:	006e4463          	blt	t3,t1,67c <.L2356+0xc>
     678:	3100706f          	j	7988 <.L196>
     67c:	00815e03          	lhu	t3,8(sp)
     680:	08000c13          	li	s8,128
     684:	ff8e0e13          	addi	t3,t3,-8
     688:	01c11423          	sh	t3,8(sp)
     68c:	00ec5463          	bge	s8,a4,694 <.L215>
     690:	56d0806f          	j	93fc <.L2755>

00000694 <.L215>:
     694:	ffd00e13          	li	t3,-3
     698:	01c64463          	blt	a2,t3,6a0 <.L215+0xc>
     69c:	7680506f          	j	5e04 <.L231>
     6a0:	36800e13          	li	t3,872
     6a4:	016e5463          	bge	t3,s6,6ac <.L215+0x18>
     6a8:	2f00a06f          	j	a998 <.L232>
     6ac:	00a15e03          	lhu	t3,10(sp)
     6b0:	08c00c13          	li	s8,140
     6b4:	ff7e0e13          	addi	t3,t3,-9
     6b8:	01c11523          	sh	t3,10(sp)
     6bc:	00dc4463          	blt	s8,a3,6c4 <.L236>
     6c0:	7680506f          	j	5e28 <.L239>

000006c4 <.L236>:
     6c4:	eef00e13          	li	t3,-273
     6c8:	01c2c463          	blt	t0,t3,6d0 <.L236+0xc>
     6cc:	0e40a06f          	j	a7b0 <.L267>
     6d0:	00c15e03          	lhu	t3,12(sp)
     6d4:	00de0e13          	addi	t3,t3,13
     6d8:	010e1e13          	slli	t3,t3,0x10
     6dc:	410e5e13          	srai	t3,t3,0x10

000006e0 <.L263>:
     6e0:	01c11623          	sh	t3,12(sp)
     6e4:	03c00e13          	li	t3,60
     6e8:	00fe5463          	bge	t3,a5,6f0 <.L263+0x10>
     6ec:	0380306f          	j	3724 <.L259>
     6f0:	ce400e13          	li	t3,-796
     6f4:	01c5c463          	blt	a1,t3,6fc <.L252>
     6f8:	1c10806f          	j	90b8 <.L273>

000006fc <.L252>:
     6fc:	19c00e13          	li	t3,412
     700:	00ee5463          	bge	t3,a4,708 <.L252+0xc>
     704:	3140306f          	j	3a18 <.L276>
     708:	00e15e03          	lhu	t3,14(sp)
     70c:	00fe0e13          	addi	t3,t3,15
     710:	010e1e13          	slli	t3,t3,0x10
     714:	410e5e13          	srai	t3,t3,0x10

00000718 <.L275>:
     718:	01c11723          	sh	t3,14(sp)
     71c:	efb00e13          	li	t3,-261
     720:	01ca4463          	blt	s4,t3,728 <.L2833>
     724:	0380306f          	j	375c <.L280>

00000728 <.L2833>:
     728:	08700e13          	li	t3,135
     72c:	006e5463          	bge	t3,t1,734 <.L2833+0xc>
     730:	38c0606f          	j	6abc <.L281>
     734:	02200e13          	li	t3,34
     738:	010e5463          	bge	t3,a6,740 <.L2833+0x18>
     73c:	3040606f          	j	6a40 <.L282>
     740:	00815e03          	lhu	t3,8(sp)
     744:	2df00c13          	li	s8,735
     748:	002e0e13          	addi	t3,t3,2
     74c:	01c11423          	sh	t3,8(sp)
     750:	00ec5463          	bge	s8,a4,758 <.L2684>
     754:	3040606f          	j	6a58 <.L297>

00000758 <.L2684>:
     758:	02051e03          	lh	t3,32(a0)
     75c:	00400c13          	li	s8,4
     760:	01cc5463          	bge	s8,t3,768 <.L2684+0x10>
     764:	5f40806f          	j	8d58 <.L299>
     768:	00a15c03          	lhu	s8,10(sp)
     76c:	08f00c93          	li	s9,143
     770:	ffcc0c13          	addi	s8,s8,-4
     774:	01811523          	sh	s8,10(sp)
     778:	00dcc463          	blt	s9,a3,780 <.L317>
     77c:	3800606f          	j	6afc <.L2560>

00000780 <.L317>:
     780:	2b200c13          	li	s8,690
     784:	00ec5463          	bge	s8,a4,78c <.L317+0xc>
     788:	2400606f          	j	69c8 <.L315>
     78c:	ef500c13          	li	s8,-267
     790:	0182c463          	blt	t0,s8,798 <.L317+0x18>
     794:	2780606f          	j	6a0c <.L324>
     798:	00c15c03          	lhu	s8,12(sp)
     79c:	03c00c93          	li	s9,60
     7a0:	00bc0c13          	addi	s8,s8,11
     7a4:	01811623          	sh	s8,12(sp)
     7a8:	00fcd463          	bge	s9,a5,7b0 <.L2563>
     7ac:	05c0306f          	j	3808 <.L325>

000007b0 <.L2563>:
     7b0:	d2500c13          	li	s8,-731
     7b4:	0185d463          	bge	a1,s8,7bc <.L327>
     7b8:	2e80606f          	j	6aa0 <.L337>

000007bc <.L327>:
     7bc:	00e15c03          	lhu	s8,14(sp)
     7c0:	ff6c0c13          	addi	s8,s8,-10
     7c4:	010c1c13          	slli	s8,s8,0x10
     7c8:	410c5c13          	srai	s8,s8,0x10

000007cc <.L338>:
     7cc:	01811723          	sh	s8,14(sp)
     7d0:	efb00c13          	li	s8,-261
     7d4:	018a4463          	blt	s4,s8,7dc <.L2835>
     7d8:	0680306f          	j	3840 <.L341>

000007dc <.L2835>:
     7dc:	00d00c13          	li	s8,13
     7e0:	013c5463          	bge	s8,s3,7e8 <.L2835+0xc>
     7e4:	0d50606f          	j	70b8 <.L342>
     7e8:	0f400c13          	li	s8,244
     7ec:	006c5463          	bge	s8,t1,7f4 <.L2835+0x18>
     7f0:	6b80906f          	j	9ea8 <.L343>
     7f4:	00815c03          	lhu	s8,8(sp)
     7f8:	003c0c13          	addi	s8,s8,3
     7fc:	01811423          	sh	s8,8(sp)

00000800 <.L344>:
     800:	07600c13          	li	s8,118
     804:	00ec5463          	bge	s8,a4,80c <.L344+0xc>
     808:	2e90206f          	j	32f0 <.L348>
     80c:	ffe00c13          	li	s8,-2
     810:	01864463          	blt	a2,s8,818 <.L344+0x18>
     814:	7a10606f          	j	77b4 <.L349>
     818:	e2c00c13          	li	s8,-468
     81c:	0182c463          	blt	t0,s8,824 <.L344+0x24>
     820:	0050a06f          	j	b024 <.L350>
     824:	00a15c03          	lhu	s8,10(sp)
     828:	17000c93          	li	s9,368
     82c:	001c0c13          	addi	s8,s8,1
     830:	01811523          	sh	s8,10(sp)
     834:	00dcc463          	blt	s9,a3,83c <.L355>
     838:	6ac0606f          	j	6ee4 <.L351>

0000083c <.L355>:
     83c:	00c15c03          	lhu	s8,12(sp)
     840:	00cc0c13          	addi	s8,s8,12
     844:	010c1c13          	slli	s8,s8,0x10
     848:	410c5c13          	srai	s8,s8,0x10

0000084c <.L352>:
     84c:	01811623          	sh	s8,12(sp)
     850:	e9900c13          	li	s8,-359
     854:	0185d463          	bge	a1,s8,85c <.L372>
     858:	2f50206f          	j	334c <.L368>

0000085c <.L372>:
     85c:	03d00c13          	li	s8,61
     860:	00fc5463          	bge	s8,a5,868 <.L372+0xc>
     864:	6b00606f          	j	6f14 <.L371>
     868:	03800c13          	li	s8,56
     86c:	00ec5463          	bge	s8,a4,874 <.L372+0x18>
     870:	5c40606f          	j	6e34 <.L370>
     874:	00e15c03          	lhu	s8,14(sp)
     878:	ffac0c13          	addi	s8,s8,-6
     87c:	010c1c13          	slli	s8,s8,0x10
     880:	410c5c13          	srai	s8,s8,0x10

00000884 <.L375>:
     884:	01811723          	sh	s8,14(sp)
     888:	0a900c13          	li	s8,169
     88c:	01ec5463          	bge	s8,t5,894 <.L2827>
     890:	2f50206f          	j	3384 <.L378>

00000894 <.L2827>:
     894:	01d00c13          	li	s8,29
     898:	010c5463          	bge	s8,a6,8a0 <.L2827+0xc>
     89c:	7710506f          	j	680c <.L379>
     8a0:	11800c13          	li	s8,280
     8a4:	012c5463          	bge	s8,s2,8ac <.L2827+0x18>
     8a8:	1e10906f          	j	a288 <.L380>
     8ac:	00815c03          	lhu	s8,8(sp)
     8b0:	0b500c93          	li	s9,181
     8b4:	00bc0c13          	addi	s8,s8,11
     8b8:	01811423          	sh	s8,8(sp)
     8bc:	006cd463          	bge	s9,t1,8c4 <.L2566>
     8c0:	7750506f          	j	6834 <.L381>

000008c4 <.L2566>:
     8c4:	00a00c13          	li	s8,10
     8c8:	011c4463          	blt	s8,a7,8d0 <.L388>
     8cc:	7850506f          	j	6850 <.L382>

000008d0 <.L388>:
     8d0:	00a15c03          	lhu	s8,10(sp)
     8d4:	ff7c0c13          	addi	s8,s8,-9
     8d8:	010c1c13          	slli	s8,s8,0x10
     8dc:	410c5c13          	srai	s8,s8,0x10

000008e0 <.L383>:
     8e0:	01811523          	sh	s8,10(sp)
     8e4:	06300c13          	li	s8,99
     8e8:	00dc5463          	bge	s8,a3,8f0 <.L2828>
     8ec:	3090206f          	j	33f4 <.L400>

000008f0 <.L2828>:
     8f0:	f2100c13          	li	s8,-223
     8f4:	0185c463          	blt	a1,s8,8fc <.L2828+0xc>
     8f8:	7b50506f          	j	68ac <.L401>
     8fc:	21800c13          	li	s8,536
     900:	016c5463          	bge	s8,s6,908 <.L2828+0x18>
     904:	1c90906f          	j	a2cc <.L402>
     908:	00c15c03          	lhu	s8,12(sp)
     90c:	ff6c0c13          	addi	s8,s8,-10
     910:	010c1c13          	slli	s8,s8,0x10
     914:	410c5c13          	srai	s8,s8,0x10

00000918 <.L403>:
     918:	01811623          	sh	s8,12(sp)
     91c:	03b00c13          	li	s8,59
     920:	00fc5463          	bge	s8,a5,928 <.L2829>
     924:	3090206f          	j	342c <.L411>

00000928 <.L2829>:
     928:	cd800c13          	li	s8,-808
     92c:	0185c463          	blt	a1,s8,934 <.L2829+0xc>
     930:	4250706f          	j	8554 <.L405>
     934:	00e15c03          	lhu	s8,14(sp)
     938:	008c0c13          	addi	s8,s8,8
     93c:	010c1c13          	slli	s8,s8,0x10
     940:	410c5c13          	srai	s8,s8,0x10

00000944 <.L412>:
     944:	01811723          	sh	s8,14(sp)
     948:	0a900c13          	li	s8,169
     94c:	01ec5463          	bge	s8,t5,954 <.L2830>
     950:	3150206f          	j	3464 <.L415>

00000954 <.L2830>:
     954:	01d00c13          	li	s8,29
     958:	010c4463          	blt	s8,a6,960 <.L2830+0xc>
     95c:	0180606f          	j	6974 <.L418>
     960:	01c51c83          	lh	s9,28(a0)
     964:	03800c13          	li	s8,56
     968:	019c5463          	bge	s8,s9,970 <.L2830+0x1c>
     96c:	3480a06f          	j	acb4 <.L421>
     970:	00815c03          	lhu	s8,8(sp)
     974:	ff8c0c13          	addi	s8,s8,-8
     978:	010c1c13          	slli	s8,s8,0x10
     97c:	410c5c13          	srai	s8,s8,0x10

00000980 <.L420>:
     980:	01811423          	sh	s8,8(sp)
     984:	03900c13          	li	s8,57
     988:	00ec5463          	bge	s8,a4,990 <.L2831>
     98c:	3110206f          	j	349c <.L424>

00000990 <.L2831>:
     990:	00700c13          	li	s8,7
     994:	011c5463          	bge	s8,a7,99c <.L2831+0xc>
     998:	48d0206f          	j	3624 <.L425>
     99c:	00a00c13          	li	s8,10
     9a0:	01dc5463          	bge	s8,t4,9a8 <.L2831+0x18>
     9a4:	6d90806f          	j	987c <.L426>
     9a8:	00a15c03          	lhu	s8,10(sp)
     9ac:	06300c93          	li	s9,99
     9b0:	ffcc0c13          	addi	s8,s8,-4
     9b4:	01811523          	sh	s8,10(sp)
     9b8:	00dcc463          	blt	s9,a3,9c0 <.L427>
     9bc:	48d0206f          	j	3648 <.L432>

000009c0 <.L427>:
     9c0:	ed000c13          	li	s8,-304
     9c4:	018ac463          	blt	s5,s8,9cc <.L433>
     9c8:	0b10506f          	j	6278 <.L430>

000009cc <.L433>:
     9cc:	00c15c03          	lhu	s8,12(sp)
     9d0:	008c0c13          	addi	s8,s8,8
     9d4:	010c1c13          	slli	s8,s8,0x10
     9d8:	410c5c13          	srai	s8,s8,0x10

000009dc <.L431>:
     9dc:	01811623          	sh	s8,12(sp)
     9e0:	e2500c13          	li	s8,-475
     9e4:	01844463          	blt	s0,s8,9ec <.L446>
     9e8:	4990206f          	j	3680 <.L443>

000009ec <.L446>:
     9ec:	25500c13          	li	s8,597
     9f0:	009c4463          	blt	s8,s1,9f8 <.L446+0xc>
     9f4:	17d0506f          	j	6370 <.L444>
     9f8:	c2600c13          	li	s8,-986
     9fc:	0185c463          	blt	a1,s8,a04 <.L446+0x18>
     a00:	1050506f          	j	6304 <.L445>
     a04:	00e15c03          	lhu	s8,14(sp)
     a08:	008c0c13          	addi	s8,s8,8

00000a0c <.L2571>:
     a0c:	01811723          	sh	s8,14(sp)

00000a10 <.L451>:
     a10:	02200c13          	li	s8,34
     a14:	010c5463          	bge	s8,a6,a1c <.L2904>
     a18:	1050506f          	j	631c <.L457>

00000a1c <.L2904>:
     a1c:	0f600c13          	li	s8,246
     a20:	006c5463          	bge	s8,t1,a28 <.L2904+0xc>
     a24:	6050806f          	j	9828 <.L458>
     a28:	00815c03          	lhu	s8,8(sp)
     a2c:	002c0c13          	addi	s8,s8,2
     a30:	010c1c13          	slli	s8,s8,0x10
     a34:	410c5c13          	srai	s8,s8,0x10

00000a38 <.L459>:
     a38:	01811423          	sh	s8,8(sp)
     a3c:	0b500c13          	li	s8,181
     a40:	006c5463          	bge	s8,t1,a48 <.L465>
     a44:	1010506f          	j	6344 <.L460>

00000a48 <.L465>:
     a48:	00200c13          	li	s8,2
     a4c:	01cc5463          	bge	s8,t3,a54 <.L465+0xc>
     a50:	0690506f          	j	62b8 <.L468>
     a54:	00b00c13          	li	s8,11
     a58:	013c5463          	bge	s8,s3,a60 <.L465+0x18>
     a5c:	5a50806f          	j	9800 <.L469>
     a60:	00a15c03          	lhu	s8,10(sp)
     a64:	ff9c0c13          	addi	s8,s8,-7
     a68:	010c1c13          	slli	s8,s8,0x10
     a6c:	410c5c13          	srai	s8,s8,0x10

00000a70 <.L470>:
     a70:	01811523          	sh	s8,10(sp)
     a74:	2be00c13          	li	s8,702
     a78:	00dc5463          	bge	s8,a3,a80 <.L470+0x10>
     a7c:	3ad0406f          	j	5628 <.L479>
     a80:	0a300c13          	li	s8,163
     a84:	00ec5463          	bge	s8,a4,a8c <.L470+0x1c>
     a88:	7100806f          	j	9198 <.L480>
     a8c:	04d00c13          	li	s8,77
     a90:	00dc5463          	bge	s8,a3,a98 <.L470+0x28>
     a94:	3690a06f          	j	b5fc <.L481>
     a98:	00c15c03          	lhu	s8,12(sp)
     a9c:	e0800c93          	li	s9,-504
     aa0:	ffbc0c13          	addi	s8,s8,-5
     aa4:	01811623          	sh	s8,12(sp)
     aa8:	01944463          	blt	s0,s9,ab0 <.L482>
     aac:	67d0506f          	j	6928 <.L2289>

00000ab0 <.L482>:
     ab0:	25500c13          	li	s8,597
     ab4:	009c5463          	bge	s8,s1,abc <.L482+0xc>
     ab8:	4c50606f          	j	777c <.L499>
     abc:	df100c13          	li	s8,-527
     ac0:	018a4463          	blt	s4,s8,ac8 <.L482+0x18>
     ac4:	2290906f          	j	a4ec <.L500>
     ac8:	00e15c03          	lhu	s8,14(sp)
     acc:	0a900c93          	li	s9,169
     ad0:	ff9c0c13          	addi	s8,s8,-7
     ad4:	01811723          	sh	s8,14(sp)
     ad8:	01ecc463          	blt	s9,t5,ae0 <.L482+0x30>
     adc:	19d0306f          	j	4478 <.L501>
     ae0:	01e00c13          	li	s8,30
     ae4:	013c5463          	bge	s8,s3,aec <.L502>
     ae8:	1350306f          	j	441c <.L2756>

00000aec <.L502>:
     aec:	00815c03          	lhu	s8,8(sp)
     af0:	34b00c93          	li	s9,843
     af4:	ffcc0c13          	addi	s8,s8,-4
     af8:	01811423          	sh	s8,8(sp)
     afc:	00ecc463          	blt	s9,a4,b04 <.L2575>
     b00:	1350306f          	j	4434 <.L516>

00000b04 <.L2575>:
     b04:	00001c37          	lui	s8,0x1
     b08:	a9dc0c13          	addi	s8,s8,-1379 # a9d <.L470+0x2d>
     b0c:	48dc52e3          	bge	s8,a3,1790 <.L517>

00000b10 <.L518>:
     b10:	00b00c13          	li	s8,11
     b14:	01cc5463          	bge	s8,t3,b1c <.L518+0xc>
     b18:	3680a06f          	j	ae80 <.L534>
     b1c:	00a15c03          	lhu	s8,10(sp)
     b20:	fffc0c13          	addi	s8,s8,-1
     b24:	010c1c13          	slli	s8,s8,0x10
     b28:	010c5c13          	srli	s8,s8,0x10

00000b2c <.L535>:
     b2c:	01811523          	sh	s8,10(sp)
     b30:	3fa00c13          	li	s8,1018
     b34:	00ec4463          	blt	s8,a4,b3c <.L535+0x10>
     b38:	6400806f          	j	9178 <.L526>
     b3c:	00001c37          	lui	s8,0x1
     b40:	b13c0c13          	addi	s8,s8,-1261 # b13 <.L518+0x3>
     b44:	00dc4463          	blt	s8,a3,b4c <.L535+0x20>
     b48:	1a50306f          	j	44ec <.L532>
     b4c:	00c15c03          	lhu	s8,12(sp)
     b50:	009c0c13          	addi	s8,s8,9
     b54:	010c1c13          	slli	s8,s8,0x10
     b58:	410c5c13          	srai	s8,s8,0x10

00000b5c <.L538>:
     b5c:	01811623          	sh	s8,12(sp)
     b60:	e9900c13          	li	s8,-359
     b64:	4785d6e3          	bge	a1,s8,17d0 <.L541>

00000b68 <.L2775>:
     b68:	20200c13          	li	s8,514
     b6c:	016c5463          	bge	s8,s6,b74 <.L2775+0xc>
     b70:	0c80606f          	j	6c38 <.L542>
     b74:	14600c13          	li	s8,326
     b78:	007c4863          	blt	s8,t2,b88 <.L543>
     b7c:	00e15c03          	lhu	s8,14(sp)
     b80:	009c0c13          	addi	s8,s8,9
     b84:	01811723          	sh	s8,14(sp)

00000b88 <.L543>:
     b88:	3c084ee3          	bltz	a6,1764 <.L2757>

00000b8c <.L546>:
     b8c:	00095463          	bgez	s2,b94 <.L546+0x8>
     b90:	0a40806f          	j	8c34 <.L2758>
     b94:	02200c13          	li	s8,34
     b98:	010c4463          	blt	s8,a6,ba0 <.L546+0x14>
     b9c:	35c0506f          	j	5ef8 <.L2577>
     ba0:	00815c03          	lhu	s8,8(sp)
     ba4:	ff7c0c13          	addi	s8,s8,-9
     ba8:	010c1c13          	slli	s8,s8,0x10
     bac:	410c5c13          	srai	s8,s8,0x10

00000bb0 <.L552>:
     bb0:	01811423          	sh	s8,8(sp)
     bb4:	0f000c13          	li	s8,240
     bb8:	446c5ce3          	bge	s8,t1,1810 <.L549>
     bbc:	d6c00c13          	li	s8,-660
     bc0:	018ad463          	bge	s5,s8,bc8 <.L552+0x18>
     bc4:	10c0806f          	j	8cd0 <.L2759>
     bc8:	18000c13          	li	s8,384
     bcc:	009c5863          	bge	s8,s1,bdc <.L567>
     bd0:	00a15c03          	lhu	s8,10(sp)
     bd4:	007c0c13          	addi	s8,s8,7

00000bd8 <.L2578>:
     bd8:	01811523          	sh	s8,10(sp)

00000bdc <.L567>:
     bdc:	17000c13          	li	s8,368
     be0:	00dc5463          	bge	s8,a3,be8 <.L563>
     be4:	4090406f          	j	57ec <.L575>

00000be8 <.L563>:
     be8:	f5200c13          	li	s8,-174
     bec:	0185c463          	blt	a1,s8,bf4 <.L563+0xc>
     bf0:	73c0606f          	j	732c <.L576>
     bf4:	03200c13          	li	s8,50
     bf8:	00fc5463          	bge	s8,a5,c00 <.L563+0x18>
     bfc:	5fc0906f          	j	a1f8 <.L577>
     c00:	00c15c03          	lhu	s8,12(sp)
     c04:	002c0c13          	addi	s8,s8,2
     c08:	010c1c13          	slli	s8,s8,0x10
     c0c:	010c5c13          	srli	s8,s8,0x10

00000c10 <.L578>:
     c10:	01811623          	sh	s8,12(sp)
     c14:	e0800c13          	li	s8,-504
     c18:	01845463          	bge	s0,s8,c20 <.L581>
     c1c:	4010406f          	j	581c <.L584>

00000c20 <.L581>:
     c20:	0de00c13          	li	s8,222
     c24:	012c5463          	bge	s8,s2,c2c <.L581+0xc>
     c28:	1fd0706f          	j	8624 <.L586>
     c2c:	02600c13          	li	s8,38
     c30:	42dc4ee3          	blt	s8,a3,186c <.L585>

00000c34 <.L607>:
     c34:	0a900c13          	li	s8,169
     c38:	45ec54e3          	bge	s8,t5,1880 <.L600>

00000c3c <.L610>:
     c3c:	10700c13          	li	s8,263
     c40:	007c4463          	blt	s8,t2,c48 <.L610+0xc>
     c44:	29d0506f          	j	66e0 <.L603>
     c48:	e4300c13          	li	s8,-445
     c4c:	01845463          	bge	s0,s8,c54 <.L617>
     c50:	4010406f          	j	5850 <.L602>

00000c54 <.L617>:
     c54:	00815c03          	lhu	s8,8(sp)
     c58:	004c0c13          	addi	s8,s8,4
     c5c:	01811423          	sh	s8,8(sp)

00000c60 <.L614>:
     c60:	03900c13          	li	s8,57
     c64:	44ec42e3          	blt	s8,a4,18a8 <.L618>

00000c68 <.L2777>:
     c68:	00900c13          	li	s8,9
     c6c:	011c5463          	bge	s8,a7,c74 <.L2777+0xc>
     c70:	1c50506f          	j	6634 <.L619>
     c74:	fff00c13          	li	s8,-1
     c78:	01875463          	bge	a4,s8,c80 <.L2777+0x18>
     c7c:	64c0a06f          	j	b2c8 <.L2760>
     c80:	00a15c03          	lhu	s8,10(sp)
     c84:	08900c93          	li	s9,137
     c88:	006c0c13          	addi	s8,s8,6
     c8c:	01811523          	sh	s8,10(sp)
     c90:	00dcd463          	bge	s9,a3,c98 <.L621>
     c94:	5990606f          	j	7a2c <.L2582>

00000c98 <.L621>:
     c98:	03700c13          	li	s8,55
     c9c:	00fc5463          	bge	s8,a5,ca4 <.L2274>
     ca0:	1c50506f          	j	6664 <.L634>

00000ca4 <.L2274>:
     ca4:	00c15c03          	lhu	s8,12(sp)
     ca8:	ff7c0c13          	addi	s8,s8,-9
     cac:	01811623          	sh	s8,12(sp)

00000cb0 <.L636>:
     cb0:	03000c13          	li	s8,48
     cb4:	45fc4ae3          	blt	s8,t6,1908 <.L646>

00000cb8 <.L2778>:
     cb8:	00e15c03          	lhu	s8,14(sp)
     cbc:	0a900c93          	li	s9,169
     cc0:	0009d463          	bgez	s3,cc8 <.L2586>
     cc4:	73c0a06f          	j	b400 <.L2761>

00000cc8 <.L2586>:
     cc8:	009c0c13          	addi	s8,s8,9
     ccc:	01811723          	sh	s8,14(sp)
     cd0:	45ecdce3          	bge	s9,t5,1928 <.L648>

00000cd4 <.L2584>:
     cd4:	01e00c13          	li	s8,30
     cd8:	013c5463          	bge	s8,s3,ce0 <.L652>
     cdc:	4e00506f          	j	61bc <.L653>

00000ce0 <.L652>:
     ce0:	00815c03          	lhu	s8,8(sp)
     ce4:	fffc0c13          	addi	s8,s8,-1
     ce8:	01811423          	sh	s8,8(sp)

00000cec <.L649>:
     cec:	0b500c13          	li	s8,181
     cf0:	466c40e3          	blt	s8,t1,1950 <.L659>

00000cf4 <.L2779>:
     cf4:	00b00c13          	li	s8,11
     cf8:	011c5463          	bge	s8,a7,d00 <.L2779+0xc>
     cfc:	3e80606f          	j	70e4 <.L660>
     d00:	f8700c13          	li	s8,-121
     d04:	01844463          	blt	s0,s8,d0c <.L2779+0x18>
     d08:	2bd0906f          	j	a7c4 <.L661>
     d0c:	00a15c03          	lhu	s8,10(sp)
     d10:	006c0c13          	addi	s8,s8,6
     d14:	010c1c13          	slli	s8,s8,0x10
     d18:	410c5c13          	srai	s8,s8,0x10

00000d1c <.L662>:
     d1c:	01811523          	sh	s8,10(sp)
     d20:	27a00c13          	li	s8,634
     d24:	46dc40e3          	blt	s8,a3,1984 <.L667>

00000d28 <.L2780>:
     d28:	02200c13          	li	s8,34
     d2c:	01dc5463          	bge	s8,t4,d34 <.L2780+0xc>
     d30:	7280706f          	j	8458 <.L668>
     d34:	ff400c13          	li	s8,-12
     d38:	01864463          	blt	a2,s8,d40 <.L2780+0x18>
     d3c:	70d0806f          	j	9c48 <.L669>
     d40:	00c15c03          	lhu	s8,12(sp)
     d44:	007c0c13          	addi	s8,s8,7
     d48:	01811623          	sh	s8,12(sp)

00000d4c <.L670>:
     d4c:	d8200c13          	li	s8,-638
     d50:	4585dee3          	bge	a1,s8,19ac <.L673>

00000d54 <.L2781>:
     d54:	25500c13          	li	s8,597
     d58:	009c5463          	bge	s8,s1,d60 <.L2781+0xc>
     d5c:	4900506f          	j	61ec <.L674>
     d60:	47700c13          	li	s8,1143
     d64:	007c5463          	bge	s8,t2,d6c <.L2781+0x18>
     d68:	3f10806f          	j	9958 <.L675>
     d6c:	00e15c03          	lhu	s8,14(sp)
     d70:	00ac0c13          	addi	s8,s8,10
     d74:	010c1c13          	slli	s8,s8,0x10
     d78:	410c5c13          	srai	s8,s8,0x10

00000d7c <.L676>:
     d7c:	01811723          	sh	s8,14(sp)
     d80:	44084ee3          	bltz	a6,19dc <.L2269>

00000d84 <.L682>:
     d84:	00a00c13          	li	s8,10
     d88:	012c5463          	bge	s8,s2,d90 <.L682+0xc>
     d8c:	1a80506f          	j	5f34 <.L693>
     d90:	02e00c13          	li	s8,46
     d94:	01dc5463          	bge	s8,t4,d9c <.L682+0x18>
     d98:	7000806f          	j	9498 <.L694>
     d9c:	00815c03          	lhu	s8,8(sp)
     da0:	006c0c13          	addi	s8,s8,6
     da4:	010c1c13          	slli	s8,s8,0x10
     da8:	410c5c13          	srai	s8,s8,0x10

00000dac <.L692>:
     dac:	01811423          	sh	s8,8(sp)
     db0:	07200c13          	li	s8,114
     db4:	00ec5463          	bge	s8,a4,dbc <.L685>
     db8:	6e00406f          	j	5498 <.L696>

00000dbc <.L685>:
     dbc:	ffa00c13          	li	s8,-6
     dc0:	01865463          	bge	a2,s8,dc8 <.L685+0xc>
     dc4:	0500706f          	j	7e14 <.L688>
     dc8:	ed100c13          	li	s8,-303
     dcc:	018ac463          	blt	s5,s8,dd4 <.L685+0x18>
     dd0:	09c0a06f          	j	ae6c <.L698>
     dd4:	00a15c03          	lhu	s8,10(sp)
     dd8:	00ac0c13          	addi	s8,s8,10
     ddc:	010c1c13          	slli	s8,s8,0x10
     de0:	010c5c13          	srli	s8,s8,0x10

00000de4 <.L699>:
     de4:	01811523          	sh	s8,10(sp)

00000de8 <.L703>:
     de8:	01c51c83          	lh	s9,28(a0)
     dec:	03c00c13          	li	s8,60
     df0:	019c5463          	bge	s8,s9,df8 <.L703+0x10>
     df4:	2a90706f          	j	889c <.L708>
     df8:	03600c13          	li	s8,54
     dfc:	01fc5463          	bge	s8,t6,e04 <.L703+0x1c>
     e00:	7100906f          	j	a510 <.L709>
     e04:	00c15c03          	lhu	s8,12(sp)
     e08:	ffec0c13          	addi	s8,s8,-2
     e0c:	010c1c13          	slli	s8,s8,0x10
     e10:	410c5c13          	srai	s8,s8,0x10

00000e14 <.L706>:
     e14:	01811623          	sh	s8,12(sp)
     e18:	03900c13          	li	s8,57
     e1c:	44fc44e3          	blt	s8,a5,1a64 <.L710>

00000e20 <.L2783>:
     e20:	feb00c13          	li	s8,-21
     e24:	01834463          	blt	t1,s8,e2c <.L2783+0xc>
     e28:	2890706f          	j	88b0 <.L711>
     e2c:	07700c13          	li	s8,119
     e30:	007c5463          	bge	s8,t2,e38 <.L2783+0x18>
     e34:	4880206f          	j	32bc <.L712>
     e38:	00e15c03          	lhu	s8,14(sp)
     e3c:	0a900c93          	li	s9,169
     e40:	ffac0c13          	addi	s8,s8,-6
     e44:	01811723          	sh	s8,14(sp)
     e48:	01ecc463          	blt	s9,t5,e50 <.L2783+0x30>
     e4c:	5ad0506f          	j	6bf8 <.L2730>
     e50:	02400c13          	li	s8,36
     e54:	007c5463          	bge	s8,t2,e5c <.L729>
     e58:	4880206f          	j	32e0 <.L714>

00000e5c <.L729>:
     e5c:	00815c03          	lhu	s8,8(sp)
     e60:	004c0c13          	addi	s8,s8,4
     e64:	01811423          	sh	s8,8(sp)

00000e68 <.L715>:
     e68:	00200c13          	li	s8,2
     e6c:	01cc5463          	bge	s8,t3,e74 <.L715+0xc>
     e70:	5ad0506f          	j	6c1c <.L736>
     e74:	03b00c13          	li	s8,59
     e78:	00fc4463          	blt	s8,a5,e80 <.L715+0x18>
     e7c:	4a80906f          	j	a324 <.L2265>
     e80:	00a15c03          	lhu	s8,10(sp)
     e84:	ff9c0c13          	addi	s8,s8,-7
     e88:	010c1c13          	slli	s8,s8,0x10
     e8c:	410c5c13          	srai	s8,s8,0x10

00000e90 <.L745>:
     e90:	01811523          	sh	s8,10(sp)
     e94:	0dd00c13          	li	s8,221
     e98:	00dc4463          	blt	s8,a3,ea0 <.L745+0x10>
     e9c:	2e40406f          	j	5180 <.L749>
     ea0:	25b00c13          	li	s8,603
     ea4:	44ec5ae3          	bge	s8,a4,1af8 <.L750>
     ea8:	ddb00c13          	li	s8,-549
     eac:	018ad463          	bge	s5,s8,eb4 <.L745+0x24>
     eb0:	7dd0306f          	j	4e8c <.L772>
     eb4:	00c15c03          	lhu	s8,12(sp)
     eb8:	03e00c93          	li	s9,62
     ebc:	ff7c0c13          	addi	s8,s8,-9
     ec0:	01811623          	sh	s8,12(sp)
     ec4:	46fcd2e3          	bge	s9,a5,1b28 <.L751>
     ec8:	fec00c13          	li	s8,-20
     ecc:	01864463          	blt	a2,s8,ed4 <.L780>
     ed0:	5250706f          	j	8bf4 <.L2762>

00000ed4 <.L780>:
     ed4:	08900c13          	li	s8,137
     ed8:	012c5463          	bge	s8,s2,ee0 <.L780+0xc>
     edc:	1d40906f          	j	a0b0 <.L782>
     ee0:	00e15c03          	lhu	s8,14(sp)
     ee4:	ffe00c93          	li	s9,-2
     ee8:	ff9c0c13          	addi	s8,s8,-7
     eec:	01811723          	sh	s8,14(sp)
     ef0:	01985463          	bge	a6,s9,ef8 <.L784>
     ef4:	7010306f          	j	4df4 <.L783>

00000ef8 <.L784>:
     ef8:	00815c03          	lhu	s8,8(sp)
     efc:	002c0c13          	addi	s8,s8,2
     f00:	010c1c13          	slli	s8,s8,0x10
     f04:	410c5c13          	srai	s8,s8,0x10

00000f08 <.L778>:
     f08:	01811423          	sh	s8,8(sp)
     f0c:	03300c13          	li	s8,51
     f10:	47fc5ae3          	bge	s8,t6,1b84 <.L788>

00000f14 <.L794>:
     f14:	01400c13          	li	s8,20
     f18:	010c4463          	blt	s8,a6,f20 <.L794+0xc>
     f1c:	7090306f          	j	4e24 <.L789>
     f20:	00b00c13          	li	s8,11
     f24:	011c5463          	bge	s8,a7,f2c <.L794+0x18>
     f28:	7800806f          	j	96a8 <.L804>
     f2c:	00a15c03          	lhu	s8,10(sp)
     f30:	ffc00c93          	li	s9,-4
     f34:	005c0c13          	addi	s8,s8,5
     f38:	01811523          	sh	s8,10(sp)
     f3c:	47964ae3          	blt	a2,s9,1bb0 <.L797>

00000f40 <.L812>:
     f40:	00c15c03          	lhu	s8,12(sp)
     f44:	03e00c93          	li	s9,62
     f48:	ff7c0c13          	addi	s8,s8,-9
     f4c:	01811623          	sh	s8,12(sp)
     f50:	00fcc463          	blt	s9,a5,f58 <.L817>
     f54:	2040406f          	j	5158 <.L816>

00000f58 <.L817>:
     f58:	00e15c03          	lhu	s8,14(sp)
     f5c:	009c0c13          	addi	s8,s8,9
     f60:	010c1c13          	slli	s8,s8,0x10
     f64:	410c5c13          	srai	s8,s8,0x10

00000f68 <.L820>:
     f68:	01811723          	sh	s8,14(sp)
     f6c:	01f00c13          	li	s8,31
     f70:	493c4ee3          	blt	s8,s3,1c0c <.L822>

00000f74 <.L2785>:
     f74:	01c04463          	bgtz	t3,f7c <.L2785+0x8>
     f78:	0b80806f          	j	9030 <.L2763>
     f7c:	00300c13          	li	s8,3
     f80:	01cc4463          	blt	s8,t3,f88 <.L2785+0x14>
     f84:	1500606f          	j	70d4 <.L824>
     f88:	00815c03          	lhu	s8,8(sp)
     f8c:	001c0c13          	addi	s8,s8,1
     f90:	01811423          	sh	s8,8(sp)

00000f94 <.L825>:
     f94:	1ac00c13          	li	s8,428
     f98:	496c48e3          	blt	s8,s6,1c28 <.L826>

00000f9c <.L2786>:
     f9c:	ff900c13          	li	s8,-7
     fa0:	01864463          	blt	a2,s8,fa8 <.L2786+0xc>
     fa4:	4cd0506f          	j	6c70 <.L827>
     fa8:	00100c13          	li	s8,1
     fac:	01cc4463          	blt	s8,t3,fb4 <.L2786+0x18>
     fb0:	3780a06f          	j	b328 <.L2764>
     fb4:	00a15c03          	lhu	s8,10(sp)
     fb8:	ff8c0c13          	addi	s8,s8,-8
     fbc:	010c1c13          	slli	s8,s8,0x10
     fc0:	410c5c13          	srai	s8,s8,0x10

00000fc4 <.L829>:
     fc4:	01811523          	sh	s8,10(sp)
     fc8:	27a00c13          	li	s8,634
     fcc:	48dc48e3          	blt	s8,a3,1c5c <.L837>

00000fd0 <.L2787>:
     fd0:	02200c13          	li	s8,34
     fd4:	01dc5463          	bge	s8,t4,fdc <.L2787+0xc>
     fd8:	4c90506f          	j	6ca0 <.L833>
     fdc:	ff000c13          	li	s8,-16
     fe0:	01865863          	bge	a2,s8,ff0 <.L838>
     fe4:	00c15c03          	lhu	s8,12(sp)
     fe8:	00ac0c13          	addi	s8,s8,10
     fec:	01811623          	sh	s8,12(sp)

00000ff0 <.L838>:
     ff0:	d2a00c13          	li	s8,-726
     ff4:	0185d463          	bge	a1,s8,ffc <.L840>
     ff8:	19d0406f          	j	5994 <.L850>

00000ffc <.L840>:
     ffc:	eea00c13          	li	s8,-278
    1000:	018a4463          	blt	s4,s8,1008 <.L840+0xc>
    1004:	4dd0506f          	j	6ce0 <.L845>
    1008:	02700c13          	li	s8,39
    100c:	48dc46e3          	blt	s8,a3,1c98 <.L852>

00001010 <.L846>:
    1010:	0a900c13          	li	s8,169
    1014:	49ec5ce3          	bge	s8,t5,1cac <.L860>

00001018 <.L2788>:
    1018:	01e00c13          	li	s8,30
    101c:	013c5463          	bge	s8,s3,1024 <.L2788+0xc>
    1020:	4ed0506f          	j	6d0c <.L858>
    1024:	03c00c13          	li	s8,60
    1028:	00fc4463          	blt	s8,a5,1030 <.L2788+0x18>
    102c:	5480706f          	j	8574 <.L864>
    1030:	00815c03          	lhu	s8,8(sp)
    1034:	005c0c13          	addi	s8,s8,5
    1038:	01811423          	sh	s8,8(sp)

0000103c <.L859>:
    103c:	0b500c13          	li	s8,181
    1040:	486c4ae3          	blt	s8,t1,1cd4 <.L865>

00001044 <.L2790>:
    1044:	00300c13          	li	s8,3
    1048:	01cc4463          	blt	s8,t3,1050 <.L2790+0xc>
    104c:	3d40506f          	j	6420 <.L2261>
    1050:	47000c13          	li	s8,1136
    1054:	007c5463          	bge	s8,t2,105c <.L2790+0x18>
    1058:	4710906f          	j	acc8 <.L875>
    105c:	00a15c03          	lhu	s8,10(sp)
    1060:	ff8c0c13          	addi	s8,s8,-8
    1064:	01811523          	sh	s8,10(sp)

00001068 <.L874>:
    1068:	f6a00c13          	li	s8,-150
    106c:	4985c6e3          	blt	a1,s8,1cf8 <.L878>
    1070:	f5b00c13          	li	s8,-165
    1074:	0182d463          	bge	t0,s8,107c <.L874+0x14>
    1078:	4140506f          	j	648c <.L871>
    107c:	0ed00c13          	li	s8,237
    1080:	00dc4463          	blt	s8,a3,1088 <.L874+0x20>
    1084:	3c80506f          	j	644c <.L894>
    1088:	00c15c03          	lhu	s8,12(sp)
    108c:	02f00c93          	li	s9,47
    1090:	003c0c13          	addi	s8,s8,3
    1094:	01811623          	sh	s8,12(sp)
    1098:	490cc6e3          	blt	s9,a6,1d24 <.L889>

0000109c <.L888>:
    109c:	03800c13          	li	s8,56
    10a0:	01fc5463          	bge	s8,t6,10a8 <.L890>
    10a4:	3c80506f          	j	646c <.L881>

000010a8 <.L890>:
    10a8:	00e15c03          	lhu	s8,14(sp)
    10ac:	ff8c0c13          	addi	s8,s8,-8
    10b0:	010c1c13          	slli	s8,s8,0x10
    10b4:	410c5c13          	srai	s8,s8,0x10

000010b8 <.L896>:
    10b8:	01811723          	sh	s8,14(sp)
    10bc:	ec600c13          	li	s8,-314
    10c0:	498446e3          	blt	s0,s8,1d4c <.L904>

000010c4 <.L2791>:
    10c4:	ebf00c13          	li	s8,-321
    10c8:	0185c463          	blt	a1,s8,10d0 <.L2791+0xc>
    10cc:	5f10706f          	j	8ebc <.L908>
    10d0:	03c00c13          	li	s8,60
    10d4:	00fc5463          	bge	s8,a5,10dc <.L2595>
    10d8:	6840806f          	j	975c <.L901>

000010dc <.L2595>:
    10dc:	00815c03          	lhu	s8,8(sp)
    10e0:	006c0c13          	addi	s8,s8,6
    10e4:	01811423          	sh	s8,8(sp)

000010e8 <.L906>:
    10e8:	03400c13          	li	s8,52
    10ec:	49dc46e3          	blt	s8,t4,1d78 <.L909>

000010f0 <.L2793>:
    10f0:	ff800c13          	li	s8,-8
    10f4:	01864463          	blt	a2,s8,10fc <.L2793+0xc>
    10f8:	6340606f          	j	772c <.L910>
    10fc:	01e00c13          	li	s8,30
    1100:	011c5463          	bge	s8,a7,1108 <.L2793+0x18>
    1104:	6480606f          	j	774c <.L911>
    1108:	00a15c03          	lhu	s8,10(sp)
    110c:	ffdc0c13          	addi	s8,s8,-3
    1110:	010c1c13          	slli	s8,s8,0x10
    1114:	410c5c13          	srai	s8,s8,0x10

00001118 <.L912>:
    1118:	01811523          	sh	s8,10(sp)
    111c:	03300c13          	li	s8,51
    1120:	00fc4463          	blt	s8,a5,1128 <.L914>
    1124:	1d40406f          	j	52f8 <.L923>

00001128 <.L914>:
    1128:	d7800c13          	li	s8,-648
    112c:	018a5463          	bge	s4,s8,1134 <.L914+0xc>
    1130:	0210606f          	j	7950 <.L927>
    1134:	01500c93          	li	s9,21
    1138:	47dccee3          	blt	s9,t4,1db4 <.L920>
    113c:	00c15c03          	lhu	s8,12(sp)
    1140:	03900d13          	li	s10,57
    1144:	001c0c13          	addi	s8,s8,1
    1148:	01811623          	sh	s8,12(sp)
    114c:	48fd44e3          	blt	s10,a5,1dd4 <.L941>
    1150:	006cc463          	blt	s9,t1,1158 <.L933>
    1154:	1580206f          	j	32ac <.L934>

00001158 <.L933>:
    1158:	27700c13          	li	s8,631
    115c:	012c5463          	bge	s8,s2,1164 <.L933+0xc>
    1160:	5380806f          	j	9698 <.L942>
    1164:	00e15c03          	lhu	s8,14(sp)
    1168:	ff7c0c13          	addi	s8,s8,-9
    116c:	01811723          	sh	s8,14(sp)

00001170 <.L940>:
    1170:	00c00c13          	li	s8,12
    1174:	493c44e3          	blt	s8,s3,1dfc <.L935>

00001178 <.L2794>:
    1178:	1b000c13          	li	s8,432
    117c:	009c5463          	bge	s8,s1,1184 <.L2794+0xc>
    1180:	5340706f          	j	86b4 <.L946>
    1184:	10600c13          	li	s8,262
    1188:	00ec4463          	blt	s8,a4,1190 <.L2794+0x18>
    118c:	51d0506f          	j	6ea8 <.L952>
    1190:	00815c03          	lhu	s8,8(sp)
    1194:	03300c93          	li	s9,51
    1198:	008c0c13          	addi	s8,s8,8
    119c:	01811423          	sh	s8,8(sp)
    11a0:	01fcc463          	blt	s9,t6,11a8 <.L949>
    11a4:	52c0306f          	j	46d0 <.L956>

000011a8 <.L949>:
    11a8:	03b00c13          	li	s8,59
    11ac:	00fc5463          	bge	s8,a5,11b4 <.L949+0xc>
    11b0:	7c00906f          	j	a970 <.L973>
    11b4:	00a15c03          	lhu	s8,10(sp)
    11b8:	005c0c13          	addi	s8,s8,5
    11bc:	010c1c13          	slli	s8,s8,0x10
    11c0:	410c5c13          	srai	s8,s8,0x10

000011c4 <.L969>:
    11c4:	01811523          	sh	s8,10(sp)
    11c8:	03900c13          	li	s8,57
    11cc:	00dc5463          	bge	s8,a3,11d4 <.L960>
    11d0:	4a50506f          	j	6e74 <.L970>

000011d4 <.L960>:
    11d4:	01300c13          	li	s8,19
    11d8:	491c44e3          	blt	s8,a7,1e60 <.L974>

000011dc <.L2795>:
    11dc:	20f00c13          	li	s8,527
    11e0:	009c5463          	bge	s8,s1,11e8 <.L2795+0xc>
    11e4:	7640906f          	j	a948 <.L975>
    11e8:	00c15c03          	lhu	s8,12(sp)
    11ec:	cf000c93          	li	s9,-784
    11f0:	ffec0c13          	addi	s8,s8,-2
    11f4:	01811623          	sh	s8,12(sp)
    11f8:	4995dae3          	bge	a1,s9,1e8c <.L976>

000011fc <.L982>:
    11fc:	e2c00c13          	li	s8,-468
    1200:	0182c463          	blt	t0,s8,1208 <.L982+0xc>
    1204:	7140906f          	j	a918 <.L2765>
    1208:	00e15c03          	lhu	s8,14(sp)
    120c:	ffec0c13          	addi	s8,s8,-2
    1210:	01811723          	sh	s8,14(sp)

00001214 <.L989>:
    1214:	00400c13          	li	s8,4
    1218:	011c4863          	blt	s8,a7,1228 <.L1002>
    121c:	00815c03          	lhu	s8,8(sp)
    1220:	00cc0c13          	addi	s8,s8,12
    1224:	01811423          	sh	s8,8(sp)

00001228 <.L1002>:
    1228:	1ac00c13          	li	s8,428
    122c:	4b6c42e3          	blt	s8,s6,1ed0 <.L1004>

00001230 <.L2796>:
    1230:	00400c13          	li	s8,4
    1234:	01cc5463          	bge	s8,t3,123c <.L2796+0xc>
    1238:	4350406f          	j	5e6c <.L1005>
    123c:	16a00c13          	li	s8,362
    1240:	007c5463          	bge	s8,t2,1248 <.L2796+0x18>
    1244:	4510906f          	j	ae94 <.L1006>
    1248:	00a15c03          	lhu	s8,10(sp)
    124c:	003c0c13          	addi	s8,s8,3
    1250:	010c1c13          	slli	s8,s8,0x10
    1254:	410c5c13          	srai	s8,s8,0x10

00001258 <.L1007>:
    1258:	01811523          	sh	s8,10(sp)
    125c:	03d00c13          	li	s8,61
    1260:	4afc42e3          	blt	s8,a5,1f04 <.L1017>

00001264 <.L1013>:
    1264:	00100c13          	li	s8,1
    1268:	01cc5463          	bge	s8,t3,1270 <.L1013+0xc>
    126c:	42d0406f          	j	5e98 <.L1016>
    1270:	e4e00c13          	li	s8,-434
    1274:	0185c463          	blt	a1,s8,127c <.L1013+0x18>
    1278:	10c0a06f          	j	b384 <.L1018>
    127c:	00c15c03          	lhu	s8,12(sp)
    1280:	004c0c13          	addi	s8,s8,4
    1284:	010c1c13          	slli	s8,s8,0x10
    1288:	410c5c13          	srai	s8,s8,0x10

0000128c <.L1019>:
    128c:	01811623          	sh	s8,12(sp)
    1290:	03900c13          	li	s8,57
    1294:	48fc4ae3          	blt	s8,a5,1f28 <.L1014>
    1298:	03200c13          	li	s8,50
    129c:	01dc4463          	blt	s8,t4,12a4 <.L1019+0x18>
    12a0:	41d0406f          	j	5ebc <.L1026>
    12a4:	ebb00c13          	li	s8,-325
    12a8:	0182c463          	blt	t0,s8,12b0 <.L1019+0x24>
    12ac:	3410906f          	j	adec <.L1029>
    12b0:	00e15c03          	lhu	s8,14(sp)
    12b4:	ffbc0c13          	addi	s8,s8,-5
    12b8:	010c1c13          	slli	s8,s8,0x10
    12bc:	410c5c13          	srai	s8,s8,0x10

000012c0 <.L1028>:
    12c0:	01811723          	sh	s8,14(sp)
    12c4:	01f00c13          	li	s8,31
    12c8:	013c4463          	blt	s8,s3,12d0 <.L1037>
    12cc:	7b50306f          	j	5280 <.L1038>

000012d0 <.L1037>:
    12d0:	00600c13          	li	s8,6
    12d4:	011c5863          	bge	s8,a7,12e4 <.L1043>

000012d8 <.L1046>:
    12d8:	00815c03          	lhu	s8,8(sp)
    12dc:	ff7c0c13          	addi	s8,s8,-9
    12e0:	01811423          	sh	s8,8(sp)

000012e4 <.L1043>:
    12e4:	03100c13          	li	s8,49
    12e8:	01fc5463          	bge	s8,t6,12f0 <.L2893>
    12ec:	7bd0306f          	j	52a8 <.L1051>

000012f0 <.L2893>:
    12f0:	1f500c13          	li	s8,501
    12f4:	00ec5463          	bge	s8,a4,12fc <.L1052>
    12f8:	7410406f          	j	6238 <.L1042>

000012fc <.L1052>:
    12fc:	ff900c13          	li	s8,-7
    1300:	01884463          	blt	a6,s8,1308 <.L1052+0xc>
    1304:	0280806f          	j	932c <.L1041>
    1308:	00a15c03          	lhu	s8,10(sp)
    130c:	ffec0c13          	addi	s8,s8,-2
    1310:	010c1c13          	slli	s8,s8,0x10
    1314:	410c5c13          	srai	s8,s8,0x10

00001318 <.L1045>:
    1318:	01811523          	sh	s8,10(sp)
    131c:	0c100c13          	li	s8,193
    1320:	469c48e3          	blt	s8,s1,1f90 <.L1056>

00001324 <.L2797>:
    1324:	03800c13          	li	s8,56
    1328:	00fc5463          	bge	s8,a5,1330 <.L2797+0xc>
    132c:	2a50506f          	j	6dd0 <.L1057>
    1330:	ff900c93          	li	s9,-7
    1334:	01964463          	blt	a2,s9,133c <.L2797+0x18>
    1338:	7500706f          	j	8a88 <.L1058>
    133c:	00c15c83          	lhu	s9,12(sp)
    1340:	02f00d13          	li	s10,47
    1344:	005c8c93          	addi	s9,s9,5
    1348:	01911623          	sh	s9,12(sp)
    134c:	010d4463          	blt	s10,a6,1354 <.L2797+0x30>
    1350:	24c0206f          	j	359c <.L2731>
    1354:	e1900c13          	li	s8,-487
    1358:	018a4463          	blt	s4,s8,1360 <.L1062>
    135c:	0b50a06f          	j	bc10 <.L2766>

00001360 <.L1062>:
    1360:	00300c13          	li	s8,3
    1364:	00dc5463          	bge	s8,a3,136c <.L1062+0xc>
    1368:	5380906f          	j	a8a0 <.L1073>
    136c:	00815c03          	lhu	s8,8(sp)
    1370:	003c0c13          	addi	s8,s8,3
    1374:	010c1c13          	slli	s8,s8,0x10
    1378:	410c5c13          	srai	s8,s8,0x10

0000137c <.L1092>:
    137c:	01811423          	sh	s8,8(sp)
    1380:	30000c13          	li	s8,768
    1384:	4bec44e3          	blt	s8,t5,202c <.L1095>

00001388 <.L1085>:
    1388:	ff800c13          	li	s8,-8
    138c:	01864463          	blt	a2,s8,1394 <.L1085+0xc>
    1390:	74c0706f          	j	8adc <.L1096>
    1394:	1dc00c13          	li	s8,476
    1398:	016c4863          	blt	s8,s6,13a8 <.L1097>
    139c:	00a15c03          	lhu	s8,10(sp)
    13a0:	ff9c0c13          	addi	s8,s8,-7
    13a4:	01811523          	sh	s8,10(sp)

000013a8 <.L1097>:
    13a8:	04900c13          	li	s8,73
    13ac:	011c5463          	bge	s8,a7,13b4 <.L1097+0xc>
    13b0:	7f90306f          	j	53a8 <.L1105>
    13b4:	02000c13          	li	s8,32
    13b8:	01dc5463          	bge	s8,t4,13c0 <.L1097+0x18>
    13bc:	2b90606f          	j	7e74 <.L1103>
    13c0:	16300c13          	li	s8,355
    13c4:	4bec42e3          	blt	s8,t5,2068 <.L1102>
    13c8:	00c15c03          	lhu	s8,12(sp)
    13cc:	fffc0c13          	addi	s8,s8,-1
    13d0:	01811623          	sh	s8,12(sp)

000013d4 <.L1108>:
    13d4:	e4a00c13          	li	s8,-438
    13d8:	4b82d2e3          	bge	t0,s8,207c <.L1112>

000013dc <.L2798>:
    13dc:	03d00c13          	li	s8,61
    13e0:	00fc4463          	blt	s8,a5,13e8 <.L2798+0xc>
    13e4:	0180606f          	j	73fc <.L1113>
    13e8:	01100c13          	li	s8,17
    13ec:	011c5463          	bge	s8,a7,13f4 <.L2798+0x18>
    13f0:	7f50306f          	j	53e4 <.L1114>
    13f4:	00e15c03          	lhu	s8,14(sp)
    13f8:	01500c93          	li	s9,21
    13fc:	008c0c13          	addi	s8,s8,8
    1400:	01811723          	sh	s8,14(sp)
    1404:	4a7cd2e3          	bge	s9,t2,20a8 <.L1118>

00001408 <.L2602>:
    1408:	0fd00c13          	li	s8,253
    140c:	007c4463          	blt	s8,t2,1414 <.L1120>
    1410:	1600406f          	j	5570 <.L1119>

00001414 <.L1120>:
    1414:	e4300c13          	li	s8,-445
    1418:	01844463          	blt	s0,s8,1420 <.L1120+0xc>
    141c:	4f00806f          	j	990c <.L1131>
    1420:	00815c03          	lhu	s8,8(sp)
    1424:	ff7c0c13          	addi	s8,s8,-9
    1428:	010c1c13          	slli	s8,s8,0x10
    142c:	410c5c13          	srai	s8,s8,0x10

00001430 <.L1127>:
    1430:	01811423          	sh	s8,8(sp)
    1434:	03300c13          	li	s8,51
    1438:	4bfc42e3          	blt	s8,t6,20dc <.L1129>

0000143c <.L2799>:
    143c:	fe200c13          	li	s8,-30
    1440:	01864463          	blt	a2,s8,1448 <.L2799+0xc>
    1444:	6200606f          	j	7a64 <.L1128>
    1448:	e3d00c13          	li	s8,-451
    144c:	01844463          	blt	s0,s8,1454 <.L2799+0x18>
    1450:	4e00806f          	j	9930 <.L1132>
    1454:	00a15c03          	lhu	s8,10(sp)
    1458:	ffac0c13          	addi	s8,s8,-6
    145c:	010c1c13          	slli	s8,s8,0x10
    1460:	410c5c13          	srai	s8,s8,0x10

00001464 <.L1133>:
    1464:	01811523          	sh	s8,10(sp)
    1468:	00100c13          	li	s8,1
    146c:	4bcc52e3          	bge	s8,t3,2110 <.L2767>

00001470 <.L1138>:
    1470:	01500c13          	li	s8,21
    1474:	01dc5463          	bge	s8,t4,147c <.L1138+0xc>
    1478:	2650406f          	j	5edc <.L1142>
    147c:	20f00c13          	li	s8,527
    1480:	016c4463          	blt	s8,s6,1488 <.L1138+0x18>
    1484:	2cd0406f          	j	5f50 <.L1144>
    1488:	00c15c03          	lhu	s8,12(sp)
    148c:	00ac0c13          	addi	s8,s8,10
    1490:	010c1c13          	slli	s8,s8,0x10
    1494:	410c5c13          	srai	s8,s8,0x10

00001498 <.L1140>:
    1498:	01811623          	sh	s8,12(sp)
    149c:	03e00c13          	li	s8,62
    14a0:	48fc4ce3          	blt	s8,a5,2138 <.L1145>

000014a4 <.L2800>:
    14a4:	03800c13          	li	s8,56
    14a8:	01fc5463          	bge	s8,t6,14b0 <.L2800+0xc>
    14ac:	2bd0606f          	j	7f68 <.L1146>
    14b0:	f5400c13          	li	s8,-172
    14b4:	01844463          	blt	s0,s8,14bc <.L2800+0x18>
    14b8:	6040806f          	j	9abc <.L1147>
    14bc:	00e15c03          	lhu	s8,14(sp)
    14c0:	005c0c13          	addi	s8,s8,5
    14c4:	010c1c13          	slli	s8,s8,0x10
    14c8:	410c5c13          	srai	s8,s8,0x10

000014cc <.L1148>:
    14cc:	01811723          	sh	s8,14(sp)
    14d0:	01f00c13          	li	s8,31
    14d4:	013c5463          	bge	s8,s3,14dc <.L1148+0x10>
    14d8:	3900306f          	j	4868 <.L1152>
    14dc:	03b00c13          	li	s8,59
    14e0:	00fc5463          	bge	s8,a5,14e8 <.L1148+0x1c>
    14e4:	6880706f          	j	8b6c <.L1153>
    14e8:	1ed00c13          	li	s8,493
    14ec:	009c5463          	bge	s8,s1,14f4 <.L1148+0x28>
    14f0:	0690506f          	j	6d58 <.L1154>
    14f4:	00815c03          	lhu	s8,8(sp)
    14f8:	1b900c93          	li	s9,441
    14fc:	ffec0c13          	addi	s8,s8,-2
    1500:	01811423          	sh	s8,8(sp)
    1504:	01ecc463          	blt	s9,t5,150c <.L1155>
    1508:	0690506f          	j	6d70 <.L1158>

0000150c <.L1155>:
    150c:	03200c13          	li	s8,50
    1510:	01dc5463          	bge	s8,t4,1518 <.L1155+0xc>
    1514:	73d0706f          	j	9450 <.L1176>
    1518:	ff200c13          	li	s8,-14
    151c:	01864463          	blt	a2,s8,1524 <.L1155+0x18>
    1520:	6e00a06f          	j	bc00 <.L1177>
    1524:	00a15c03          	lhu	s8,10(sp)
    1528:	ff7c0c13          	addi	s8,s8,-9
    152c:	01811523          	sh	s8,10(sp)

00001530 <.L1174>:
    1530:	00f00c13          	li	s8,15
    1534:	010c5463          	bge	s8,a6,153c <.L1188>
    1538:	5400206f          	j	3a78 <.L1196>

0000153c <.L1188>:
    153c:	f6300c13          	li	s8,-157
    1540:	0185c463          	blt	a1,s8,1548 <.L1188+0xc>
    1544:	7a50606f          	j	84e8 <.L2768>
    1548:	00c15c03          	lhu	s8,12(sp)
    154c:	ffcc0c13          	addi	s8,s8,-4
    1550:	010c1c13          	slli	s8,s8,0x10
    1554:	410c5c13          	srai	s8,s8,0x10
    1558:	01811623          	sh	s8,12(sp)
    155c:	0d800c13          	li	s8,216
    1560:	492c50e3          	bge	s8,s2,21e0 <.L2769>

00001564 <.L1195>:
    1564:	38f00c13          	li	s8,911
    1568:	006c5463          	bge	s8,t1,1570 <.L1195+0xc>
    156c:	5180606f          	j	7a84 <.L1203>
    1570:	1ca00c13          	li	s8,458
    1574:	01ec5463          	bge	s8,t5,157c <.L1195+0x18>
    1578:	4150206f          	j	418c <.L1204>
    157c:	00e15c03          	lhu	s8,14(sp)
    1580:	00400c93          	li	s9,4
    1584:	007c0c13          	addi	s8,s8,7
    1588:	01811723          	sh	s8,14(sp)
    158c:	011cc463          	blt	s9,a7,1594 <.L1195+0x30>
    1590:	1750306f          	j	4f04 <.L1209>
    1594:	00e00c13          	li	s8,14
    1598:	01dc4463          	blt	s8,t4,15a0 <.L1195+0x3c>
    159c:	4110206f          	j	41ac <.L1218>
    15a0:	0ac00c13          	li	s8,172
    15a4:	01ec4463          	blt	s8,t5,15ac <.L1195+0x48>
    15a8:	50c0606f          	j	7ab4 <.L1219>
    15ac:	03500c13          	li	s8,53
    15b0:	00ec5463          	bge	s8,a4,15b8 <.L1215>
    15b4:	5180606f          	j	7acc <.L2607>

000015b8 <.L1215>:
    15b8:	01900c13          	li	s8,25
    15bc:	00dc5463          	bge	s8,a3,15c4 <.L1215+0xc>
    15c0:	6200606f          	j	7be0 <.L1225>
    15c4:	00c00c13          	li	s8,12
    15c8:	49cc48e3          	blt	s8,t3,2258 <.L2693>
    15cc:	00a15c03          	lhu	s8,10(sp)
    15d0:	0c100c93          	li	s9,193
    15d4:	001c0c13          	addi	s8,s8,1
    15d8:	01811523          	sh	s8,10(sp)
    15dc:	489cc8e3          	blt	s9,s1,226c <.L2608>

000015e0 <.L1228>:
    15e0:	fae00c13          	li	s8,-82
    15e4:	0185c463          	blt	a1,s8,15ec <.L1228+0xc>
    15e8:	0d10606f          	j	7eb8 <.L1238>
    15ec:	ea900c13          	li	s8,-343
    15f0:	018a4463          	blt	s4,s8,15f8 <.L1228+0x18>
    15f4:	5440906f          	j	ab38 <.L1239>
    15f8:	00c15c03          	lhu	s8,12(sp)
    15fc:	002c0c13          	addi	s8,s8,2
    1600:	010c1c13          	slli	s8,s8,0x10
    1604:	410c5c13          	srai	s8,s8,0x10
    1608:	01811623          	sh	s8,12(sp)
    160c:	03600c13          	li	s8,54
    1610:	48fc52e3          	bge	s8,a5,2294 <.L2770>

00001614 <.L1244>:
    1614:	e4a00c13          	li	s8,-438
    1618:	0182c463          	blt	t0,s8,1620 <.L1244+0xc>
    161c:	3ad0506f          	j	71c8 <.L1257>
    1620:	03d00c13          	li	s8,61
    1624:	00fc5463          	bge	s8,a5,162c <.L1244+0x18>
    1628:	4750706f          	j	929c <.L1258>
    162c:	00e15c03          	lhu	s8,14(sp)
    1630:	ff8c0c13          	addi	s8,s8,-8
    1634:	010c1c13          	slli	s8,s8,0x10
    1638:	410c5c13          	srai	s8,s8,0x10

0000163c <.L1259>:
    163c:	01811723          	sh	s8,14(sp)
    1640:	01500c13          	li	s8,21
    1644:	007c4463          	blt	s8,t2,164c <.L1259+0x10>
    1648:	7b10206f          	j	45f8 <.L1254>
    164c:	11d00c13          	li	s8,285
    1650:	007c5463          	bge	s8,t2,1658 <.L1259+0x1c>
    1654:	46d0706f          	j	92c0 <.L1256>
    1658:	03b00c13          	li	s8,59
    165c:	00fc4463          	blt	s8,a5,1664 <.L1260>
    1660:	4b80706f          	j	8b18 <.L1255>

00001664 <.L1260>:
    1664:	00815c03          	lhu	s8,8(sp)
    1668:	08c00c93          	li	s9,140
    166c:	001c0c13          	addi	s8,s8,1
    1670:	01811423          	sh	s8,8(sp)
    1674:	466cd4e3          	bge	s9,t1,22dc <.L1250>
    1678:	00c00c13          	li	s8,12
    167c:	01cc5463          	bge	s8,t3,1684 <.L1260+0x20>
    1680:	7b10206f          	j	4630 <.L1275>
    1684:	01700c13          	li	s8,23
    1688:	49dc50e3          	bge	s8,t4,2308 <.L1279>

0000168c <.L1268>:
    168c:	00a15c03          	lhu	s8,10(sp)
    1690:	03300c93          	li	s9,51
    1694:	007c0c13          	addi	s8,s8,7
    1698:	01811523          	sh	s8,10(sp)
    169c:	00fcc463          	blt	s9,a5,16a4 <.L1268+0x18>
    16a0:	7bd0206f          	j	465c <.L2734>
    16a4:	04700c13          	li	s8,71
    16a8:	007c5463          	bge	s8,t2,16b0 <.L1266>
    16ac:	6a80406f          	j	5d54 <.L1295>

000016b0 <.L1266>:
    16b0:	2bd00c13          	li	s8,701
    16b4:	009c5463          	bge	s8,s1,16bc <.L1266+0xc>
    16b8:	52d0806f          	j	a3e4 <.L2771>
    16bc:	00c15c03          	lhu	s8,12(sp)
    16c0:	03c00c93          	li	s9,60
    16c4:	ff7c0c13          	addi	s8,s8,-9
    16c8:	01811623          	sh	s8,12(sp)
    16cc:	00fcc463          	blt	s9,a5,16d4 <.L2612>
    16d0:	7b10206f          	j	4680 <.L1292>

000016d4 <.L2612>:
    16d4:	0d400c13          	li	s8,212
    16d8:	00ec5463          	bge	s8,a4,16e0 <.L1310>
    16dc:	7680706f          	j	8e44 <.L1307>

000016e0 <.L1310>:
    16e0:	00e15c03          	lhu	s8,14(sp)
    16e4:	ffe00c93          	li	s9,-2
    16e8:	008c0c13          	addi	s8,s8,8
    16ec:	01811723          	sh	s8,14(sp)
    16f0:	45985ee3          	bge	a6,s9,234c <.L1321>

000016f4 <.L1300>:
    16f4:	0ce00c13          	li	s8,206
    16f8:	00dc5463          	bge	s8,a3,1700 <.L1300+0xc>
    16fc:	76c0206f          	j	3e68 <.L2772>
    1700:	01c51c83          	lh	s9,28(a0)
    1704:	03500c13          	li	s8,53
    1708:	019c4463          	blt	s8,s9,1710 <.L1300+0x1c>
    170c:	0250906f          	j	af30 <.L1322>
    1710:	03400c13          	li	s8,52
    1714:	01dc4463          	blt	s8,t4,171c <.L1323>
    1718:	7700206f          	j	3e88 <.L1329>

0000171c <.L1323>:
    171c:	1db00c13          	li	s8,475
    1720:	016c5463          	bge	s8,s6,1728 <.L1330>
    1724:	6ac0606f          	j	7dd0 <.L1326>

00001728 <.L1330>:
    1728:	00a15c03          	lhu	s8,10(sp)
    172c:	02a00c93          	li	s9,42
    1730:	005c0c13          	addi	s8,s8,5
    1734:	01811523          	sh	s8,10(sp)
    1738:	46dcd4e3          	bge	s9,a3,23a0 <.L1327>

0000173c <.L1328>:
    173c:	02700c13          	li	s8,39
    1740:	00ec5463          	bge	s8,a4,1748 <.L1328+0xc>
    1744:	6410306f          	j	5584 <.L2773>
    1748:	00900c13          	li	s8,9
    174c:	012c5463          	bge	s8,s2,1754 <.L1328+0x18>
    1750:	5c90906f          	j	b518 <.L2774>
    1754:	00c15c03          	lhu	s8,12(sp)
    1758:	001c0c13          	addi	s8,s8,1
    175c:	01811623          	sh	s8,12(sp)
    1760:	4590006f          	j	23b8 <.L1360>

00001764 <.L2757>:
    1764:	18f00c13          	li	s8,399
    1768:	00dc5463          	bge	s8,a3,1770 <.L2757+0xc>
    176c:	03c0406f          	j	57a8 <.L550>
    1770:	1aa00c13          	li	s8,426
    1774:	016c5463          	bge	s8,s6,177c <.L2757+0x18>
    1778:	5d10906f          	j	b548 <.L551>
    177c:	00815c03          	lhu	s8,8(sp)
    1780:	007c0c13          	addi	s8,s8,7
    1784:	010c1c13          	slli	s8,s8,0x10
    1788:	410c5c13          	srai	s8,s8,0x10
    178c:	c24ff06f          	j	bb0 <.L552>

00001790 <.L517>:
    1790:	00a15c03          	lhu	s8,10(sp)
    1794:	17000c93          	li	s9,368
    1798:	009c0c13          	addi	s8,s8,9
    179c:	01811523          	sh	s8,10(sp)
    17a0:	00dcd463          	bge	s9,a3,17a8 <.L2576>
    17a4:	53d0206f          	j	44e0 <.L533>

000017a8 <.L2576>:
    17a8:	02200c13          	li	s8,34
    17ac:	01dc4463          	blt	s8,t4,17b4 <.L531>
    17b0:	2950706f          	j	9244 <.L530>

000017b4 <.L531>:
    17b4:	00c15c03          	lhu	s8,12(sp)
    17b8:	ff6c0c13          	addi	s8,s8,-10
    17bc:	010c1c13          	slli	s8,s8,0x10
    17c0:	410c5c13          	srai	s8,s8,0x10
    17c4:	01811623          	sh	s8,12(sp)
    17c8:	e9900c13          	li	s8,-359
    17cc:	b985ce63          	blt	a1,s8,b68 <.L2775>

000017d0 <.L541>:
    17d0:	ee600c13          	li	s8,-282
    17d4:	018ac463          	blt	s5,s8,17dc <.L541+0xc>
    17d8:	3fc0506f          	j	6bd4 <.L545>
    17dc:	ffc00c13          	li	s8,-4
    17e0:	01834463          	blt	t1,s8,17e8 <.L541+0x18>
    17e4:	1d80406f          	j	59bc <.L544>
    17e8:	00e15c03          	lhu	s8,14(sp)
    17ec:	002c0c13          	addi	s8,s8,2
    17f0:	01811723          	sh	s8,14(sp)
    17f4:	b8085c63          	bgez	a6,b8c <.L546>
    17f8:	18f00c13          	li	s8,399
    17fc:	00dc4463          	blt	s8,a3,1804 <.L547>
    1800:	63c0a06f          	j	be3c <.L2776>

00001804 <.L547>:
    1804:	00815c03          	lhu	s8,8(sp)
    1808:	007c0c13          	addi	s8,s8,7
    180c:	01811423          	sh	s8,8(sp)

00001810 <.L549>:
    1810:	00400c13          	li	s8,4
    1814:	01cc5463          	bge	s8,t3,181c <.L549+0xc>
    1818:	2410406f          	j	6258 <.L561>
    181c:	12e00c13          	li	s8,302
    1820:	00ec5463          	bge	s8,a4,1828 <.L549+0x18>
    1824:	4580806f          	j	9c7c <.L562>
    1828:	00a15c03          	lhu	s8,10(sp)
    182c:	17000c93          	li	s9,368
    1830:	ffec0c13          	addi	s8,s8,-2
    1834:	01811523          	sh	s8,10(sp)
    1838:	badcd863          	bge	s9,a3,be8 <.L563>

0000183c <.L564>:
    183c:	ea700c13          	li	s8,-345
    1840:	018ad463          	bge	s5,s8,1848 <.L564+0xc>
    1844:	4bc0706f          	j	8d00 <.L571>
    1848:	00c15c03          	lhu	s8,12(sp)
    184c:	e0800c93          	li	s9,-504
    1850:	ffdc0c13          	addi	s8,s8,-3
    1854:	01811623          	sh	s8,12(sp)
    1858:	01945463          	bge	s0,s9,1860 <.L2375>
    185c:	7c10306f          	j	581c <.L584>

00001860 <.L2375>:
    1860:	0de00c13          	li	s8,222
    1864:	012c5463          	bge	s8,s2,186c <.L585>
    1868:	5bd0606f          	j	8624 <.L586>

0000186c <.L585>:
    186c:	00e15c03          	lhu	s8,14(sp)
    1870:	ff8c0c13          	addi	s8,s8,-8
    1874:	01811723          	sh	s8,14(sp)
    1878:	0a900c13          	li	s8,169
    187c:	bdec4063          	blt	s8,t5,c3c <.L610>

00001880 <.L600>:
    1880:	01a00c13          	li	s8,26
    1884:	010c5463          	bge	s8,a6,188c <.L600+0xc>
    1888:	07d0506f          	j	7104 <.L611>
    188c:	11800c13          	li	s8,280
    1890:	bd2c4863          	blt	s8,s2,c60 <.L614>
    1894:	00815c03          	lhu	s8,8(sp)
    1898:	009c0c13          	addi	s8,s8,9
    189c:	01811423          	sh	s8,8(sp)
    18a0:	03900c13          	li	s8,57
    18a4:	bcec5263          	bge	s8,a4,c68 <.L2777>

000018a8 <.L618>:
    18a8:	ff900c13          	li	s8,-7
    18ac:	01864463          	blt	a2,s8,18b4 <.L618+0xc>
    18b0:	64d0406f          	j	66fc <.L627>
    18b4:	1d700c13          	li	s8,471
    18b8:	016c5463          	bge	s8,s6,18c0 <.L618+0x18>
    18bc:	4e80906f          	j	ada4 <.L628>
    18c0:	00a15c03          	lhu	s8,10(sp)
    18c4:	ff9c0c13          	addi	s8,s8,-7
    18c8:	010c1c13          	slli	s8,s8,0x10
    18cc:	410c5c13          	srai	s8,s8,0x10

000018d0 <.L629>:
    18d0:	01811523          	sh	s8,10(sp)
    18d4:	08900c13          	li	s8,137
    18d8:	00dc5463          	bge	s8,a3,18e0 <.L2909>
    18dc:	64d0406f          	j	6728 <.L633>

000018e0 <.L2909>:
    18e0:	03700c13          	li	s8,55
    18e4:	00fc5463          	bge	s8,a5,18ec <.L2909+0xc>
    18e8:	57d0406f          	j	6664 <.L634>
    18ec:	00900c13          	li	s8,9
    18f0:	bb1c5a63          	bge	s8,a7,ca4 <.L2274>

000018f4 <.L635>:
    18f4:	00c15c03          	lhu	s8,12(sp)
    18f8:	002c0c13          	addi	s8,s8,2
    18fc:	01811623          	sh	s8,12(sp)
    1900:	03000c13          	li	s8,48
    1904:	bbfc5a63          	bge	s8,t6,cb8 <.L2778>

00001908 <.L646>:
    1908:	faf00c13          	li	s8,-81
    190c:	018a4463          	blt	s4,s8,1914 <.L646+0xc>
    1910:	6250806f          	j	a734 <.L654>
    1914:	00e15c03          	lhu	s8,14(sp)
    1918:	0a900c93          	li	s9,169
    191c:	ff6c0c13          	addi	s8,s8,-10
    1920:	01811723          	sh	s8,14(sp)
    1924:	bbecc863          	blt	s9,t5,cd4 <.L2584>

00001928 <.L648>:
    1928:	01a00c13          	li	s8,26
    192c:	010c5463          	bge	s8,a6,1934 <.L648+0xc>
    1930:	7ad0506f          	j	78dc <.L651>
    1934:	11800c13          	li	s8,280
    1938:	bb2c4a63          	blt	s8,s2,cec <.L649>
    193c:	00815c03          	lhu	s8,8(sp)
    1940:	008c0c13          	addi	s8,s8,8
    1944:	01811423          	sh	s8,8(sp)
    1948:	0b500c13          	li	s8,181
    194c:	ba6c5463          	bge	s8,t1,cf4 <.L2779>

00001950 <.L659>:
    1950:	00400c13          	li	s8,4
    1954:	01cc5463          	bge	s8,t3,195c <.L659+0xc>
    1958:	0090406f          	j	6160 <.L664>
    195c:	0bb00c13          	li	s8,187
    1960:	016c5463          	bge	s8,s6,1968 <.L659+0x18>
    1964:	5890706f          	j	96ec <.L665>
    1968:	00a15c03          	lhu	s8,10(sp)
    196c:	ff7c0c13          	addi	s8,s8,-9
    1970:	010c1c13          	slli	s8,s8,0x10
    1974:	410c5c13          	srai	s8,s8,0x10
    1978:	01811523          	sh	s8,10(sp)
    197c:	27a00c13          	li	s8,634
    1980:	badc5463          	bge	s8,a3,d28 <.L2780>

00001984 <.L667>:
    1984:	ed100c13          	li	s8,-303
    1988:	018ac463          	blt	s5,s8,1990 <.L667+0xc>
    198c:	01c0506f          	j	69a8 <.L672>
    1990:	3fa00c13          	li	s8,1018
    1994:	baec4c63          	blt	s8,a4,d4c <.L670>
    1998:	00c15c03          	lhu	s8,12(sp)
    199c:	00ac0c13          	addi	s8,s8,10
    19a0:	01811623          	sh	s8,12(sp)
    19a4:	d8200c13          	li	s8,-638
    19a8:	bb85c663          	blt	a1,s8,d54 <.L2781>

000019ac <.L673>:
    19ac:	0de00c13          	li	s8,222
    19b0:	012c5463          	bge	s8,s2,19b8 <.L673+0xc>
    19b4:	5580406f          	j	5f0c <.L678>
    19b8:	03e00c13          	li	s8,62
    19bc:	00fc5463          	bge	s8,a5,19c4 <.L673+0x18>
    19c0:	2980806f          	j	9c58 <.L679>
    19c4:	00e15c03          	lhu	s8,14(sp)
    19c8:	ffbc0c13          	addi	s8,s8,-5
    19cc:	010c1c13          	slli	s8,s8,0x10
    19d0:	410c5c13          	srai	s8,s8,0x10
    19d4:	01811723          	sh	s8,14(sp)
    19d8:	ba085663          	bgez	a6,d84 <.L682>

000019dc <.L2269>:
    19dc:	0cd00c13          	li	s8,205
    19e0:	00dc5463          	bge	s8,a3,19e8 <.L2269+0xc>
    19e4:	61c0706f          	j	9000 <.L683>
    19e8:	1aa00c13          	li	s8,426
    19ec:	016c5463          	bge	s8,s6,19f4 <.L2269+0x18>
    19f0:	1a90906f          	j	b398 <.L684>
    19f4:	00815c03          	lhu	s8,8(sp)
    19f8:	07200c93          	li	s9,114
    19fc:	006c0c13          	addi	s8,s8,6
    1a00:	01811423          	sh	s8,8(sp)
    1a04:	baecdc63          	bge	s9,a4,dbc <.L685>

00001a08 <.L690>:
    1a08:	03300c13          	li	s8,51
    1a0c:	01fc5463          	bge	s8,t6,1a14 <.L690+0xc>
    1a10:	3380806f          	j	9d48 <.L2782>
    1a14:	00a15c03          	lhu	s8,10(sp)
    1a18:	ffac0c13          	addi	s8,s8,-6
    1a1c:	010c1c13          	slli	s8,s8,0x10
    1a20:	410c5c13          	srai	s8,s8,0x10

00001a24 <.L701>:
    1a24:	01811523          	sh	s8,10(sp)
    1a28:	ffa00c13          	li	s8,-6
    1a2c:	bb865e63          	bge	a2,s8,de8 <.L703>

00001a30 <.L2268>:
    1a30:	01000c13          	li	s8,16
    1a34:	01dc5463          	bge	s8,t4,1a3c <.L2928>
    1a38:	4000606f          	j	7e38 <.L704>

00001a3c <.L2928>:
    1a3c:	00c00c13          	li	s8,12
    1a40:	011c5463          	bge	s8,a7,1a48 <.L2928+0xc>
    1a44:	7290706f          	j	996c <.L705>
    1a48:	00c15c03          	lhu	s8,12(sp)
    1a4c:	001c0c13          	addi	s8,s8,1
    1a50:	010c1c13          	slli	s8,s8,0x10
    1a54:	410c5c13          	srai	s8,s8,0x10
    1a58:	01811623          	sh	s8,12(sp)
    1a5c:	03900c13          	li	s8,57
    1a60:	bcfc5063          	bge	s8,a5,e20 <.L2783>

00001a64 <.L710>:
    1a64:	e4a00c13          	li	s8,-438
    1a68:	0182c463          	blt	t0,s8,1a70 <.L710+0xc>
    1a6c:	14c0506f          	j	6bb8 <.L723>
    1a70:	03d00c13          	li	s8,61
    1a74:	00fc5463          	bge	s8,a5,1a7c <.L710+0x18>
    1a78:	18c0806f          	j	9c04 <.L724>
    1a7c:	00e15c03          	lhu	s8,14(sp)
    1a80:	ff8c0c13          	addi	s8,s8,-8
    1a84:	01811723          	sh	s8,14(sp)

00001a88 <.L722>:
    1a88:	0a900c13          	li	s8,169
    1a8c:	01ec5463          	bge	s8,t5,1a94 <.L722+0xc>
    1a90:	64d0306f          	j	58dc <.L725>
    1a94:	01a00c13          	li	s8,26
    1a98:	010c5463          	bge	s8,a6,1aa0 <.L722+0x18>
    1a9c:	0650706f          	j	9300 <.L726>
    1aa0:	11800c13          	li	s8,280
    1aa4:	012c4863          	blt	s8,s2,1ab4 <.L718>
    1aa8:	00815c03          	lhu	s8,8(sp)
    1aac:	008c0c13          	addi	s8,s8,8
    1ab0:	01811423          	sh	s8,8(sp)

00001ab4 <.L718>:
    1ab4:	0f000c13          	li	s8,240
    1ab8:	ba6c5863          	bge	s8,t1,e68 <.L715>
    1abc:	d6c00c13          	li	s8,-660
    1ac0:	018ac463          	blt	s5,s8,1ac8 <.L718+0x14>
    1ac4:	4d50506f          	j	7798 <.L747>
    1ac8:	ff400c13          	li	s8,-12
    1acc:	01864463          	blt	a2,s8,1ad4 <.L718+0x20>
    1ad0:	6500506f          	j	7120 <.L748>
    1ad4:	00a15c03          	lhu	s8,10(sp)
    1ad8:	0dd00c93          	li	s9,221
    1adc:	ff7c0c13          	addi	s8,s8,-9
    1ae0:	01811523          	sh	s8,10(sp)
    1ae4:	00dcc463          	blt	s9,a3,1aec <.L718+0x38>
    1ae8:	6980306f          	j	5180 <.L749>
    1aec:	25b00c13          	li	s8,603
    1af0:	00ec5463          	bge	s8,a4,1af8 <.L750>
    1af4:	3980306f          	j	4e8c <.L772>

00001af8 <.L750>:
    1af8:	03d00c13          	li	s8,61
    1afc:	00fc4463          	blt	s8,a5,1b04 <.L750+0xc>
    1b00:	5a00806f          	j	a0a0 <.L753>
    1b04:	00c15c03          	lhu	s8,12(sp)
    1b08:	03e00c93          	li	s9,62
    1b0c:	ffcc0c13          	addi	s8,s8,-4
    1b10:	01811623          	sh	s8,12(sp)
    1b14:	01978463          	beq	a5,s9,1b1c <.L754>
    1b18:	38c0306f          	j	4ea4 <.L752>

00001b1c <.L754>:
    1b1c:	03800c13          	li	s8,56
    1b20:	00ec4463          	blt	s8,a4,1b28 <.L751>
    1b24:	2b00306f          	j	4dd4 <.L769>

00001b28 <.L751>:
    1b28:	c3900c13          	li	s8,-967
    1b2c:	0185c463          	blt	a1,s8,1b34 <.L751+0xc>
    1b30:	4400706f          	j	8f70 <.L767>
    1b34:	00e15c03          	lhu	s8,14(sp)
    1b38:	008c0c13          	addi	s8,s8,8
    1b3c:	010c1c13          	slli	s8,s8,0x10
    1b40:	410c5c13          	srai	s8,s8,0x10

00001b44 <.L779>:
    1b44:	01811723          	sh	s8,14(sp)
    1b48:	ffe00c13          	li	s8,-2
    1b4c:	01885463          	bge	a6,s8,1b54 <.L786>
    1b50:	2a40306f          	j	4df4 <.L783>

00001b54 <.L786>:
    1b54:	0ba00c13          	li	s8,186
    1b58:	012c5463          	bge	s8,s2,1b60 <.L786+0xc>
    1b5c:	3740306f          	j	4ed0 <.L777>
    1b60:	03800c13          	li	s8,56
    1b64:	b8fc4a63          	blt	s8,a5,ef8 <.L784>

00001b68 <.L792>:
    1b68:	00815c03          	lhu	s8,8(sp)
    1b6c:	ffdc0c13          	addi	s8,s8,-3
    1b70:	010c1c13          	slli	s8,s8,0x10
    1b74:	410c5c13          	srai	s8,s8,0x10
    1b78:	01811423          	sh	s8,8(sp)
    1b7c:	03300c13          	li	s8,51
    1b80:	b9fc4a63          	blt	s8,t6,f14 <.L794>

00001b84 <.L788>:
    1b84:	fe200c13          	li	s8,-30
    1b88:	01864463          	blt	a2,s8,1b90 <.L788+0xc>
    1b8c:	6000506f          	j	718c <.L795>
    1b90:	e3d00c13          	li	s8,-451
    1b94:	01844463          	blt	s0,s8,1b9c <.L788+0x18>
    1b98:	4e40806f          	j	a07c <.L796>
    1b9c:	00a15c03          	lhu	s8,10(sp)
    1ba0:	ff8c0c13          	addi	s8,s8,-8
    1ba4:	010c1c13          	slli	s8,s8,0x10
    1ba8:	010c5c13          	srli	s8,s8,0x10
    1bac:	01811523          	sh	s8,10(sp)

00001bb0 <.L797>:
    1bb0:	01000c13          	li	s8,16
    1bb4:	01dc5463          	bge	s8,t4,1bbc <.L797+0xc>
    1bb8:	5690606f          	j	8920 <.L808>
    1bbc:	00100c13          	li	s8,1
    1bc0:	01cc4463          	blt	s8,t3,1bc8 <.L797+0x18>
    1bc4:	7780906f          	j	b33c <.L2784>
    1bc8:	00c15c03          	lhu	s8,12(sp)
    1bcc:	009c0c13          	addi	s8,s8,9
    1bd0:	010c1c13          	slli	s8,s8,0x10
    1bd4:	410c5c13          	srai	s8,s8,0x10

00001bd8 <.L810>:
    1bd8:	01811623          	sh	s8,12(sp)
    1bdc:	03e00c13          	li	s8,62
    1be0:	00fc4463          	blt	s8,a5,1be8 <.L810+0x10>
    1be4:	5740306f          	j	5158 <.L816>
    1be8:	fec00c13          	li	s8,-20
    1bec:	b7865663          	bge	a2,s8,f58 <.L817>
    1bf0:	00e15c03          	lhu	s8,14(sp)
    1bf4:	ffec0c13          	addi	s8,s8,-2
    1bf8:	010c1c13          	slli	s8,s8,0x10
    1bfc:	410c5c13          	srai	s8,s8,0x10
    1c00:	01811723          	sh	s8,14(sp)
    1c04:	01f00c13          	li	s8,31
    1c08:	b73c5663          	bge	s8,s3,f74 <.L2785>

00001c0c <.L822>:
    1c0c:	00500c13          	li	s8,5
    1c10:	b91c5263          	bge	s8,a7,f94 <.L825>
    1c14:	00815c03          	lhu	s8,8(sp)
    1c18:	ff7c0c13          	addi	s8,s8,-9
    1c1c:	01811423          	sh	s8,8(sp)
    1c20:	1ac00c13          	li	s8,428
    1c24:	b76c5c63          	bge	s8,s6,f9c <.L2786>

00001c28 <.L826>:
    1c28:	0a500c13          	li	s8,165
    1c2c:	00ec5463          	bge	s8,a4,1c34 <.L826+0xc>
    1c30:	56c0406f          	j	619c <.L834>
    1c34:	1ff00c13          	li	s8,511
    1c38:	009c5463          	bge	s8,s1,1c40 <.L826+0x18>
    1c3c:	23d0806f          	j	a678 <.L835>
    1c40:	00a15c03          	lhu	s8,10(sp)
    1c44:	006c0c13          	addi	s8,s8,6
    1c48:	010c1c13          	slli	s8,s8,0x10
    1c4c:	410c5c13          	srai	s8,s8,0x10
    1c50:	01811523          	sh	s8,10(sp)
    1c54:	27a00c13          	li	s8,634
    1c58:	b6dc5c63          	bge	s8,a3,fd0 <.L2787>

00001c5c <.L837>:
    1c5c:	ff700c13          	li	s8,-9
    1c60:	01864463          	blt	a2,s8,1c68 <.L837+0xc>
    1c64:	50d0306f          	j	5970 <.L831>
    1c68:	0e600c13          	li	s8,230
    1c6c:	009c5463          	bge	s8,s1,1c74 <.L837+0x18>
    1c70:	37d0806f          	j	a7ec <.L843>
    1c74:	00c15c03          	lhu	s8,12(sp)
    1c78:	d2a00c93          	li	s9,-726
    1c7c:	ffcc0c13          	addi	s8,s8,-4
    1c80:	01811623          	sh	s8,12(sp)
    1c84:	0195d463          	bge	a1,s9,1c8c <.L2593>
    1c88:	03c0506f          	j	6cc4 <.L844>

00001c8c <.L2593>:
    1c8c:	eea00c13          	li	s8,-278
    1c90:	018a4463          	blt	s4,s8,1c98 <.L852>
    1c94:	04c0506f          	j	6ce0 <.L845>

00001c98 <.L852>:
    1c98:	00e15c03          	lhu	s8,14(sp)
    1c9c:	ff8c0c13          	addi	s8,s8,-8
    1ca0:	01811723          	sh	s8,14(sp)
    1ca4:	0a900c13          	li	s8,169
    1ca8:	b7ec4863          	blt	s8,t5,1018 <.L2788>

00001cac <.L860>:
    1cac:	fff00c13          	li	s8,-1
    1cb0:	018e5463          	bge	t3,s8,1cb8 <.L860+0xc>
    1cb4:	7400406f          	j	63f4 <.L2789>
    1cb8:	09e00c13          	li	s8,158
    1cbc:	b92c4063          	blt	s8,s2,103c <.L859>
    1cc0:	00815c03          	lhu	s8,8(sp)
    1cc4:	008c0c13          	addi	s8,s8,8
    1cc8:	01811423          	sh	s8,8(sp)
    1ccc:	0b500c13          	li	s8,181
    1cd0:	b66c5a63          	bge	s8,t1,1044 <.L2790>

00001cd4 <.L865>:
    1cd4:	f5700c13          	li	s8,-169
    1cd8:	0185c463          	blt	a1,s8,1ce0 <.L865+0xc>
    1cdc:	7f40406f          	j	64d0 <.L876>
    1ce0:	ff100c13          	li	s8,-15
    1ce4:	01864463          	blt	a2,s8,1cec <.L865+0x18>
    1ce8:	2450706f          	j	972c <.L877>
    1cec:	00a15c03          	lhu	s8,10(sp)
    1cf0:	fffc0c13          	addi	s8,s8,-1
    1cf4:	01811523          	sh	s8,10(sp)

00001cf8 <.L878>:
    1cf8:	17000c13          	li	s8,368
    1cfc:	00dc4463          	blt	s8,a3,1d04 <.L880>
    1d00:	01c0706f          	j	8d1c <.L885>

00001d04 <.L880>:
    1d04:	2ba00c13          	li	s8,698
    1d08:	00ec5463          	bge	s8,a4,1d10 <.L880+0xc>
    1d0c:	7850706f          	j	9c90 <.L887>
    1d10:	00c15c03          	lhu	s8,12(sp)
    1d14:	02f00c93          	li	s9,47
    1d18:	006c0c13          	addi	s8,s8,6
    1d1c:	01811623          	sh	s8,12(sp)
    1d20:	b70cde63          	bge	s9,a6,109c <.L888>

00001d24 <.L889>:
    1d24:	e0400c13          	li	s8,-508
    1d28:	0182c463          	blt	t0,s8,1d30 <.L889+0xc>
    1d2c:	7ec0406f          	j	6518 <.L903>
    1d30:	00e15c03          	lhu	s8,14(sp)
    1d34:	ffdc0c13          	addi	s8,s8,-3
    1d38:	010c1c13          	slli	s8,s8,0x10
    1d3c:	410c5c13          	srai	s8,s8,0x10
    1d40:	01811723          	sh	s8,14(sp)
    1d44:	ec600c13          	li	s8,-314
    1d48:	b7845e63          	bge	s0,s8,10c4 <.L2791>

00001d4c <.L904>:
    1d4c:	01c51c83          	lh	s9,28(a0)
    1d50:	02600c13          	li	s8,38
    1d54:	019c5463          	bge	s8,s9,1d5c <.L904+0x10>
    1d58:	3140606f          	j	806c <.L2792>
    1d5c:	e9900c13          	li	s8,-359
    1d60:	b982d463          	bge	t0,s8,10e8 <.L906>

00001d64 <.L907>:
    1d64:	00815c03          	lhu	s8,8(sp)
    1d68:	ff7c0c13          	addi	s8,s8,-9
    1d6c:	01811423          	sh	s8,8(sp)
    1d70:	03400c13          	li	s8,52
    1d74:	b7dc5e63          	bge	s8,t4,10f0 <.L2793>

00001d78 <.L909>:
    1d78:	1db00c13          	li	s8,475
    1d7c:	016c5463          	bge	s8,s6,1d84 <.L909+0xc>
    1d80:	5540306f          	j	52d4 <.L916>
    1d84:	ff400c13          	li	s8,-12
    1d88:	01864463          	blt	a2,s8,1d90 <.L909+0x18>
    1d8c:	74d0806f          	j	acd8 <.L917>
    1d90:	00a15c03          	lhu	s8,10(sp)
    1d94:	03300c93          	li	s9,51
    1d98:	ffec0c13          	addi	s8,s8,-2
    1d9c:	01811523          	sh	s8,10(sp)
    1da0:	00fcc463          	blt	s9,a5,1da8 <.L918>
    1da4:	5540306f          	j	52f8 <.L923>

00001da8 <.L918>:
    1da8:	d7800c13          	li	s8,-648
    1dac:	018a5463          	bge	s4,s8,1db4 <.L920>
    1db0:	3a10506f          	j	7950 <.L927>

00001db4 <.L920>:
    1db4:	00c15c03          	lhu	s8,12(sp)
    1db8:	ffbc0c13          	addi	s8,s8,-5
    1dbc:	010c1c13          	slli	s8,s8,0x10
    1dc0:	410c5c13          	srai	s8,s8,0x10

00001dc4 <.L931>:
    1dc4:	01811623          	sh	s8,12(sp)
    1dc8:	03900c13          	li	s8,57
    1dcc:	00fc4463          	blt	s8,a5,1dd4 <.L941>
    1dd0:	5400306f          	j	5310 <.L928>

00001dd4 <.L941>:
    1dd4:	e4a00c13          	li	s8,-438
    1dd8:	0182d463          	bge	t0,s8,1de0 <.L941+0xc>
    1ddc:	79d0606f          	j	8d78 <.L943>
    1de0:	02200c13          	li	s8,34
    1de4:	b90c5663          	bge	s8,a6,1170 <.L940>
    1de8:	00e15c03          	lhu	s8,14(sp)
    1dec:	008c0c13          	addi	s8,s8,8
    1df0:	01811723          	sh	s8,14(sp)
    1df4:	00c00c13          	li	s8,12
    1df8:	b93c5063          	bge	s8,s3,1178 <.L2794>

00001dfc <.L935>:
    1dfc:	01c51c83          	lh	s9,28(a0)
    1e00:	03500c13          	li	s8,53
    1e04:	019c5463          	bge	s8,s9,1e0c <.L935+0x10>
    1e08:	12c0506f          	j	6f34 <.L953>
    1e0c:	ffa00c13          	li	s8,-6
    1e10:	01894463          	blt	s2,s8,1e18 <.L935+0x1c>
    1e14:	7ac0706f          	j	95c0 <.L954>
    1e18:	00815c03          	lhu	s8,8(sp)
    1e1c:	004c0c13          	addi	s8,s8,4
    1e20:	010c1c13          	slli	s8,s8,0x10
    1e24:	410c5c13          	srai	s8,s8,0x10

00001e28 <.L948>:
    1e28:	01811423          	sh	s8,8(sp)
    1e2c:	03300c13          	li	s8,51
    1e30:	01fc4463          	blt	s8,t6,1e38 <.L948+0x10>
    1e34:	09d0206f          	j	46d0 <.L956>
    1e38:	01b00c13          	li	s8,27
    1e3c:	b6ec4663          	blt	s8,a4,11a8 <.L949>
    1e40:	fcd00c13          	li	s8,-51
    1e44:	0186c463          	blt	a3,s8,1e4c <.L948+0x24>
    1e48:	0340706f          	j	8e7c <.L971>
    1e4c:	00a15c03          	lhu	s8,10(sp)
    1e50:	006c0c13          	addi	s8,s8,6
    1e54:	01811523          	sh	s8,10(sp)
    1e58:	01300c13          	li	s8,19
    1e5c:	b91c5063          	bge	s8,a7,11dc <.L2795>

00001e60 <.L974>:
    1e60:	d8400c13          	li	s8,-636
    1e64:	0182c463          	blt	t0,s8,1e6c <.L974+0xc>
    1e68:	29d0806f          	j	a904 <.L980>
    1e6c:	00c15c03          	lhu	s8,12(sp)
    1e70:	002c0c13          	addi	s8,s8,2
    1e74:	010c1c13          	slli	s8,s8,0x10
    1e78:	410c5c13          	srai	s8,s8,0x10

00001e7c <.L979>:
    1e7c:	01811623          	sh	s8,12(sp)
    1e80:	cf000c13          	li	s8,-784
    1e84:	0185d463          	bge	a1,s8,1e8c <.L976>
    1e88:	0910206f          	j	4718 <.L962>

00001e8c <.L976>:
    1e8c:	0de00c13          	li	s8,222
    1e90:	012c5463          	bge	s8,s2,1e98 <.L976+0xc>
    1e94:	6a90406f          	j	6d3c <.L984>
    1e98:	02600c13          	li	s8,38
    1e9c:	00dc5463          	bge	s8,a3,1ea4 <.L976+0x18>
    1ea0:	1090206f          	j	47a8 <.L988>
    1ea4:	fa300c13          	li	s8,-93
    1ea8:	0182d463          	bge	t0,s8,1eb0 <.L994>
    1eac:	73d0306f          	j	5de8 <.L985>

00001eb0 <.L994>:
    1eb0:	efb00c13          	li	s8,-261
    1eb4:	0185d463          	bge	a1,s8,1ebc <.L994+0xc>
    1eb8:	09d0206f          	j	4754 <.L990>
    1ebc:	00815c03          	lhu	s8,8(sp)
    1ec0:	00ac0c13          	addi	s8,s8,10
    1ec4:	01811423          	sh	s8,8(sp)
    1ec8:	1ac00c13          	li	s8,428
    1ecc:	b76c5263          	bge	s8,s6,1230 <.L2796>

00001ed0 <.L1004>:
    1ed0:	0a500c13          	li	s8,165
    1ed4:	00ec5463          	bge	s8,a4,1edc <.L1004+0xc>
    1ed8:	5cc0506f          	j	74a4 <.L1010>
    1edc:	1ff00c13          	li	s8,511
    1ee0:	009c4463          	blt	s8,s1,1ee8 <.L1004+0x18>
    1ee4:	16d0506f          	j	7850 <.L1012>
    1ee8:	00a15c03          	lhu	s8,10(sp)
    1eec:	ffac0c13          	addi	s8,s8,-6
    1ef0:	010c1c13          	slli	s8,s8,0x10
    1ef4:	410c5c13          	srai	s8,s8,0x10
    1ef8:	01811523          	sh	s8,10(sp)
    1efc:	03d00c13          	li	s8,61
    1f00:	b6fc5263          	bge	s8,a5,1264 <.L1013>

00001f04 <.L1017>:
    1f04:	d9500c13          	li	s8,-619
    1f08:	018ad463          	bge	s5,s8,1f10 <.L1017+0xc>
    1f0c:	5b80506f          	j	74c4 <.L1024>
    1f10:	55900c13          	li	s8,1369
    1f14:	00dc5463          	bge	s8,a3,1f1c <.L1017+0x18>
    1f18:	2180806f          	j	a130 <.L1025>
    1f1c:	00c15c03          	lhu	s8,12(sp)
    1f20:	ff7c0c13          	addi	s8,s8,-9
    1f24:	01811623          	sh	s8,12(sp)

00001f28 <.L1014>:
    1f28:	11a00c13          	li	s8,282
    1f2c:	007c5463          	bge	s8,t2,1f34 <.L1014+0xc>
    1f30:	4600406f          	j	6390 <.L1030>
    1f34:	0db00c13          	li	s8,219
    1f38:	00ec5463          	bge	s8,a4,1f40 <.L1014+0x18>
    1f3c:	1990706f          	j	98d4 <.L1031>
    1f40:	00e15c03          	lhu	s8,14(sp)
    1f44:	01f00c93          	li	s9,31
    1f48:	005c0c13          	addi	s8,s8,5
    1f4c:	01811723          	sh	s8,14(sp)
    1f50:	013cc463          	blt	s9,s3,1f58 <.L1014+0x30>
    1f54:	32c0306f          	j	5280 <.L1038>
    1f58:	00600c13          	li	s8,6
    1f5c:	b71c4e63          	blt	s8,a7,12d8 <.L1046>
    1f60:	03100c13          	li	s8,49
    1f64:	b9fc5c63          	bge	s8,t6,12fc <.L1052>
    1f68:	01400c13          	li	s8,20
    1f6c:	010c4463          	blt	s8,a6,1f74 <.L1054>
    1f70:	3440306f          	j	52b4 <.L2260>

00001f74 <.L1054>:
    1f74:	00a15c03          	lhu	s8,10(sp)
    1f78:	003c0c13          	addi	s8,s8,3
    1f7c:	010c1c13          	slli	s8,s8,0x10
    1f80:	410c5c13          	srai	s8,s8,0x10
    1f84:	01811523          	sh	s8,10(sp)
    1f88:	0c100c13          	li	s8,193
    1f8c:	b89c5c63          	bge	s8,s1,1324 <.L2797>

00001f90 <.L1056>:
    1f90:	f6900c13          	li	s8,-151
    1f94:	0185c463          	blt	a1,s8,1f9c <.L1056+0xc>
    1f98:	2340406f          	j	61cc <.L1075>
    1f9c:	11400c13          	li	s8,276
    1fa0:	00dc5463          	bge	s8,a3,1fa8 <.L1056+0x18>
    1fa4:	1340706f          	j	90d8 <.L1076>
    1fa8:	00c15c03          	lhu	s8,12(sp)
    1fac:	ffdc0c13          	addi	s8,s8,-3
    1fb0:	010c1c13          	slli	s8,s8,0x10
    1fb4:	410c5c13          	srai	s8,s8,0x10

00001fb8 <.L1074>:
    1fb8:	01811623          	sh	s8,12(sp)
    1fbc:	02f00c13          	li	s8,47
    1fc0:	010c5463          	bge	s8,a6,1fc8 <.L1074+0x10>
    1fc4:	09d0306f          	j	5860 <.L1082>
    1fc8:	03800c13          	li	s8,56
    1fcc:	01fc5463          	bge	s8,t6,1fd4 <.L1074+0x1c>
    1fd0:	12c0706f          	j	90fc <.L1078>
    1fd4:	08d00c13          	li	s8,141
    1fd8:	00dc5463          	bge	s8,a3,1fe0 <.L1074+0x28>
    1fdc:	0a10806f          	j	a87c <.L1067>
    1fe0:	00e15c03          	lhu	s8,14(sp)
    1fe4:	ffe00c93          	li	s9,-2
    1fe8:	004c0c13          	addi	s8,s8,4
    1fec:	01811723          	sh	s8,14(sp)
    1ff0:	01985463          	bge	a6,s9,1ff8 <.L1080>
    1ff4:	5d40106f          	j	35c8 <.L1064>

00001ff8 <.L1080>:
    1ff8:	03c00c13          	li	s8,60
    1ffc:	b6fc5263          	bge	s8,a5,1360 <.L1062>

00002000 <.L1089>:
    2000:	01c51c83          	lh	s9,28(a0)
    2004:	01e00c13          	li	s8,30
    2008:	019c5463          	bge	s8,s9,2010 <.L1089+0x10>
    200c:	0490706f          	j	9854 <.L1094>
    2010:	00815c03          	lhu	s8,8(sp)
    2014:	ff9c0c13          	addi	s8,s8,-7
    2018:	010c1c13          	slli	s8,s8,0x10
    201c:	410c5c13          	srai	s8,s8,0x10
    2020:	01811423          	sh	s8,8(sp)
    2024:	30000c13          	li	s8,768
    2028:	b7ec5063          	bge	s8,t5,1388 <.L1085>

0000202c <.L1095>:
    202c:	03d00c13          	li	s8,61
    2030:	01fc4463          	blt	s8,t6,2038 <.L1095+0xc>
    2034:	5b80106f          	j	35ec <.L1086>
    2038:	ff300c13          	li	s8,-13
    203c:	01864463          	blt	a2,s8,2044 <.L1095+0x18>
    2040:	5810706f          	j	9dc0 <.L1106>
    2044:	00a15c03          	lhu	s8,10(sp)
    2048:	04900c93          	li	s9,73
    204c:	ff5c0c13          	addi	s8,s8,-11
    2050:	01811523          	sh	s8,10(sp)
    2054:	011cd463          	bge	s9,a7,205c <.L1104>
    2058:	3500306f          	j	53a8 <.L1105>

0000205c <.L1104>:
    205c:	02000c13          	li	s8,32
    2060:	01dc5463          	bge	s8,t4,2068 <.L1102>
    2064:	6110506f          	j	7e74 <.L1103>

00002068 <.L1102>:
    2068:	00c15c03          	lhu	s8,12(sp)
    206c:	004c0c13          	addi	s8,s8,4
    2070:	01811623          	sh	s8,12(sp)
    2074:	e4a00c13          	li	s8,-438
    2078:	b782c263          	blt	t0,s8,13dc <.L2798>

0000207c <.L1112>:
    207c:	00300c13          	li	s8,3
    2080:	01cc5463          	bge	s8,t3,2088 <.L1112+0xc>
    2084:	4a00306f          	j	5524 <.L1121>
    2088:	f0e00c13          	li	s8,-242
    208c:	0182c463          	blt	t0,s8,2094 <.L1112+0x18>
    2090:	4ac0306f          	j	553c <.L1122>
    2094:	00e15c03          	lhu	s8,14(sp)
    2098:	01500c93          	li	s9,21
    209c:	ff6c0c13          	addi	s8,s8,-10
    20a0:	01811723          	sh	s8,14(sp)
    20a4:	b67cc263          	blt	s9,t2,1408 <.L2602>

000020a8 <.L1118>:
    20a8:	0ac00c13          	li	s8,172
    20ac:	006c5463          	bge	s8,t1,20b4 <.L1118+0xc>
    20b0:	4c00306f          	j	5570 <.L1119>
    20b4:	ffe00c13          	li	s8,-2
    20b8:	01864463          	blt	a2,s8,20c0 <.L1118+0x18>
    20bc:	1910506f          	j	7a4c <.L1126>
    20c0:	00815c03          	lhu	s8,8(sp)
    20c4:	009c0c13          	addi	s8,s8,9
    20c8:	010c1c13          	slli	s8,s8,0x10
    20cc:	410c5c13          	srai	s8,s8,0x10
    20d0:	01811423          	sh	s8,8(sp)
    20d4:	03300c13          	li	s8,51
    20d8:	b7fc5263          	bge	s8,t6,143c <.L2799>

000020dc <.L1129>:
    20dc:	01400c13          	li	s8,20
    20e0:	010c5463          	bge	s8,a6,20e8 <.L1129+0xc>
    20e4:	3c00606f          	j	84a4 <.L1135>
    20e8:	01300c13          	li	s8,19
    20ec:	00ec5463          	bge	s8,a4,20f4 <.L1129+0x18>
    20f0:	46d0706f          	j	9d5c <.L1136>
    20f4:	00a15c03          	lhu	s8,10(sp)
    20f8:	ffcc0c13          	addi	s8,s8,-4
    20fc:	010c1c13          	slli	s8,s8,0x10
    2100:	410c5c13          	srai	s8,s8,0x10
    2104:	01811523          	sh	s8,10(sp)
    2108:	00100c13          	li	s8,1
    210c:	b7cc4263          	blt	s8,t3,1470 <.L1138>

00002110 <.L2767>:
    2110:	e4e00c13          	li	s8,-434
    2114:	0185c463          	blt	a1,s8,211c <.L2767+0xc>
    2118:	6b90606f          	j	8fd0 <.L1139>
    211c:	00c15c03          	lhu	s8,12(sp)
    2120:	003c0c13          	addi	s8,s8,3
    2124:	010c1c13          	slli	s8,s8,0x10
    2128:	410c5c13          	srai	s8,s8,0x10
    212c:	01811623          	sh	s8,12(sp)
    2130:	03e00c13          	li	s8,62
    2134:	b6fc5863          	bge	s8,a5,14a4 <.L2800>

00002138 <.L1145>:
    2138:	fec00c13          	li	s8,-20
    213c:	01864463          	blt	a2,s8,2144 <.L1145+0xc>
    2140:	2150606f          	j	8b54 <.L1150>
    2144:	00e15c03          	lhu	s8,14(sp)
    2148:	01f00c93          	li	s9,31
    214c:	ffdc0c13          	addi	s8,s8,-3
    2150:	01811723          	sh	s8,14(sp)
    2154:	013cd463          	bge	s9,s3,215c <.L1145+0x24>
    2158:	7100206f          	j	4868 <.L1152>
    215c:	e2100c13          	li	s8,-479
    2160:	0182c463          	blt	t0,s8,2168 <.L1145+0x30>
    2164:	0c90106f          	j	3a2c <.L1160>
    2168:	00815c03          	lhu	s8,8(sp)
    216c:	1b900c93          	li	s9,441
    2170:	ff7c0c13          	addi	s8,s8,-9
    2174:	01811423          	sh	s8,8(sp)
    2178:	01ecc463          	blt	s9,t5,2180 <.L1162>
    217c:	0c90106f          	j	3a44 <.L1161>

00002180 <.L1162>:
    2180:	03200c13          	li	s8,50
    2184:	01dc5463          	bge	s8,t4,218c <.L1162+0xc>
    2188:	0780706f          	j	9200 <.L1178>
    218c:	ff200c13          	li	s8,-14
    2190:	01864463          	blt	a2,s8,2198 <.L1162+0x18>
    2194:	3540906f          	j	b4e8 <.L1179>
    2198:	00a15c03          	lhu	s8,10(sp)
    219c:	03c00c93          	li	s9,60
    21a0:	ff7c0c13          	addi	s8,s8,-9
    21a4:	01811523          	sh	s8,10(sp)
    21a8:	b8fcd463          	bge	s9,a5,1530 <.L1174>

000021ac <.L1171>:
    21ac:	daa00c13          	li	s8,-598
    21b0:	018ad463          	bge	s5,s8,21b8 <.L1171+0xc>
    21b4:	3200506f          	j	74d4 <.L1187>
    21b8:	00b00c13          	li	s8,11
    21bc:	01dc5463          	bge	s8,t4,21c4 <.L1171+0x18>
    21c0:	0700706f          	j	9230 <.L1184>
    21c4:	00c15c03          	lhu	s8,12(sp)
    21c8:	004c0c13          	addi	s8,s8,4
    21cc:	010c1c13          	slli	s8,s8,0x10
    21d0:	410c5c13          	srai	s8,s8,0x10

000021d4 <.L1189>:
    21d4:	01811623          	sh	s8,12(sp)
    21d8:	0d800c13          	li	s8,216
    21dc:	b92c4463          	blt	s8,s2,1564 <.L1195>

000021e0 <.L2769>:
    21e0:	cf000c13          	li	s8,-784
    21e4:	0185c463          	blt	a1,s8,21ec <.L2769+0xc>
    21e8:	3180606f          	j	8500 <.L1194>
    21ec:	e1800c13          	li	s8,-488
    21f0:	018a4463          	blt	s4,s8,21f8 <.L2769+0x18>
    21f4:	4010706f          	j	9df4 <.L1198>
    21f8:	00e15c03          	lhu	s8,14(sp)
    21fc:	fffc0c13          	addi	s8,s8,-1
    2200:	010c1c13          	slli	s8,s8,0x10
    2204:	010c5c13          	srli	s8,s8,0x10

00002208 <.L1199>:
    2208:	01811723          	sh	s8,14(sp)

0000220c <.L1201>:
    220c:	00400c13          	li	s8,4
    2210:	011c4463          	blt	s8,a7,2218 <.L1201+0xc>
    2214:	4f10206f          	j	4f04 <.L1209>
    2218:	00e00c13          	li	s8,14
    221c:	01dc5463          	bge	s8,t4,2224 <.L1201+0x18>
    2220:	0890506f          	j	7aa8 <.L1217>
    2224:	00094463          	bltz	s2,222c <.L1201+0x20>
    2228:	7850106f          	j	41ac <.L1218>
    222c:	00815c03          	lhu	s8,8(sp)
    2230:	008c0c13          	addi	s8,s8,8
    2234:	01811423          	sh	s8,8(sp)

00002238 <.L1210>:
    2238:	03500c13          	li	s8,53
    223c:	b6ec5e63          	bge	s8,a4,15b8 <.L1215>
    2240:	0e100c13          	li	s8,225
    2244:	00dc5463          	bge	s8,a3,224c <.L1220>
    2248:	56d0606f          	j	8fb4 <.L1223>

0000224c <.L1220>:
    224c:	03200c13          	li	s8,50
    2250:	01fc5463          	bge	s8,t6,2258 <.L2693>
    2254:	70c0606f          	j	8960 <.L1222>

00002258 <.L2693>:
    2258:	00a15c03          	lhu	s8,10(sp)
    225c:	0c100c93          	li	s9,193
    2260:	ff7c0c13          	addi	s8,s8,-9
    2264:	01811523          	sh	s8,10(sp)
    2268:	b69cdc63          	bge	s9,s1,15e0 <.L1228>

0000226c <.L2608>:
    226c:	f6900c13          	li	s8,-151
    2270:	0185c463          	blt	a1,s8,2278 <.L1230>
    2274:	7800506f          	j	79f4 <.L1235>

00002278 <.L1230>:
    2278:	00c15c03          	lhu	s8,12(sp)
    227c:	fffc0c13          	addi	s8,s8,-1
    2280:	010c1c13          	slli	s8,s8,0x10
    2284:	410c5c13          	srai	s8,s8,0x10

00002288 <.L1240>:
    2288:	01811623          	sh	s8,12(sp)
    228c:	03600c13          	li	s8,54
    2290:	b8fc4263          	blt	s8,a5,1614 <.L1244>

00002294 <.L2770>:
    2294:	04c00c13          	li	s8,76
    2298:	016c5463          	bge	s8,s6,22a0 <.L2770+0xc>
    229c:	05d0606f          	j	8af8 <.L1245>
    22a0:	00e15c03          	lhu	s8,14(sp)
    22a4:	01500c93          	li	s9,21
    22a8:	002c0c13          	addi	s8,s8,2
    22ac:	01811723          	sh	s8,14(sp)
    22b0:	007cc463          	blt	s9,t2,22b8 <.L2770+0x24>
    22b4:	3440206f          	j	45f8 <.L1254>
    22b8:	11d00c13          	li	s8,285
    22bc:	007c5463          	bge	s8,t2,22c4 <.L2770+0x30>
    22c0:	2410706f          	j	9d00 <.L1249>
    22c4:	00815c03          	lhu	s8,8(sp)
    22c8:	08c00c93          	li	s9,140
    22cc:	ffdc0c13          	addi	s8,s8,-3
    22d0:	01811423          	sh	s8,8(sp)
    22d4:	006cd463          	bge	s9,t1,22dc <.L1250>
    22d8:	4900806f          	j	a768 <.L2801>

000022dc <.L1250>:
    22dc:	00900c13          	li	s8,9
    22e0:	011c5463          	bge	s8,a7,22e8 <.L1250+0xc>
    22e4:	2590506f          	j	7d3c <.L2802>
    22e8:	01dc5463          	bge	s8,t4,22f0 <.L1250+0x14>
    22ec:	2390306f          	j	5d24 <.L1278>
    22f0:	00a15c03          	lhu	s8,10(sp)
    22f4:	03300c93          	li	s9,51
    22f8:	ffac0c13          	addi	s8,s8,-6
    22fc:	01811523          	sh	s8,10(sp)
    2300:	00fcc463          	blt	s9,a5,2308 <.L1279>
    2304:	1fd0506f          	j	7d00 <.L2611>

00002308 <.L1279>:
    2308:	04700c13          	li	s8,71
    230c:	ba7c5263          	bge	s8,t2,16b0 <.L1266>

00002310 <.L1289>:
    2310:	00c15c03          	lhu	s8,12(sp)
    2314:	003c0c13          	addi	s8,s8,3
    2318:	010c1c13          	slli	s8,s8,0x10
    231c:	410c5c13          	srai	s8,s8,0x10

00002320 <.L1281>:
    2320:	01811623          	sh	s8,12(sp)
    2324:	03c00c13          	li	s8,60
    2328:	00fc4463          	blt	s8,a5,2330 <.L1281+0x10>
    232c:	3540206f          	j	4680 <.L1292>
    2330:	0d400c13          	li	s8,212
    2334:	00ec5463          	bge	s8,a4,233c <.L1281+0x1c>
    2338:	30d0606f          	j	8e44 <.L1307>
    233c:	0a100c13          	li	s8,161
    2340:	ba7c5063          	bge	s8,t2,16e0 <.L1310>
    2344:	ffe00c13          	li	s8,-2
    2348:	bb884663          	blt	a6,s8,16f4 <.L1300>

0000234c <.L1321>:
    234c:	ec700c13          	li	s8,-313
    2350:	01844463          	blt	s0,s8,2358 <.L2940>
    2354:	3150606f          	j	8e68 <.L1333>

00002358 <.L2940>:
    2358:	00815c03          	lhu	s8,8(sp)
    235c:	fffc0c13          	addi	s8,s8,-1
    2360:	010c1c13          	slli	s8,s8,0x10
    2364:	410c5c13          	srai	s8,s8,0x10

00002368 <.L1332>:
    2368:	01811423          	sh	s8,8(sp)
    236c:	03400c13          	li	s8,52
    2370:	01dc4463          	blt	s8,t4,2378 <.L1332+0x10>
    2374:	3150106f          	j	3e88 <.L1329>
    2378:	1db00c13          	li	s8,475
    237c:	016c5463          	bge	s8,s6,2384 <.L1332+0x1c>
    2380:	2510506f          	j	7dd0 <.L1326>
    2384:	00800c13          	li	s8,8
    2388:	bb0c5063          	bge	s8,a6,1728 <.L1330>
    238c:	00a15c03          	lhu	s8,10(sp)
    2390:	02a00c93          	li	s9,42
    2394:	ff4c0c13          	addi	s8,s8,-12
    2398:	01811523          	sh	s8,10(sp)
    239c:	badcc063          	blt	s9,a3,173c <.L1328>

000023a0 <.L1327>:
    23a0:	fba00c13          	li	s8,-70
    23a4:	0185c463          	blt	a1,s8,23ac <.L1357>
    23a8:	6e50606f          	j	928c <.L1338>

000023ac <.L1357>:
    23ac:	00c15c03          	lhu	s8,12(sp)
    23b0:	ffbc0c13          	addi	s8,s8,-5
    23b4:	01811623          	sh	s8,12(sp)

000023b8 <.L1360>:
    23b8:	03600c13          	li	s8,54
    23bc:	00fc4463          	blt	s8,a5,23c4 <.L1356>
    23c0:	1e80306f          	j	55a8 <.L1341>

000023c4 <.L1356>:
    23c4:	ff600c13          	li	s8,-10
    23c8:	01865463          	bge	a2,s8,23d0 <.L1355>
    23cc:	31d0106f          	j	3ee8 <.L1342>

000023d0 <.L1355>:
    23d0:	eea00c13          	li	s8,-278
    23d4:	018a4463          	blt	s4,s8,23dc <.L1355+0xc>
    23d8:	3350806f          	j	af0c <.L1370>
    23dc:	00e15c03          	lhu	s8,14(sp)
    23e0:	ffdc0c13          	addi	s8,s8,-3
    23e4:	010c1c13          	slli	s8,s8,0x10
    23e8:	410c5c13          	srai	s8,s8,0x10

000023ec <.L1366>:
    23ec:	01811723          	sh	s8,14(sp)
    23f0:	fa300c13          	li	s8,-93
    23f4:	0182c463          	blt	t0,s8,23fc <.L2849>
    23f8:	31d0106f          	j	3f14 <.L1367>

000023fc <.L2849>:
    23fc:	fa100c13          	li	s8,-95
    2400:	0182c463          	blt	t0,s8,2408 <.L2849+0xc>
    2404:	28d0506f          	j	7e90 <.L1369>
    2408:	01c04463          	bgtz	t3,2410 <.L2849+0x14>
    240c:	7450806f          	j	b350 <.L2803>
    2410:	03900c13          	li	s8,57
    2414:	006c4463          	blt	s8,t1,241c <.L2849+0x20>
    2418:	3d80206f          	j	47f0 <.L1372>
    241c:	ff800c13          	li	s8,-8
    2420:	01864463          	blt	a2,s8,2428 <.L1373>
    2424:	1610906f          	j	bd84 <.L2804>

00002428 <.L1373>:
    2428:	01c51c83          	lh	s9,28(a0)
    242c:	01e00c13          	li	s8,30
    2430:	019c5463          	bge	s8,s9,2438 <.L1373+0x10>
    2434:	3680806f          	j	a79c <.L2805>
    2438:	00a15c03          	lhu	s8,10(sp)
    243c:	002c0c13          	addi	s8,s8,2
    2440:	010c1c13          	slli	s8,s8,0x10
    2444:	410c5c13          	srai	s8,s8,0x10

00002448 <.L1399>:
    2448:	01811523          	sh	s8,10(sp)
    244c:	00100c13          	li	s8,1
    2450:	01cc4463          	blt	s8,t3,2458 <.L1396>
    2454:	3e50306f          	j	6038 <.L1375>

00002458 <.L1396>:
    2458:	02000c13          	li	s8,32
    245c:	01dc4463          	blt	s8,t4,2464 <.L1402>
    2460:	09c0706f          	j	94fc <.L2806>

00002464 <.L1402>:
    2464:	34700c13          	li	s8,839
    2468:	00dc5463          	bge	s8,a3,2470 <.L1402+0xc>
    246c:	0540706f          	j	94c0 <.L1414>
    2470:	00c15c03          	lhu	s8,12(sp)
    2474:	03c00c93          	li	s9,60
    2478:	ff9c0c13          	addi	s8,s8,-7
    247c:	01811623          	sh	s8,12(sp)
    2480:	00fcd463          	bge	s9,a5,2488 <.L2626>
    2484:	3bc0206f          	j	4840 <.L1390>

00002488 <.L2626>:
    2488:	e4f00c13          	li	s8,-433
    248c:	018ac463          	blt	s5,s8,2494 <.L1391>
    2490:	0f40606f          	j	8584 <.L1416>

00002494 <.L1391>:
    2494:	c5a00c13          	li	s8,-934
    2498:	0185d463          	bge	a1,s8,24a0 <.L1391+0xc>
    249c:	0e80606f          	j	8584 <.L1416>
    24a0:	00e15c03          	lhu	s8,14(sp)
    24a4:	ff6c0c13          	addi	s8,s8,-10
    24a8:	01811723          	sh	s8,14(sp)

000024ac <.L1411>:
    24ac:	01f00c13          	li	s8,31
    24b0:	013c5463          	bge	s8,s3,24b8 <.L1408>
    24b4:	2e50106f          	j	3f98 <.L1422>

000024b8 <.L1408>:
    24b8:	03d00c13          	li	s8,61
    24bc:	01fc5463          	bge	s8,t6,24c4 <.L1408+0xc>
    24c0:	58d0406f          	j	724c <.L1423>
    24c4:	01c04863          	bgtz	t3,24d4 <.L1424>
    24c8:	00815c03          	lhu	s8,8(sp)
    24cc:	005c0c13          	addi	s8,s8,5
    24d0:	01811423          	sh	s8,8(sp)

000024d4 <.L1424>:
    24d4:	03300c13          	li	s8,51
    24d8:	01fc5463          	bge	s8,t6,24e0 <.L2850>
    24dc:	2e10106f          	j	3fbc <.L1426>

000024e0 <.L2850>:
    24e0:	1c600c93          	li	s9,454
    24e4:	00ecd463          	bge	s9,a4,24ec <.L2850+0xc>
    24e8:	5290406f          	j	7210 <.L1427>
    24ec:	018f9463          	bne	t6,s8,24f4 <.L2850+0x14>
    24f0:	0a40906f          	j	b594 <.L1428>
    24f4:	00a15c03          	lhu	s8,10(sp)
    24f8:	ff7c0c13          	addi	s8,s8,-9
    24fc:	01811523          	sh	s8,10(sp)

00002500 <.L1429>:
    2500:	f9800c13          	li	s8,-104
    2504:	01844463          	blt	s0,s8,250c <.L2851>
    2508:	2e50106f          	j	3fec <.L1433>

0000250c <.L2851>:
    250c:	0c700c13          	li	s8,199
    2510:	016c5463          	bge	s8,s6,2518 <.L2851+0xc>
    2514:	4e80606f          	j	89fc <.L1434>
    2518:	ea900c13          	li	s8,-343
    251c:	018a4863          	blt	s4,s8,252c <.L1435>
    2520:	00c15c03          	lhu	s8,12(sp)
    2524:	ff7c0c13          	addi	s8,s8,-9
    2528:	01811623          	sh	s8,12(sp)

0000252c <.L1435>:
    252c:	d2a00c13          	li	s8,-726
    2530:	0185c463          	blt	a1,s8,2538 <.L2852>
    2534:	2e90106f          	j	401c <.L1440>

00002538 <.L2852>:
    2538:	25d00c13          	li	s8,605
    253c:	009c5463          	bge	s8,s1,2544 <.L2852+0xc>
    2540:	62c0306f          	j	5b6c <.L1441>
    2544:	e2e00c13          	li	s8,-466
    2548:	0182d463          	bge	t0,s8,2550 <.L2852+0x18>
    254c:	3b00706f          	j	98fc <.L1442>
    2550:	00e15c03          	lhu	s8,14(sp)
    2554:	00400c93          	li	s9,4
    2558:	008c0c13          	addi	s8,s8,8
    255c:	01811723          	sh	s8,14(sp)
    2560:	011cd463          	bge	s9,a7,2568 <.L1445>
    2564:	6200306f          	j	5b84 <.L1444>

00002568 <.L1445>:
    2568:	03800c13          	li	s8,56
    256c:	01fc5463          	bge	s8,t6,2574 <.L1445+0xc>
    2570:	4790406f          	j	71e8 <.L1450>
    2574:	00815c03          	lhu	s8,8(sp)
    2578:	00bc0c13          	addi	s8,s8,11
    257c:	01811423          	sh	s8,8(sp)

00002580 <.L2737>:
    2580:	00c00c13          	li	s8,12
    2584:	01cc4463          	blt	s8,t3,258c <.L2737+0xc>
    2588:	6ad0606f          	j	9434 <.L1453>
    258c:	23200c13          	li	s8,562
    2590:	01ec5463          	bge	s8,t5,2598 <.L2737+0x18>
    2594:	4740806f          	j	aa08 <.L1454>
    2598:	00a15c03          	lhu	s8,10(sp)
    259c:	ff7c0c13          	addi	s8,s8,-9
    25a0:	01811523          	sh	s8,10(sp)

000025a4 <.L1455>:
    25a4:	02700c13          	li	s8,39
    25a8:	01dc5463          	bge	s8,t4,25b0 <.L1476>
    25ac:	2d90106f          	j	4084 <.L1477>

000025b0 <.L1476>:
    25b0:	15500c13          	li	s8,341
    25b4:	01ec5463          	bge	s8,t5,25bc <.L1476+0xc>
    25b8:	4680806f          	j	aa20 <.L1482>
    25bc:	00c15c03          	lhu	s8,12(sp)
    25c0:	ffec0c13          	addi	s8,s8,-2
    25c4:	01811623          	sh	s8,12(sp)

000025c8 <.L1487>:
    25c8:	0a000c13          	li	s8,160
    25cc:	009c5463          	bge	s8,s1,25d4 <.L2854>
    25d0:	2d90106f          	j	40a8 <.L1491>

000025d4 <.L2854>:
    25d4:	09b00c13          	li	s8,155
    25d8:	009c5463          	bge	s8,s1,25e0 <.L2854+0xc>
    25dc:	7f90406f          	j	75d4 <.L1492>
    25e0:	0a300c13          	li	s8,163
    25e4:	012c5463          	bge	s8,s2,25ec <.L2854+0x18>
    25e8:	28d0806f          	j	b074 <.L1493>
    25ec:	00e15c03          	lhu	s8,14(sp)
    25f0:	39000c93          	li	s9,912
    25f4:	ffcc0c13          	addi	s8,s8,-4
    25f8:	01811723          	sh	s8,14(sp)
    25fc:	006cc463          	blt	s9,t1,2604 <.L2854+0x30>
    2600:	75d0106f          	j	455c <.L1502>
    2604:	14e00c13          	li	s8,334
    2608:	00dc5463          	bge	s8,a3,2610 <.L1512>
    260c:	6a00906f          	j	bcac <.L2807>

00002610 <.L1512>:
    2610:	00900c13          	li	s8,9
    2614:	013c5463          	bge	s8,s3,261c <.L1512+0xc>
    2618:	01d0706f          	j	9e34 <.L1514>
    261c:	00815c03          	lhu	s8,8(sp)
    2620:	003c0c13          	addi	s8,s8,3
    2624:	01811423          	sh	s8,8(sp)

00002628 <.L1511>:
    2628:	00c00c13          	li	s8,12
    262c:	01cc4463          	blt	s8,t3,2634 <.L1505>
    2630:	42d0206f          	j	525c <.L1520>

00002634 <.L1505>:
    2634:	1dc00c13          	li	s8,476
    2638:	016c5463          	bge	s8,s6,2640 <.L1505+0xc>
    263c:	3780806f          	j	a9b4 <.L1525>
    2640:	00a15c03          	lhu	s8,10(sp)
    2644:	f9800c93          	li	s9,-104
    2648:	ff3c0c13          	addi	s8,s8,-13
    264c:	01811523          	sh	s8,10(sp)
    2650:	01944463          	blt	s0,s9,2658 <.L1506>
    2654:	74d0106f          	j	45a0 <.L1507>

00002658 <.L1506>:
    2658:	0c700c13          	li	s8,199
    265c:	016c4463          	blt	s8,s6,2664 <.L1521>
    2660:	7480606f          	j	8da8 <.L1528>

00002664 <.L1521>:
    2664:	00c15c03          	lhu	s8,12(sp)
    2668:	01800c93          	li	s9,24
    266c:	fffc0c13          	addi	s8,s8,-1
    2670:	01811623          	sh	s8,12(sp)
    2674:	010cc463          	blt	s9,a6,267c <.L1534>
    2678:	7590106f          	j	45d0 <.L1544>

0000267c <.L1534>:
    267c:	eee00c13          	li	s8,-274
    2680:	018ac463          	blt	s5,s8,2688 <.L1534+0xc>
    2684:	60c0106f          	j	3c90 <.L1549>
    2688:	01c51c83          	lh	s9,28(a0)
    268c:	02300c13          	li	s8,35
    2690:	019c5463          	bge	s8,s9,2698 <.L1540>
    2694:	2e90106f          	j	417c <.L2808>

00002698 <.L1540>:
    2698:	00e15c03          	lhu	s8,14(sp)
    269c:	005c0c13          	addi	s8,s8,5
    26a0:	01811723          	sh	s8,14(sp)

000026a4 <.L1539>:
    26a4:	0a900c13          	li	s8,169
    26a8:	01ec5463          	bge	s8,t5,26b0 <.L2842>
    26ac:	5fc0106f          	j	3ca8 <.L1550>

000026b0 <.L2842>:
    26b0:	01c00c13          	li	s8,28
    26b4:	00fc5463          	bge	s8,a5,26bc <.L2842+0xc>
    26b8:	5190506f          	j	83d0 <.L1551>
    26bc:	07300c13          	li	s8,115
    26c0:	01ec5463          	bge	s8,t5,26c8 <.L2842+0x18>
    26c4:	0fd0706f          	j	9fc0 <.L1552>
    26c8:	00815c03          	lhu	s8,8(sp)
    26cc:	006c0c13          	addi	s8,s8,6
    26d0:	010c1c13          	slli	s8,s8,0x10
    26d4:	410c5c13          	srai	s8,s8,0x10

000026d8 <.L1553>:
    26d8:	01811423          	sh	s8,8(sp)
    26dc:	03300c13          	li	s8,51
    26e0:	01fc5463          	bge	s8,t6,26e8 <.L2843>
    26e4:	5f00106f          	j	3cd4 <.L1557>

000026e8 <.L2843>:
    26e8:	00001c37          	lui	s8,0x1
    26ec:	cbbc0c13          	addi	s8,s8,-837 # cbb <.L2778+0x3>
    26f0:	00ec5463          	bge	s8,a4,26f8 <.L2843+0x10>
    26f4:	4ad0506f          	j	83a0 <.L1558>
    26f8:	dba00c13          	li	s8,-582
    26fc:	0185c863          	blt	a1,s8,270c <.L1559>
    2700:	00a15c03          	lhu	s8,10(sp)
    2704:	ff9c0c13          	addi	s8,s8,-7
    2708:	01811523          	sh	s8,10(sp)

0000270c <.L1559>:
    270c:	10b00c13          	li	s8,267
    2710:	00dc4463          	blt	s8,a3,2718 <.L1568>
    2714:	2dd0606f          	j	91f0 <.L1565>

00002718 <.L1568>:
    2718:	e8500c13          	li	s8,-379
    271c:	018ad463          	bge	s5,s8,2724 <.L1568+0xc>
    2720:	4d10506f          	j	83f0 <.L1572>
    2724:	18c00c13          	li	s8,396
    2728:	00ec5463          	bge	s8,a4,2730 <.L1568+0x18>
    272c:	4910506f          	j	83bc <.L1569>
    2730:	00c15c03          	lhu	s8,12(sp)
    2734:	001c0c13          	addi	s8,s8,1
    2738:	010c1c13          	slli	s8,s8,0x10
    273c:	410c5c13          	srai	s8,s8,0x10

00002740 <.L1574>:
    2740:	01811623          	sh	s8,12(sp)
    2744:	02700c93          	li	s9,39
    2748:	007cd463          	bge	s9,t2,2750 <.L2844>
    274c:	5d80106f          	j	3d24 <.L1577>

00002750 <.L2844>:
    2750:	03d00c93          	li	s9,61
    2754:	00fcd463          	bge	s9,a5,275c <.L2844+0xc>
    2758:	2950506f          	j	81ec <.L1578>
    275c:	02000c93          	li	s9,32
    2760:	010cd463          	bge	s9,a6,2768 <.L2844+0x18>
    2764:	2790506f          	j	81dc <.L1579>
    2768:	00e15c83          	lhu	s9,14(sp)
    276c:	ff7c8c93          	addi	s9,s9,-9
    2770:	01911723          	sh	s9,14(sp)

00002774 <.L1580>:
    2774:	01f00c93          	li	s9,31
    2778:	013cd463          	bge	s9,s3,2780 <.L2845>
    277c:	5d80106f          	j	3d54 <.L1582>

00002780 <.L2845>:
    2780:	03d00c93          	li	s9,61
    2784:	01fcd463          	bge	s9,t6,278c <.L2845+0xc>
    2788:	1890506f          	j	8110 <.L1583>
    278c:	f7800c93          	li	s9,-136
    2790:	019a4863          	blt	s4,s9,27a0 <.L1584>
    2794:	00815c83          	lhu	s9,8(sp)
    2798:	004c8c93          	addi	s9,s9,4
    279c:	01911423          	sh	s9,8(sp)

000027a0 <.L1584>:
    27a0:	e2c00c93          	li	s9,-468
    27a4:	0192d463          	bge	t0,s9,27ac <.L2846>
    27a8:	5d00106f          	j	3d78 <.L1590>

000027ac <.L2846>:
    27ac:	03c00c13          	li	s8,60
    27b0:	01fc5463          	bge	s8,t6,27b8 <.L2846+0xc>
    27b4:	17d0506f          	j	8130 <.L1586>
    27b8:	00900c93          	li	s9,9
    27bc:	01ccd463          	bge	s9,t3,27c4 <.L2846+0x18>
    27c0:	2800306f          	j	5a40 <.L1611>
    27c4:	00a15c03          	lhu	s8,10(sp)
    27c8:	001c0c13          	addi	s8,s8,1
    27cc:	010c1c13          	slli	s8,s8,0x10
    27d0:	410c5c13          	srai	s8,s8,0x10

000027d4 <.L1612>:
    27d4:	01811523          	sh	s8,10(sp)
    27d8:	03c00c13          	li	s8,60
    27dc:	00fc4463          	blt	s8,a5,27e4 <.L1615>
    27e0:	20c0306f          	j	59ec <.L1604>

000027e4 <.L1615>:
    27e4:	e6500c13          	li	s8,-411
    27e8:	0182d463          	bge	t0,s8,27f0 <.L1615+0xc>
    27ec:	7e40906f          	j	bfd0 <.L1617>
    27f0:	00e00c13          	li	s8,14
    27f4:	01dc5463          	bge	s8,t4,27fc <.L1615+0x18>
    27f8:	7000706f          	j	9ef8 <.L1619>
    27fc:	00300c13          	li	s8,3
    2800:	01cc5463          	bge	s8,t3,2808 <.L1615+0x24>
    2804:	2640306f          	j	5a68 <.L1618>
    2808:	0c100c13          	li	s8,193
    280c:	012c5463          	bge	s8,s2,2814 <.L1635>
    2810:	4800906f          	j	bc90 <.L2809>

00002814 <.L1635>:
    2814:	02f00c13          	li	s8,47
    2818:	01fc5463          	bge	s8,t6,2820 <.L1635+0xc>
    281c:	6cc0706f          	j	9ee8 <.L2810>
    2820:	00e15c03          	lhu	s8,14(sp)
    2824:	00400c93          	li	s9,4
    2828:	019c0c33          	add	s8,s8,s9
    282c:	01811723          	sh	s8,14(sp)
    2830:	011cc463          	blt	s9,a7,2838 <.L1635+0x24>
    2834:	2d40406f          	j	6b08 <.L1651>
    2838:	00e00c13          	li	s8,14
    283c:	01dc5463          	bge	s8,t4,2844 <.L1646>
    2840:	5010606f          	j	9540 <.L2811>

00002844 <.L1646>:
    2844:	f9c00c13          	li	s8,-100
    2848:	01844463          	blt	s0,s8,2850 <.L1644>
    284c:	2f50606f          	j	9340 <.L1668>

00002850 <.L1644>:
    2850:	00815c03          	lhu	s8,8(sp)
    2854:	01d00c93          	li	s9,29
    2858:	ffac0c13          	addi	s8,s8,-6
    285c:	01811423          	sh	s8,8(sp)
    2860:	011cd463          	bge	s9,a7,2868 <.L2717>
    2864:	2f50606f          	j	9358 <.L1669>

00002868 <.L2717>:
    2868:	00a15c03          	lhu	s8,10(sp)
    286c:	00100c93          	li	s9,1
    2870:	ffec0c13          	addi	s8,s8,-2
    2874:	01811523          	sh	s8,10(sp)
    2878:	01ccc463          	blt	s9,t3,2880 <.L1659>
    287c:	44c0906f          	j	bcc8 <.L2812>

00002880 <.L1659>:
    2880:	ff000c13          	li	s8,-16
    2884:	01864463          	blt	a2,s8,288c <.L1659+0xc>
    2888:	04d0206f          	j	50d4 <.L2813>
    288c:	00c15c03          	lhu	s8,12(sp)
    2890:	ff600c93          	li	s9,-10
    2894:	007c0c13          	addi	s8,s8,7
    2898:	01811623          	sh	s8,12(sp)
    289c:	01964463          	blt	a2,s9,28a4 <.L1682>
    28a0:	0410206f          	j	50e0 <.L1683>

000028a4 <.L1682>:
    28a4:	0da00c13          	li	s8,218
    28a8:	012c5463          	bge	s8,s2,28b0 <.L1682+0xc>
    28ac:	4f10606f          	j	959c <.L1696>
    28b0:	00e15c03          	lhu	s8,14(sp)
    28b4:	ff9c0c13          	addi	s8,s8,-7
    28b8:	010c1c13          	slli	s8,s8,0x10
    28bc:	010c5c13          	srli	s8,s8,0x10

000028c0 <.L1697>:
    28c0:	01811723          	sh	s8,14(sp)

000028c4 <.L1699>:
    28c4:	e4300c13          	li	s8,-445
    28c8:	01844463          	blt	s0,s8,28d0 <.L1699+0xc>
    28cc:	6bc0206f          	j	4f88 <.L1703>
    28d0:	0d400c13          	li	s8,212
    28d4:	007c5463          	bge	s8,t2,28dc <.L1699+0x18>
    28d8:	6580506f          	j	7f30 <.L1706>
    28dc:	0d100c13          	li	s8,209
    28e0:	007c4463          	blt	s8,t2,28e8 <.L1699+0x24>
    28e4:	2b50606f          	j	9398 <.L1702>
    28e8:	00815c03          	lhu	s8,8(sp)
    28ec:	03b00c93          	li	s9,59
    28f0:	008c0c13          	addi	s8,s8,8
    28f4:	01811423          	sh	s8,8(sp)
    28f8:	00fcd463          	bge	s9,a5,2900 <.L2644>
    28fc:	64c0506f          	j	7f48 <.L1708>

00002900 <.L2644>:
    2900:	03500c13          	li	s8,53
    2904:	00ec4463          	blt	s8,a4,290c <.L1710>
    2908:	0f50506f          	j	81fc <.L1709>

0000290c <.L1710>:
    290c:	00a15c03          	lhu	s8,10(sp)
    2910:	005c0c13          	addi	s8,s8,5
    2914:	010c1c13          	slli	s8,s8,0x10
    2918:	410c5c13          	srai	s8,s8,0x10

0000291c <.L1721>:
    291c:	01811523          	sh	s8,10(sp)
    2920:	02200c13          	li	s8,34
    2924:	011c5463          	bge	s8,a7,292c <.L2888>
    2928:	6c40206f          	j	4fec <.L1730>

0000292c <.L2888>:
    292c:	01700c13          	li	s8,23
    2930:	01dc5463          	bge	s8,t4,2938 <.L2888+0xc>
    2934:	3910506f          	j	84c4 <.L1727>
    2938:	1dc00c13          	li	s8,476
    293c:	01ec5863          	bge	s8,t5,294c <.L1731>

00002940 <.L1729>:
    2940:	00c15c03          	lhu	s8,12(sp)
    2944:	008c0c13          	addi	s8,s8,8
    2948:	01811623          	sh	s8,12(sp)

0000294c <.L1731>:
    294c:	02600c13          	li	s8,38
    2950:	00dc5463          	bge	s8,a3,2958 <.L1731+0xc>
    2954:	4480206f          	j	4d9c <.L1728>
    2958:	00f00c13          	li	s8,15
    295c:	00dc5463          	bge	s8,a3,2964 <.L1731+0x18>
    2960:	76d0506f          	j	88cc <.L1738>
    2964:	08c00c13          	li	s8,140
    2968:	007c5463          	bge	s8,t2,2970 <.L1731+0x24>
    296c:	4f00806f          	j	ae5c <.L1739>
    2970:	00e15c03          	lhu	s8,14(sp)
    2974:	01500c93          	li	s9,21
    2978:	003c0c13          	addi	s8,s8,3
    297c:	01811723          	sh	s8,14(sp)
    2980:	007cc463          	blt	s9,t2,2988 <.L1741>
    2984:	27d0206f          	j	5400 <.L1740>

00002988 <.L1741>:
    2988:	ff700c13          	li	s8,-9
    298c:	01864863          	blt	a2,s8,299c <.L1749>
    2990:	00815c03          	lhu	s8,8(sp)
    2994:	ffcc0c13          	addi	s8,s8,-4
    2998:	01811423          	sh	s8,8(sp)

0000299c <.L1749>:
    299c:	0f000c13          	li	s8,240
    29a0:	006c5463          	bge	s8,t1,29a8 <.L1749+0xc>
    29a4:	3700206f          	j	4d14 <.L1753>
    29a8:	00200c13          	li	s8,2
    29ac:	01cc5463          	bge	s8,t3,29b4 <.L1749+0x18>
    29b0:	0300606f          	j	89e0 <.L1754>
    29b4:	03500c13          	li	s8,53
    29b8:	00fc5463          	bge	s8,a5,29c0 <.L1749+0x24>
    29bc:	3ed0706f          	j	a5a8 <.L1755>
    29c0:	00a15c03          	lhu	s8,10(sp)
    29c4:	007c0c13          	addi	s8,s8,7
    29c8:	01811523          	sh	s8,10(sp)

000029cc <.L1756>:
    29cc:	f9800c13          	li	s8,-104
    29d0:	01844463          	blt	s0,s8,29d8 <.L1768>
    29d4:	3700206f          	j	4d44 <.L2814>

000029d8 <.L1768>:
    29d8:	f6600c13          	li	s8,-154
    29dc:	01844463          	blt	s0,s8,29e4 <.L1768+0xc>
    29e0:	7e50506f          	j	89c4 <.L1760>
    29e4:	0c600c13          	li	s8,198
    29e8:	009c4863          	blt	s8,s1,29f8 <.L1770>

000029ec <.L1772>:
    29ec:	00c15c03          	lhu	s8,12(sp)
    29f0:	ffbc0c13          	addi	s8,s8,-5
    29f4:	01811623          	sh	s8,12(sp)

000029f8 <.L1770>:
    29f8:	02700c13          	li	s8,39
    29fc:	007c5463          	bge	s8,t2,2a04 <.L1770+0xc>
    2a00:	2ec0206f          	j	4cec <.L1763>
    2a04:	0e400c13          	li	s8,228
    2a08:	006c5463          	bge	s8,t1,2a10 <.L1770+0x18>
    2a0c:	2210506f          	j	842c <.L1762>
    2a10:	01b00c13          	li	s8,27
    2a14:	010c5463          	bge	s8,a6,2a1c <.L1770+0x24>
    2a18:	1700706f          	j	9b88 <.L1774>
    2a1c:	00e15c03          	lhu	s8,14(sp)
    2a20:	ff8c0c13          	addi	s8,s8,-8
    2a24:	01811723          	sh	s8,14(sp)

00002a28 <.L1775>:
    2a28:	00400c13          	li	s8,4
    2a2c:	011c5463          	bge	s8,a7,2a34 <.L1775+0xc>
    2a30:	14c0206f          	j	4b7c <.L1778>
    2a34:	03a00c13          	li	s8,58
    2a38:	01fc5463          	bge	s8,t6,2a40 <.L1775+0x18>
    2a3c:	4790206f          	j	56b4 <.L1779>
    2a40:	00815c03          	lhu	s8,8(sp)
    2a44:	02e00c93          	li	s9,46
    2a48:	009c0c13          	addi	s8,s8,9
    2a4c:	01811423          	sh	s8,8(sp)
    2a50:	01dcd463          	bge	s9,t4,2a58 <.L1783>
    2a54:	6c50206f          	j	5918 <.L1780>

00002a58 <.L1783>:
    2a58:	01200c13          	li	s8,18
    2a5c:	01dc5463          	bge	s8,t4,2a64 <.L1783+0xc>
    2a60:	5280806f          	j	af88 <.L2815>
    2a64:	00a15c03          	lhu	s8,10(sp)
    2a68:	ffec0c13          	addi	s8,s8,-2
    2a6c:	010c1c13          	slli	s8,s8,0x10
    2a70:	410c5c13          	srai	s8,s8,0x10

00002a74 <.L1793>:
    2a74:	01811523          	sh	s8,10(sp)
    2a78:	01500c13          	li	s8,21
    2a7c:	010c4463          	blt	s8,a6,2a84 <.L1793+0x10>
    2a80:	4610206f          	j	56e0 <.L1787>
    2a84:	03b00c13          	li	s8,59
    2a88:	00fc5463          	bge	s8,a5,2a90 <.L1793+0x1c>
    2a8c:	1400206f          	j	4bcc <.L1796>
    2a90:	ffb00c13          	li	s8,-5
    2a94:	01865463          	bge	a2,s8,2a9c <.L2647>
    2a98:	1940206f          	j	4c2c <.L1795>

00002a9c <.L2647>:
    2a9c:	00c15c03          	lhu	s8,12(sp)
    2aa0:	ffac0c13          	addi	s8,s8,-6
    2aa4:	01811623          	sh	s8,12(sp)

00002aa8 <.L1808>:
    2aa8:	00300c13          	li	s8,3
    2aac:	01cc5463          	bge	s8,t3,2ab4 <.L2883>
    2ab0:	1940206f          	j	4c44 <.L1801>

00002ab4 <.L2883>:
    2ab4:	01300c13          	li	s8,19
    2ab8:	01dc5463          	bge	s8,t4,2ac0 <.L2883+0xc>
    2abc:	19c0206f          	j	4c58 <.L2648>
    2ac0:	02e00c13          	li	s8,46
    2ac4:	012c5463          	bge	s8,s2,2acc <.L2883+0x18>
    2ac8:	0780306f          	j	5b40 <.L1815>
    2acc:	00e15c03          	lhu	s8,14(sp)
    2ad0:	0a900c93          	li	s9,169
    2ad4:	ff9c0c13          	addi	s8,s8,-7
    2ad8:	01811723          	sh	s8,14(sp)
    2adc:	01ecd463          	bge	s9,t5,2ae4 <.L1818>
    2ae0:	0780306f          	j	5b58 <.L2649>

00002ae4 <.L1818>:
    2ae4:	01c00c13          	li	s8,28
    2ae8:	00fc5463          	bge	s8,a5,2af0 <.L1818+0xc>
    2aec:	7400406f          	j	722c <.L1828>
    2af0:	06700c13          	li	s8,103
    2af4:	016c5463          	bge	s8,s6,2afc <.L1818+0x18>
    2af8:	5e90106f          	j	48e0 <.L1829>
    2afc:	00815c03          	lhu	s8,8(sp)
    2b00:	03300c93          	li	s9,51
    2b04:	005c0c13          	addi	s8,s8,5
    2b08:	01811423          	sh	s8,8(sp)
    2b0c:	01fcc463          	blt	s9,t6,2b14 <.L1831>
    2b10:	5e90106f          	j	48f8 <.L1832>

00002b14 <.L1831>:
    2b14:	08000c13          	li	s8,128
    2b18:	00ec5863          	bge	s8,a4,2b28 <.L1845>
    2b1c:	00a15c03          	lhu	s8,10(sp)
    2b20:	005c0c13          	addi	s8,s8,5
    2b24:	01811523          	sh	s8,10(sp)

00002b28 <.L1845>:
    2b28:	00100c13          	li	s8,1
    2b2c:	01cc4463          	blt	s8,t3,2b34 <.L1849>
    2b30:	6010106f          	j	4930 <.L2816>

00002b34 <.L1849>:
    2b34:	02700c13          	li	s8,39
    2b38:	006c5463          	bge	s8,t1,2b40 <.L1849+0xc>
    2b3c:	4280306f          	j	5f64 <.L1857>
    2b40:	ff800c13          	li	s8,-8
    2b44:	01864463          	blt	a2,s8,2b4c <.L1849+0x18>
    2b48:	1a50606f          	j	94ec <.L1858>
    2b4c:	00c15c03          	lhu	s8,12(sp)
    2b50:	ffcc0c13          	addi	s8,s8,-4
    2b54:	01811623          	sh	s8,12(sp)

00002b58 <.L1856>:
    2b58:	c0000c13          	li	s8,-1024
    2b5c:	0185c463          	blt	a1,s8,2b64 <.L1856+0xc>
    2b60:	1650206f          	j	54c4 <.L1859>
    2b64:	00e15c03          	lhu	s8,14(sp)
    2b68:	01f00c93          	li	s9,31
    2b6c:	007c0c13          	addi	s8,s8,7
    2b70:	01811723          	sh	s8,14(sp)
    2b74:	013ccc63          	blt	s9,s3,2b8c <.L1860>
    2b78:	04600c13          	li	s8,70
    2b7c:	011c4463          	blt	s8,a7,2b84 <.L1856+0x2c>
    2b80:	2990806f          	j	b618 <.L2817>
    2b84:	03b00c13          	li	s8,59
    2b88:	006c5863          	bge	s8,t1,2b98 <.L1874>

00002b8c <.L1860>:
    2b8c:	00815c03          	lhu	s8,8(sp)
    2b90:	ff9c0c13          	addi	s8,s8,-7
    2b94:	01811423          	sh	s8,8(sp)

00002b98 <.L1874>:
    2b98:	ff900c13          	li	s8,-7
    2b9c:	01864463          	blt	a2,s8,2ba4 <.L1874+0xc>
    2ba0:	50c0506f          	j	80ac <.L1876>
    2ba4:	1d800c13          	li	s8,472
    2ba8:	016c5463          	bge	s8,s6,2bb0 <.L1874+0x18>
    2bac:	5090706f          	j	a8b4 <.L1877>
    2bb0:	00a15c03          	lhu	s8,10(sp)
    2bb4:	ffdc0c13          	addi	s8,s8,-3
    2bb8:	01811523          	sh	s8,10(sp)

00002bbc <.L1880>:
    2bbc:	fdb00c13          	li	s8,-37
    2bc0:	01874463          	blt	a4,s8,2bc8 <.L2874>
    2bc4:	5d50106f          	j	4998 <.L1882>

00002bc8 <.L2874>:
    2bc8:	01200c13          	li	s8,18
    2bcc:	010c5463          	bge	s8,a6,2bd4 <.L2874+0xc>
    2bd0:	3980406f          	j	6f68 <.L1883>
    2bd4:	00c15c03          	lhu	s8,12(sp)
    2bd8:	05800c93          	li	s9,88
    2bdc:	ff8c0c13          	addi	s8,s8,-8
    2be0:	01811623          	sh	s8,12(sp)
    2be4:	009cd463          	bge	s9,s1,2bec <.L2874+0x24>
    2be8:	5380206f          	j	5120 <.L1884>
    2bec:	f5300c13          	li	s8,-173
    2bf0:	01845463          	bge	s0,s8,2bf8 <.L1886>
    2bf4:	7980506f          	j	838c <.L1885>

00002bf8 <.L1886>:
    2bf8:	00e15c03          	lhu	s8,14(sp)
    2bfc:	003c0c13          	addi	s8,s8,3
    2c00:	010c1c13          	slli	s8,s8,0x10
    2c04:	410c5c13          	srai	s8,s8,0x10

00002c08 <.L1897>:
    2c08:	01811723          	sh	s8,14(sp)
    2c0c:	07300c13          	li	s8,115
    2c10:	012c4463          	blt	s8,s2,2c18 <.L1900>
    2c14:	5e50106f          	j	49f8 <.L1894>

00002c18 <.L1900>:
    2c18:	00600c13          	li	s8,6
    2c1c:	010c5463          	bge	s8,a6,2c24 <.L1900+0xc>
    2c20:	3840406f          	j	6fa4 <.L1895>
    2c24:	ffe00c13          	li	s8,-2
    2c28:	01884863          	blt	a6,s8,2c38 <.L1909>
    2c2c:	00815c03          	lhu	s8,8(sp)
    2c30:	ff7c0c13          	addi	s8,s8,-9
    2c34:	01811423          	sh	s8,8(sp)

00002c38 <.L1909>:
    2c38:	01e00c13          	li	s8,30
    2c3c:	013c4463          	blt	s8,s3,2c44 <.L1909+0xc>
    2c40:	5d90106f          	j	4a18 <.L1912>
    2c44:	efa00c13          	li	s8,-262
    2c48:	01845863          	bge	s0,s8,2c58 <.L1914>
    2c4c:	00a15c03          	lhu	s8,10(sp)
    2c50:	009c0c13          	addi	s8,s8,9
    2c54:	01811523          	sh	s8,10(sp)

00002c58 <.L1914>:
    2c58:	00100c13          	li	s8,1
    2c5c:	01cc4463          	blt	s8,t3,2c64 <.L2495>
    2c60:	5dd0106f          	j	4a3c <.L1916>

00002c64 <.L2495>:
    2c64:	01f00c13          	li	s8,31
    2c68:	01dc4463          	blt	s8,t4,2c70 <.L2495+0xc>
    2c6c:	42c0206f          	j	5098 <.L1923>
    2c70:	11500c13          	li	s8,277
    2c74:	00dc4463          	blt	s8,a3,2c7c <.L2495+0x18>
    2c78:	6b50206f          	j	5b2c <.L2652>
    2c7c:	00c15c03          	lhu	s8,12(sp)
    2c80:	001c0c13          	addi	s8,s8,1
    2c84:	010c1c13          	slli	s8,s8,0x10
    2c88:	410c5c13          	srai	s8,s8,0x10

00002c8c <.L1922>:
    2c8c:	01811623          	sh	s8,12(sp)
    2c90:	ff600c13          	li	s8,-10
    2c94:	01864463          	blt	a2,s8,2c9c <.L2875>
    2c98:	5d10106f          	j	4a68 <.L1930>

00002c9c <.L2875>:
    2c9c:	02800c13          	li	s8,40
    2ca0:	01dc4463          	blt	s8,t4,2ca8 <.L2875+0xc>
    2ca4:	4140206f          	j	50b8 <.L1931>
    2ca8:	03900c13          	li	s8,57
    2cac:	01fc4463          	blt	s8,t6,2cb4 <.L2875+0x18>
    2cb0:	2d00306f          	j	5f80 <.L2653>
    2cb4:	00e15c03          	lhu	s8,14(sp)
    2cb8:	ffbc0c13          	addi	s8,s8,-5
    2cbc:	01811723          	sh	s8,14(sp)

00002cc0 <.L1934>:
    2cc0:	39000c13          	li	s8,912
    2cc4:	006c5463          	bge	s8,t1,2ccc <.L2877>
    2cc8:	5d10106f          	j	4a98 <.L1939>

00002ccc <.L2877>:
    2ccc:	0ba00c13          	li	s8,186
    2cd0:	012c5463          	bge	s8,s2,2cd8 <.L2877+0xc>
    2cd4:	6450406f          	j	7b18 <.L1940>
    2cd8:	0b700c13          	li	s8,183
    2cdc:	012c5863          	bge	s8,s2,2cec <.L1941>
    2ce0:	00815c03          	lhu	s8,8(sp)
    2ce4:	008c0c13          	addi	s8,s8,8
    2ce8:	01811423          	sh	s8,8(sp)

00002cec <.L1941>:
    2cec:	e2400c13          	li	s8,-476
    2cf0:	0182c463          	blt	t0,s8,2cf8 <.L2878>
    2cf4:	5c90106f          	j	4abc <.L1945>

00002cf8 <.L2878>:
    2cf8:	e0200c13          	li	s8,-510
    2cfc:	018ac463          	blt	s5,s8,2d04 <.L2878+0xc>
    2d00:	2c00406f          	j	6fc0 <.L1946>
    2d04:	ff400c13          	li	s8,-12
    2d08:	01864463          	blt	a2,s8,2d10 <.L2878+0x18>
    2d0c:	2b40806f          	j	afc0 <.L1947>
    2d10:	00a15c03          	lhu	s8,10(sp)
    2d14:	ffbc0c13          	addi	s8,s8,-5
    2d18:	010c1c13          	slli	s8,s8,0x10
    2d1c:	410c5c13          	srai	s8,s8,0x10

00002d20 <.L1948>:
    2d20:	01811523          	sh	s8,10(sp)
    2d24:	03c00c13          	li	s8,60
    2d28:	00fc4463          	blt	s8,a5,2d30 <.L1959>
    2d2c:	5c90106f          	j	4af4 <.L1963>

00002d30 <.L1959>:
    2d30:	daa00c13          	li	s8,-598
    2d34:	018ac463          	blt	s5,s8,2d3c <.L1959+0xc>
    2d38:	2b40406f          	j	6fec <.L1953>
    2d3c:	ff300c13          	li	s8,-13
    2d40:	01864463          	blt	a2,s8,2d48 <.L1981>
    2d44:	2a00806f          	j	afe4 <.L1952>

00002d48 <.L1981>:
    2d48:	00c15c03          	lhu	s8,12(sp)
    2d4c:	05800c93          	li	s9,88
    2d50:	006c0c13          	addi	s8,s8,6
    2d54:	01811623          	sh	s8,12(sp)
    2d58:	009cc463          	blt	s9,s1,2d60 <.L1984>
    2d5c:	4f80506f          	j	8254 <.L1982>

00002d60 <.L1984>:
    2d60:	1a500c13          	li	s8,421
    2d64:	007c5463          	bge	s8,t2,2d6c <.L1983>
    2d68:	6bc0806f          	j	b424 <.L1990>

00002d6c <.L1983>:
    2d6c:	00e15c03          	lhu	s8,14(sp)
    2d70:	001c0c13          	addi	s8,s8,1
    2d74:	01811723          	sh	s8,14(sp)

00002d78 <.L1968>:
    2d78:	01500c13          	li	s8,21
    2d7c:	007c5463          	bge	s8,t2,2d84 <.L1966>
    2d80:	6580406f          	j	73d8 <.L1975>

00002d84 <.L1966>:
    2d84:	07000c13          	li	s8,112
    2d88:	012c4863          	blt	s8,s2,2d98 <.L1972>
    2d8c:	00815c03          	lhu	s8,8(sp)
    2d90:	007c0c13          	addi	s8,s8,7
    2d94:	01811423          	sh	s8,8(sp)

00002d98 <.L1972>:
    2d98:	02e00c13          	li	s8,46
    2d9c:	01dc4463          	blt	s8,t4,2da4 <.L2879>
    2da0:	5b50106f          	j	4b54 <.L1993>

00002da4 <.L2879>:
    2da4:	03900c13          	li	s8,57
    2da8:	01fc4463          	blt	s8,t6,2db0 <.L2879+0xc>
    2dac:	5300506f          	j	82dc <.L1998>
    2db0:	03d00c13          	li	s8,61
    2db4:	00fc4463          	blt	s8,a5,2dbc <.L1999>
    2db8:	4790606f          	j	9a30 <.L2006>

00002dbc <.L1999>:
    2dbc:	25b00c13          	li	s8,603
    2dc0:	00ec5463          	bge	s8,a4,2dc8 <.L1999+0xc>
    2dc4:	3f80106f          	j	41bc <.L2004>
    2dc8:	0fe00c13          	li	s8,254
    2dcc:	00dc5463          	bge	s8,a3,2dd4 <.L1999+0x18>
    2dd0:	3390506f          	j	8908 <.L2008>
    2dd4:	f5600c13          	li	s8,-170
    2dd8:	018a4463          	blt	s4,s8,2de0 <.L1999+0x24>
    2ddc:	2c00506f          	j	809c <.L2009>
    2de0:	00c15c03          	lhu	s8,12(sp)
    2de4:	fffc0c13          	addi	s8,s8,-1
    2de8:	01811623          	sh	s8,12(sp)

00002dec <.L2010>:
    2dec:	02700c13          	li	s8,39
    2df0:	007c5463          	bge	s8,t2,2df8 <.L2856>
    2df4:	3f80106f          	j	41ec <.L2013>

00002df8 <.L2856>:
    2df8:	03d00c13          	li	s8,61
    2dfc:	00fc5463          	bge	s8,a5,2e04 <.L2856+0xc>
    2e00:	1d00506f          	j	7fd0 <.L2014>
    2e04:	00e15c03          	lhu	s8,14(sp)
    2e08:	ff9c0c13          	addi	s8,s8,-7
    2e0c:	010c1c13          	slli	s8,s8,0x10
    2e10:	410c5c13          	srai	s8,s8,0x10

00002e14 <.L2015>:
    2e14:	01811723          	sh	s8,14(sp)
    2e18:	00400c13          	li	s8,4
    2e1c:	011c5463          	bge	s8,a7,2e24 <.L2857>
    2e20:	4040106f          	j	4224 <.L2019>

00002e24 <.L2857>:
    2e24:	03800c13          	li	s8,56
    2e28:	01fc5463          	bge	s8,t6,2e30 <.L2857+0xc>
    2e2c:	1b80506f          	j	7fe4 <.L2020>
    2e30:	00815c03          	lhu	s8,8(sp)
    2e34:	008c0c13          	addi	s8,s8,8
    2e38:	01811423          	sh	s8,8(sp)

00002e3c <.L2021>:
    2e3c:	0f000c13          	li	s8,240
    2e40:	006c4463          	blt	s8,t1,2e48 <.L2858>
    2e44:	4100106f          	j	4254 <.L2029>

00002e48 <.L2858>:
    2e48:	f5200c13          	li	s8,-174
    2e4c:	0185c463          	blt	a1,s8,2e54 <.L2858+0xc>
    2e50:	2000506f          	j	8050 <.L2026>
    2e54:	03700c13          	li	s8,55
    2e58:	01fc5463          	bge	s8,t6,2e60 <.L2858+0x18>
    2e5c:	1450806f          	j	b7a0 <.L2038>
    2e60:	00a15c03          	lhu	s8,10(sp)
    2e64:	01500c93          	li	s9,21
    2e68:	ffec0c13          	addi	s8,s8,-2
    2e6c:	01811523          	sh	s8,10(sp)
    2e70:	010cd463          	bge	s9,a6,2e78 <.L2035>
    2e74:	5bc0206f          	j	5430 <.L2039>

00002e78 <.L2035>:
    2e78:	02200c13          	li	s8,34
    2e7c:	011c4463          	blt	s8,a7,2e84 <.L2035+0xc>
    2e80:	19c0506f          	j	801c <.L2040>
    2e84:	00c15c03          	lhu	s8,12(sp)
    2e88:	001c0c13          	addi	s8,s8,1
    2e8c:	010c1c13          	slli	s8,s8,0x10
    2e90:	410c5c13          	srai	s8,s8,0x10

00002e94 <.L2043>:
    2e94:	01811623          	sh	s8,12(sp)
    2e98:	01c04463          	bgtz	t3,2ea0 <.L2045>
    2e9c:	4100106f          	j	42ac <.L2818>

00002ea0 <.L2045>:
    2ea0:	ff600c13          	li	s8,-10
    2ea4:	01864463          	blt	a2,s8,2eac <.L2045+0xc>
    2ea8:	6910506f          	j	8d38 <.L2819>
    2eac:	02900c13          	li	s8,41
    2eb0:	01dc5463          	bge	s8,t4,2eb8 <.L2045+0x18>
    2eb4:	3540806f          	j	b208 <.L2820>
    2eb8:	00e15c03          	lhu	s8,14(sp)
    2ebc:	ffbc0c13          	addi	s8,s8,-5
    2ec0:	010c1c13          	slli	s8,s8,0x10
    2ec4:	410c5c13          	srai	s8,s8,0x10

00002ec8 <.L2058>:
    2ec8:	01811723          	sh	s8,14(sp)
    2ecc:	0a900c13          	li	s8,169
    2ed0:	01ec5463          	bge	s8,t5,2ed8 <.L2050>
    2ed4:	3f80106f          	j	42cc <.L2056>

00002ed8 <.L2050>:
    2ed8:	01c00b13          	li	s6,28
    2edc:	00fb5463          	bge	s6,a5,2ee4 <.L2050+0xc>
    2ee0:	5940206f          	j	5474 <.L2048>
    2ee4:	07300b13          	li	s6,115
    2ee8:	01eb5463          	bge	s6,t5,2ef0 <.L2050+0x18>
    2eec:	6e10706f          	j	adcc <.L2069>
    2ef0:	00815b03          	lhu	s6,8(sp)
    2ef4:	005b0b13          	addi	s6,s6,5
    2ef8:	01611423          	sh	s6,8(sp)

00002efc <.L2070>:
    2efc:	08300b13          	li	s6,131
    2f00:	009b5463          	bge	s6,s1,2f08 <.L2070+0xc>
    2f04:	1100206f          	j	5014 <.L2073>
    2f08:	01900b13          	li	s6,25
    2f0c:	013b4463          	blt	s6,s3,2f14 <.L2070+0x18>
    2f10:	3e80106f          	j	42f8 <.L2076>
    2f14:	00a15b03          	lhu	s6,10(sp)
    2f18:	02700c13          	li	s8,39
    2f1c:	fffb0b13          	addi	s6,s6,-1
    2f20:	01611523          	sh	s6,10(sp)
    2f24:	006c5463          	bge	s8,t1,2f2c <.L2074>
    2f28:	3e80106f          	j	4310 <.L2075>

00002f2c <.L2074>:
    2f2c:	ff800b13          	li	s6,-8
    2f30:	01665463          	bge	a2,s6,2f38 <.L2092>
    2f34:	1500406f          	j	7084 <.L2089>

00002f38 <.L2092>:
    2f38:	00c15b03          	lhu	s6,12(sp)
    2f3c:	ffeb0b13          	addi	s6,s6,-2
    2f40:	010b1b13          	slli	s6,s6,0x10
    2f44:	410b5b13          	srai	s6,s6,0x10

00002f48 <.L2082>:
    2f48:	01611623          	sh	s6,12(sp)
    2f4c:	c5700b13          	li	s6,-937
    2f50:	0165c463          	blt	a1,s6,2f58 <.L2860>
    2f54:	3f00106f          	j	4344 <.L2094>

00002f58 <.L2860>:
    2f58:	00e15b03          	lhu	s6,14(sp)
    2f5c:	006b0b13          	addi	s6,s6,6
    2f60:	01611723          	sh	s6,14(sp)

00002f64 <.L2095>:
    2f64:	01e00b13          	li	s6,30
    2f68:	013b5463          	bge	s6,s3,2f70 <.L2095+0xc>
    2f6c:	7b50106f          	j	4f20 <.L2108>
    2f70:	03d00b13          	li	s6,61
    2f74:	01fb4463          	blt	s6,t6,2f7c <.L2095+0x18>
    2f78:	1280606f          	j	90a0 <.L2821>
    2f7c:	07100b13          	li	s6,113
    2f80:	012b5463          	bge	s6,s2,2f88 <.L2095+0x24>
    2f84:	1480706f          	j	a0cc <.L2111>
    2f88:	00815b03          	lhu	s6,8(sp)
    2f8c:	02e00c13          	li	s8,46
    2f90:	009b0b13          	addi	s6,s6,9
    2f94:	01611423          	sh	s6,8(sp)
    2f98:	01dc4463          	blt	s8,t4,2fa0 <.L2112>
    2f9c:	3e80106f          	j	4384 <.L2099>

00002fa0 <.L2112>:
    2fa0:	02b00b13          	li	s6,43
    2fa4:	011b5463          	bge	s6,a7,2fac <.L2112+0xc>
    2fa8:	6400606f          	j	95e8 <.L2121>
    2fac:	00a15b03          	lhu	s6,10(sp)
    2fb0:	008b0b13          	addi	s6,s6,8
    2fb4:	01611523          	sh	s6,10(sp)

00002fb8 <.L2115>:
    2fb8:	25b00b13          	li	s6,603
    2fbc:	00eb4463          	blt	s6,a4,2fc4 <.L2862>
    2fc0:	3f40106f          	j	43b4 <.L2120>

00002fc4 <.L2862>:
    2fc4:	fe900b13          	li	s6,-23
    2fc8:	01664463          	blt	a2,s6,2fd0 <.L2862+0xc>
    2fcc:	0690406f          	j	7834 <.L2117>
    2fd0:	dde00b13          	li	s6,-546
    2fd4:	016a4463          	blt	s4,s6,2fdc <.L2862+0x18>
    2fd8:	4450706f          	j	ac1c <.L2129>
    2fdc:	00c15b03          	lhu	s6,12(sp)
    2fe0:	005b0b13          	addi	s6,s6,5
    2fe4:	01611623          	sh	s6,12(sp)

00002fe8 <.L2124>:
    2fe8:	02600b13          	li	s6,38
    2fec:	00db5463          	bge	s6,a3,2ff4 <.L2864>
    2ff0:	3f40106f          	j	43e4 <.L2128>

00002ff4 <.L2864>:
    2ff4:	01300b13          	li	s6,19
    2ff8:	00db5463          	bge	s6,a3,3000 <.L2864+0xc>
    2ffc:	6dc0506f          	j	86d8 <.L2127>
    3000:	08400b13          	li	s6,132
    3004:	007b5463          	bge	s6,t2,300c <.L2864+0x18>
    3008:	6ec0406f          	j	76f4 <.L2662>
    300c:	00e15b03          	lhu	s6,14(sp)
    3010:	00400c13          	li	s8,4
    3014:	003b0b13          	addi	s6,s6,3
    3018:	01611723          	sh	s6,14(sp)
    301c:	011c4463          	blt	s8,a7,3024 <.L2864+0x30>
    3020:	6e80206f          	j	5708 <.L2148>
    3024:	ff800b13          	li	s6,-8
    3028:	276652e3          	bge	a2,s6,3a8c <.L2154>

0000302c <.L2134>:
    302c:	01f00b13          	li	s6,31
    3030:	011b5463          	bge	s6,a7,3038 <.L2134+0xc>
    3034:	6280406f          	j	765c <.L2822>
    3038:	00815b03          	lhu	s6,8(sp)
    303c:	002b0b13          	addi	s6,s6,2
    3040:	010b1b13          	slli	s6,s6,0x10
    3044:	410b5b13          	srai	s6,s6,0x10

00003048 <.L2135>:
    3048:	01611423          	sh	s6,8(sp)
    304c:	03b00b13          	li	s6,59
    3050:	24fb4ce3          	blt	s6,a5,3aa8 <.L2146>

00003054 <.L2836>:
    3054:	33f00b13          	li	s6,831
    3058:	00eb5463          	bge	s6,a4,3060 <.L2836+0xc>
    305c:	6240406f          	j	7680 <.L2149>
    3060:	01400b13          	li	s6,20
    3064:	011b4463          	blt	s6,a7,306c <.L2153>
    3068:	6d00206f          	j	5738 <.L2151>

0000306c <.L2153>:
    306c:	00a15b03          	lhu	s6,10(sp)
    3070:	ffcb0b13          	addi	s6,s6,-4
    3074:	010b1b13          	slli	s6,s6,0x10
    3078:	410b5b13          	srai	s6,s6,0x10
    307c:	01611523          	sh	s6,10(sp)
    3080:	fdb00b13          	li	s6,-37
    3084:	01675463          	bge	a4,s6,308c <.L2179>
    3088:	6d00206f          	j	5758 <.L2823>

0000308c <.L2179>:
    308c:	02600b13          	li	s6,38
    3090:	00eb5463          	bge	s6,a4,3098 <.L2179+0xc>
    3094:	6040406f          	j	7698 <.L2156>
    3098:	03c00b13          	li	s6,60
    309c:	00db5863          	bge	s6,a3,30ac <.L2164>

000030a0 <.L2171>:
    30a0:	00c15683          	lhu	a3,12(sp)
    30a4:	00668693          	addi	a3,a3,6
    30a8:	00d11623          	sh	a3,12(sp)

000030ac <.L2164>:
    30ac:	03100693          	li	a3,49
    30b0:	00f6d463          	bge	a3,a5,30b8 <.L2896>
    30b4:	6c80206f          	j	577c <.L2170>

000030b8 <.L2896>:
    30b8:	00e15683          	lhu	a3,14(sp)
    30bc:	ffa68693          	addi	a3,a3,-6
    30c0:	01069693          	slli	a3,a3,0x10
    30c4:	4106d693          	srai	a3,a3,0x10

000030c8 <.L2183>:
    30c8:	00d11723          	sh	a3,14(sp)
    30cc:	0a900b13          	li	s6,169
    30d0:	25eb42e3          	blt	s6,t5,3b14 <.L2187>

000030d4 <.L2837>:
    30d4:	000e5463          	bgez	t3,30dc <.L2837+0x8>
    30d8:	7490506f          	j	9020 <.L2824>
    30dc:	02d00f13          	li	t5,45
    30e0:	01ff5463          	bge	t5,t6,30e8 <.L2837+0x14>
    30e4:	3a40606f          	j	9488 <.L2190>
    30e8:	00815f03          	lhu	t5,8(sp)
    30ec:	ffef0f13          	addi	t5,t5,-2
    30f0:	01e11423          	sh	t5,8(sp)

000030f4 <.L2189>:
    30f4:	ef600f13          	li	t5,-266
    30f8:	25ead2e3          	bge	s5,t5,3b3c <.L2193>

000030fc <.L2838>:
    30fc:	ff800f13          	li	t5,-8
    3100:	01e64463          	blt	a2,t5,3108 <.L2838+0xc>
    3104:	7290306f          	j	702c <.L2194>
    3108:	01c51e83          	lh	t4,28(a0)
    310c:	01e00513          	li	a0,30
    3110:	01d55463          	bge	a0,t4,3118 <.L2838+0x1c>
    3114:	3c40706f          	j	a4d8 <.L2195>
    3118:	00a15503          	lhu	a0,10(sp)
    311c:	00250513          	addi	a0,a0,2
    3120:	01051513          	slli	a0,a0,0x10
    3124:	41055513          	srai	a0,a0,0x10

00003128 <.L2196>:
    3128:	00a11523          	sh	a0,10(sp)
    312c:	25b00513          	li	a0,603
    3130:	24e540e3          	blt	a0,a4,3b70 <.L2205>

00003134 <.L2201>:
    3134:	00e00513          	li	a0,14
    3138:	01055463          	bge	a0,a6,3140 <.L2201+0xc>
    313c:	4b40406f          	j	75f0 <.L2825>
    3140:	f6300513          	li	a0,-157
    3144:	00a5c463          	blt	a1,a0,314c <.L2201+0x18>
    3148:	7090706f          	j	b050 <.L2206>
    314c:	00c15503          	lhu	a0,12(sp)
    3150:	ffc50513          	addi	a0,a0,-4
    3154:	01051513          	slli	a0,a0,0x10
    3158:	41055513          	srai	a0,a0,0x10

0000315c <.L2207>:
    315c:	00a11623          	sh	a0,12(sp)
    3160:	02800513          	li	a0,40
    3164:	00755463          	bge	a0,t2,316c <.L2207+0x10>
    3168:	4600206f          	j	55c8 <.L2209>
    316c:	03c00513          	li	a0,60
    3170:	00f54463          	blt	a0,a5,3178 <.L2210>
    3174:	49c0406f          	j	7610 <.L2224>

00003178 <.L2210>:
    3178:	f7a00693          	li	a3,-134
    317c:	24da42e3          	blt	s4,a3,3bc0 <.L2826>

00003180 <.L2218>:
    3180:	00b00693          	li	a3,11
    3184:	0136d463          	bge	a3,s3,318c <.L2218+0xc>
    3188:	3950306f          	j	6d1c <.L2234>
    318c:	19f00693          	li	a3,415
    3190:	0126d463          	bge	a3,s2,3198 <.L2218+0x18>
    3194:	3900706f          	j	a524 <.L2235>
    3198:	00815683          	lhu	a3,8(sp)
    319c:	00868693          	addi	a3,a3,8
    31a0:	01069693          	slli	a3,a3,0x10
    31a4:	4106d693          	srai	a3,a3,0x10

000031a8 <.L2236>:
    31a8:	00d11423          	sh	a3,8(sp)

000031ac <.L2233>:
    31ac:	03300693          	li	a3,51
    31b0:	23f6cee3          	blt	a3,t6,3bec <.L2238>

000031b4 <.L2840>:
    31b4:	11700693          	li	a3,279
    31b8:	00e6d463          	bge	a3,a4,31c0 <.L2840+0xc>
    31bc:	35c0106f          	j	4518 <.L2214>
    31c0:	ffe00713          	li	a4,-2
    31c4:	00e84463          	blt	a6,a4,31cc <.L2840+0x18>
    31c8:	70c0706f          	j	a8d4 <.L2239>
    31cc:	00a15703          	lhu	a4,10(sp)
    31d0:	f5b00693          	li	a3,-165
    31d4:	fff70713          	addi	a4,a4,-1
    31d8:	00e11523          	sh	a4,10(sp)
    31dc:	00d2c463          	blt	t0,a3,31e4 <.L2670>
    31e0:	35c0106f          	j	453c <.L2240>

000031e4 <.L2670>:
    31e4:	f5600793          	li	a5,-170
    31e8:	00fa4463          	blt	s4,a5,31f0 <.L2243>
    31ec:	2a40406f          	j	7490 <.L2241>

000031f0 <.L2243>:
    31f0:	00c15783          	lhu	a5,12(sp)
    31f4:	ffe78793          	addi	a5,a5,-2
    31f8:	01079793          	slli	a5,a5,0x10
    31fc:	4107d793          	srai	a5,a5,0x10

00003200 <.L2242>:
    3200:	00f11623          	sh	a5,12(sp)
    3204:	c0000793          	li	a5,-1024
    3208:	24f5d4e3          	bge	a1,a5,3c50 <.L2249>

0000320c <.L2841>:
    320c:	00e15783          	lhu	a5,14(sp)
    3210:	00678793          	addi	a5,a5,6
    3214:	00f11723          	sh	a5,14(sp)

00003218 <.L2250>:
    3218:	cc817057          	vsetivli	zero,2,e16,m1,ta,ma
    321c:	00810593          	addi	a1,sp,8
    3220:	0205d107          	vle16.v	v2,(a1)
    3224:	020bd087          	vle16.v	v1,(s7)
    3228:	02000793          	li	a5,32
    322c:	5e07c1d7          	vmv.v.x	v3,a5
    3230:	00058693          	mv	a3,a1
    3234:	00000513          	li	a0,0
    3238:	02218157          	vadd.vv	v2,v2,v3
    323c:	021180d7          	vadd.vv	v1,v1,v3
    3240:	00100713          	li	a4,1
    3244:	0205d127          	vse16.v	v2,(a1)
    3248:	020bd0a7          	vse16.v	v1,(s7)
    324c:	00400813          	li	a6,4

00003250 <.L2253>:
    3250:	00151793          	slli	a5,a0,0x1
    3254:	00f587b3          	add	a5,a1,a5
    3258:	00079603          	lh	a2,0(a5)
    325c:	00269783          	lh	a5,2(a3)
    3260:	00268693          	addi	a3,a3,2
    3264:	00f65663          	bge	a2,a5,3270 <.L2252>
    3268:	01071513          	slli	a0,a4,0x10
    326c:	41055513          	srai	a0,a0,0x10

00003270 <.L2252>:
    3270:	00170713          	addi	a4,a4,1
    3274:	fd071ee3          	bne	a4,a6,3250 <.L2253>
    3278:	03c12403          	lw	s0,60(sp)
    327c:	03812483          	lw	s1,56(sp)
    3280:	03412903          	lw	s2,52(sp)
    3284:	03012983          	lw	s3,48(sp)
    3288:	02c12a03          	lw	s4,44(sp)
    328c:	02812a83          	lw	s5,40(sp)
    3290:	02412b03          	lw	s6,36(sp)
    3294:	02012b83          	lw	s7,32(sp)
    3298:	01c12c03          	lw	s8,28(sp)
    329c:	01812c83          	lw	s9,24(sp)
    32a0:	01412d03          	lw	s10,20(sp)
    32a4:	04010113          	addi	sp,sp,64
    32a8:	00008067          	ret

000032ac <.L934>:
    32ac:	00e15c03          	lhu	s8,14(sp)
    32b0:	ffac0c13          	addi	s8,s8,-6
    32b4:	01811723          	sh	s8,14(sp)
    32b8:	eb9fd06f          	j	1170 <.L940>

000032bc <.L712>:
    32bc:	00e15c03          	lhu	s8,14(sp)
    32c0:	0a900c93          	li	s9,169
    32c4:	00cc0c13          	addi	s8,s8,12
    32c8:	01811723          	sh	s8,14(sp)
    32cc:	01ecc463          	blt	s9,t5,32d4 <.L712+0x18>
    32d0:	1290306f          	j	6bf8 <.L2730>
    32d4:	10700c13          	li	s8,263
    32d8:	007c5463          	bge	s8,t2,32e0 <.L714>
    32dc:	7640806f          	j	ba40 <.L2534>

000032e0 <.L714>:
    32e0:	00815c03          	lhu	s8,8(sp)
    32e4:	ffcc0c13          	addi	s8,s8,-4
    32e8:	01811423          	sh	s8,8(sp)
    32ec:	b7dfd06f          	j	e68 <.L715>

000032f0 <.L348>:
    32f0:	ff700c13          	li	s8,-9
    32f4:	01864463          	blt	a2,s8,32fc <.L348+0xc>
    32f8:	3c50306f          	j	6ebc <.L360>
    32fc:	03100c13          	li	s8,49
    3300:	01dc5463          	bge	s8,t4,3308 <.L348+0x18>
    3304:	2e10306f          	j	6de4 <.L361>
    3308:	00a15c03          	lhu	s8,10(sp)
    330c:	17000c93          	li	s9,368
    3310:	ffac0c13          	addi	s8,s8,-6
    3314:	01811523          	sh	s8,10(sp)
    3318:	00dcd463          	bge	s9,a3,3320 <.L353>
    331c:	2e10306f          	j	6dfc <.L362>

00003320 <.L353>:
    3320:	01200c13          	li	s8,18
    3324:	01dc5463          	bge	s8,t4,332c <.L353+0xc>
    3328:	4180706f          	j	a740 <.L363>
    332c:	00c15c03          	lhu	s8,12(sp)
    3330:	006c0c13          	addi	s8,s8,6
    3334:	010c1c13          	slli	s8,s8,0x10
    3338:	410c5c13          	srai	s8,s8,0x10
    333c:	01811623          	sh	s8,12(sp)
    3340:	e9900c13          	li	s8,-359
    3344:	0185c463          	blt	a1,s8,334c <.L368>
    3348:	d14fd06f          	j	85c <.L372>

0000334c <.L368>:
    334c:	20200c13          	li	s8,514
    3350:	016c5463          	bge	s8,s6,3358 <.L368+0xc>
    3354:	1c80506f          	j	851c <.L373>
    3358:	df000c13          	li	s8,-528
    335c:	0182c463          	blt	t0,s8,3364 <.L368+0x18>
    3360:	24d0606f          	j	9dac <.L374>
    3364:	00e15c03          	lhu	s8,14(sp)
    3368:	ff7c0c13          	addi	s8,s8,-9
    336c:	010c1c13          	slli	s8,s8,0x10
    3370:	410c5c13          	srai	s8,s8,0x10
    3374:	01811723          	sh	s8,14(sp)
    3378:	0a900c13          	li	s8,169
    337c:	01ec4463          	blt	s8,t5,3384 <.L378>
    3380:	d14fd06f          	j	894 <.L2827>

00003384 <.L378>:
    3384:	ea900c13          	li	s8,-343
    3388:	018a4463          	blt	s4,s8,3390 <.L378+0xc>
    338c:	34d0406f          	j	7ed8 <.L393>
    3390:	00d00c13          	li	s8,13
    3394:	013c5463          	bge	s8,s3,339c <.L378+0x18>
    3398:	6e80606f          	j	9a80 <.L394>
    339c:	00815c03          	lhu	s8,8(sp)
    33a0:	ffdc0c13          	addi	s8,s8,-3
    33a4:	010c1c13          	slli	s8,s8,0x10
    33a8:	410c5c13          	srai	s8,s8,0x10

000033ac <.L395>:
    33ac:	01811423          	sh	s8,8(sp)
    33b0:	0b500c13          	li	s8,181
    33b4:	006c5463          	bge	s8,t1,33bc <.L2929>
    33b8:	34d0406f          	j	7f04 <.L397>

000033bc <.L2929>:
    33bc:	00a00c13          	li	s8,10
    33c0:	011c4463          	blt	s8,a7,33c8 <.L2929+0xc>
    33c4:	48c0306f          	j	6850 <.L382>
    33c8:	18f00c13          	li	s8,399
    33cc:	01ec4463          	blt	s8,t5,33d4 <.L2929+0x18>
    33d0:	d00fd06f          	j	8d0 <.L388>
    33d4:	00a15c03          	lhu	s8,10(sp)
    33d8:	ffdc0c13          	addi	s8,s8,-3
    33dc:	010c1c13          	slli	s8,s8,0x10
    33e0:	410c5c13          	srai	s8,s8,0x10
    33e4:	01811523          	sh	s8,10(sp)
    33e8:	06300c13          	li	s8,99
    33ec:	00dc4463          	blt	s8,a3,33f4 <.L400>
    33f0:	d00fd06f          	j	8f0 <.L2828>

000033f4 <.L400>:
    33f4:	ff700c13          	li	s8,-9
    33f8:	01864463          	blt	a2,s8,3400 <.L400+0xc>
    33fc:	1b90406f          	j	7db4 <.L408>
    3400:	03300c13          	li	s8,51
    3404:	01dc4463          	blt	s8,t4,340c <.L400+0x18>
    3408:	1990406f          	j	7da0 <.L410>
    340c:	00c15c03          	lhu	s8,12(sp)
    3410:	ffdc0c13          	addi	s8,s8,-3
    3414:	010c1c13          	slli	s8,s8,0x10
    3418:	410c5c13          	srai	s8,s8,0x10
    341c:	01811623          	sh	s8,12(sp)
    3420:	03b00c13          	li	s8,59
    3424:	00fc4463          	blt	s8,a5,342c <.L411>
    3428:	d00fd06f          	j	928 <.L2829>

0000342c <.L411>:
    342c:	e4700c13          	li	s8,-441
    3430:	0182c463          	blt	t0,s8,3438 <.L411+0xc>
    3434:	51c0306f          	j	6950 <.L407>
    3438:	bf300c13          	li	s8,-1037
    343c:	0185c463          	blt	a1,s8,3444 <.L411+0x18>
    3440:	4980306f          	j	68d8 <.L406>
    3444:	00e15c03          	lhu	s8,14(sp)
    3448:	00ac0c13          	addi	s8,s8,10
    344c:	010c1c13          	slli	s8,s8,0x10
    3450:	410c5c13          	srai	s8,s8,0x10
    3454:	01811723          	sh	s8,14(sp)
    3458:	0a900c13          	li	s8,169
    345c:	01ec4463          	blt	s8,t5,3464 <.L415>
    3460:	cf4fd06f          	j	954 <.L2830>

00003464 <.L415>:
    3464:	01e00c13          	li	s8,30
    3468:	013c5463          	bge	s8,s3,3470 <.L415+0xc>
    346c:	1280506f          	j	8594 <.L422>
    3470:	ea900c13          	li	s8,-343
    3474:	018a4463          	blt	s4,s8,347c <.L415+0x18>
    3478:	24c0606f          	j	96c4 <.L423>
    347c:	00815c03          	lhu	s8,8(sp)
    3480:	ffbc0c13          	addi	s8,s8,-5
    3484:	010c1c13          	slli	s8,s8,0x10
    3488:	410c5c13          	srai	s8,s8,0x10
    348c:	01811423          	sh	s8,8(sp)
    3490:	03900c13          	li	s8,57
    3494:	00ec4463          	blt	s8,a4,349c <.L424>
    3498:	cf8fd06f          	j	990 <.L2831>

0000349c <.L424>:
    349c:	08c00c13          	li	s8,140
    34a0:	006c5463          	bge	s8,t1,34a8 <.L424+0xc>
    34a4:	0b00306f          	j	6554 <.L435>
    34a8:	00a00c13          	li	s8,10
    34ac:	011c5463          	bge	s8,a7,34b4 <.L424+0x18>
    34b0:	2e00606f          	j	9790 <.L436>
    34b4:	00a15c03          	lhu	s8,10(sp)
    34b8:	008c0c13          	addi	s8,s8,8
    34bc:	010c1c13          	slli	s8,s8,0x10
    34c0:	410c5c13          	srai	s8,s8,0x10

000034c4 <.L437>:
    34c4:	01811523          	sh	s8,10(sp)
    34c8:	06300c13          	li	s8,99
    34cc:	16dc5e63          	bge	s8,a3,3648 <.L432>
    34d0:	ed000c13          	li	s8,-304
    34d4:	018ac463          	blt	s5,s8,34dc <.L437+0x18>
    34d8:	5a10206f          	j	6278 <.L430>
    34dc:	25b00c13          	li	s8,603
    34e0:	00ec4463          	blt	s8,a4,34e8 <.L437+0x24>
    34e4:	ce8fd06f          	j	9cc <.L433>
    34e8:	00c15c03          	lhu	s8,12(sp)
    34ec:	e2500c93          	li	s9,-475
    34f0:	ffec0c13          	addi	s8,s8,-2
    34f4:	01811623          	sh	s8,12(sp)
    34f8:	01945463          	bge	s0,s9,3500 <.L447>
    34fc:	cf0fd06f          	j	9ec <.L446>

00003500 <.L447>:
    3500:	03d00c13          	li	s8,61
    3504:	01fc5463          	bge	s8,t6,350c <.L447+0xc>
    3508:	0890706f          	j	ad90 <.L455>
    350c:	00e15c03          	lhu	s8,14(sp)
    3510:	ff8c0c13          	addi	s8,s8,-8
    3514:	010c1c13          	slli	s8,s8,0x10
    3518:	410c5c13          	srai	s8,s8,0x10

0000351c <.L454>:
    351c:	01811723          	sh	s8,14(sp)
    3520:	f5c00c13          	li	s8,-164
    3524:	01845463          	bge	s0,s8,352c <.L454+0x10>
    3528:	ce8fd06f          	j	a10 <.L451>
    352c:	0bb00c13          	li	s8,187
    3530:	012c5463          	bge	s8,s2,3538 <.L454+0x1c>
    3534:	7f90206f          	j	652c <.L462>
    3538:	18500c13          	li	s8,389
    353c:	009c5463          	bge	s8,s1,3544 <.L454+0x28>
    3540:	1d00606f          	j	9710 <.L463>
    3544:	00815c03          	lhu	s8,8(sp)
    3548:	0b500c93          	li	s9,181
    354c:	009c0c13          	addi	s8,s8,9
    3550:	01811423          	sh	s8,8(sp)
    3554:	006cc463          	blt	s9,t1,355c <.L472>
    3558:	cf0fd06f          	j	a48 <.L465>

0000355c <.L472>:
    355c:	01300c13          	li	s8,19
    3560:	00ec5463          	bge	s8,a4,3568 <.L472+0xc>
    3564:	3880306f          	j	68ec <.L474>
    3568:	00a15c03          	lhu	s8,10(sp)
    356c:	2be00c93          	li	s9,702
    3570:	ffac0c13          	addi	s8,s8,-6
    3574:	01811523          	sh	s8,10(sp)
    3578:	00dcc463          	blt	s9,a3,3580 <.L472+0x24>
    357c:	3940306f          	j	6910 <.L475>
    3580:	e4e00c13          	li	s8,-434
    3584:	018ac463          	blt	s5,s8,358c <.L2572>
    3588:	4e00806f          	j	ba68 <.L2573>

0000358c <.L2572>:
    358c:	00c15c03          	lhu	s8,12(sp)
    3590:	00bc0c13          	addi	s8,s8,11
    3594:	01811623          	sh	s8,12(sp)
    3598:	4210506f          	j	91b8 <.L498>

0000359c <.L2731>:
    359c:	01fc5463          	bge	s8,t6,35a4 <.L2731+0x8>
    35a0:	3d50606f          	j	a174 <.L1070>
    35a4:	08d00c13          	li	s8,141
    35a8:	00dc5463          	bge	s8,a3,35b0 <.L2731+0x14>
    35ac:	0110806f          	j	bdbc <.L1065>
    35b0:	00e15c03          	lhu	s8,14(sp)
    35b4:	ffe00c93          	li	s9,-2
    35b8:	004c0c13          	addi	s8,s8,4
    35bc:	01811723          	sh	s8,14(sp)
    35c0:	01984463          	blt	a6,s9,35c8 <.L1064>
    35c4:	d9dfd06f          	j	1360 <.L1062>

000035c8 <.L1064>:
    35c8:	de600c13          	li	s8,-538
    35cc:	018a4463          	blt	s4,s8,35d4 <.L1064+0xc>
    35d0:	0ad0806f          	j	be7c <.L1084>
    35d4:	00815c03          	lhu	s8,8(sp)
    35d8:	30000c93          	li	s9,768
    35dc:	ffac0c13          	addi	s8,s8,-6
    35e0:	01811423          	sh	s8,8(sp)
    35e4:	01ecc463          	blt	s9,t5,35ec <.L1086>
    35e8:	da1fd06f          	j	1388 <.L1085>

000035ec <.L1086>:
    35ec:	01c51c83          	lh	s9,28(a0)
    35f0:	fdf00c13          	li	s8,-33
    35f4:	018cc463          	blt	s9,s8,35fc <.L1086+0x10>
    35f8:	5990106f          	j	5390 <.L1100>
    35fc:	04900c13          	li	s8,73
    3600:	011c4463          	blt	s8,a7,3608 <.L1086+0x1c>
    3604:	a59fe06f          	j	205c <.L1104>
    3608:	08600c13          	li	s8,134
    360c:	01dc5463          	bge	s8,t4,3614 <.L2258>
    3610:	0490406f          	j	7e58 <.L1110>

00003614 <.L2258>:
    3614:	e4a00c13          	li	s8,-438
    3618:	0182c463          	blt	t0,s8,3620 <.L2258+0xc>
    361c:	a61fe06f          	j	207c <.L1112>
    3620:	5b90106f          	j	53d8 <.L1115>

00003624 <.L425>:
    3624:	42700c13          	li	s8,1063
    3628:	007c5463          	bge	s8,t2,3630 <.L425+0xc>
    362c:	20c0606f          	j	9838 <.L434>
    3630:	00a15c03          	lhu	s8,10(sp)
    3634:	06300c93          	li	s9,99
    3638:	ff7c0c13          	addi	s8,s8,-9
    363c:	01811523          	sh	s8,10(sp)
    3640:	00dcd463          	bge	s9,a3,3648 <.L432>
    3644:	b7cfd06f          	j	9c0 <.L427>

00003648 <.L432>:
    3648:	f2100c13          	li	s8,-223
    364c:	0185c463          	blt	a1,s8,3654 <.L432+0xc>
    3650:	4890206f          	j	62d8 <.L2832>
    3654:	23000c13          	li	s8,560
    3658:	01ec5463          	bge	s8,t5,3660 <.L432+0x18>
    365c:	2500606f          	j	98ac <.L440>
    3660:	00c15c03          	lhu	s8,12(sp)
    3664:	ff7c0c13          	addi	s8,s8,-9
    3668:	010c1c13          	slli	s8,s8,0x10
    366c:	410c5c13          	srai	s8,s8,0x10
    3670:	01811623          	sh	s8,12(sp)
    3674:	e2500c13          	li	s8,-475
    3678:	01845463          	bge	s0,s8,3680 <.L443>
    367c:	b70fd06f          	j	9ec <.L446>

00003680 <.L443>:
    3680:	03800c13          	li	s8,56
    3684:	e6ec4ee3          	blt	s8,a4,3500 <.L447>
    3688:	03a00c13          	li	s8,58
    368c:	00fc5463          	bge	s8,a5,3694 <.L443+0x14>
    3690:	4e50606f          	j	a374 <.L453>
    3694:	00e15c03          	lhu	s8,14(sp)
    3698:	ff9c0c13          	addi	s8,s8,-7
    369c:	010c1c13          	slli	s8,s8,0x10
    36a0:	410c5c13          	srai	s8,s8,0x10
    36a4:	e79ff06f          	j	351c <.L454>

000036a8 <.L192>:
    36a8:	00e15e03          	lhu	t3,14(sp)
    36ac:	0d900c13          	li	s8,217
    36b0:	002e0e13          	addi	t3,t3,2
    36b4:	01c11723          	sh	t3,14(sp)
    36b8:	01ec5463          	bge	s8,t5,36c0 <.L194>
    36bc:	fb5fc06f          	j	670 <.L2356>

000036c0 <.L194>:
    36c0:	01a00e13          	li	t3,26
    36c4:	010e5463          	bge	t3,a6,36cc <.L194+0xc>
    36c8:	4310406f          	j	82f8 <.L206>
    36cc:	0da00e13          	li	t3,218
    36d0:	012e4463          	blt	t3,s2,36d8 <.L194+0x18>
    36d4:	0790606f          	j	9f4c <.L207>
    36d8:	08000e13          	li	t3,128
    36dc:	00ee4463          	blt	t3,a4,36e4 <.L2557>
    36e0:	fb5fc06f          	j	694 <.L215>

000036e4 <.L2557>:
    36e4:	03d00e13          	li	t3,61
    36e8:	00fe4463          	blt	t3,a5,36f0 <.L213>
    36ec:	5210506f          	j	940c <.L211>

000036f0 <.L213>:
    36f0:	00a15e03          	lhu	t3,10(sp)
    36f4:	08c00c13          	li	s8,140
    36f8:	ff7e0e13          	addi	t3,t3,-9
    36fc:	01c11523          	sh	t3,10(sp)
    3700:	00dc5463          	bge	s8,a3,3708 <.L249>
    3704:	2350206f          	j	6138 <.L2727>

00003708 <.L249>:
    3708:	01c51c03          	lh	s8,28(a0)
    370c:	03b00e13          	li	t3,59
    3710:	018e5463          	bge	t3,s8,3718 <.L249+0x10>
    3714:	0100806f          	j	b724 <.L260>
    3718:	00c15e03          	lhu	t3,12(sp)
    371c:	ff7e0e13          	addi	t3,t3,-9
    3720:	01c11623          	sh	t3,12(sp)

00003724 <.L259>:
    3724:	1e500e13          	li	t3,485
    3728:	01ee5463          	bge	t3,t5,3730 <.L259+0xc>
    372c:	3f50406f          	j	8320 <.L277>
    3730:	ec100e13          	li	t3,-319
    3734:	01c44463          	blt	s0,t3,373c <.L259+0x18>
    3738:	5740606f          	j	9cac <.L278>
    373c:	00e15e03          	lhu	t3,14(sp)
    3740:	00ce0e13          	addi	t3,t3,12
    3744:	010e1e13          	slli	t3,t3,0x10
    3748:	410e5e13          	srai	t3,t3,0x10
    374c:	01c11723          	sh	t3,14(sp)
    3750:	efb00e13          	li	t3,-261
    3754:	01ca5463          	bge	s4,t3,375c <.L280>
    3758:	fd1fc06f          	j	728 <.L2833>

0000375c <.L280>:
    375c:	01f00e13          	li	t3,31
    3760:	013e5463          	bge	t3,s3,3768 <.L280+0xc>
    3764:	1410306f          	j	70a4 <.L302>
    3768:	0d800e13          	li	t3,216
    376c:	012e5463          	bge	t3,s2,3774 <.L280+0x18>
    3770:	3500706f          	j	aac0 <.L303>
    3774:	00815e03          	lhu	t3,8(sp)
    3778:	00be0e13          	addi	t3,t3,11
    377c:	010e1e13          	slli	t3,t3,0x10
    3780:	410e5e13          	srai	t3,t3,0x10

00003784 <.L304>:
    3784:	01c11423          	sh	t3,8(sp)
    3788:	2df00e13          	li	t3,735
    378c:	00ee4463          	blt	t3,a4,3794 <.L304+0x10>
    3790:	5100206f          	j	5ca0 <.L305>
    3794:	00001e37          	lui	t3,0x1
    3798:	bace0e13          	addi	t3,t3,-1108 # bac <.L546+0x20>
    379c:	00de5463          	bge	t3,a3,37a4 <.L304+0x20>
    37a0:	2180306f          	j	69b8 <.L309>
    37a4:	f5100e13          	li	t3,-175
    37a8:	01ca5463          	bge	s4,t3,37b0 <.L304+0x2c>
    37ac:	1190806f          	j	c0c4 <.L2834>
    37b0:	00a15e03          	lhu	t3,10(sp)
    37b4:	08f00c13          	li	s8,143
    37b8:	ff8e0e13          	addi	t3,t3,-8
    37bc:	01c11523          	sh	t3,10(sp)
    37c0:	00dc5463          	bge	s8,a3,37c8 <.L304+0x44>
    37c4:	6800606f          	j	9e44 <.L2564>
    37c8:	03300e13          	li	t3,51
    37cc:	00fe4463          	blt	t3,a5,37d4 <.L2562>
    37d0:	4500806f          	j	bc20 <.L316>

000037d4 <.L2562>:
    37d4:	02051e03          	lh	t3,32(a0)

000037d8 <.L313>:
    37d8:	01c51c83          	lh	s9,28(a0)
    37dc:	03b00c13          	li	s8,59
    37e0:	019c5463          	bge	s8,s9,37e8 <.L313+0x10>
    37e4:	3200606f          	j	9b04 <.L322>
    37e8:	00c15c03          	lhu	s8,12(sp)
    37ec:	ff8c0c13          	addi	s8,s8,-8
    37f0:	010c1c13          	slli	s8,s8,0x10
    37f4:	010c5c13          	srli	s8,s8,0x10

000037f8 <.L323>:
    37f8:	01811623          	sh	s8,12(sp)
    37fc:	03c00c13          	li	s8,60
    3800:	00fc4463          	blt	s8,a5,3808 <.L325>
    3804:	4f80206f          	j	5cfc <.L319>

00003808 <.L325>:
    3808:	e2d00c13          	li	s8,-467
    380c:	0182c463          	blt	t0,s8,3814 <.L325+0xc>
    3810:	2140306f          	j	6a24 <.L330>
    3814:	03e00c13          	li	s8,62
    3818:	00fc5463          	bge	s8,a5,3820 <.L325+0x18>
    381c:	6b80606f          	j	9ed4 <.L339>
    3820:	00e15c03          	lhu	s8,14(sp)
    3824:	ff7c0c13          	addi	s8,s8,-9
    3828:	010c1c13          	slli	s8,s8,0x10
    382c:	410c5c13          	srai	s8,s8,0x10
    3830:	01811723          	sh	s8,14(sp)
    3834:	efb00c13          	li	s8,-261
    3838:	018a5463          	bge	s4,s8,3840 <.L341>
    383c:	fa1fc06f          	j	7dc <.L2835>

00003840 <.L341>:
    3840:	01900c13          	li	s8,25
    3844:	013c5463          	bge	s8,s3,384c <.L341+0xc>
    3848:	1390206f          	j	6180 <.L346>
    384c:	0be00c13          	li	s8,190
    3850:	012c5463          	bge	s8,s2,3858 <.L341+0x18>
    3854:	fadfc06f          	j	800 <.L344>
    3858:	00815c03          	lhu	s8,8(sp)
    385c:	00ac0c13          	addi	s8,s8,10
    3860:	01811423          	sh	s8,8(sp)
    3864:	f9dfc06f          	j	800 <.L344>

00003868 <.L2317>:
    3868:	01e51583          	lh	a1,30(a0)
    386c:	00c51903          	lh	s2,12(a0)

00003870 <.L34>:
    3870:	0b400893          	li	a7,180
    3874:	0128c463          	blt	a7,s2,387c <.L34+0xc>
    3878:	7680606f          	j	9fe0 <.L37>
    387c:	1b500893          	li	a7,437
    3880:	00e8c463          	blt	a7,a4,3888 <.L44>
    3884:	af5fc06f          	j	378 <.L2544>

00003888 <.L44>:
    3888:	40a00893          	li	a7,1034
    388c:	00d8d463          	bge	a7,a3,3894 <.L44+0xc>
    3890:	7290206f          	j	67b8 <.L55>
    3894:	10f00893          	li	a7,271
    3898:	0098d463          	bge	a7,s1,38a0 <.L44+0x18>
    389c:	19d0606f          	j	a238 <.L56>
    38a0:	00a15883          	lhu	a7,10(sp)
    38a4:	df700e13          	li	t3,-521
    38a8:	ffe88893          	addi	a7,a7,-2
    38ac:	01111523          	sh	a7,10(sp)
    38b0:	01ca4463          	blt	s4,t3,38b8 <.L60>
    38b4:	7290206f          	j	67dc <.L2548>

000038b8 <.L60>:
    38b8:	ff400893          	li	a7,-12
    38bc:	01165463          	bge	a2,a7,38c4 <.L60+0xc>
    38c0:	1b10406f          	j	8270 <.L2323>
    38c4:	02a51883          	lh	a7,42(a0)

000038c8 <.L59>:
    38c8:	00c15e03          	lhu	t3,12(sp)
    38cc:	ff6e0e13          	addi	t3,t3,-10
    38d0:	010e1e13          	slli	t3,t3,0x10
    38d4:	410e5e13          	srai	t3,t3,0x10
    38d8:	8fdfc06f          	j	1d4 <.L65>

000038dc <.L136>:
    38dc:	01c51c03          	lh	s8,28(a0)
    38e0:	03500e13          	li	t3,53
    38e4:	018e5463          	bge	t3,s8,38ec <.L136+0x10>
    38e8:	1ec0706f          	j	aad4 <.L141>
    38ec:	00815e03          	lhu	t3,8(sp)
    38f0:	0a600c13          	li	s8,166
    38f4:	ff7e0e13          	addi	t3,t3,-9
    38f8:	01c11423          	sh	t3,8(sp)
    38fc:	00ec5463          	bge	s8,a4,3904 <.L143>
    3900:	be1fc06f          	j	4e0 <.L2552>

00003904 <.L143>:
    3904:	ffe00e13          	li	t3,-2
    3908:	01c64463          	blt	a2,t3,3910 <.L143+0xc>
    390c:	4800306f          	j	6d8c <.L149>
    3910:	e2c00e13          	li	t3,-468
    3914:	01c2c463          	blt	t0,t3,391c <.L143+0x18>
    3918:	4500206f          	j	5d68 <.L150>
    391c:	00a15e03          	lhu	t3,10(sp)
    3920:	10b00c13          	li	s8,267
    3924:	001e0e13          	addi	t3,t3,1
    3928:	01c11523          	sh	t3,10(sp)
    392c:	00dc4463          	blt	s8,a3,3934 <.L152>
    3930:	4500206f          	j	5d80 <.L161>

00003934 <.L152>:
    3934:	00c15e03          	lhu	t3,12(sp)
    3938:	012e0e13          	addi	t3,t3,18
    393c:	010e1e13          	slli	t3,t3,0x10
    3940:	410e5e13          	srai	t3,t3,0x10

00003944 <.L175>:
    3944:	01c11623          	sh	t3,12(sp)
    3948:	03c00e13          	li	t3,60
    394c:	00fe5463          	bge	t3,a5,3954 <.L170>
    3950:	cf1fc06f          	j	640 <.L174>

00003954 <.L170>:
    3954:	ce400e13          	li	t3,-796
    3958:	01c5c463          	blt	a1,t3,3960 <.L2901>
    395c:	4540206f          	j	5db0 <.L188>

00003960 <.L2901>:
    3960:	19c00e13          	li	t3,412
    3964:	00ee5463          	bge	t3,a4,396c <.L2901+0xc>
    3968:	73c0206f          	j	60a4 <.L189>
    396c:	00e15e03          	lhu	t3,14(sp)
    3970:	012e0e13          	addi	t3,t3,18
    3974:	010e1e13          	slli	t3,t3,0x10
    3978:	410e5e13          	srai	t3,t3,0x10

0000397c <.L190>:
    397c:	01c11723          	sh	t3,14(sp)
    3980:	0d900e13          	li	t3,217
    3984:	d3ee5ee3          	bge	t3,t5,36c0 <.L194>
    3988:	07a00e13          	li	t3,122
    398c:	006e4463          	blt	t3,t1,3994 <.L190+0x18>
    3990:	7f90306f          	j	7988 <.L196>
    3994:	02700e13          	li	t3,39
    3998:	00fe5463          	bge	t3,a5,39a0 <.L190+0x24>
    399c:	6fc0806f          	j	c098 <.L221>
    39a0:	00815e03          	lhu	t3,8(sp)
    39a4:	08000c13          	li	s8,128
    39a8:	004e0e13          	addi	t3,t3,4
    39ac:	01c11423          	sh	t3,8(sp)
    39b0:	00ec4463          	blt	s8,a4,39b8 <.L190+0x3c>
    39b4:	ce1fc06f          	j	694 <.L215>
    39b8:	f2000e13          	li	t3,-224
    39bc:	01ca4463          	blt	s4,t3,39c4 <.L190+0x48>
    39c0:	0840706f          	j	aa44 <.L223>
    39c4:	00a15e03          	lhu	t3,10(sp)
    39c8:	08c00c13          	li	s8,140
    39cc:	009e0e13          	addi	t3,t3,9
    39d0:	01c11523          	sh	t3,10(sp)
    39d4:	00dc4463          	blt	s8,a3,39dc <.L225>
    39d8:	45c0206f          	j	5e34 <.L224>

000039dc <.L225>:
    39dc:	2df00e13          	li	t3,735
    39e0:	00ee4463          	blt	t3,a4,39e8 <.L225+0xc>
    39e4:	ce1fc06f          	j	6c4 <.L236>
    39e8:	7e700e13          	li	t3,2023
    39ec:	00de5463          	bge	t3,a3,39f4 <.L225+0x18>
    39f0:	4450706f          	j	b634 <.L268>
    39f4:	00c15e03          	lhu	t3,12(sp)
    39f8:	03d00c13          	li	s8,61
    39fc:	ff6e0e13          	addi	t3,t3,-10
    3a00:	01c11623          	sh	t3,12(sp)
    3a04:	01879463          	bne	a5,s8,3a0c <.L269>
    3a08:	4450706f          	j	b64c <.L270>

00003a0c <.L269>:
    3a0c:	ce400e13          	li	t3,-796
    3a10:	01c5c463          	blt	a1,t3,3a18 <.L276>
    3a14:	6a40506f          	j	90b8 <.L273>

00003a18 <.L276>:
    3a18:	00e15e03          	lhu	t3,14(sp)
    3a1c:	ffae0e13          	addi	t3,t3,-6
    3a20:	010e1e13          	slli	t3,t3,0x10
    3a24:	410e5e13          	srai	t3,t3,0x10
    3a28:	cf1fc06f          	j	718 <.L275>

00003a2c <.L1160>:
    3a2c:	00815c03          	lhu	s8,8(sp)
    3a30:	1b900c93          	li	s9,441
    3a34:	004c0c13          	addi	s8,s8,4
    3a38:	01811423          	sh	s8,8(sp)
    3a3c:	01ecd463          	bge	s9,t5,3a44 <.L1161>
    3a40:	f40fe06f          	j	2180 <.L1162>

00003a44 <.L1161>:
    3a44:	00a15c03          	lhu	s8,10(sp)
    3a48:	ff8c0c13          	addi	s8,s8,-8
    3a4c:	010c1c13          	slli	s8,s8,0x10
    3a50:	410c5c13          	srai	s8,s8,0x10

00003a54 <.L1169>:
    3a54:	01811523          	sh	s8,10(sp)
    3a58:	03c00c13          	li	s8,60
    3a5c:	00fc5463          	bge	s8,a5,3a64 <.L1167>
    3a60:	f4cfe06f          	j	21ac <.L1171>

00003a64 <.L1167>:
    3a64:	00f00c13          	li	s8,15
    3a68:	010c4463          	blt	s8,a6,3a70 <.L1167+0xc>
    3a6c:	ad1fd06f          	j	153c <.L1188>
    3a70:	ffc00c13          	li	s8,-4
    3a74:	65865ce3          	bge	a2,s8,48cc <.L1192>

00003a78 <.L1196>:
    3a78:	00c15c03          	lhu	s8,12(sp)
    3a7c:	005c0c13          	addi	s8,s8,5
    3a80:	010c1c13          	slli	s8,s8,0x10
    3a84:	410c5c13          	srai	s8,s8,0x10
    3a88:	f4cfe06f          	j	21d4 <.L1189>

00003a8c <.L2154>:
    3a8c:	00815b03          	lhu	s6,8(sp)
    3a90:	ffcb0b13          	addi	s6,s6,-4
    3a94:	010b1b13          	slli	s6,s6,0x10
    3a98:	410b5b13          	srai	s6,s6,0x10
    3a9c:	01611423          	sh	s6,8(sp)
    3aa0:	03b00b13          	li	s6,59
    3aa4:	dafb5863          	bge	s6,a5,3054 <.L2836>

00003aa8 <.L2146>:
    3aa8:	ec100b13          	li	s6,-319
    3aac:	01644463          	blt	s0,s6,3ab4 <.L2146+0xc>
    3ab0:	2790306f          	j	7528 <.L2157>
    3ab4:	ef600b13          	li	s6,-266
    3ab8:	016ac463          	blt	s5,s6,3ac0 <.L2146+0x18>
    3abc:	1910606f          	j	a44c <.L2158>
    3ac0:	00a15b03          	lhu	s6,10(sp)
    3ac4:	fdb00c13          	li	s8,-37
    3ac8:	002b0b13          	addi	s6,s6,2
    3acc:	01611523          	sh	s6,10(sp)
    3ad0:	01875463          	bge	a4,s8,3ad8 <.L2159>
    3ad4:	1910606f          	j	a464 <.L2165>

00003ad8 <.L2159>:
    3ad8:	02600b13          	li	s6,38
    3adc:	00eb5463          	bge	s6,a4,3ae4 <.L2159+0xc>
    3ae0:	4090706f          	j	b6e8 <.L2178>
    3ae4:	03c00b13          	li	s6,60
    3ae8:	dadb4c63          	blt	s6,a3,30a0 <.L2171>

00003aec <.L2161>:
    3aec:	05800693          	li	a3,88
    3af0:	0096d463          	bge	a3,s1,3af8 <.L2254>
    3af4:	6c50306f          	j	79b8 <.L2184>

00003af8 <.L2254>:
    3af8:	00e15683          	lhu	a3,14(sp)
    3afc:	0a900b13          	li	s6,169
    3b00:	00c68693          	addi	a3,a3,12
    3b04:	01069693          	slli	a3,a3,0x10
    3b08:	4106d693          	srai	a3,a3,0x10
    3b0c:	00d11723          	sh	a3,14(sp)
    3b10:	ddeb5263          	bge	s6,t5,30d4 <.L2837>

00003b14 <.L2187>:
    3b14:	0ba00f13          	li	t5,186
    3b18:	012f5463          	bge	t5,s2,3b20 <.L2187+0xc>
    3b1c:	5550206f          	j	6870 <.L2191>
    3b20:	0ac00f13          	li	t5,172
    3b24:	dd2f5863          	bge	t5,s2,30f4 <.L2189>
    3b28:	00815f03          	lhu	t5,8(sp)
    3b2c:	007f0f13          	addi	t5,t5,7
    3b30:	01e11423          	sh	t5,8(sp)
    3b34:	ef600f13          	li	t5,-266
    3b38:	ddeac263          	blt	s5,t5,30fc <.L2838>

00003b3c <.L2193>:
    3b3c:	00c00513          	li	a0,12
    3b40:	01155463          	bge	a0,a7,3b48 <.L2193+0xc>
    3b44:	3710306f          	j	76b4 <.L2202>
    3b48:	00b00513          	li	a0,11
    3b4c:	01d55463          	bge	a0,t4,3b54 <.L2193+0x18>
    3b50:	1fd0606f          	j	a54c <.L2203>
    3b54:	00a15503          	lhu	a0,10(sp)
    3b58:	ffb50513          	addi	a0,a0,-5
    3b5c:	01051513          	slli	a0,a0,0x10
    3b60:	41055513          	srai	a0,a0,0x10
    3b64:	00a11523          	sh	a0,10(sp)
    3b68:	25b00513          	li	a0,603
    3b6c:	dce55463          	bge	a0,a4,3134 <.L2201>

00003b70 <.L2205>:
    3b70:	fe900513          	li	a0,-23
    3b74:	00a64463          	blt	a2,a0,3b7c <.L2205+0xc>
    3b78:	4cc0306f          	j	7044 <.L2198>
    3b7c:	dde00513          	li	a0,-546
    3b80:	00aa4463          	blt	s4,a0,3b88 <.L2205+0x18>
    3b84:	3c80706f          	j	af4c <.L2211>
    3b88:	00c15503          	lhu	a0,12(sp)
    3b8c:	02800e93          	li	t4,40
    3b90:	00450513          	addi	a0,a0,4
    3b94:	00a11623          	sh	a0,12(sp)
    3b98:	167ed4e3          	bge	t4,t2,4500 <.L2212>
    3b9c:	06b00513          	li	a0,107
    3ba0:	169546e3          	blt	a0,s1,450c <.L2217>

00003ba4 <.L2213>:
    3ba4:	f9500513          	li	a0,-107
    3ba8:	00a44463          	blt	s0,a0,3bb0 <.L2213+0xc>
    3bac:	32c0706f          	j	aed8 <.L2839>
    3bb0:	00968693          	addi	a3,a3,9
    3bb4:	00d11723          	sh	a3,14(sp)
    3bb8:	f7a00693          	li	a3,-134
    3bbc:	dcda5263          	bge	s4,a3,3180 <.L2218>

00003bc0 <.L2826>:
    3bc0:	f4000693          	li	a3,-192
    3bc4:	00da5463          	bge	s4,a3,3bcc <.L2826+0xc>
    3bc8:	2350106f          	j	55fc <.L2219>
    3bcc:	ff700693          	li	a3,-9
    3bd0:	00d64463          	blt	a2,a3,3bd8 <.L2220>
    3bd4:	2450106f          	j	5618 <.L2230>

00003bd8 <.L2220>:
    3bd8:	00815683          	lhu	a3,8(sp)
    3bdc:	00768693          	addi	a3,a3,7
    3be0:	00d11423          	sh	a3,8(sp)
    3be4:	03300693          	li	a3,51
    3be8:	ddf6d663          	bge	a3,t6,31b4 <.L2840>

00003bec <.L2238>:
    3bec:	02b00693          	li	a3,43
    3bf0:	0106d463          	bge	a3,a6,3bf8 <.L2215>
    3bf4:	0600506f          	j	8c54 <.L2245>

00003bf8 <.L2215>:
    3bf8:	00c00713          	li	a4,12
    3bfc:	01c75463          	bge	a4,t3,3c04 <.L2215+0xc>
    3c00:	6f40606f          	j	a2f4 <.L2246>
    3c04:	00a15703          	lhu	a4,10(sp)
    3c08:	00170713          	addi	a4,a4,1
    3c0c:	01071713          	slli	a4,a4,0x10
    3c10:	41075713          	srai	a4,a4,0x10

00003c14 <.L2247>:
    3c14:	00e11523          	sh	a4,10(sp)
    3c18:	f5b00713          	li	a4,-165
    3c1c:	12e2d0e3          	bge	t0,a4,453c <.L2240>
    3c20:	f5600793          	li	a5,-170
    3c24:	00fa4463          	blt	s4,a5,3c2c <.L2247+0x18>
    3c28:	0690306f          	j	7490 <.L2241>
    3c2c:	03a00793          	li	a5,58
    3c30:	ddf7d063          	bge	a5,t6,31f0 <.L2243>
    3c34:	00c15783          	lhu	a5,12(sp)
    3c38:	00278793          	addi	a5,a5,2
    3c3c:	01079793          	slli	a5,a5,0x10
    3c40:	4107d793          	srai	a5,a5,0x10
    3c44:	00f11623          	sh	a5,12(sp)
    3c48:	c0000793          	li	a5,-1024
    3c4c:	dcf5c063          	blt	a1,a5,320c <.L2841>

00003c50 <.L2249>:
    3c50:	02c00793          	li	a5,44
    3c54:	0117d463          	bge	a5,a7,3c5c <.L2249+0xc>
    3c58:	5680406f          	j	81c0 <.L2251>
    3c5c:	daf89e63          	bne	a7,a5,3218 <.L2250>
    3c60:	00e15783          	lhu	a5,14(sp)
    3c64:	00878793          	addi	a5,a5,8
    3c68:	00f11723          	sh	a5,14(sp)
    3c6c:	dacff06f          	j	3218 <.L2250>

00003c70 <.L1543>:
    3c70:	00c15c03          	lhu	s8,12(sp)
    3c74:	01800c93          	li	s9,24
    3c78:	016c0c13          	addi	s8,s8,22
    3c7c:	01811623          	sh	s8,12(sp)
    3c80:	150cd8e3          	bge	s9,a6,45d0 <.L1544>

00003c84 <.L1545>:
    3c84:	02600c13          	li	s8,38
    3c88:	006c4463          	blt	s8,t1,3c90 <.L1549>
    3c8c:	a19fe06f          	j	26a4 <.L1539>

00003c90 <.L1549>:
    3c90:	00e15c03          	lhu	s8,14(sp)
    3c94:	00bc0c13          	addi	s8,s8,11
    3c98:	01811723          	sh	s8,14(sp)
    3c9c:	0a900c13          	li	s8,169
    3ca0:	01ec4463          	blt	s8,t5,3ca8 <.L1550>
    3ca4:	a0dfe06f          	j	26b0 <.L2842>

00003ca8 <.L1550>:
    3ca8:	01700c13          	li	s8,23
    3cac:	01dc5463          	bge	s8,t4,3cb4 <.L1550+0xc>
    3cb0:	0450306f          	j	74f4 <.L1555>
    3cb4:	00815c03          	lhu	s8,8(sp)
    3cb8:	fffc0c13          	addi	s8,s8,-1
    3cbc:	010c1c13          	slli	s8,s8,0x10
    3cc0:	410c5c13          	srai	s8,s8,0x10
    3cc4:	01811423          	sh	s8,8(sp)
    3cc8:	03300c13          	li	s8,51
    3ccc:	01fc4463          	blt	s8,t6,3cd4 <.L1557>
    3cd0:	a19fe06f          	j	26e8 <.L2843>

00003cd4 <.L1557>:
    3cd4:	06f00c13          	li	s8,111
    3cd8:	00dc5463          	bge	s8,a3,3ce0 <.L1557+0xc>
    3cdc:	6590306f          	j	7b34 <.L1562>
    3ce0:	01b00c13          	li	s8,27
    3ce4:	00ec5463          	bge	s8,a4,3cec <.L1557+0x18>
    3ce8:	4fc0506f          	j	91e4 <.L1563>
    3cec:	00a15c03          	lhu	s8,10(sp)
    3cf0:	fffc0c13          	addi	s8,s8,-1
    3cf4:	01811523          	sh	s8,10(sp)

00003cf8 <.L1564>:
    3cf8:	02a00c13          	li	s8,42
    3cfc:	00dc5463          	bge	s8,a3,3d04 <.L1564+0xc>
    3d00:	6810306f          	j	7b80 <.L1573>
    3d04:	00c15c03          	lhu	s8,12(sp)
    3d08:	02700c93          	li	s9,39
    3d0c:	ffec0c13          	addi	s8,s8,-2
    3d10:	010c1c13          	slli	s8,s8,0x10
    3d14:	410c5c13          	srai	s8,s8,0x10
    3d18:	01811623          	sh	s8,12(sp)
    3d1c:	007cc463          	blt	s9,t2,3d24 <.L1577>
    3d20:	a31fe06f          	j	2750 <.L2844>

00003d24 <.L1577>:
    3d24:	05800c93          	li	s9,88
    3d28:	009cd463          	bge	s9,s1,3d30 <.L1577+0xc>
    3d2c:	6140406f          	j	8340 <.L1581>
    3d30:	f9500c93          	li	s9,-107
    3d34:	01944463          	blt	s0,s9,3d3c <.L1577+0x18>
    3d38:	4a40406f          	j	81dc <.L1579>
    3d3c:	00e15c83          	lhu	s9,14(sp)
    3d40:	010c8c93          	addi	s9,s9,16
    3d44:	01911723          	sh	s9,14(sp)
    3d48:	01f00c93          	li	s9,31
    3d4c:	013cc463          	blt	s9,s3,3d54 <.L1582>
    3d50:	a31fe06f          	j	2780 <.L2845>

00003d54 <.L1582>:
    3d54:	e1800c93          	li	s9,-488
    3d58:	019a4463          	blt	s4,s9,3d60 <.L1582+0xc>
    3d5c:	3880406f          	j	80e4 <.L1589>
    3d60:	00815c83          	lhu	s9,8(sp)
    3d64:	ffec8c93          	addi	s9,s9,-2
    3d68:	01911423          	sh	s9,8(sp)
    3d6c:	e2c00c93          	li	s9,-468
    3d70:	0192c463          	blt	t0,s9,3d78 <.L1590>
    3d74:	a39fe06f          	j	27ac <.L2846>

00003d78 <.L1590>:
    3d78:	e0200c93          	li	s9,-510
    3d7c:	019ac463          	blt	s5,s9,3d84 <.L1590+0xc>
    3d80:	0d90406f          	j	8658 <.L1588>
    3d84:	fef00c93          	li	s9,-17
    3d88:	01964463          	blt	a2,s9,3d90 <.L1590+0x18>
    3d8c:	4490106f          	j	59d4 <.L1592>
    3d90:	00a15c83          	lhu	s9,10(sp)
    3d94:	03c00d13          	li	s10,60
    3d98:	ffac8c93          	addi	s9,s9,-6
    3d9c:	01911523          	sh	s9,10(sp)
    3da0:	00fd5463          	bge	s10,a5,3da8 <.L1590+0x30>
    3da4:	0d50406f          	j	8678 <.L2712>
    3da8:	00f00c93          	li	s9,15
    3dac:	010cd463          	bge	s9,a6,3db4 <.L1590+0x3c>
    3db0:	1d40506f          	j	8f84 <.L1599>
    3db4:	f6300c13          	li	s8,-157
    3db8:	0185c463          	blt	a1,s8,3dc0 <.L1590+0x48>
    3dbc:	1b80806f          	j	bf74 <.L1600>
    3dc0:	00c15c03          	lhu	s8,12(sp)
    3dc4:	00300c93          	li	s9,3
    3dc8:	ffcc0c13          	addi	s8,s8,-4
    3dcc:	01811623          	sh	s8,12(sp)
    3dd0:	01ccd463          	bge	s9,t3,3dd8 <.L1621>
    3dd4:	1c40506f          	j	8f98 <.L1596>

00003dd8 <.L1621>:
    3dd8:	0c100c13          	li	s8,193
    3ddc:	012c4463          	blt	s8,s2,3de4 <.L1621+0xc>
    3de0:	a35fe06f          	j	2814 <.L1635>
    3de4:	00e15c03          	lhu	s8,14(sp)
    3de8:	ffdc0c13          	addi	s8,s8,-3
    3dec:	01811723          	sh	s8,14(sp)

00003df0 <.L1628>:
    3df0:	00400c13          	li	s8,4
    3df4:	011c4463          	blt	s8,a7,3dfc <.L1628+0xc>
    3df8:	4910106f          	j	5a88 <.L1643>
    3dfc:	00e00c13          	li	s8,14
    3e00:	01dc4463          	blt	s8,t4,3e08 <.L1645>
    3e04:	a41fe06f          	j	2844 <.L1646>

00003e08 <.L1645>:
    3e08:	ffc00c13          	li	s8,-4
    3e0c:	01864863          	blt	a2,s8,3e1c <.L1673>

00003e10 <.L1665>:
    3e10:	00815c03          	lhu	s8,8(sp)
    3e14:	006c0c13          	addi	s8,s8,6
    3e18:	01811423          	sh	s8,8(sp)

00003e1c <.L1673>:
    3e1c:	02e00c13          	li	s8,46
    3e20:	01dc5463          	bge	s8,t4,3e28 <.L1666>
    3e24:	5910406f          	j	8bb4 <.L1674>

00003e28 <.L1666>:
    3e28:	01d00c13          	li	s8,29
    3e2c:	011c4463          	blt	s8,a7,3e34 <.L1666+0xc>
    3e30:	1f00806f          	j	c020 <.L2847>
    3e34:	3b500c13          	li	s8,949
    3e38:	00ec5463          	bge	s8,a4,3e40 <.L1666+0x18>
    3e3c:	0880806f          	j	bec4 <.L1687>
    3e40:	00a15c03          	lhu	s8,10(sp)
    3e44:	00100c93          	li	s9,1
    3e48:	ff7c0c13          	addi	s8,s8,-9
    3e4c:	01811523          	sh	s8,10(sp)
    3e50:	01ccc463          	blt	s9,t3,3e58 <.L1689>
    3e54:	0880806f          	j	bedc <.L1688>

00003e58 <.L1689>:
    3e58:	02000c13          	li	s8,32
    3e5c:	01dc4463          	blt	s8,t4,3e64 <.L1689+0xc>
    3e60:	a21fe06f          	j	2880 <.L1659>
    3e64:	4790106f          	j	5adc <.L1692>

00003e68 <.L2772>:
    3e68:	02c00c13          	li	s8,44
    3e6c:	01dc5e63          	bge	s8,t4,3e88 <.L1329>
    3e70:	00815c03          	lhu	s8,8(sp)
    3e74:	03400c93          	li	s9,52
    3e78:	ffac0c13          	addi	s8,s8,-6
    3e7c:	01811423          	sh	s8,8(sp)
    3e80:	01dcd463          	bge	s9,t4,3e88 <.L1329>
    3e84:	899fd06f          	j	171c <.L1323>

00003e88 <.L1329>:
    3e88:	ff100c13          	li	s8,-15
    3e8c:	01864463          	blt	a2,s8,3e94 <.L1329+0xc>
    3e90:	6d40306f          	j	7564 <.L2848>
    3e94:	00200c13          	li	s8,2
    3e98:	01cc5463          	bge	s8,t3,3ea0 <.L1329+0x18>
    3e9c:	2f80706f          	j	b194 <.L1335>
    3ea0:	00a15c03          	lhu	s8,10(sp)
    3ea4:	02a00c93          	li	s9,42
    3ea8:	006c0c13          	addi	s8,s8,6
    3eac:	01811523          	sh	s8,10(sp)
    3eb0:	00dcc463          	blt	s9,a3,3eb8 <.L1329+0x30>
    3eb4:	6dc0306f          	j	7590 <.L1345>
    3eb8:	02700c13          	li	s8,39
    3ebc:	00ec5463          	bge	s8,a4,3ec4 <.L2698>
    3ec0:	6190706f          	j	bcd8 <.L1339>

00003ec4 <.L2698>:
    3ec4:	00900c13          	li	s8,9
    3ec8:	012c5463          	bge	s8,s2,3ed0 <.L1346>
    3ecc:	5a90706f          	j	bc74 <.L1340>

00003ed0 <.L1346>:
    3ed0:	00c15c03          	lhu	s8,12(sp)
    3ed4:	03600c93          	li	s9,54
    3ed8:	001c0c13          	addi	s8,s8,1
    3edc:	01811623          	sh	s8,12(sp)
    3ee0:	00fcc463          	blt	s9,a5,3ee8 <.L1342>
    3ee4:	6c40106f          	j	55a8 <.L1341>

00003ee8 <.L1342>:
    3ee8:	00c00c13          	li	s8,12
    3eec:	01cc5463          	bge	s8,t3,3ef4 <.L1364>
    3ef0:	0e80206f          	j	5fd8 <.L1354>

00003ef4 <.L1364>:
    3ef4:	00e15c03          	lhu	s8,14(sp)
    3ef8:	ffac0c13          	addi	s8,s8,-6
    3efc:	010c1c13          	slli	s8,s8,0x10
    3f00:	410c5c13          	srai	s8,s8,0x10
    3f04:	01811723          	sh	s8,14(sp)
    3f08:	fa300c13          	li	s8,-93
    3f0c:	0182d463          	bge	t0,s8,3f14 <.L1367>
    3f10:	cecfe06f          	j	23fc <.L2849>

00003f14 <.L1367>:
    3f14:	01f00c13          	li	s8,31
    3f18:	0d0c42e3          	blt	s8,a6,47dc <.L1376>
    3f1c:	1a000c13          	li	s8,416
    3f20:	012c5463          	bge	s8,s2,3f28 <.L1367+0x14>
    3f24:	1ec0706f          	j	b110 <.L1384>
    3f28:	00815c03          	lhu	s8,8(sp)
    3f2c:	03900c93          	li	s9,57
    3f30:	009c0c13          	addi	s8,s8,9
    3f34:	01811423          	sh	s8,8(sp)
    3f38:	0a6cdce3          	bge	s9,t1,47f0 <.L1372>

00003f3c <.L2620>:
    3f3c:	ff800c13          	li	s8,-8
    3f40:	01865463          	bge	a2,s8,3f48 <.L1385>
    3f44:	ce4fe06f          	j	2428 <.L1373>

00003f48 <.L1385>:
    3f48:	00100c13          	li	s8,1
    3f4c:	01cc4463          	blt	s8,t3,3f54 <.L2625>
    3f50:	0e80206f          	j	6038 <.L1375>

00003f54 <.L2625>:
    3f54:	02000c13          	li	s8,32
    3f58:	01dc5463          	bge	s8,t4,3f60 <.L1394>
    3f5c:	d08fe06f          	j	2464 <.L1402>

00003f60 <.L1394>:
    3f60:	03c00c13          	li	s8,60
    3f64:	0cfc4ee3          	blt	s8,a5,4840 <.L1390>

00003f68 <.L1403>:
    3f68:	e4f00c13          	li	s8,-433
    3f6c:	018ad463          	bge	s5,s8,3f74 <.L1403+0xc>
    3f70:	d24fe06f          	j	2494 <.L1391>
    3f74:	01700c13          	li	s8,23
    3f78:	01dc5463          	bge	s8,t4,3f80 <.L1392>
    3f7c:	6080406f          	j	8584 <.L1416>

00003f80 <.L1392>:
    3f80:	00e15c03          	lhu	s8,14(sp)
    3f84:	ffbc0c13          	addi	s8,s8,-5
    3f88:	01811723          	sh	s8,14(sp)
    3f8c:	01f00c13          	li	s8,31
    3f90:	013c4463          	blt	s8,s3,3f98 <.L1422>
    3f94:	d24fe06f          	j	24b8 <.L1408>

00003f98 <.L1422>:
    3f98:	00700c13          	li	s8,7
    3f9c:	011c5463          	bge	s8,a7,3fa4 <.L1422+0xc>
    3fa0:	5510306f          	j	7cf0 <.L1409>
    3fa4:	00815c03          	lhu	s8,8(sp)
    3fa8:	fffc0c13          	addi	s8,s8,-1
    3fac:	01811423          	sh	s8,8(sp)
    3fb0:	03300c13          	li	s8,51
    3fb4:	01fc4463          	blt	s8,t6,3fbc <.L1426>
    3fb8:	d28fe06f          	j	24e0 <.L2850>

00003fbc <.L1426>:
    3fbc:	03b00c13          	li	s8,59
    3fc0:	00fc5463          	bge	s8,a5,3fc8 <.L2918>
    3fc4:	2ac0306f          	j	7270 <.L1431>

00003fc8 <.L2918>:
    3fc8:	0a500c13          	li	s8,165
    3fcc:	007c5463          	bge	s8,t2,3fd4 <.L2918+0xc>
    3fd0:	d30fe06f          	j	2500 <.L1429>
    3fd4:	00a15c03          	lhu	s8,10(sp)
    3fd8:	005c0c13          	addi	s8,s8,5
    3fdc:	01811523          	sh	s8,10(sp)
    3fe0:	f9800c13          	li	s8,-104
    3fe4:	01845463          	bge	s0,s8,3fec <.L1433>
    3fe8:	d24fe06f          	j	250c <.L2851>

00003fec <.L1433>:
    3fec:	f6d00c13          	li	s8,-147
    3ff0:	018ac463          	blt	s5,s8,3ff8 <.L1433+0xc>
    3ff4:	3800306f          	j	7374 <.L1437>
    3ff8:	0c700c13          	li	s8,199
    3ffc:	01ec5463          	bge	s8,t5,4004 <.L1433+0x18>
    4000:	0510606f          	j	a850 <.L1438>
    4004:	00c15c03          	lhu	s8,12(sp)
    4008:	017c0c13          	addi	s8,s8,23
    400c:	01811623          	sh	s8,12(sp)
    4010:	d2a00c13          	li	s8,-726
    4014:	0185d463          	bge	a1,s8,401c <.L1440>
    4018:	d20fe06f          	j	2538 <.L2852>

0000401c <.L1440>:
    401c:	02c00c13          	li	s8,44
    4020:	011c5463          	bge	s8,a7,4028 <.L1440+0xc>
    4024:	1f50406f          	j	8a18 <.L1446>
    4028:	01889463          	bne	a7,s8,4030 <.L1440+0x14>
    402c:	3950106f          	j	5bc0 <.L2853>
    4030:	00400c13          	li	s8,4
    4034:	011c5463          	bge	s8,a7,403c <.L1440+0x20>
    4038:	34d0106f          	j	5b84 <.L1444>
    403c:	03800c13          	li	s8,56
    4040:	01fc5463          	bge	s8,t6,4048 <.L1440+0x2c>
    4044:	1a40306f          	j	71e8 <.L1450>
    4048:	00815c03          	lhu	s8,8(sp)
    404c:	f8b00c93          	li	s9,-117
    4050:	00bc0c13          	addi	s8,s8,11
    4054:	01811423          	sh	s8,8(sp)
    4058:	0195d463          	bge	a1,s9,4060 <.L1464>
    405c:	d24fe06f          	j	2580 <.L2737>

00004060 <.L1464>:
    4060:	ffe00c13          	li	s8,-2
    4064:	01865463          	bge	a2,s8,406c <.L1464+0xc>
    4068:	3490106f          	j	5bb0 <.L1468>
    406c:	00a15c03          	lhu	s8,10(sp)
    4070:	ffec0c13          	addi	s8,s8,-2
    4074:	01811523          	sh	s8,10(sp)
    4078:	02700c13          	li	s8,39
    407c:	01dc4463          	blt	s8,t4,4084 <.L1477>
    4080:	d30fe06f          	j	25b0 <.L1476>

00004084 <.L1477>:
    4084:	34900c13          	li	s8,841
    4088:	00dc5463          	bge	s8,a3,4090 <.L1477+0xc>
    408c:	d3cfe06f          	j	25c8 <.L1487>
    4090:	00c15c03          	lhu	s8,12(sp)
    4094:	ff7c0c13          	addi	s8,s8,-9
    4098:	01811623          	sh	s8,12(sp)
    409c:	0a000c13          	li	s8,160
    40a0:	009c4463          	blt	s8,s1,40a8 <.L1491>
    40a4:	d30fe06f          	j	25d4 <.L2854>

000040a8 <.L1491>:
    40a8:	eb800c13          	li	s8,-328
    40ac:	01844463          	blt	s0,s8,40b4 <.L1491+0xc>
    40b0:	3c40306f          	j	7474 <.L1499>
    40b4:	eb100c13          	li	s8,-335
    40b8:	01844863          	blt	s0,s8,40c8 <.L1497>
    40bc:	00e15c03          	lhu	s8,14(sp)
    40c0:	009c0c13          	addi	s8,s8,9
    40c4:	01811723          	sh	s8,14(sp)

000040c8 <.L1497>:
    40c8:	39000c13          	li	s8,912
    40cc:	006c5463          	bge	s8,t1,40d4 <.L1497+0xc>
    40d0:	1680106f          	j	5238 <.L1501>
    40d4:	0ba00c13          	li	s8,186
    40d8:	492c5263          	bge	s8,s2,455c <.L1502>
    40dc:	00815c03          	lhu	s8,8(sp)
    40e0:	12e00c93          	li	s9,302
    40e4:	01c04463          	bgtz	t3,40ec <.L1497+0x24>
    40e8:	2f00706f          	j	b3d8 <.L2855>
    40ec:	ffac0c13          	addi	s8,s8,-6
    40f0:	01811423          	sh	s8,8(sp)
    40f4:	006cd463          	bge	s9,t1,40fc <.L1504>
    40f8:	d30fe06f          	j	2628 <.L1511>

000040fc <.L1504>:
    40fc:	02a00c13          	li	s8,42
    4100:	00dc5463          	bge	s8,a3,4108 <.L1504+0xc>
    4104:	1b00306f          	j	72b4 <.L1515>
    4108:	04b00c13          	li	s8,75
    410c:	00ec5463          	bge	s8,a4,4114 <.L1504+0x18>
    4110:	0f90506f          	j	9a08 <.L1516>
    4114:	00a15c03          	lhu	s8,10(sp)
    4118:	fffc0c13          	addi	s8,s8,-1
    411c:	010c1c13          	slli	s8,s8,0x10
    4120:	410c5c13          	srai	s8,s8,0x10

00004124 <.L1517>:
    4124:	01811523          	sh	s8,10(sp)
    4128:	f9800c13          	li	s8,-104
    412c:	47845a63          	bge	s0,s8,45a0 <.L1507>
    4130:	0c700c13          	li	s8,199
    4134:	016c4463          	blt	s8,s6,413c <.L1529>
    4138:	4710406f          	j	8da8 <.L1528>

0000413c <.L1529>:
    413c:	0aa00c13          	li	s8,170
    4140:	006c5463          	bge	s8,t1,4148 <.L1529+0xc>
    4144:	d20fe06f          	j	2664 <.L1521>
    4148:	00c15c03          	lhu	s8,12(sp)
    414c:	002c0c13          	addi	s8,s8,2
    4150:	010c1c13          	slli	s8,s8,0x10
    4154:	410c5c13          	srai	s8,s8,0x10
    4158:	01811623          	sh	s8,12(sp)
    415c:	01800c13          	li	s8,24
    4160:	470c5863          	bge	s8,a6,45d0 <.L1544>

00004164 <.L1532>:
    4164:	eee00c13          	li	s8,-274
    4168:	b18adee3          	bge	s5,s8,3c84 <.L1545>
    416c:	01c51c83          	lh	s9,28(a0)
    4170:	02300c13          	li	s8,35
    4174:	019c4463          	blt	s8,s9,417c <.L2808>
    4178:	d20fe06f          	j	2698 <.L1540>

0000417c <.L2808>:
    417c:	00e15c03          	lhu	s8,14(sp)
    4180:	ffac0c13          	addi	s8,s8,-6
    4184:	01811723          	sh	s8,14(sp)
    4188:	d1cfe06f          	j	26a4 <.L1539>

0000418c <.L1204>:
    418c:	00e15c03          	lhu	s8,14(sp)
    4190:	00400c93          	li	s9,4
    4194:	ffcc0c13          	addi	s8,s8,-4
    4198:	01811723          	sh	s8,14(sp)
    419c:	571cd4e3          	bge	s9,a7,4f04 <.L1209>
    41a0:	00e00c13          	li	s8,14
    41a4:	01dc5463          	bge	s8,t4,41ac <.L1218>
    41a8:	890fe06f          	j	2238 <.L1210>

000041ac <.L1218>:
    41ac:	00815c03          	lhu	s8,8(sp)
    41b0:	ffac0c13          	addi	s8,s8,-6
    41b4:	01811423          	sh	s8,8(sp)
    41b8:	880fe06f          	j	2238 <.L1210>

000041bc <.L2004>:
    41bc:	fe900c13          	li	s8,-23
    41c0:	01864463          	blt	a2,s8,41c8 <.L2004+0xc>
    41c4:	7280406f          	j	88ec <.L2011>
    41c8:	dde00c13          	li	s8,-546
    41cc:	018a4463          	blt	s4,s8,41d4 <.L2004+0x18>
    41d0:	3300606f          	j	a500 <.L2012>
    41d4:	00c15c03          	lhu	s8,12(sp)
    41d8:	005c0c13          	addi	s8,s8,5
    41dc:	01811623          	sh	s8,12(sp)
    41e0:	02700c13          	li	s8,39
    41e4:	007c4463          	blt	s8,t2,41ec <.L2013>
    41e8:	c11fe06f          	j	2df8 <.L2856>

000041ec <.L2013>:
    41ec:	03000c13          	li	s8,48
    41f0:	007c5463          	bge	s8,t2,41f8 <.L2013+0xc>
    41f4:	6890306f          	j	807c <.L2016>
    41f8:	0b800c13          	li	s8,184
    41fc:	009c5463          	bge	s8,s1,4204 <.L2013+0x18>
    4200:	1bc0606f          	j	a3bc <.L2017>
    4204:	00e15c03          	lhu	s8,14(sp)
    4208:	00bc0c13          	addi	s8,s8,11
    420c:	010c1c13          	slli	s8,s8,0x10
    4210:	410c5c13          	srai	s8,s8,0x10
    4214:	01811723          	sh	s8,14(sp)
    4218:	00400c13          	li	s8,4
    421c:	011c4463          	blt	s8,a7,4224 <.L2019>
    4220:	c05fe06f          	j	2e24 <.L2857>

00004224 <.L2019>:
    4224:	00e00c13          	li	s8,14
    4228:	01dc5463          	bge	s8,t4,4230 <.L2019+0xc>
    422c:	6050306f          	j	8030 <.L2027>
    4230:	f9c00c13          	li	s8,-100
    4234:	01844463          	blt	s0,s8,423c <.L2019+0x18>
    4238:	6090306f          	j	8040 <.L2028>
    423c:	00815c03          	lhu	s8,8(sp)
    4240:	ffbc0c13          	addi	s8,s8,-5
    4244:	01811423          	sh	s8,8(sp)
    4248:	0f000c13          	li	s8,240
    424c:	006c5463          	bge	s8,t1,4254 <.L2029>
    4250:	bf9fe06f          	j	2e48 <.L2858>

00004254 <.L2029>:
    4254:	00200c13          	li	s8,2
    4258:	01cc5463          	bge	s8,t3,4260 <.L2029+0xc>
    425c:	1b40106f          	j	5410 <.L2859>
    4260:	03500c13          	li	s8,53
    4264:	00fc5463          	bge	s8,a5,426c <.L2029+0x18>
    4268:	7a50506f          	j	a20c <.L2031>
    426c:	00a15c03          	lhu	s8,10(sp)
    4270:	01500c93          	li	s9,21
    4274:	006c0c13          	addi	s8,s8,6
    4278:	01811523          	sh	s8,10(sp)
    427c:	010cc463          	blt	s9,a6,4284 <.L2051>
    4280:	5fc0106f          	j	587c <.L2032>

00004284 <.L2051>:
    4284:	00b00c13          	li	s8,11
    4288:	011c4463          	blt	s8,a7,4290 <.L2051+0xc>
    428c:	3850506f          	j	9e10 <.L2033>
    4290:	00c15c03          	lhu	s8,12(sp)
    4294:	009c0c13          	addi	s8,s8,9
    4298:	010c1c13          	slli	s8,s8,0x10
    429c:	410c5c13          	srai	s8,s8,0x10
    42a0:	01811623          	sh	s8,12(sp)
    42a4:	01c05463          	blez	t3,42ac <.L2818>
    42a8:	bf9fe06f          	j	2ea0 <.L2045>

000042ac <.L2818>:
    42ac:	00e15c03          	lhu	s8,14(sp)
    42b0:	ffac0c13          	addi	s8,s8,-6
    42b4:	010c1c13          	slli	s8,s8,0x10
    42b8:	410c5c13          	srai	s8,s8,0x10
    42bc:	01811723          	sh	s8,14(sp)
    42c0:	0a900c13          	li	s8,169
    42c4:	01ec4463          	blt	s8,t5,42cc <.L2056>
    42c8:	c11fe06f          	j	2ed8 <.L2050>

000042cc <.L2056>:
    42cc:	eba00c13          	li	s8,-326
    42d0:	0185c463          	blt	a1,s8,42d8 <.L2056+0xc>
    42d4:	5ec0106f          	j	58c0 <.L2046>
    42d8:	01400b13          	li	s6,20
    42dc:	013b5463          	bge	s6,s3,42e4 <.L2056+0x18>
    42e0:	3450506f          	j	9e24 <.L2072>
    42e4:	00815b03          	lhu	s6,8(sp)
    42e8:	08300c13          	li	s8,131
    42ec:	003b0b13          	addi	s6,s6,3
    42f0:	01611423          	sh	s6,8(sp)
    42f4:	529c40e3          	blt	s8,s1,5014 <.L2073>

000042f8 <.L2076>:
    42f8:	00a15b03          	lhu	s6,10(sp)
    42fc:	02700c13          	li	s8,39
    4300:	ff9b0b13          	addi	s6,s6,-7
    4304:	01611523          	sh	s6,10(sp)
    4308:	006c4463          	blt	s8,t1,4310 <.L2075>
    430c:	c21fe06f          	j	2f2c <.L2074>

00004310 <.L2075>:
    4310:	ecb00b13          	li	s6,-309
    4314:	016ac463          	blt	s5,s6,431c <.L2075+0xc>
    4318:	2b00406f          	j	85c8 <.L2081>
    431c:	ff900b13          	li	s6,-7
    4320:	536642e3          	blt	a2,s6,5044 <.L2088>

00004324 <.L2087>:
    4324:	00c15b03          	lhu	s6,12(sp)
    4328:	ffbb0b13          	addi	s6,s6,-5
    432c:	010b1b13          	slli	s6,s6,0x10
    4330:	410b5b13          	srai	s6,s6,0x10
    4334:	01611623          	sh	s6,12(sp)
    4338:	c5700b13          	li	s6,-937
    433c:	0165d463          	bge	a1,s6,4344 <.L2094>
    4340:	c19fe06f          	j	2f58 <.L2860>

00004344 <.L2094>:
    4344:	02c00b13          	li	s6,44
    4348:	011b5463          	bge	s6,a7,4350 <.L2094+0xc>
    434c:	4a80306f          	j	77f4 <.L2096>
    4350:	03100b13          	li	s6,49
    4354:	01fb5463          	bge	s6,t6,435c <.L2094+0x18>
    4358:	c0dfe06f          	j	2f64 <.L2095>
    435c:	00e15b03          	lhu	s6,14(sp)
    4360:	01e00c13          	li	s8,30
    4364:	006b0b13          	addi	s6,s6,6
    4368:	01611723          	sh	s6,14(sp)
    436c:	013c5463          	bge	s8,s3,4374 <.L2094+0x30>
    4370:	2e40706f          	j	b654 <.L2097>
    4374:	01c04463          	bgtz	t3,437c <.L2103>
    4378:	28d0706f          	j	be04 <.L2098>

0000437c <.L2103>:
    437c:	02e00b13          	li	s6,46
    4380:	3ddb44e3          	blt	s6,t4,4f48 <.L2100>

00004384 <.L2099>:
    4384:	ff200b13          	li	s6,-14
    4388:	01664463          	blt	a2,s6,4390 <.L2099+0xc>
    438c:	4840306f          	j	7810 <.L2861>
    4390:	ea400b13          	li	s6,-348
    4394:	016ac463          	blt	s5,s6,439c <.L2099+0x18>
    4398:	c21fe06f          	j	2fb8 <.L2115>
    439c:	00a15b03          	lhu	s6,10(sp)
    43a0:	ff7b0b13          	addi	s6,s6,-9
    43a4:	01611523          	sh	s6,10(sp)
    43a8:	25b00b13          	li	s6,603
    43ac:	00eb5463          	bge	s6,a4,43b4 <.L2120>
    43b0:	c15fe06f          	j	2fc4 <.L2862>

000043b4 <.L2120>:
    43b4:	ec500b13          	li	s6,-315
    43b8:	0165c463          	blt	a1,s6,43c0 <.L2120+0xc>
    43bc:	5f10206f          	j	71ac <.L2863>
    43c0:	22200b13          	li	s6,546
    43c4:	007b5463          	bge	s6,t2,43cc <.L2120+0x18>
    43c8:	30c0306f          	j	76d4 <.L2123>
    43cc:	00c15b03          	lhu	s6,12(sp)
    43d0:	ffbb0b13          	addi	s6,s6,-5
    43d4:	01611623          	sh	s6,12(sp)
    43d8:	02600b13          	li	s6,38
    43dc:	00db4463          	blt	s6,a3,43e4 <.L2128>
    43e0:	c15fe06f          	j	2ff4 <.L2864>

000043e4 <.L2128>:
    43e4:	00300b13          	li	s6,3
    43e8:	75cb48e3          	blt	s6,t3,5338 <.L2143>
    43ec:	03d00b13          	li	s6,61
    43f0:	00fb4463          	blt	s6,a5,43f8 <.L2128+0x14>
    43f4:	5f10506f          	j	a1e4 <.L2144>
    43f8:	00400b13          	li	s6,4
    43fc:	771b44e3          	blt	s6,a7,5364 <.L2140>
    4400:	06a00b13          	li	s6,106
    4404:	012b4463          	blt	s6,s2,440c <.L2128+0x28>
    4408:	1a50706f          	j	bdac <.L2865>
    440c:	00815b03          	lhu	s6,8(sp)
    4410:	001b0b13          	addi	s6,s6,1
    4414:	01611423          	sh	s6,8(sp)
    4418:	e90ff06f          	j	3aa8 <.L2146>

0000441c <.L2756>:
    441c:	00815c03          	lhu	s8,8(sp)
    4420:	34b00c93          	li	s9,843
    4424:	ff6c0c13          	addi	s8,s8,-10
    4428:	01811423          	sh	s8,8(sp)
    442c:	00ecd463          	bge	s9,a4,4434 <.L516>
    4430:	ed4fc06f          	j	b04 <.L2575>

00004434 <.L516>:
    4434:	ff900c13          	li	s8,-7
    4438:	01864463          	blt	a2,s8,4440 <.L516+0xc>
    443c:	7e90206f          	j	7424 <.L520>
    4440:	1ba00c13          	li	s8,442
    4444:	016c4463          	blt	s8,s6,444c <.L516+0x18>
    4448:	5190406f          	j	9160 <.L521>
    444c:	17000c13          	li	s8,368
    4450:	00dc5463          	bge	s8,a3,4458 <.L522>
    4454:	5250406f          	j	9178 <.L526>

00004458 <.L522>:
    4458:	02200c13          	li	s8,34
    445c:	01dc5463          	bge	s8,t4,4464 <.L2277>
    4460:	7f50206f          	j	7454 <.L536>

00004464 <.L2277>:
    4464:	00c15c03          	lhu	s8,12(sp)
    4468:	002c0c13          	addi	s8,s8,2
    446c:	010c1c13          	slli	s8,s8,0x10
    4470:	410c5c13          	srai	s8,s8,0x10
    4474:	ee8fc06f          	j	b5c <.L538>

00004478 <.L501>:
    4478:	01d00c13          	li	s8,29
    447c:	010c5463          	bge	s8,a6,4484 <.L501+0xc>
    4480:	68d0206f          	j	730c <.L510>
    4484:	11800c13          	li	s8,280
    4488:	012c5463          	bge	s8,s2,4490 <.L501+0x18>
    448c:	26c0606f          	j	a6f8 <.L511>
    4490:	00815c03          	lhu	s8,8(sp)
    4494:	009c0c13          	addi	s8,s8,9
    4498:	010c1c13          	slli	s8,s8,0x10
    449c:	410c5c13          	srai	s8,s8,0x10

000044a0 <.L512>:
    44a0:	01811423          	sh	s8,8(sp)
    44a4:	34b00c13          	li	s8,843
    44a8:	f8ec56e3          	bge	s8,a4,4434 <.L516>
    44ac:	00001c37          	lui	s8,0x1
    44b0:	a9dc0c13          	addi	s8,s8,-1379 # a9d <.L470+0x2d>
    44b4:	00dc5463          	bge	s8,a3,44bc <.L512+0x1c>
    44b8:	e58fc06f          	j	b10 <.L518>
    44bc:	f5100c13          	li	s8,-175
    44c0:	018a5463          	bge	s4,s8,44c8 <.L512+0x28>
    44c4:	accfd06f          	j	1790 <.L517>
    44c8:	00a15c03          	lhu	s8,10(sp)
    44cc:	17000c93          	li	s9,368
    44d0:	ffbc0c13          	addi	s8,s8,-5
    44d4:	01811523          	sh	s8,10(sp)
    44d8:	00dcc463          	blt	s9,a3,44e0 <.L533>
    44dc:	accfd06f          	j	17a8 <.L2576>

000044e0 <.L533>:
    44e0:	3fa00c13          	li	s8,1018
    44e4:	00ec4463          	blt	s8,a4,44ec <.L532>
    44e8:	4910406f          	j	9178 <.L526>

000044ec <.L532>:
    44ec:	00c15c03          	lhu	s8,12(sp)
    44f0:	ff7c0c13          	addi	s8,s8,-9
    44f4:	010c1c13          	slli	s8,s8,0x10
    44f8:	410c5c13          	srai	s8,s8,0x10
    44fc:	e60fc06f          	j	b5c <.L538>

00004500 <.L2212>:
    4500:	03c00613          	li	a2,60
    4504:	00f64463          	blt	a2,a5,450c <.L2217>
    4508:	08d0706f          	j	bd94 <.L2866>

0000450c <.L2217>:
    450c:	03300713          	li	a4,51
    4510:	01f75463          	bge	a4,t6,4518 <.L2214>
    4514:	5f00606f          	j	ab04 <.L2867>

00004518 <.L2214>:
    4518:	0ff00713          	li	a4,255
    451c:	00675463          	bge	a4,t1,4524 <.L2214+0xc>
    4520:	5e90506f          	j	a308 <.L2244>
    4524:	00a15703          	lhu	a4,10(sp)
    4528:	f5b00693          	li	a3,-165
    452c:	ffd70713          	addi	a4,a4,-3
    4530:	00e11523          	sh	a4,10(sp)
    4534:	00d2d463          	bge	t0,a3,453c <.L2240>
    4538:	cadfe06f          	j	31e4 <.L2670>

0000453c <.L2240>:
    453c:	01600713          	li	a4,22
    4540:	00f75463          	bge	a4,a5,4548 <.L2240+0xc>
    4544:	7d10206f          	j	7514 <.L2248>
    4548:	00c15783          	lhu	a5,12(sp)
    454c:	00178793          	addi	a5,a5,1
    4550:	01079793          	slli	a5,a5,0x10
    4554:	4107d793          	srai	a5,a5,0x10
    4558:	ca9fe06f          	j	3200 <.L2242>

0000455c <.L1502>:
    455c:	03800c13          	li	s8,56
    4560:	00fc5463          	bge	s8,a5,4568 <.L1502+0xc>
    4564:	61c0606f          	j	ab80 <.L2868>
    4568:	00815c03          	lhu	s8,8(sp)
    456c:	12e00c93          	li	s9,302
    4570:	ffec0c13          	addi	s8,s8,-2
    4574:	01811423          	sh	s8,8(sp)
    4578:	b86cd2e3          	bge	s9,t1,40fc <.L1504>

0000457c <.L2631>:
    457c:	00c00c13          	li	s8,12
    4580:	01cc5463          	bge	s8,t3,4588 <.L1508>
    4584:	8b0fe06f          	j	2634 <.L1505>

00004588 <.L1508>:
    4588:	00a15c03          	lhu	s8,10(sp)
    458c:	f9800c93          	li	s9,-104
    4590:	006c0c13          	addi	s8,s8,6
    4594:	01811523          	sh	s8,10(sp)
    4598:	01945463          	bge	s0,s9,45a0 <.L1507>
    459c:	8bcfe06f          	j	2658 <.L1506>

000045a0 <.L1507>:
    45a0:	f6d00c13          	li	s8,-147
    45a4:	018ac463          	blt	s5,s8,45ac <.L1507+0xc>
    45a8:	6900306f          	j	7c38 <.L1542>
    45ac:	f4700c13          	li	s8,-185
    45b0:	ed8ad063          	bge	s5,s8,3c70 <.L1543>
    45b4:	00c15c03          	lhu	s8,12(sp)
    45b8:	005c0c13          	addi	s8,s8,5
    45bc:	010c1c13          	slli	s8,s8,0x10
    45c0:	410c5c13          	srai	s8,s8,0x10
    45c4:	01811623          	sh	s8,12(sp)
    45c8:	01800c13          	li	s8,24
    45cc:	b90c4ce3          	blt	s8,a6,4164 <.L1532>

000045d0 <.L1544>:
    45d0:	11a00c13          	li	s8,282
    45d4:	007c4463          	blt	s8,t2,45dc <.L1536>
    45d8:	6840306f          	j	7c5c <.L1537>

000045dc <.L1536>:
    45dc:	ccd00c13          	li	s8,-819
    45e0:	0185c463          	blt	a1,s8,45e8 <.L1536+0xc>
    45e4:	1a80606f          	j	a78c <.L1548>
    45e8:	00e15c03          	lhu	s8,14(sp)
    45ec:	004c0c13          	addi	s8,s8,4
    45f0:	01811723          	sh	s8,14(sp)
    45f4:	8b0fe06f          	j	26a4 <.L1539>

000045f8 <.L1254>:
    45f8:	07000c13          	li	s8,112
    45fc:	012c5463          	bge	s8,s2,4604 <.L1254+0xc>
    4600:	5f80306f          	j	7bf8 <.L2869>
    4604:	00815c03          	lhu	s8,8(sp)
    4608:	008c0c13          	addi	s8,s8,8
    460c:	010c1c13          	slli	s8,s8,0x10
    4610:	410c5c13          	srai	s8,s8,0x10

00004614 <.L1253>:
    4614:	01811423          	sh	s8,8(sp)
    4618:	08c00c13          	li	s8,140
    461c:	006c4463          	blt	s8,t1,4624 <.L1253+0x10>
    4620:	cbdfd06f          	j	22dc <.L1250>
    4624:	00c00c13          	li	s8,12
    4628:	01cc4463          	blt	s8,t3,4630 <.L1275>
    462c:	1440606f          	j	a770 <.L1251>

00004630 <.L1275>:
    4630:	1fa00c13          	li	s8,506
    4634:	016c4463          	blt	s8,s6,463c <.L1275+0xc>
    4638:	6e80506f          	j	9d20 <.L1252>
    463c:	00a15c03          	lhu	s8,10(sp)
    4640:	002c0c13          	addi	s8,s8,2
    4644:	010c1c13          	slli	s8,s8,0x10
    4648:	010c5c13          	srli	s8,s8,0x10

0000464c <.L1297>:
    464c:	01811523          	sh	s8,10(sp)
    4650:	03300c13          	li	s8,51
    4654:	00fc5463          	bge	s8,a5,465c <.L2734>
    4658:	6e40106f          	j	5d3c <.L1284>

0000465c <.L2734>:
    465c:	00900c13          	li	s8,9
    4660:	011c4463          	blt	s8,a7,4668 <.L1287>
    4664:	69c0306f          	j	7d00 <.L2611>

00004668 <.L1287>:
    4668:	00300c13          	li	s8,3
    466c:	010c5463          	bge	s8,a6,4674 <.L1287+0xc>
    4670:	6fc0306f          	j	7d6c <.L1291>
    4674:	00c15c03          	lhu	s8,12(sp)
    4678:	ffec0c13          	addi	s8,s8,-2
    467c:	01811623          	sh	s8,12(sp)

00004680 <.L1292>:
    4680:	f3900c13          	li	s8,-199
    4684:	018a5463          	bge	s4,s8,468c <.L1299>
    4688:	6910406f          	j	9518 <.L1302>

0000468c <.L1299>:
    468c:	01800c13          	li	s8,24
    4690:	012c4463          	blt	s8,s2,4698 <.L1299+0xc>
    4694:	68c0306f          	j	7d20 <.L2614>
    4698:	00e15c03          	lhu	s8,14(sp)
    469c:	ffe00c93          	li	s9,-2
    46a0:	005c0c13          	addi	s8,s8,5
    46a4:	01811723          	sh	s8,14(sp)
    46a8:	01985463          	bge	a6,s9,46b0 <.L1301>
    46ac:	848fd06f          	j	16f4 <.L1300>

000046b0 <.L1301>:
    46b0:	00300c13          	li	s8,3
    46b4:	00dc5463          	bge	s8,a3,46bc <.L1301+0xc>
    46b8:	4980506f          	j	9b50 <.L1331>
    46bc:	00815c03          	lhu	s8,8(sp)
    46c0:	003c0c13          	addi	s8,s8,3
    46c4:	010c1c13          	slli	s8,s8,0x10
    46c8:	410c5c13          	srai	s8,s8,0x10
    46cc:	c9dfd06f          	j	2368 <.L1332>

000046d0 <.L956>:
    46d0:	fe200c13          	li	s8,-30
    46d4:	01864463          	blt	a2,s8,46dc <.L956+0xc>
    46d8:	7700206f          	j	6e48 <.L2870>
    46dc:	e3d00c13          	li	s8,-451
    46e0:	09845263          	bge	s0,s8,4764 <.L958>
    46e4:	00a15c03          	lhu	s8,10(sp)
    46e8:	03900c93          	li	s9,57
    46ec:	ff9c0c13          	addi	s8,s8,-7
    46f0:	01811523          	sh	s8,10(sp)
    46f4:	00dcc463          	blt	s9,a3,46fc <.L956+0x2c>
    46f8:	addfc06f          	j	11d4 <.L960>
    46fc:	02700c13          	li	s8,39
    4700:	08ec4463          	blt	s8,a4,4788 <.L966>

00004704 <.L961>:
    4704:	00c15c03          	lhu	s8,12(sp)
    4708:	cf000c93          	li	s9,-784
    470c:	fffc0c13          	addi	s8,s8,-1
    4710:	01811623          	sh	s8,12(sp)
    4714:	0995d463          	bge	a1,s9,479c <.L2408>

00004718 <.L962>:
    4718:	25d00c13          	li	s8,605
    471c:	009c4463          	blt	s8,s1,4724 <.L962+0xc>
    4720:	addfc06f          	j	11fc <.L982>
    4724:	0f600c13          	li	s8,246
    4728:	007c5463          	bge	s8,t2,4730 <.L962+0x18>
    472c:	6a40106f          	j	5dd0 <.L992>
    4730:	00e15c03          	lhu	s8,14(sp)
    4734:	fa300c93          	li	s9,-93
    4738:	ffac0c13          	addi	s8,s8,-6
    473c:	01811723          	sh	s8,14(sp)
    4740:	0192d463          	bge	t0,s9,4748 <.L2596>
    4744:	6a40106f          	j	5de8 <.L985>

00004748 <.L2596>:
    4748:	11c00c13          	li	s8,284
    474c:	012c5463          	bge	s8,s2,4754 <.L990>
    4750:	6d80406f          	j	8e28 <.L991>

00004754 <.L990>:
    4754:	00815c03          	lhu	s8,8(sp)
    4758:	001c0c13          	addi	s8,s8,1
    475c:	01811423          	sh	s8,8(sp)
    4760:	ac9fc06f          	j	1228 <.L1002>

00004764 <.L958>:
    4764:	00a15c03          	lhu	s8,10(sp)
    4768:	03900c93          	li	s9,57
    476c:	005c0c13          	addi	s8,s8,5
    4770:	01811523          	sh	s8,10(sp)
    4774:	00dcc463          	blt	s9,a3,477c <.L958+0x18>
    4778:	a5dfc06f          	j	11d4 <.L960>
    477c:	02700c13          	li	s8,39
    4780:	00ec4463          	blt	s8,a4,4788 <.L966>
    4784:	7100406f          	j	8e94 <.L972>

00004788 <.L966>:
    4788:	00c15c03          	lhu	s8,12(sp)
    478c:	cf000c93          	li	s9,-784
    4790:	002c0c13          	addi	s8,s8,2
    4794:	01811623          	sh	s8,12(sp)
    4798:	f995c0e3          	blt	a1,s9,4718 <.L962>

0000479c <.L2408>:
    479c:	0de00c13          	li	s8,222
    47a0:	012c5463          	bge	s8,s2,47a8 <.L988>
    47a4:	5980206f          	j	6d3c <.L984>

000047a8 <.L988>:
    47a8:	00e15c03          	lhu	s8,14(sp)
    47ac:	fa300c93          	li	s9,-93
    47b0:	ffac0c13          	addi	s8,s8,-6
    47b4:	01811723          	sh	s8,14(sp)
    47b8:	0192d463          	bge	t0,s9,47c0 <.L988+0x18>
    47bc:	62c0106f          	j	5de8 <.L985>
    47c0:	11c00c13          	li	s8,284
    47c4:	012c4463          	blt	s8,s2,47cc <.L995>
    47c8:	ee8fd06f          	j	1eb0 <.L994>

000047cc <.L995>:
    47cc:	00815c03          	lhu	s8,8(sp)
    47d0:	006c0c13          	addi	s8,s8,6
    47d4:	01811423          	sh	s8,8(sp)
    47d8:	a51fc06f          	j	1228 <.L1002>

000047dc <.L1376>:
    47dc:	00815c03          	lhu	s8,8(sp)
    47e0:	03900c93          	li	s9,57
    47e4:	ffdc0c13          	addi	s8,s8,-3
    47e8:	01811423          	sh	s8,8(sp)
    47ec:	f46cc863          	blt	s9,t1,3f3c <.L2620>

000047f0 <.L1372>:
    47f0:	00800c13          	li	s8,8
    47f4:	011c5463          	bge	s8,a7,47fc <.L1372+0xc>
    47f8:	49c0306f          	j	7c94 <.L2871>
    47fc:	00900c13          	li	s8,9
    4800:	01dc5463          	bge	s8,t4,4808 <.L1372+0x18>
    4804:	3280406f          	j	8b2c <.L1387>
    4808:	00a15c03          	lhu	s8,10(sp)
    480c:	00100c93          	li	s9,1
    4810:	ffbc0c13          	addi	s8,s8,-5
    4814:	01811523          	sh	s8,10(sp)
    4818:	01ccc463          	blt	s9,t3,4820 <.L1372+0x30>
    481c:	1440706f          	j	b960 <.L1388>
    4820:	ff000c13          	li	s8,-16
    4824:	01864463          	blt	a2,s8,482c <.L1389>
    4828:	6440706f          	j	be6c <.L2872>

0000482c <.L1389>:
    482c:	00c15c03          	lhu	s8,12(sp)
    4830:	007c0c13          	addi	s8,s8,7
    4834:	01811623          	sh	s8,12(sp)
    4838:	03c00c13          	li	s8,60
    483c:	f2fc5663          	bge	s8,a5,3f68 <.L1403>

00004840 <.L1390>:
    4840:	0dc00c13          	li	s8,220
    4844:	00ec4463          	blt	s8,a4,484c <.L1390+0xc>
    4848:	0050406f          	j	904c <.L2873>
    484c:	01f00c13          	li	s8,31
    4850:	010c5463          	bge	s8,a6,4858 <.L1390+0x18>
    4854:	5e80606f          	j	ae3c <.L1421>
    4858:	00e15c03          	lhu	s8,14(sp)
    485c:	ff8c0c13          	addi	s8,s8,-8
    4860:	01811723          	sh	s8,14(sp)
    4864:	c49fd06f          	j	24ac <.L1411>

00004868 <.L1152>:
    4868:	00700c13          	li	s8,7
    486c:	011c5463          	bge	s8,a7,4874 <.L1152+0xc>
    4870:	2310206f          	j	72a0 <.L1165>
    4874:	00815c03          	lhu	s8,8(sp)
    4878:	fffc0c13          	addi	s8,s8,-1
    487c:	010c1c13          	slli	s8,s8,0x10
    4880:	010c5c13          	srli	s8,s8,0x10

00004884 <.L1166>:
    4884:	01811423          	sh	s8,8(sp)
    4888:	1b900c13          	li	s8,441
    488c:	01ec5463          	bge	s8,t5,4894 <.L1166+0x10>
    4890:	8f1fd06f          	j	2180 <.L1162>
    4894:	03b00c13          	li	s8,59
    4898:	00fc4463          	blt	s8,a5,48a0 <.L1164>
    489c:	4d40206f          	j	6d70 <.L1158>

000048a0 <.L1164>:
    48a0:	ffe00c13          	li	s8,-2
    48a4:	9b864063          	blt	a2,s8,3a44 <.L1161>
    48a8:	00a15c03          	lhu	s8,10(sp)
    48ac:	03c00c93          	li	s9,60
    48b0:	002c0c13          	addi	s8,s8,2
    48b4:	01811523          	sh	s8,10(sp)
    48b8:	00fcd463          	bge	s9,a5,48c0 <.L1164+0x20>
    48bc:	8f1fd06f          	j	21ac <.L1171>
    48c0:	00f00c13          	li	s8,15
    48c4:	010c4463          	blt	s8,a6,48cc <.L1192>
    48c8:	c75fc06f          	j	153c <.L1188>

000048cc <.L1192>:
    48cc:	00c15c03          	lhu	s8,12(sp)
    48d0:	ff8c0c13          	addi	s8,s8,-8
    48d4:	010c1c13          	slli	s8,s8,0x10
    48d8:	410c5c13          	srai	s8,s8,0x10
    48dc:	8f9fd06f          	j	21d4 <.L1189>

000048e0 <.L1829>:
    48e0:	00815c03          	lhu	s8,8(sp)
    48e4:	03300c93          	li	s9,51
    48e8:	ff3c0c13          	addi	s8,s8,-13
    48ec:	01811423          	sh	s8,8(sp)
    48f0:	01fcd463          	bge	s9,t6,48f8 <.L1832>
    48f4:	a20fe06f          	j	2b14 <.L1831>

000048f8 <.L1832>:
    48f8:	1c600c13          	li	s8,454
    48fc:	00ec5463          	bge	s8,a4,4904 <.L1832+0xc>
    4900:	07c0406f          	j	897c <.L1841>
    4904:	03300c13          	li	s8,51
    4908:	018f9463          	bne	t6,s8,4910 <.L1832+0x18>
    490c:	4a90606f          	j	b5b4 <.L1842>
    4910:	00a15c03          	lhu	s8,10(sp)
    4914:	ff8c0c13          	addi	s8,s8,-8
    4918:	010c1c13          	slli	s8,s8,0x10
    491c:	410c5c13          	srai	s8,s8,0x10
    4920:	01811523          	sh	s8,10(sp)

00004924 <.L2884>:
    4924:	00100c13          	li	s8,1
    4928:	01cc5463          	bge	s8,t3,4930 <.L2816>
    492c:	a08fe06f          	j	2b34 <.L1849>

00004930 <.L2816>:
    4930:	01100c13          	li	s8,17
    4934:	011c5463          	bge	s8,a7,493c <.L2816+0xc>
    4938:	6b80406f          	j	8ff0 <.L1850>
    493c:	00c15c03          	lhu	s8,12(sp)
    4940:	c0000c93          	li	s9,-1024
    4944:	ff8c0c13          	addi	s8,s8,-8
    4948:	01811623          	sh	s8,12(sp)
    494c:	0195d463          	bge	a1,s9,4954 <.L2816+0x24>
    4950:	1950606f          	j	b2e4 <.L1851>
    4954:	01f00c13          	li	s8,31
    4958:	013c4463          	blt	s8,s3,4960 <.L2816+0x30>
    495c:	02c0706f          	j	b988 <.L1852>
    4960:	00815c03          	lhu	s8,8(sp)
    4964:	f8b00c93          	li	s9,-117
    4968:	ff9c0c13          	addi	s8,s8,-7
    496c:	01811423          	sh	s8,8(sp)
    4970:	0195d463          	bge	a1,s9,4978 <.L1855>
    4974:	a24fe06f          	j	2b98 <.L1874>

00004978 <.L1855>:
    4978:	00a15c03          	lhu	s8,10(sp)
    497c:	ffec0c13          	addi	s8,s8,-2
    4980:	010c1c13          	slli	s8,s8,0x10
    4984:	410c5c13          	srai	s8,s8,0x10
    4988:	01811523          	sh	s8,10(sp)

0000498c <.L2894>:
    498c:	fdb00c13          	li	s8,-37
    4990:	01875463          	bge	a4,s8,4998 <.L1882>
    4994:	a34fe06f          	j	2bc8 <.L2874>

00004998 <.L1882>:
    4998:	02700c13          	li	s8,39
    499c:	00ec5463          	bge	s8,a4,49a4 <.L1882+0xc>
    49a0:	1bd0306f          	j	835c <.L1888>
    49a4:	03c00c13          	li	s8,60
    49a8:	00dc5863          	bge	s8,a3,49b8 <.L1889>
    49ac:	00c15c03          	lhu	s8,12(sp)
    49b0:	007c0c13          	addi	s8,s8,7
    49b4:	01811623          	sh	s8,12(sp)

000049b8 <.L1889>:
    49b8:	05800c13          	li	s8,88
    49bc:	769c4263          	blt	s8,s1,5120 <.L1884>
    49c0:	f5300c13          	li	s8,-173
    49c4:	01845463          	bge	s0,s8,49cc <.L1889+0x14>
    49c8:	1c50306f          	j	838c <.L1885>
    49cc:	ff900c13          	li	s8,-7
    49d0:	01875463          	bge	a4,s8,49d8 <.L1899>
    49d4:	a24fe06f          	j	2bf8 <.L1886>

000049d8 <.L1899>:
    49d8:	00e15c03          	lhu	s8,14(sp)
    49dc:	ffbc0c13          	addi	s8,s8,-5
    49e0:	010c1c13          	slli	s8,s8,0x10
    49e4:	410c5c13          	srai	s8,s8,0x10
    49e8:	01811723          	sh	s8,14(sp)
    49ec:	07300c13          	li	s8,115
    49f0:	012c5463          	bge	s8,s2,49f8 <.L1894>
    49f4:	a24fe06f          	j	2c18 <.L1900>

000049f8 <.L1894>:
    49f8:	00c00c13          	li	s8,12
    49fc:	651c4e63          	blt	s8,a7,5058 <.L1901>
    4a00:	673c4663          	blt	s8,s3,506c <.L1907>
    4a04:	00815c03          	lhu	s8,8(sp)
    4a08:	02b00c93          	li	s9,43
    4a0c:	009c0c13          	addi	s8,s8,9
    4a10:	01811423          	sh	s8,8(sp)
    4a14:	670cc263          	blt	s9,a6,5078 <.L1903>

00004a18 <.L1912>:
    4a18:	d7400c13          	li	s8,-652
    4a1c:	018ac463          	blt	s5,s8,4a24 <.L1912+0xc>
    4a20:	a38fe06f          	j	2c58 <.L1914>
    4a24:	00a15c03          	lhu	s8,10(sp)
    4a28:	ff9c0c13          	addi	s8,s8,-7
    4a2c:	01811523          	sh	s8,10(sp)
    4a30:	00100c13          	li	s8,1
    4a34:	01cc5463          	bge	s8,t3,4a3c <.L1916>
    4a38:	a2cfe06f          	j	2c64 <.L2495>

00004a3c <.L1916>:
    4a3c:	02100c13          	li	s8,33
    4a40:	00ec5463          	bge	s8,a4,4a48 <.L1916+0xc>
    4a44:	0e80106f          	j	5b2c <.L2652>
    4a48:	00c15c03          	lhu	s8,12(sp)
    4a4c:	fffc0c13          	addi	s8,s8,-1
    4a50:	010c1c13          	slli	s8,s8,0x10
    4a54:	410c5c13          	srai	s8,s8,0x10
    4a58:	01811623          	sh	s8,12(sp)
    4a5c:	ff600c13          	li	s8,-10
    4a60:	01865463          	bge	a2,s8,4a68 <.L1930>
    4a64:	a38fe06f          	j	2c9c <.L2875>

00004a68 <.L1930>:
    4a68:	ff600c13          	li	s8,-10
    4a6c:	01861463          	bne	a2,s8,4a74 <.L1930+0xc>
    4a70:	1450406f          	j	93b4 <.L2876>
    4a74:	01400c13          	li	s8,20
    4a78:	013c5463          	bge	s8,s3,4a80 <.L1937>
    4a7c:	5040106f          	j	5f80 <.L2653>

00004a80 <.L1937>:
    4a80:	00e15c03          	lhu	s8,14(sp)
    4a84:	fffc0c13          	addi	s8,s8,-1
    4a88:	01811723          	sh	s8,14(sp)
    4a8c:	39000c13          	li	s8,912
    4a90:	006c4463          	blt	s8,t1,4a98 <.L1939>
    4a94:	a38fe06f          	j	2ccc <.L2877>

00004a98 <.L1939>:
    4a98:	01c00c13          	li	s8,28
    4a9c:	00ec5463          	bge	s8,a4,4aa4 <.L1939+0xc>
    4aa0:	6540306f          	j	80f4 <.L1943>
    4aa4:	00815c03          	lhu	s8,8(sp)
    4aa8:	00bc0c13          	addi	s8,s8,11
    4aac:	01811423          	sh	s8,8(sp)
    4ab0:	e2400c13          	li	s8,-476
    4ab4:	0182d463          	bge	t0,s8,4abc <.L1945>
    4ab8:	a40fe06f          	j	2cf8 <.L2878>

00004abc <.L1945>:
    4abc:	03c00c13          	li	s8,60
    4ac0:	01fc5463          	bge	s8,t6,4ac8 <.L1945+0xc>
    4ac4:	0cd0206f          	j	7390 <.L1956>
    4ac8:	00900c13          	li	s8,9
    4acc:	01cc5463          	bge	s8,t3,4ad4 <.L1945+0x18>
    4ad0:	61c0606f          	j	b0ec <.L1957>
    4ad4:	00a15c03          	lhu	s8,10(sp)
    4ad8:	001c0c13          	addi	s8,s8,1
    4adc:	010c1c13          	slli	s8,s8,0x10
    4ae0:	410c5c13          	srai	s8,s8,0x10
    4ae4:	01811523          	sh	s8,10(sp)
    4ae8:	03c00c13          	li	s8,60
    4aec:	00fc5463          	bge	s8,a5,4af4 <.L1963>
    4af0:	a40fe06f          	j	2d30 <.L1959>

00004af4 <.L1963>:
    4af4:	42200c13          	li	s8,1058
    4af8:	007c4463          	blt	s8,t2,4b00 <.L1951>
    4afc:	3d80406f          	j	8ed4 <.L1950>

00004b00 <.L1951>:
    4b00:	e2300c13          	li	s8,-477
    4b04:	01844463          	blt	s0,s8,4b0c <.L1951+0xc>
    4b08:	6c10406f          	j	99c8 <.L1976>
    4b0c:	00c15c03          	lhu	s8,12(sp)
    4b10:	05800c93          	li	s9,88
    4b14:	006c0c13          	addi	s8,s8,6
    4b18:	01811623          	sh	s8,12(sp)
    4b1c:	009cd463          	bge	s9,s1,4b24 <.L2656>
    4b20:	6cd0406f          	j	99ec <.L1977>

00004b24 <.L2656>:
    4b24:	00e15c03          	lhu	s8,14(sp)
    4b28:	00ec0c13          	addi	s8,s8,14
    4b2c:	01811723          	sh	s8,14(sp)

00004b30 <.L1995>:
    4b30:	e7b00c13          	li	s8,-389
    4b34:	0185c463          	blt	a1,s8,4b3c <.L1995+0xc>
    4b38:	4e40206f          	j	701c <.L1988>
    4b3c:	00815c03          	lhu	s8,8(sp)
    4b40:	ffac0c13          	addi	s8,s8,-6
    4b44:	01811423          	sh	s8,8(sp)
    4b48:	02e00c13          	li	s8,46
    4b4c:	01dc5463          	bge	s8,t4,4b54 <.L1993>
    4b50:	a54fe06f          	j	2da4 <.L2879>

00004b54 <.L1993>:
    4b54:	01d00c13          	li	s8,29
    4b58:	011c5463          	bge	s8,a7,4b60 <.L1993+0xc>
    4b5c:	56c0306f          	j	80c8 <.L2880>
    4b60:	ffe00c13          	li	s8,-2
    4b64:	01884463          	blt	a6,s8,4b6c <.L2501>
    4b68:	a54fe06f          	j	2dbc <.L1999>

00004b6c <.L2501>:
    4b6c:	00a15c03          	lhu	s8,10(sp)
    4b70:	ff9c0c13          	addi	s8,s8,-7
    4b74:	01811523          	sh	s8,10(sp)
    4b78:	a44fe06f          	j	2dbc <.L1999>

00004b7c <.L1778>:
    4b7c:	ff800c13          	li	s8,-8
    4b80:	01864463          	blt	a2,s8,4b88 <.L1778+0xc>
    4b84:	5750206f          	j	78f8 <.L1785>
    4b88:	01f00c13          	li	s8,31
    4b8c:	571c4ce3          	blt	s8,a7,5904 <.L1786>
    4b90:	00815c03          	lhu	s8,8(sp)
    4b94:	02e00c93          	li	s9,46
    4b98:	003c0c13          	addi	s8,s8,3
    4b9c:	01811423          	sh	s8,8(sp)
    4ba0:	57dccce3          	blt	s9,t4,5918 <.L1780>
    4ba4:	01700c13          	li	s8,23
    4ba8:	011c4463          	blt	s8,a7,4bb0 <.L1789>
    4bac:	eadfd06f          	j	2a58 <.L1783>

00004bb0 <.L1789>:
    4bb0:	00a15c03          	lhu	s8,10(sp)
    4bb4:	01500c93          	li	s9,21
    4bb8:	ff9c0c13          	addi	s8,s8,-7
    4bbc:	01811523          	sh	s8,10(sp)
    4bc0:	330cd0e3          	bge	s9,a6,56e0 <.L1787>
    4bc4:	03b00c13          	li	s8,59
    4bc8:	06fc5263          	bge	s8,a5,4c2c <.L1795>

00004bcc <.L1796>:
    4bcc:	1df00c13          	li	s8,479
    4bd0:	01ec4463          	blt	s8,t5,4bd8 <.L1796+0xc>
    4bd4:	ec9fd06f          	j	2a9c <.L2647>
    4bd8:	00c15c03          	lhu	s8,12(sp)
    4bdc:	00300c93          	li	s9,3
    4be0:	019c0c33          	add	s8,s8,s9
    4be4:	01811623          	sh	s8,12(sp)
    4be8:	01ccd463          	bge	s9,t3,4bf0 <.L1796+0x24>
    4bec:	3ed0606f          	j	b7d8 <.L1810>
    4bf0:	01300c13          	li	s8,19
    4bf4:	01dc5463          	bge	s8,t4,4bfc <.L1796+0x30>
    4bf8:	0480706f          	j	bc40 <.L2881>
    4bfc:	02e00c13          	li	s8,46
    4c00:	012c5463          	bge	s8,s2,4c08 <.L1796+0x3c>
    4c04:	3500706f          	j	bf54 <.L2882>
    4c08:	00e15c83          	lhu	s9,14(sp)
    4c0c:	00815c03          	lhu	s8,8(sp)
    4c10:	ff9c8c93          	addi	s9,s9,-7

00004c14 <.L2650>:
    4c14:	fffc0c13          	addi	s8,s8,-1
    4c18:	01811423          	sh	s8,8(sp)
    4c1c:	01911723          	sh	s9,14(sp)
    4c20:	03300c13          	li	s8,51
    4c24:	09fc4463          	blt	s8,t6,4cac <.L1846>
    4c28:	cd1ff06f          	j	48f8 <.L1832>

00004c2c <.L1795>:
    4c2c:	00c15c03          	lhu	s8,12(sp)
    4c30:	008c0c13          	addi	s8,s8,8
    4c34:	01811623          	sh	s8,12(sp)
    4c38:	00300c13          	li	s8,3
    4c3c:	01cc4463          	blt	s8,t3,4c44 <.L1801>
    4c40:	e75fd06f          	j	2ab4 <.L2883>

00004c44 <.L1801>:
    4c44:	e4a00c13          	li	s8,-438
    4c48:	0182c463          	blt	t0,s8,4c50 <.L1801+0xc>
    4c4c:	1940406f          	j	8de0 <.L1821>
    4c50:	de700c13          	li	s8,-537
    4c54:	0185c863          	blt	a1,s8,4c64 <.L1822>

00004c58 <.L2648>:
    4c58:	00e15c03          	lhu	s8,14(sp)
    4c5c:	ff8c0c13          	addi	s8,s8,-8
    4c60:	01811723          	sh	s8,14(sp)

00004c64 <.L1822>:
    4c64:	0a900c13          	li	s8,169
    4c68:	01ec4463          	blt	s8,t5,4c70 <.L1827>
    4c6c:	e79fd06f          	j	2ae4 <.L1818>

00004c70 <.L1827>:
    4c70:	01700c13          	li	s8,23
    4c74:	6fdc52e3          	bge	s8,t4,5b58 <.L2649>

00004c78 <.L1836>:
    4c78:	01c51c83          	lh	s9,28(a0)
    4c7c:	02500c13          	li	s8,37
    4c80:	6d9c5ce3          	bge	s8,s9,5b58 <.L2649>
    4c84:	00815c03          	lhu	s8,8(sp)
    4c88:	004c0c13          	addi	s8,s8,4
    4c8c:	010c1c13          	slli	s8,s8,0x10
    4c90:	410c5c13          	srai	s8,s8,0x10

00004c94 <.L1835>:
    4c94:	01811423          	sh	s8,8(sp)
    4c98:	03300c13          	li	s8,51
    4c9c:	c5fc5ee3          	bge	s8,t6,48f8 <.L1832>
    4ca0:	03b00c13          	li	s8,59
    4ca4:	00fc4463          	blt	s8,a5,4cac <.L1846>
    4ca8:	e6dfd06f          	j	2b14 <.L1831>

00004cac <.L1846>:
    4cac:	17900c13          	li	s8,377
    4cb0:	009c5463          	bge	s8,s1,4cb8 <.L1846+0xc>
    4cb4:	e75fd06f          	j	2b28 <.L1845>
    4cb8:	00a15c03          	lhu	s8,10(sp)
    4cbc:	ff9c0c13          	addi	s8,s8,-7
    4cc0:	01811523          	sh	s8,10(sp)
    4cc4:	c61ff06f          	j	4924 <.L2884>

00004cc8 <.L1759>:
    4cc8:	faf00c13          	li	s8,-81
    4ccc:	01844463          	blt	s0,s8,4cd4 <.L1759+0xc>
    4cd0:	7440306f          	j	8414 <.L2885>
    4cd4:	00c15c03          	lhu	s8,12(sp)
    4cd8:	02700c93          	li	s9,39
    4cdc:	001c0c13          	addi	s8,s8,1
    4ce0:	01811623          	sh	s8,12(sp)
    4ce4:	007cc463          	blt	s9,t2,4cec <.L1763>
    4ce8:	7440306f          	j	842c <.L1762>

00004cec <.L1763>:
    4cec:	03000c13          	li	s8,48
    4cf0:	007c5463          	bge	s8,t2,4cf8 <.L1763+0xc>
    4cf4:	68d0106f          	j	6b80 <.L1776>
    4cf8:	0b800c13          	li	s8,184
    4cfc:	009c5463          	bge	s8,s1,4d04 <.L1763+0x18>
    4d00:	14c0606f          	j	ae4c <.L1777>
    4d04:	00e15c03          	lhu	s8,14(sp)
    4d08:	00dc0c13          	addi	s8,s8,13
    4d0c:	01811723          	sh	s8,14(sp)
    4d10:	d19fd06f          	j	2a28 <.L1775>

00004d14 <.L1753>:
    4d14:	00c00c13          	li	s8,12
    4d18:	01cc5463          	bge	s8,t3,4d20 <.L1753+0xc>
    4d1c:	6810106f          	j	6b9c <.L1757>
    4d20:	03300c13          	li	s8,51
    4d24:	01fc5463          	bge	s8,t6,4d2c <.L1753+0x18>
    4d28:	4790306f          	j	89a0 <.L1758>
    4d2c:	00a15c03          	lhu	s8,10(sp)
    4d30:	ffac0c13          	addi	s8,s8,-6
    4d34:	01811523          	sh	s8,10(sp)
    4d38:	f9800c13          	li	s8,-104
    4d3c:	01845463          	bge	s0,s8,4d44 <.L2814>
    4d40:	c99fd06f          	j	29d8 <.L1768>

00004d44 <.L2814>:
    4d44:	faf00c13          	li	s8,-81
    4d48:	01844463          	blt	s0,s8,4d50 <.L2814+0xc>
    4d4c:	ca1fd06f          	j	29ec <.L1772>
    4d50:	03200c13          	li	s8,50
    4d54:	01fc5463          	bge	s8,t6,4d5c <.L2814+0x18>
    4d58:	72c0606f          	j	b484 <.L1773>
    4d5c:	00c15c03          	lhu	s8,12(sp)
    4d60:	011c0c13          	addi	s8,s8,17
    4d64:	01811623          	sh	s8,12(sp)
    4d68:	c91fd06f          	j	29f8 <.L1770>

00004d6c <.L1725>:
    4d6c:	00a15c03          	lhu	s8,10(sp)
    4d70:	02200c93          	li	s9,34
    4d74:	ff5c0c13          	addi	s8,s8,-11
    4d78:	01811523          	sh	s8,10(sp)
    4d7c:	011cd463          	bge	s9,a7,4d84 <.L1725+0x18>
    4d80:	1510606f          	j	b6d0 <.L1726>
    4d84:	01700c13          	li	s8,23
    4d88:	01dc5463          	bge	s8,t4,4d90 <.L1725+0x24>
    4d8c:	7380306f          	j	84c4 <.L1727>
    4d90:	1dc00c13          	li	s8,476
    4d94:	01ec5463          	bge	s8,t5,4d9c <.L1728>
    4d98:	ba9fd06f          	j	2940 <.L1729>

00004d9c <.L1728>:
    4d9c:	01d00c13          	li	s8,29
    4da0:	453c4463          	blt	s8,s3,51e8 <.L1745>
    4da4:	ff500c13          	li	s8,-11
    4da8:	01894463          	blt	s2,s8,4db0 <.L1728+0x14>
    4dac:	6d40506f          	j	a480 <.L1746>
    4db0:	00e15c03          	lhu	s8,14(sp)
    4db4:	01500c93          	li	s9,21
    4db8:	004c0c13          	addi	s8,s8,4
    4dbc:	01811723          	sh	s8,14(sp)
    4dc0:	447cc863          	blt	s9,t2,5210 <.L1742>

00004dc4 <.L1747>:
    4dc4:	00815c03          	lhu	s8,8(sp)
    4dc8:	008c0c13          	addi	s8,s8,8
    4dcc:	01811423          	sh	s8,8(sp)
    4dd0:	bcdfd06f          	j	299c <.L1749>

00004dd4 <.L769>:
    4dd4:	00e15c03          	lhu	s8,14(sp)
    4dd8:	004c0c13          	addi	s8,s8,4
    4ddc:	010c1c13          	slli	s8,s8,0x10
    4de0:	410c5c13          	srai	s8,s8,0x10
    4de4:	01811723          	sh	s8,14(sp)
    4de8:	ffe00c13          	li	s8,-2
    4dec:	01884463          	blt	a6,s8,4df4 <.L783>
    4df0:	d65fc06f          	j	1b54 <.L786>

00004df4 <.L783>:
    4df4:	0a400c13          	li	s8,164
    4df8:	00dc5463          	bge	s8,a3,4e00 <.L783+0xc>
    4dfc:	6110306f          	j	8c0c <.L776>
    4e00:	1aa00c13          	li	s8,426
    4e04:	016c5463          	bge	s8,s6,4e0c <.L783+0x18>
    4e08:	76c0506f          	j	a574 <.L787>
    4e0c:	00815c03          	lhu	s8,8(sp)
    4e10:	03300c93          	li	s9,51
    4e14:	007c0c13          	addi	s8,s8,7
    4e18:	01811423          	sh	s8,8(sp)
    4e1c:	01fcc463          	blt	s9,t6,4e24 <.L789>
    4e20:	d65fc06f          	j	1b84 <.L788>

00004e24 <.L789>:
    4e24:	0c400c13          	li	s8,196
    4e28:	016c5463          	bge	s8,s6,4e30 <.L789+0xc>
    4e2c:	2490606f          	j	b874 <.L802>
    4e30:	00a15c03          	lhu	s8,10(sp)
    4e34:	ff8c0c13          	addi	s8,s8,-8
    4e38:	010c1c13          	slli	s8,s8,0x10
    4e3c:	410c5c13          	srai	s8,s8,0x10

00004e40 <.L800>:
    4e40:	01811523          	sh	s8,10(sp)
    4e44:	ffc00c13          	li	s8,-4
    4e48:	01865463          	bge	a2,s8,4e50 <.L800+0x10>
    4e4c:	d65fc06f          	j	1bb0 <.L797>
    4e50:	01005463          	blez	a6,4e58 <.L803>
    4e54:	8ecfc06f          	j	f40 <.L812>

00004e58 <.L803>:
    4e58:	03500c13          	li	s8,53
    4e5c:	2efc4263          	blt	s8,a5,5140 <.L813>
    4e60:	00c15c03          	lhu	s8,12(sp)
    4e64:	03800c93          	li	s9,56
    4e68:	ff9c0c13          	addi	s8,s8,-7
    4e6c:	01811623          	sh	s8,12(sp)
    4e70:	00ecd463          	bge	s9,a4,4e78 <.L814>
    4e74:	5210306f          	j	8b94 <.L815>

00004e78 <.L814>:
    4e78:	00e15c03          	lhu	s8,14(sp)
    4e7c:	ff7c0c13          	addi	s8,s8,-9
    4e80:	010c1c13          	slli	s8,s8,0x10
    4e84:	410c5c13          	srai	s8,s8,0x10
    4e88:	8e0fc06f          	j	f68 <.L820>

00004e8c <.L772>:
    4e8c:	00c15c03          	lhu	s8,12(sp)
    4e90:	03e00c93          	li	s9,62
    4e94:	004c0c13          	addi	s8,s8,4
    4e98:	01811623          	sh	s8,12(sp)
    4e9c:	00fcc463          	blt	s9,a5,4ea4 <.L752>
    4ea0:	c89fc06f          	j	1b28 <.L751>

00004ea4 <.L752>:
    4ea4:	fec00c13          	li	s8,-20
    4ea8:	01865463          	bge	a2,s8,4eb0 <.L755>
    4eac:	828fc06f          	j	ed4 <.L780>

00004eb0 <.L755>:
    4eb0:	00e15c03          	lhu	s8,14(sp)
    4eb4:	ffe00c93          	li	s9,-2
    4eb8:	009c0c13          	addi	s8,s8,9
    4ebc:	01811723          	sh	s8,14(sp)
    4ec0:	f3984ae3          	blt	a6,s9,4df4 <.L783>

00004ec4 <.L2387>:
    4ec4:	0ba00c13          	li	s8,186
    4ec8:	012c4463          	blt	s8,s2,4ed0 <.L777>
    4ecc:	82cfc06f          	j	ef8 <.L784>

00004ed0 <.L777>:
    4ed0:	00815c03          	lhu	s8,8(sp)
    4ed4:	01c04463          	bgtz	t3,4edc <.L777+0xc>
    4ed8:	3d40606f          	j	b2ac <.L2886>
    4edc:	ff8c0c13          	addi	s8,s8,-8
    4ee0:	010c1c13          	slli	s8,s8,0x10
    4ee4:	410c5c13          	srai	s8,s8,0x10
    4ee8:	820fc06f          	j	f08 <.L778>

00004eec <.L1211>:
    4eec:	00e15c03          	lhu	s8,14(sp)
    4ef0:	00400c93          	li	s9,4
    4ef4:	ff6c0c13          	addi	s8,s8,-10
    4ef8:	01811723          	sh	s8,14(sp)
    4efc:	011cd463          	bge	s9,a7,4f04 <.L1209>
    4f00:	39d0206f          	j	7a9c <.L2606>

00004f04 <.L1209>:
    4f04:	03a00c13          	li	s8,58
    4f08:	01fc5463          	bge	s8,t6,4f10 <.L1209+0xc>
    4f0c:	2350306f          	j	8940 <.L1214>
    4f10:	00815c03          	lhu	s8,8(sp)
    4f14:	00cc0c13          	addi	s8,s8,12
    4f18:	01811423          	sh	s8,8(sp)
    4f1c:	b1cfd06f          	j	2238 <.L1210>

00004f20 <.L2108>:
    4f20:	0a400b13          	li	s6,164
    4f24:	01eb5863          	bge	s6,t5,4f34 <.L2102>
    4f28:	00815b03          	lhu	s6,8(sp)
    4f2c:	ff9b0b13          	addi	s6,s6,-7
    4f30:	01611423          	sh	s6,8(sp)

00004f34 <.L2102>:
    4f34:	02e00b13          	li	s6,46
    4f38:	c5db5663          	bge	s6,t4,4384 <.L2099>
    4f3c:	03900b13          	li	s6,57
    4f40:	01fb5463          	bge	s6,t6,4f48 <.L2100>
    4f44:	85cfe06f          	j	2fa0 <.L2112>

00004f48 <.L2100>:
    4f48:	00e00b13          	li	s6,14
    4f4c:	010b5463          	bge	s6,a6,4f54 <.L2100+0xc>
    4f50:	6600406f          	j	95b0 <.L2887>
    4f54:	00a15b03          	lhu	s6,10(sp)
    4f58:	004b0b13          	addi	s6,s6,4
    4f5c:	01611523          	sh	s6,10(sp)
    4f60:	858fe06f          	j	2fb8 <.L2115>

00004f64 <.L2890>:
    4f64:	07400c13          	li	s8,116
    4f68:	007c5463          	bge	s8,t2,4f70 <.L2890+0xc>
    4f6c:	6380606f          	j	b5a4 <.L1701>
    4f70:	00e15c03          	lhu	s8,14(sp)
    4f74:	e4300c93          	li	s9,-445
    4f78:	ffdc0c13          	addi	s8,s8,-3
    4f7c:	01811723          	sh	s8,14(sp)
    4f80:	01945463          	bge	s0,s9,4f88 <.L1703>
    4f84:	4140406f          	j	9398 <.L1702>

00004f88 <.L1703>:
    4f88:	03b00c13          	li	s8,59
    4f8c:	00fc5463          	bge	s8,a5,4f94 <.L1703+0xc>
    4f90:	7f90206f          	j	7f88 <.L1714>
    4f94:	d6700c13          	li	s8,-665
    4f98:	018ac463          	blt	s5,s8,4fa0 <.L1703+0x18>
    4f9c:	3fc0506f          	j	a398 <.L1715>
    4fa0:	00815c03          	lhu	s8,8(sp)
    4fa4:	00fc0c13          	addi	s8,s8,15
    4fa8:	010c1c13          	slli	s8,s8,0x10
    4fac:	010c5c13          	srli	s8,s8,0x10

00004fb0 <.L1716>:
    4fb0:	01811423          	sh	s8,8(sp)

00004fb4 <.L1712>:
    4fb4:	03500c13          	li	s8,53
    4fb8:	00ec4463          	blt	s8,a4,4fc0 <.L1712+0xc>
    4fbc:	2400306f          	j	81fc <.L1709>
    4fc0:	1a200c13          	li	s8,418
    4fc4:	007c4463          	blt	s8,t2,4fcc <.L1712+0x18>
    4fc8:	945fd06f          	j	290c <.L1710>
    4fcc:	00a15c03          	lhu	s8,10(sp)
    4fd0:	ffcc0c13          	addi	s8,s8,-4
    4fd4:	010c1c13          	slli	s8,s8,0x10
    4fd8:	410c5c13          	srai	s8,s8,0x10
    4fdc:	01811523          	sh	s8,10(sp)
    4fe0:	02200c13          	li	s8,34
    4fe4:	011c4463          	blt	s8,a7,4fec <.L1730>
    4fe8:	945fd06f          	j	292c <.L2888>

00004fec <.L1730>:
    4fec:	e6b00c13          	li	s8,-405
    4ff0:	0182c463          	blt	t0,s8,4ff8 <.L1730+0xc>
    4ff4:	5d10306f          	j	8dc4 <.L1737>
    4ff8:	03300c13          	li	s8,51
    4ffc:	01dc5463          	bge	s8,t4,5004 <.L1735>
    5000:	94dfd06f          	j	294c <.L1731>

00005004 <.L1735>:
    5004:	00c15c03          	lhu	s8,12(sp)
    5008:	009c0c13          	addi	s8,s8,9
    500c:	01811623          	sh	s8,12(sp)
    5010:	93dfd06f          	j	294c <.L1731>

00005014 <.L2073>:
    5014:	ff900b13          	li	s6,-7
    5018:	01664463          	blt	a2,s6,5020 <.L2073+0xc>
    501c:	5cc0306f          	j	85e8 <.L2078>
    5020:	09000b13          	li	s6,144
    5024:	012b5463          	bge	s6,s2,502c <.L2073+0x18>
    5028:	0380206f          	j	7060 <.L2079>
    502c:	02700b13          	li	s6,39
    5030:	006b4463          	blt	s6,t1,5038 <.L2659>
    5034:	0440206f          	j	7078 <.L2080>

00005038 <.L2659>:
    5038:	ecb00b13          	li	s6,-309
    503c:	016ac463          	blt	s5,s6,5044 <.L2088>
    5040:	5880306f          	j	85c8 <.L2081>

00005044 <.L2088>:
    5044:	00c15b03          	lhu	s6,12(sp)
    5048:	001b0b13          	addi	s6,s6,1
    504c:	010b1b13          	slli	s6,s6,0x10
    5050:	410b5b13          	srai	s6,s6,0x10
    5054:	ef5fd06f          	j	2f48 <.L2082>

00005058 <.L1901>:
    5058:	03c00c13          	li	s8,60
    505c:	01fc5863          	bge	s8,t6,506c <.L1907>
    5060:	00815c03          	lhu	s8,8(sp)
    5064:	006c0c13          	addi	s8,s8,6
    5068:	01811423          	sh	s8,8(sp)

0000506c <.L1907>:
    506c:	02b00c13          	li	s8,43
    5070:	010c4463          	blt	s8,a6,5078 <.L1903>
    5074:	bc5fd06f          	j	2c38 <.L1909>

00005078 <.L1903>:
    5078:	01400c13          	li	s8,20
    507c:	01dc5463          	bge	s8,t4,5084 <.L1903+0xc>
    5080:	4140306f          	j	8494 <.L1915>
    5084:	00a15c03          	lhu	s8,10(sp)
    5088:	00100c93          	li	s9,1
    508c:	ff9c0c13          	addi	s8,s8,-7
    5090:	01811523          	sh	s8,10(sp)
    5094:	9bccd4e3          	bge	s9,t3,4a3c <.L1916>

00005098 <.L1923>:
    5098:	0ff00c13          	li	s8,255
    509c:	009c5463          	bge	s8,s1,50a4 <.L1923+0xc>
    50a0:	3cc0406f          	j	946c <.L2889>
    50a4:	00c15c03          	lhu	s8,12(sp)
    50a8:	ff600c93          	li	s9,-10
    50ac:	ffec0c13          	addi	s8,s8,-2
    50b0:	01811623          	sh	s8,12(sp)
    50b4:	9b965ae3          	bge	a2,s9,4a68 <.L1930>

000050b8 <.L1931>:
    50b8:	03c00c13          	li	s8,60
    50bc:	01fc5463          	bge	s8,t6,50c4 <.L1931+0xc>
    50c0:	c01fd06f          	j	2cc0 <.L1934>
    50c4:	00e15c03          	lhu	s8,14(sp)
    50c8:	ff8c0c13          	addi	s8,s8,-8
    50cc:	01811723          	sh	s8,14(sp)
    50d0:	bf1fd06f          	j	2cc0 <.L1934>

000050d4 <.L2813>:
    50d4:	ff600c13          	li	s8,-10
    50d8:	01865463          	bge	a2,s8,50e0 <.L1683>
    50dc:	fc8fd06f          	j	28a4 <.L1682>

000050e0 <.L1683>:
    50e0:	ff600c13          	li	s8,-10
    50e4:	e98600e3          	beq	a2,s8,4f64 <.L2890>
    50e8:	f2700c13          	li	s8,-217
    50ec:	0182c463          	blt	t0,s8,50f4 <.L1683+0x14>
    50f0:	2e00406f          	j	93d0 <.L1704>
    50f4:	00e15c03          	lhu	s8,14(sp)
    50f8:	ffdc0c13          	addi	s8,s8,-3
    50fc:	010c1c13          	slli	s8,s8,0x10
    5100:	010c5c13          	srli	s8,s8,0x10
    5104:	fbcfd06f          	j	28c0 <.L1697>

00005108 <.L1890>:
    5108:	00c15c03          	lhu	s8,12(sp)
    510c:	05800c93          	li	s9,88
    5110:	001c0c13          	addi	s8,s8,1
    5114:	01811623          	sh	s8,12(sp)
    5118:	009cc463          	blt	s9,s1,5120 <.L1884>
    511c:	2640306f          	j	8380 <.L1891>

00005120 <.L1884>:
    5120:	03600c13          	li	s8,54
    5124:	00fc5463          	bge	s8,a5,512c <.L1884+0xc>
    5128:	34d0206f          	j	7c74 <.L1898>
    512c:	00e15c03          	lhu	s8,14(sp)
    5130:	ff8c0c13          	addi	s8,s8,-8
    5134:	010c1c13          	slli	s8,s8,0x10
    5138:	410c5c13          	srai	s8,s8,0x10
    513c:	acdfd06f          	j	2c08 <.L1897>

00005140 <.L813>:
    5140:	00c15c03          	lhu	s8,12(sp)
    5144:	03e00c93          	li	s9,62
    5148:	00dc0c13          	addi	s8,s8,13
    514c:	01811623          	sh	s8,12(sp)
    5150:	00fcd463          	bge	s9,a5,5158 <.L816>
    5154:	e05fb06f          	j	f58 <.L817>

00005158 <.L816>:
    5158:	03800c13          	li	s8,56
    515c:	00ec5463          	bge	s8,a4,5164 <.L816+0xc>
    5160:	2350306f          	j	8b94 <.L815>
    5164:	03600c13          	li	s8,54
    5168:	d0fc58e3          	bge	s8,a5,4e78 <.L814>

0000516c <.L821>:
    516c:	00e15c03          	lhu	s8,14(sp)
    5170:	003c0c13          	addi	s8,s8,3
    5174:	010c1c13          	slli	s8,s8,0x10
    5178:	410c5c13          	srai	s8,s8,0x10
    517c:	dedfb06f          	j	f68 <.L820>

00005180 <.L749>:
    5180:	f5000c13          	li	s8,-176
    5184:	0185c463          	blt	a1,s8,518c <.L749+0xc>
    5188:	5b90306f          	j	8f40 <.L2891>
    518c:	00f00c13          	li	s8,15
    5190:	010c5463          	bge	s8,a6,5198 <.L749+0x18>
    5194:	0e40606f          	j	b278 <.L761>
    5198:	00c15c03          	lhu	s8,12(sp)
    519c:	ff8c0c13          	addi	s8,s8,-8
    51a0:	010c1c13          	slli	s8,s8,0x10
    51a4:	010c5c13          	srli	s8,s8,0x10

000051a8 <.L762>:
    51a8:	01811623          	sh	s8,12(sp)
    51ac:	03e00c13          	li	s8,62
    51b0:	cefc4ae3          	blt	s8,a5,4ea4 <.L752>

000051b4 <.L741>:
    51b4:	03800c13          	li	s8,56
    51b8:	00ec5463          	bge	s8,a4,51c0 <.L770>
    51bc:	96dfc06f          	j	1b28 <.L751>

000051c0 <.L770>:
    51c0:	03600c13          	li	s8,54
    51c4:	c0fc48e3          	blt	s8,a5,4dd4 <.L769>
    51c8:	00e15c03          	lhu	s8,14(sp)
    51cc:	ffe00c93          	li	s9,-2
    51d0:	ff7c0c13          	addi	s8,s8,-9
    51d4:	01811723          	sh	s8,14(sp)
    51d8:	c1984ee3          	blt	a6,s9,4df4 <.L783>
    51dc:	0ba00c13          	li	s8,186
    51e0:	cf2c48e3          	blt	s8,s2,4ed0 <.L777>
    51e4:	985fc06f          	j	1b68 <.L792>

000051e8 <.L1745>:
    51e8:	00400c13          	li	s8,4
    51ec:	01cc5463          	bge	s8,t3,51f4 <.L2646>
    51f0:	6e80306f          	j	88d8 <.L1748>

000051f4 <.L2646>:
    51f4:	00e15c03          	lhu	s8,14(sp)
    51f8:	ffdc0c13          	addi	s8,s8,-3
    51fc:	010c1c13          	slli	s8,s8,0x10
    5200:	410c5c13          	srai	s8,s8,0x10

00005204 <.L1744>:
    5204:	01811723          	sh	s8,14(sp)
    5208:	01500c13          	li	s8,21
    520c:	1e7c5a63          	bge	s8,t2,5400 <.L1740>

00005210 <.L1742>:
    5210:	0fd00c13          	li	s8,253
    5214:	007c4463          	blt	s8,t2,521c <.L1742+0xc>
    5218:	f70fd06f          	j	2988 <.L1741>
    521c:	0d000c13          	li	s8,208
    5220:	009c5463          	bge	s8,s1,5228 <.L1742+0x18>
    5224:	f78fd06f          	j	299c <.L1749>
    5228:	00815c03          	lhu	s8,8(sp)
    522c:	006c0c13          	addi	s8,s8,6
    5230:	01811423          	sh	s8,8(sp)
    5234:	f68fd06f          	j	299c <.L1749>

00005238 <.L1501>:
    5238:	14e00c13          	li	s8,334
    523c:	00dc4463          	blt	s8,a3,5244 <.L1501+0xc>
    5240:	bd0fd06f          	j	2610 <.L1512>
    5244:	00815c03          	lhu	s8,8(sp)
    5248:	ffbc0c13          	addi	s8,s8,-5
    524c:	01811423          	sh	s8,8(sp)
    5250:	00c00c13          	li	s8,12
    5254:	01cc5463          	bge	s8,t3,525c <.L1520>
    5258:	bdcfd06f          	j	2634 <.L1505>

0000525c <.L1520>:
    525c:	19500c13          	li	s8,405
    5260:	b32c5463          	bge	s8,s2,4588 <.L1508>
    5264:	00a15c03          	lhu	s8,10(sp)
    5268:	f9800c93          	li	s9,-104
    526c:	ffcc0c13          	addi	s8,s8,-4
    5270:	01811523          	sh	s8,10(sp)
    5274:	01945463          	bge	s0,s9,527c <.L1520+0x20>
    5278:	be0fd06f          	j	2658 <.L1506>
    527c:	b24ff06f          	j	45a0 <.L1507>

00005280 <.L1038>:
    5280:	79c056e3          	blez	t3,620c <.L2892>

00005284 <.L1034>:
    5284:	00300c13          	li	s8,3
    5288:	01cc5463          	bge	s8,t3,5290 <.L1034+0xc>
    528c:	2500406f          	j	94dc <.L1050>
    5290:	00815c03          	lhu	s8,8(sp)
    5294:	ffcc0c13          	addi	s8,s8,-4
    5298:	01811423          	sh	s8,8(sp)
    529c:	03100c13          	li	s8,49
    52a0:	01fc4463          	blt	s8,t6,52a8 <.L1051>
    52a4:	84cfc06f          	j	12f0 <.L2893>

000052a8 <.L1051>:
    52a8:	01400c13          	li	s8,20
    52ac:	010c5463          	bge	s8,a6,52b4 <.L2260>
    52b0:	2010306f          	j	8cb0 <.L1040>

000052b4 <.L2260>:
    52b4:	0c400c13          	li	s8,196
    52b8:	016c5463          	bge	s8,s6,52c0 <.L2260+0xc>
    52bc:	cb9fc06f          	j	1f74 <.L1054>
    52c0:	00a15c03          	lhu	s8,10(sp)
    52c4:	ff9c0c13          	addi	s8,s8,-7
    52c8:	010c1c13          	slli	s8,s8,0x10
    52cc:	410c5c13          	srai	s8,s8,0x10
    52d0:	848fc06f          	j	1318 <.L1045>

000052d4 <.L916>:
    52d4:	02700c13          	li	s8,39
    52d8:	01cc5463          	bge	s8,t3,52e0 <.L916+0xc>
    52dc:	6b50406f          	j	a190 <.L925>
    52e0:	00a15c03          	lhu	s8,10(sp)
    52e4:	03300c93          	li	s9,51
    52e8:	00ac0c13          	addi	s8,s8,10
    52ec:	01811523          	sh	s8,10(sp)
    52f0:	00fcd463          	bge	s9,a5,52f8 <.L923>
    52f4:	ab5fc06f          	j	1da8 <.L918>

000052f8 <.L923>:
    52f8:	00900c13          	li	s8,9
    52fc:	011c5463          	bge	s8,a7,5304 <.L923+0xc>
    5300:	4640206f          	j	7764 <.L913>
    5304:	00c15c03          	lhu	s8,12(sp)
    5308:	ff8c0c13          	addi	s8,s8,-8
    530c:	01811623          	sh	s8,12(sp)

00005310 <.L928>:
    5310:	01500c13          	li	s8,21
    5314:	006c5463          	bge	s8,t1,531c <.L928+0xc>
    5318:	e41fb06f          	j	1158 <.L933>
    531c:	01f00c13          	li	s8,31
    5320:	01dc4463          	blt	s8,t4,5328 <.L928+0x18>
    5324:	f89fd06f          	j	32ac <.L934>
    5328:	00e15c03          	lhu	s8,14(sp)
    532c:	015c0c13          	addi	s8,s8,21
    5330:	01811723          	sh	s8,14(sp)
    5334:	e3dfb06f          	j	1170 <.L940>

00005338 <.L2143>:
    5338:	01c51c03          	lh	s8,28(a0)
    533c:	02a00b13          	li	s6,42
    5340:	018b4463          	blt	s6,s8,5348 <.L2143+0x10>
    5344:	3b00206f          	j	76f4 <.L2662>
    5348:	00e15b03          	lhu	s6,14(sp)
    534c:	004b0b13          	addi	s6,s6,4
    5350:	010b1b13          	slli	s6,s6,0x10
    5354:	410b5b13          	srai	s6,s6,0x10

00005358 <.L2138>:
    5358:	01611723          	sh	s6,14(sp)
    535c:	00400b13          	li	s6,4
    5360:	3b1b5463          	bge	s6,a7,5708 <.L2148>

00005364 <.L2140>:
    5364:	ff800b13          	li	s6,-8
    5368:	01665463          	bge	a2,s6,5370 <.L2140+0xc>
    536c:	cc1fd06f          	j	302c <.L2134>
    5370:	0b300b13          	li	s6,179
    5374:	007b4463          	blt	s6,t2,537c <.L2140+0x18>
    5378:	f14fe06f          	j	3a8c <.L2154>
    537c:	00815b03          	lhu	s6,8(sp)
    5380:	001b0b13          	addi	s6,s6,1
    5384:	010b1b13          	slli	s6,s6,0x10
    5388:	410b5b13          	srai	s6,s6,0x10
    538c:	cbdfd06f          	j	3048 <.L2135>

00005390 <.L1100>:
    5390:	00a15c03          	lhu	s8,10(sp)
    5394:	04900c93          	li	s9,73
    5398:	00bc0c13          	addi	s8,s8,11
    539c:	01811523          	sh	s8,10(sp)
    53a0:	011cc463          	blt	s9,a7,53a8 <.L1105>
    53a4:	cb9fc06f          	j	205c <.L1104>

000053a8 <.L1105>:
    53a8:	08600c13          	li	s8,134
    53ac:	01dc5463          	bge	s8,t4,53b4 <.L1105+0xc>
    53b0:	2a90206f          	j	7e58 <.L1110>
    53b4:	01c51c03          	lh	s8,28(a0)
    53b8:	01804463          	bgtz	s8,53c0 <.L1105+0x18>
    53bc:	a58fe06f          	j	3614 <.L2258>
    53c0:	00c15c03          	lhu	s8,12(sp)
    53c4:	e4a00c93          	li	s9,-438
    53c8:	009c0c13          	addi	s8,s8,9
    53cc:	01811623          	sh	s8,12(sp)
    53d0:	0192c463          	blt	t0,s9,53d8 <.L1115>
    53d4:	ca9fc06f          	j	207c <.L1112>

000053d8 <.L1115>:
    53d8:	03d00c13          	li	s8,61
    53dc:	00fc4463          	blt	s8,a5,53e4 <.L1114>
    53e0:	01c0206f          	j	73fc <.L1113>

000053e4 <.L1114>:
    53e4:	00e15c03          	lhu	s8,14(sp)
    53e8:	01500c93          	li	s9,21
    53ec:	ffbc0c13          	addi	s8,s8,-5
    53f0:	01811723          	sh	s8,14(sp)
    53f4:	007cc463          	blt	s9,t2,53fc <.L1114+0x18>
    53f8:	cb1fc06f          	j	20a8 <.L1118>
    53fc:	80cfc06f          	j	1408 <.L2602>

00005400 <.L1740>:
    5400:	07000c13          	li	s8,112
    5404:	012c5463          	bge	s8,s2,540c <.L1740+0xc>
    5408:	d94fd06f          	j	299c <.L1749>
    540c:	9b9ff06f          	j	4dc4 <.L1747>

00005410 <.L2859>:
    5410:	01c51c83          	lh	s9,28(a0)
    5414:	02d00c13          	li	s8,45
    5418:	019c5863          	bge	s8,s9,5428 <.L2037>
    541c:	00a15c03          	lhu	s8,10(sp)
    5420:	ffac0c13          	addi	s8,s8,-6
    5424:	01811523          	sh	s8,10(sp)

00005428 <.L2037>:
    5428:	01500c13          	li	s8,21
    542c:	450c5863          	bge	s8,a6,587c <.L2032>

00005430 <.L2039>:
    5430:	03800c13          	li	s8,56
    5434:	00fc4463          	blt	s8,a5,543c <.L2052>
    5438:	e4dfe06f          	j	4284 <.L2051>

0000543c <.L2052>:
    543c:	15500c13          	li	s8,341
    5440:	01ec5463          	bge	s8,t5,5448 <.L2052+0xc>
    5444:	7580506f          	j	ab9c <.L2053>
    5448:	00c15c03          	lhu	s8,12(sp)
    544c:	ff9c0c13          	addi	s8,s8,-7
    5450:	01811623          	sh	s8,12(sp)
    5454:	01c05463          	blez	t3,545c <.L2052+0x20>
    5458:	a49fd06f          	j	2ea0 <.L2045>
    545c:	00e15c03          	lhu	s8,14(sp)
    5460:	0a900c93          	li	s9,169
    5464:	ffac0c13          	addi	s8,s8,-6
    5468:	01811723          	sh	s8,14(sp)
    546c:	01ecd463          	bge	s9,t5,5474 <.L2048>
    5470:	e5dfe06f          	j	42cc <.L2056>

00005474 <.L2048>:
    5474:	0ca00b13          	li	s6,202
    5478:	44eb4a63          	blt	s6,a4,58cc <.L2658>
    547c:	00815b03          	lhu	s6,8(sp)
    5480:	006b0b13          	addi	s6,s6,6
    5484:	01611423          	sh	s6,8(sp)
    5488:	a75fd06f          	j	2efc <.L2070>

0000548c <.L695>:
    548c:	07200c13          	li	s8,114
    5490:	00ec4463          	blt	s8,a4,5498 <.L696>
    5494:	1810206f          	j	7e14 <.L688>

00005498 <.L696>:
    5498:	2aa00c13          	li	s8,682
    549c:	00dc4463          	blt	s8,a3,54a4 <.L696+0xc>
    54a0:	d68fc06f          	j	1a08 <.L690>
    54a4:	4be00c13          	li	s8,1214
    54a8:	00ec5463          	bge	s8,a4,54b0 <.L696+0x18>
    54ac:	1ac0406f          	j	9658 <.L702>
    54b0:	00a15c03          	lhu	s8,10(sp)
    54b4:	ff7c0c13          	addi	s8,s8,-9
    54b8:	010c1c13          	slli	s8,s8,0x10
    54bc:	410c5c13          	srai	s8,s8,0x10
    54c0:	d64fc06f          	j	1a24 <.L701>

000054c4 <.L1859>:
    54c4:	02c00c13          	li	s8,44
    54c8:	011c5463          	bge	s8,a7,54d0 <.L1859+0xc>
    54cc:	3980206f          	j	7864 <.L1864>
    54d0:	01889463          	bne	a7,s8,54d8 <.L1859+0x14>
    54d4:	0a40606f          	j	b578 <.L1865>
    54d8:	01f00c13          	li	s8,31
    54dc:	033c4c63          	blt	s8,s3,5514 <.L1867>

000054e0 <.L1866>:
    54e0:	f8b00c13          	li	s8,-117
    54e4:	0185d463          	bge	a1,s8,54ec <.L1866+0xc>
    54e8:	eb0fd06f          	j	2b98 <.L1874>
    54ec:	00100c13          	li	s8,1
    54f0:	c9cc5463          	bge	s8,t3,4978 <.L1855>
    54f4:	00a15c03          	lhu	s8,10(sp)
    54f8:	ff9c0c13          	addi	s8,s8,-7
    54fc:	010c1c13          	slli	s8,s8,0x10
    5500:	410c5c13          	srai	s8,s8,0x10
    5504:	01811523          	sh	s8,10(sp)
    5508:	c84ff06f          	j	498c <.L2894>

0000550c <.L1871>:
    550c:	03b00c13          	li	s8,59
    5510:	fc6c58e3          	bge	s8,t1,54e0 <.L1866>

00005514 <.L1867>:
    5514:	00815c03          	lhu	s8,8(sp)
    5518:	ff9c0c13          	addi	s8,s8,-7
    551c:	01811423          	sh	s8,8(sp)
    5520:	fc1ff06f          	j	54e0 <.L1866>

00005524 <.L1121>:
    5524:	03600c13          	li	s8,54
    5528:	00fc5463          	bge	s8,a5,5530 <.L1121+0xc>
    552c:	6000406f          	j	9b2c <.L1123>
    5530:	00e15c03          	lhu	s8,14(sp)
    5534:	ffac0c13          	addi	s8,s8,-6
    5538:	01811723          	sh	s8,14(sp)

0000553c <.L1122>:
    553c:	01500c13          	li	s8,21
    5540:	007c4463          	blt	s8,t2,5548 <.L1122+0xc>
    5544:	b65fc06f          	j	20a8 <.L1118>
    5548:	0fd00c13          	li	s8,253
    554c:	007c5463          	bge	s8,t2,5554 <.L1122+0x18>
    5550:	ec5fb06f          	j	1414 <.L1120>
    5554:	fa300c13          	li	s8,-93
    5558:	0182cc63          	blt	t0,s8,5570 <.L1119>
    555c:	00815c03          	lhu	s8,8(sp)
    5560:	006c0c13          	addi	s8,s8,6
    5564:	010c1c13          	slli	s8,s8,0x10
    5568:	410c5c13          	srai	s8,s8,0x10
    556c:	ec5fb06f          	j	1430 <.L1127>

00005570 <.L1119>:
    5570:	00815c03          	lhu	s8,8(sp)
    5574:	ffdc0c13          	addi	s8,s8,-3
    5578:	010c1c13          	slli	s8,s8,0x10
    557c:	410c5c13          	srai	s8,s8,0x10
    5580:	eb1fb06f          	j	1430 <.L1127>

00005584 <.L2773>:
    5584:	ff600c13          	li	s8,-10
    5588:	01865463          	bge	a2,s8,5590 <.L2773+0xc>
    558c:	945fe06f          	j	3ed0 <.L1346>
    5590:	00c15c03          	lhu	s8,12(sp)
    5594:	03600c93          	li	s9,54
    5598:	ffbc0c13          	addi	s8,s8,-5
    559c:	01811623          	sh	s8,12(sp)
    55a0:	00fcd463          	bge	s9,a5,55a8 <.L1341>
    55a4:	e2dfc06f          	j	23d0 <.L1355>

000055a8 <.L1341>:
    55a8:	04c00c13          	li	s8,76
    55ac:	016c5463          	bge	s8,s6,55b4 <.L1341+0xc>
    55b0:	0100206f          	j	75c0 <.L1353>
    55b4:	00e15c03          	lhu	s8,14(sp)
    55b8:	003c0c13          	addi	s8,s8,3
    55bc:	010c1c13          	slli	s8,s8,0x10
    55c0:	410c5c13          	srai	s8,s8,0x10
    55c4:	e29fc06f          	j	23ec <.L1366>

000055c8 <.L2209>:
    55c8:	06b00513          	li	a0,107
    55cc:	00954463          	blt	a0,s1,55d4 <.L2209+0xc>
    55d0:	dd4fe06f          	j	3ba4 <.L2213>
    55d4:	ffc00513          	li	a0,-4
    55d8:	00a65463          	bge	a2,a0,55e0 <.L2209+0x18>
    55dc:	b9dfd06f          	j	3178 <.L2210>
    55e0:	ff968693          	addi	a3,a3,-7
    55e4:	00d11723          	sh	a3,14(sp)
    55e8:	f7a00693          	li	a3,-134
    55ec:	00da4463          	blt	s4,a3,55f4 <.L2209+0x2c>
    55f0:	b91fd06f          	j	3180 <.L2218>
    55f4:	f4000693          	li	a3,-192
    55f8:	02da5063          	bge	s4,a3,5618 <.L2230>

000055fc <.L2219>:
    55fc:	efb00693          	li	a3,-261
    5600:	00da5463          	bge	s4,a3,5608 <.L2219+0xc>
    5604:	ba9fd06f          	j	31ac <.L2233>
    5608:	00815683          	lhu	a3,8(sp)
    560c:	00468693          	addi	a3,a3,4
    5610:	00d11423          	sh	a3,8(sp)
    5614:	b99fd06f          	j	31ac <.L2233>

00005618 <.L2230>:
    5618:	00815683          	lhu	a3,8(sp)
    561c:	ff968693          	addi	a3,a3,-7
    5620:	00d11423          	sh	a3,8(sp)
    5624:	b89fd06f          	j	31ac <.L2233>

00005628 <.L479>:
    5628:	e4e00c13          	li	s8,-434
    562c:	018ac463          	blt	s5,s8,5634 <.L479+0xc>
    5630:	4350306f          	j	9264 <.L489>
    5634:	00001c37          	lui	s8,0x1
    5638:	cbbc0c13          	addi	s8,s8,-837 # cbb <.L2778+0x3>
    563c:	00ec4463          	blt	s8,a4,5644 <.L479+0x1c>
    5640:	7ad0506f          	j	b5ec <.L2895>
    5644:	00c15c03          	lhu	s8,12(sp)
    5648:	e0800c93          	li	s9,-504
    564c:	ffac0c13          	addi	s8,s8,-6
    5650:	01811623          	sh	s8,12(sp)
    5654:	01945463          	bge	s0,s9,565c <.L491>
    5658:	c58fb06f          	j	ab0 <.L482>

0000565c <.L491>:
    565c:	03b00c13          	li	s8,59
    5660:	00fc4463          	blt	s8,a5,5668 <.L508>
    5664:	2d00106f          	j	6934 <.L483>

00005668 <.L508>:
    5668:	00e15c03          	lhu	s8,14(sp)
    566c:	ff8c0c13          	addi	s8,s8,-8
    5670:	010c1c13          	slli	s8,s8,0x10
    5674:	410c5c13          	srai	s8,s8,0x10

00005678 <.L504>:
    5678:	01811723          	sh	s8,14(sp)
    567c:	0a900c13          	li	s8,169
    5680:	01ec4463          	blt	s8,t5,5688 <.L504+0x10>
    5684:	df5fe06f          	j	4478 <.L501>
    5688:	01e00c13          	li	s8,30
    568c:	013c5463          	bge	s8,s3,5694 <.L504+0x1c>
    5690:	7040306f          	j	8d94 <.L514>
    5694:	ea900c13          	li	s8,-343
    5698:	018a5463          	bge	s4,s8,56a0 <.L504+0x28>
    569c:	c50fb06f          	j	aec <.L502>
    56a0:	00815c03          	lhu	s8,8(sp)
    56a4:	002c0c13          	addi	s8,s8,2
    56a8:	010c1c13          	slli	s8,s8,0x10
    56ac:	410c5c13          	srai	s8,s8,0x10
    56b0:	df1fe06f          	j	44a0 <.L512>

000056b4 <.L1779>:
    56b4:	00815c03          	lhu	s8,8(sp)
    56b8:	02e00c93          	li	s9,46
    56bc:	001c0c13          	addi	s8,s8,1
    56c0:	01811423          	sh	s8,8(sp)
    56c4:	01dcc463          	blt	s9,t4,56cc <.L1784>
    56c8:	b90fd06f          	j	2a58 <.L1783>

000056cc <.L1784>:
    56cc:	03d00c13          	li	s8,61
    56d0:	00fc4463          	blt	s8,a5,56d8 <.L1784+0xc>
    56d4:	15d0406f          	j	a030 <.L1802>
    56d8:	01500c13          	li	s8,21
    56dc:	cf0c4863          	blt	s8,a6,4bcc <.L1796>

000056e0 <.L1787>:
    56e0:	19800c13          	li	s8,408
    56e4:	009c5463          	bge	s8,s1,56ec <.L1787+0xc>
    56e8:	2f00206f          	j	79d8 <.L1798>
    56ec:	18700c13          	li	s8,391
    56f0:	009c4463          	blt	s8,s1,56f8 <.L1799>
    56f4:	bb4fd06f          	j	2aa8 <.L1808>

000056f8 <.L1799>:
    56f8:	00c15c03          	lhu	s8,12(sp)
    56fc:	007c0c13          	addi	s8,s8,7
    5700:	01811623          	sh	s8,12(sp)
    5704:	ba4fd06f          	j	2aa8 <.L1808>

00005708 <.L2148>:
    5708:	06a00b13          	li	s6,106
    570c:	012b4463          	blt	s6,s2,5714 <.L2148+0xc>
    5710:	7ed0206f          	j	86fc <.L2132>
    5714:	00815b03          	lhu	s6,8(sp)
    5718:	03b00c13          	li	s8,59
    571c:	001b0b13          	addi	s6,s6,1
    5720:	01611423          	sh	s6,8(sp)
    5724:	00fc5463          	bge	s8,a5,572c <.L2141>
    5728:	b80fe06f          	j	3aa8 <.L2146>

0000572c <.L2141>:
    572c:	33f00b13          	li	s6,831
    5730:	00eb5463          	bge	s6,a4,5738 <.L2151>
    5734:	74d0106f          	j	7680 <.L2149>

00005738 <.L2151>:
    5738:	00a15b03          	lhu	s6,10(sp)
    573c:	001b0b13          	addi	s6,s6,1
    5740:	010b1b13          	slli	s6,s6,0x10
    5744:	410b5b13          	srai	s6,s6,0x10
    5748:	01611523          	sh	s6,10(sp)
    574c:	fdb00b13          	li	s6,-37
    5750:	01674463          	blt	a4,s6,5758 <.L2823>
    5754:	939fd06f          	j	308c <.L2179>

00005758 <.L2823>:
    5758:	00a00693          	li	a3,10
    575c:	0136d463          	bge	a3,s3,5764 <.L2823+0xc>
    5760:	2340406f          	j	9994 <.L2180>
    5764:	00c15683          	lhu	a3,12(sp)
    5768:	ff868693          	addi	a3,a3,-8
    576c:	00d11623          	sh	a3,12(sp)
    5770:	03100693          	li	a3,49
    5774:	00f6c463          	blt	a3,a5,577c <.L2170>
    5778:	941fd06f          	j	30b8 <.L2896>

0000577c <.L2170>:
    577c:	05800693          	li	a3,88
    5780:	0096d463          	bge	a3,s1,5788 <.L2170+0xc>
    5784:	2340206f          	j	79b8 <.L2184>
    5788:	f5300693          	li	a3,-173
    578c:	00d45463          	bge	s0,a3,5794 <.L2186>
    5790:	b68fe06f          	j	3af8 <.L2254>

00005794 <.L2186>:
    5794:	00e15683          	lhu	a3,14(sp)
    5798:	00168693          	addi	a3,a3,1
    579c:	01069693          	slli	a3,a3,0x10
    57a0:	4106d693          	srai	a3,a3,0x10
    57a4:	925fd06f          	j	30c8 <.L2183>

000057a8 <.L550>:
    57a8:	0dd00c13          	li	s8,221
    57ac:	006c4463          	blt	s8,t1,57b4 <.L550+0xc>
    57b0:	854fc06f          	j	1804 <.L547>
    57b4:	00815c03          	lhu	s8,8(sp)
    57b8:	0f000c93          	li	s9,240
    57bc:	ff8c0c13          	addi	s8,s8,-8
    57c0:	01811423          	sh	s8,8(sp)
    57c4:	006cc463          	blt	s9,t1,57cc <.L550+0x24>
    57c8:	848fc06f          	j	1810 <.L549>
    57cc:	d6c00c13          	li	s8,-660
    57d0:	018ad463          	bge	s5,s8,57d8 <.L550+0x30>
    57d4:	6180606f          	j	bdec <.L555>
    57d8:	18000c13          	li	s8,384
    57dc:	009c5863          	bge	s8,s1,57ec <.L575>
    57e0:	00a15c03          	lhu	s8,10(sp)
    57e4:	007c0c13          	addi	s8,s8,7
    57e8:	01811523          	sh	s8,10(sp)

000057ec <.L575>:
    57ec:	3fa00c13          	li	s8,1018
    57f0:	00ec4463          	blt	s8,a4,57f8 <.L572>
    57f4:	848fc06f          	j	183c <.L564>

000057f8 <.L572>:
    57f8:	ddb00c13          	li	s8,-549
    57fc:	018a4463          	blt	s4,s8,5804 <.L572+0xc>
    5800:	68c0406f          	j	9e8c <.L588>
    5804:	00c15c03          	lhu	s8,12(sp)
    5808:	e0800c93          	li	s9,-504
    580c:	005c0c13          	addi	s8,s8,5
    5810:	01811623          	sh	s8,12(sp)
    5814:	01944463          	blt	s0,s9,581c <.L584>
    5818:	848fc06f          	j	1860 <.L2375>

0000581c <.L584>:
    581c:	25500c13          	li	s8,597
    5820:	3a9c56e3          	bge	s8,s1,63cc <.L595>
    5824:	c2600c13          	li	s8,-986
    5828:	0185c463          	blt	a1,s8,5830 <.L584+0x14>
    582c:	32d0106f          	j	7358 <.L606>
    5830:	00e15c03          	lhu	s8,14(sp)
    5834:	0a900c93          	li	s9,169
    5838:	006c0c13          	addi	s8,s8,6
    583c:	01811723          	sh	s8,14(sp)
    5840:	01ecc463          	blt	s9,t5,5848 <.L2581>
    5844:	83cfc06f          	j	1880 <.L600>

00005848 <.L2581>:
    5848:	10700c13          	li	s8,263
    584c:	687c5ae3          	bge	s8,t2,66e0 <.L603>

00005850 <.L602>:
    5850:	00815c03          	lhu	s8,8(sp)
    5854:	ff6c0c13          	addi	s8,s8,-10
    5858:	01811423          	sh	s8,8(sp)
    585c:	c04fb06f          	j	c60 <.L614>

00005860 <.L1082>:
    5860:	e1900c13          	li	s8,-487
    5864:	018a5463          	bge	s4,s8,586c <.L1082+0xc>
    5868:	f90fc06f          	j	1ff8 <.L1080>
    586c:	00e15c03          	lhu	s8,14(sp)
    5870:	008c0c13          	addi	s8,s8,8
    5874:	01811723          	sh	s8,14(sp)
    5878:	f80fc06f          	j	1ff8 <.L1080>

0000587c <.L2032>:
    587c:	f6a00c13          	li	s8,-150
    5880:	0185d463          	bge	a1,s8,5888 <.L2032+0xc>
    5884:	df4fd06f          	j	2e78 <.L2035>
    5888:	f5b00c13          	li	s8,-165
    588c:	0182c463          	blt	t0,s8,5894 <.L2032+0x18>
    5890:	32c0406f          	j	9bbc <.L2044>
    5894:	00c15c03          	lhu	s8,12(sp)
    5898:	004c0c13          	addi	s8,s8,4
    589c:	01811623          	sh	s8,12(sp)
    58a0:	01c05463          	blez	t3,58a8 <.L2657>
    58a4:	dfcfd06f          	j	2ea0 <.L2045>

000058a8 <.L2657>:
    58a8:	00e15c03          	lhu	s8,14(sp)
    58ac:	0a900c93          	li	s9,169
    58b0:	ffac0c13          	addi	s8,s8,-6
    58b4:	01811723          	sh	s8,14(sp)
    58b8:	01ecc463          	blt	s9,t5,58c0 <.L2046>
    58bc:	e1cfd06f          	j	2ed8 <.L2050>

000058c0 <.L2046>:
    58c0:	11500c13          	li	s8,277
    58c4:	016c4463          	blt	s8,s6,58cc <.L2658>
    58c8:	e34fd06f          	j	2efc <.L2070>

000058cc <.L2658>:
    58cc:	00815b03          	lhu	s6,8(sp)
    58d0:	ffdb0b13          	addi	s6,s6,-3
    58d4:	01611423          	sh	s6,8(sp)
    58d8:	e24fd06f          	j	2efc <.L2070>

000058dc <.L725>:
    58dc:	10700c13          	li	s8,263
    58e0:	007c4463          	blt	s8,t2,58e8 <.L725+0xc>
    58e4:	3010306f          	j	93e4 <.L2897>
    58e8:	e4300c13          	li	s8,-445
    58ec:	01844463          	blt	s0,s8,58f4 <.L725+0x18>
    58f0:	1ad0506f          	j	b29c <.L734>
    58f4:	00815c03          	lhu	s8,8(sp)
    58f8:	ff7c0c13          	addi	s8,s8,-9
    58fc:	01811423          	sh	s8,8(sp)
    5900:	9b4fc06f          	j	1ab4 <.L718>

00005904 <.L1786>:
    5904:	00815c03          	lhu	s8,8(sp)
    5908:	02e00c93          	li	s9,46
    590c:	ffec0c13          	addi	s8,s8,-2
    5910:	01811423          	sh	s8,8(sp)
    5914:	a9dcde63          	bge	s9,t4,4bb0 <.L1789>

00005918 <.L1780>:
    5918:	03900c13          	li	s8,57
    591c:	dbfc48e3          	blt	s8,t6,56cc <.L1784>
    5920:	00d00c13          	li	s8,13
    5924:	010c5463          	bge	s8,a6,592c <.L1780+0x14>
    5928:	2390406f          	j	a360 <.L1797>
    592c:	00a15c03          	lhu	s8,10(sp)
    5930:	19800c93          	li	s9,408
    5934:	003c0c13          	addi	s8,s8,3
    5938:	01811523          	sh	s8,10(sp)
    593c:	009cd463          	bge	s9,s1,5944 <.L1780+0x2c>
    5940:	0980206f          	j	79d8 <.L1798>
    5944:	18700c13          	li	s8,391
    5948:	da9c48e3          	blt	s8,s1,56f8 <.L1799>
    594c:	00300c13          	li	s8,3
    5950:	b1cc5463          	bge	s8,t3,4c58 <.L2648>
    5954:	af0ff06f          	j	4c44 <.L1801>

00005958 <.L830>:
    5958:	00a15c03          	lhu	s8,10(sp)
    595c:	27a00c93          	li	s9,634
    5960:	ffbc0c13          	addi	s8,s8,-5
    5964:	01811523          	sh	s8,10(sp)
    5968:	00dcc463          	blt	s9,a3,5970 <.L831>
    596c:	3280106f          	j	6c94 <.L2592>

00005970 <.L831>:
    5970:	00f00c13          	li	s8,15
    5974:	011c5463          	bge	s8,a7,597c <.L831+0xc>
    5978:	4090306f          	j	9580 <.L849>
    597c:	00c15c03          	lhu	s8,12(sp)
    5980:	d2a00c93          	li	s9,-726
    5984:	fffc0c13          	addi	s8,s8,-1
    5988:	01811623          	sh	s8,12(sp)
    598c:	0195c463          	blt	a1,s9,5994 <.L850>
    5990:	afcfc06f          	j	1c8c <.L2593>

00005994 <.L850>:
    5994:	25d00c13          	li	s8,605
    5998:	009c4463          	blt	s8,s1,59a0 <.L850+0xc>
    599c:	3280106f          	j	6cc4 <.L844>
    59a0:	c2600c13          	li	s8,-986
    59a4:	0185d463          	bge	a1,s8,59ac <.L850+0x18>
    59a8:	0000206f          	j	79a8 <.L854>
    59ac:	00e15c03          	lhu	s8,14(sp)
    59b0:	ff9c0c13          	addi	s8,s8,-7
    59b4:	01811723          	sh	s8,14(sp)
    59b8:	e58fb06f          	j	1010 <.L846>

000059bc <.L544>:
    59bc:	00e15c03          	lhu	s8,14(sp)
    59c0:	ff7c0c13          	addi	s8,s8,-9
    59c4:	01811723          	sh	s8,14(sp)
    59c8:	00084463          	bltz	a6,59d0 <.L544+0x14>
    59cc:	9c0fb06f          	j	b8c <.L546>
    59d0:	d95fb06f          	j	1764 <.L2757>

000059d4 <.L1592>:
    59d4:	00a15c03          	lhu	s8,10(sp)
    59d8:	03c00c93          	li	s9,60
    59dc:	002c0c13          	addi	s8,s8,2
    59e0:	01811523          	sh	s8,10(sp)
    59e4:	00fcd463          	bge	s9,a5,59ec <.L1604>
    59e8:	4910206f          	j	8678 <.L2712>

000059ec <.L1604>:
    59ec:	00f00c13          	li	s8,15
    59f0:	010c4463          	blt	s8,a6,59f8 <.L1604+0xc>
    59f4:	7680206f          	j	815c <.L1606>
    59f8:	ffb00c13          	li	s8,-5
    59fc:	01864463          	blt	a2,s8,5a04 <.L1604+0x18>
    5a00:	7840206f          	j	8184 <.L1616>
    5a04:	00c15c03          	lhu	s8,12(sp)
    5a08:	00300c93          	li	s9,3
    5a0c:	005c0c13          	addi	s8,s8,5
    5a10:	01811623          	sh	s8,12(sp)
    5a14:	01ccc463          	blt	s9,t3,5a1c <.L1620>
    5a18:	bc0fe06f          	j	3dd8 <.L1621>

00005a1c <.L1620>:
    5a1c:	e4a00c13          	li	s8,-438
    5a20:	0182d463          	bge	t0,s8,5a28 <.L1627>
    5a24:	5740306f          	j	8f98 <.L1596>

00005a28 <.L1627>:
    5a28:	00e15c03          	lhu	s8,14(sp)
    5a2c:	0009d463          	bgez	s3,5a34 <.L1627+0xc>
    5a30:	7150506f          	j	b944 <.L2898>
    5a34:	003c0c13          	addi	s8,s8,3
    5a38:	01811723          	sh	s8,14(sp)
    5a3c:	bb4fe06f          	j	3df0 <.L1628>

00005a40 <.L1611>:
    5a40:	00a15c83          	lhu	s9,10(sp)
    5a44:	ffbc8c93          	addi	s9,s9,-5
    5a48:	01911523          	sh	s9,10(sp)
    5a4c:	fafc50e3          	bge	s8,a5,59ec <.L1604>
    5a50:	e6500c13          	li	s8,-411
    5a54:	0182d463          	bge	t0,s8,5a5c <.L1611+0x1c>
    5a58:	5780606f          	j	bfd0 <.L1617>
    5a5c:	00e00c13          	li	s8,14
    5a60:	01dc5463          	bge	s8,t4,5a68 <.L1618>
    5a64:	4940406f          	j	9ef8 <.L1619>

00005a68 <.L1618>:
    5a68:	00e15c03          	lhu	s8,14(sp)
    5a6c:	00400c93          	li	s9,4
    5a70:	0009d463          	bgez	s3,5a78 <.L1618+0x10>
    5a74:	3e40606f          	j	be58 <.L2899>
    5a78:	003c0c13          	addi	s8,s8,3
    5a7c:	01811723          	sh	s8,14(sp)
    5a80:	011cd463          	bge	s9,a7,5a88 <.L1643>
    5a84:	dc1fc06f          	j	2844 <.L1646>

00005a88 <.L1643>:
    5a88:	03800c13          	li	s8,56
    5a8c:	01fc4463          	blt	s8,t6,5a94 <.L1643+0xc>
    5a90:	0780106f          	j	6b08 <.L1651>
    5a94:	00815c03          	lhu	s8,8(sp)
    5a98:	02e00c93          	li	s9,46
    5a9c:	003c0c13          	addi	s8,s8,3
    5aa0:	01811423          	sh	s8,8(sp)
    5aa4:	01dcc463          	blt	s9,t4,5aac <.L1643+0x24>
    5aa8:	0ec0206f          	j	7b94 <.L1641>
    5aac:	03900c13          	li	s8,57
    5ab0:	018f9463          	bne	t6,s8,5ab8 <.L1643+0x30>
    5ab4:	2a50306f          	j	9558 <.L1667>
    5ab8:	03d00c13          	li	s8,61
    5abc:	00fc5463          	bge	s8,a5,5ac4 <.L1690>
    5ac0:	73d0506f          	j	b9fc <.L2900>

00005ac4 <.L1690>:
    5ac4:	00a15c03          	lhu	s8,10(sp)
    5ac8:	00100c93          	li	s9,1
    5acc:	009c0c13          	addi	s8,s8,9
    5ad0:	01811523          	sh	s8,10(sp)
    5ad4:	01ccc463          	blt	s9,t3,5adc <.L1692>
    5ad8:	0fc0306f          	j	8bd4 <.L1694>

00005adc <.L1692>:
    5adc:	04900c13          	li	s8,73
    5ae0:	011c4463          	blt	s8,a7,5ae8 <.L1692+0xc>
    5ae4:	05c0106f          	j	6b40 <.L1655>
    5ae8:	00c15c03          	lhu	s8,12(sp)
    5aec:	005c0c13          	addi	s8,s8,5
    5af0:	010c1c13          	slli	s8,s8,0x10
    5af4:	410c5c13          	srai	s8,s8,0x10

00005af8 <.L1684>:
    5af8:	01811623          	sh	s8,12(sp)
    5afc:	ff600c13          	li	s8,-10
    5b00:	df865063          	bge	a2,s8,50e0 <.L1683>
    5b04:	03200c13          	li	s8,50
    5b08:	01dc4463          	blt	s8,t4,5b10 <.L1684+0x18>
    5b0c:	d99fc06f          	j	28a4 <.L1682>
    5b10:	03300c13          	li	s8,51
    5b14:	018e8463          	beq	t4,s8,5b1c <.L1684+0x24>
    5b18:	dadfc06f          	j	28c4 <.L1699>
    5b1c:	00e15c03          	lhu	s8,14(sp)
    5b20:	00bc0c13          	addi	s8,s8,11
    5b24:	01811723          	sh	s8,14(sp)
    5b28:	d9dfc06f          	j	28c4 <.L1699>

00005b2c <.L2652>:
    5b2c:	00c15c03          	lhu	s8,12(sp)
    5b30:	ff8c0c13          	addi	s8,s8,-8
    5b34:	010c1c13          	slli	s8,s8,0x10
    5b38:	410c5c13          	srai	s8,s8,0x10
    5b3c:	950fd06f          	j	2c8c <.L1922>

00005b40 <.L1815>:
    5b40:	00e15c03          	lhu	s8,14(sp)
    5b44:	0a900c93          	li	s9,169
    5b48:	002c0c13          	addi	s8,s8,2
    5b4c:	01811723          	sh	s8,14(sp)
    5b50:	01ecc463          	blt	s9,t5,5b58 <.L2649>
    5b54:	f91fc06f          	j	2ae4 <.L1818>

00005b58 <.L2649>:
    5b58:	00815c03          	lhu	s8,8(sp)
    5b5c:	fffc0c13          	addi	s8,s8,-1
    5b60:	010c1c13          	slli	s8,s8,0x10
    5b64:	410c5c13          	srai	s8,s8,0x10
    5b68:	92cff06f          	j	4c94 <.L1835>

00005b6c <.L1441>:
    5b6c:	00e15c03          	lhu	s8,14(sp)
    5b70:	00400c93          	li	s9,4
    5b74:	fffc0c13          	addi	s8,s8,-1
    5b78:	01811723          	sh	s8,14(sp)
    5b7c:	011cc463          	blt	s9,a7,5b84 <.L1444>
    5b80:	9e9fc06f          	j	2568 <.L1445>

00005b84 <.L1444>:
    5b84:	ff800c13          	li	s8,-8
    5b88:	05865863          	bge	a2,s8,5bd8 <.L1449>
    5b8c:	01f00c13          	li	s8,31
    5b90:	011c5463          	bge	s8,a7,5b98 <.L1444+0x14>
    5b94:	69d0206f          	j	8a30 <.L1448>
    5b98:	00815c03          	lhu	s8,8(sp)
    5b9c:	f8b00c93          	li	s9,-117
    5ba0:	004c0c13          	addi	s8,s8,4
    5ba4:	01811423          	sh	s8,8(sp)
    5ba8:	0195d463          	bge	a1,s9,5bb0 <.L1468>
    5bac:	9d5fc06f          	j	2580 <.L2737>

00005bb0 <.L1468>:
    5bb0:	00a15c03          	lhu	s8,10(sp)
    5bb4:	ff8c0c13          	addi	s8,s8,-8
    5bb8:	01811523          	sh	s8,10(sp)
    5bbc:	9e9fc06f          	j	25a4 <.L1455>

00005bc0 <.L2853>:
    5bc0:	00e15c03          	lhu	s8,14(sp)
    5bc4:	ff800c93          	li	s9,-8
    5bc8:	00cc0c13          	addi	s8,s8,12
    5bcc:	01811723          	sh	s8,14(sp)
    5bd0:	01965463          	bge	a2,s9,5bd8 <.L1449>
    5bd4:	65d0206f          	j	8a30 <.L1448>

00005bd8 <.L1449>:
    5bd8:	f5c00c13          	li	s8,-164
    5bdc:	01844463          	blt	s0,s8,5be4 <.L1449+0xc>
    5be0:	5dc0506f          	j	b1bc <.L1473>
    5be4:	00815c03          	lhu	s8,8(sp)
    5be8:	ffbc0c13          	addi	s8,s8,-5
    5bec:	010c1c13          	slli	s8,s8,0x10
    5bf0:	010c5c13          	srli	s8,s8,0x10

00005bf4 <.L1474>:
    5bf4:	01811423          	sh	s8,8(sp)
    5bf8:	f8b00c13          	li	s8,-117
    5bfc:	0185d463          	bge	a1,s8,5c04 <.L1474+0x10>
    5c00:	21d0106f          	j	761c <.L1471>
    5c04:	ffe00c13          	li	s8,-2
    5c08:	01865463          	bge	a2,s8,5c10 <.L1474+0x1c>
    5c0c:	63d0206f          	j	8a48 <.L1486>
    5c10:	00a15c03          	lhu	s8,10(sp)
    5c14:	ffec0c13          	addi	s8,s8,-2
    5c18:	010c1c13          	slli	s8,s8,0x10
    5c1c:	410c5c13          	srai	s8,s8,0x10

00005c20 <.L1472>:
    5c20:	01811523          	sh	s8,10(sp)
    5c24:	04900c13          	li	s8,73
    5c28:	011c4463          	blt	s8,a7,5c30 <.L1483>
    5c2c:	979fc06f          	j	25a4 <.L1455>

00005c30 <.L1483>:
    5c30:	08600c13          	li	s8,134
    5c34:	01dc4463          	blt	s8,t4,5c3c <.L1483+0xc>
    5c38:	2090106f          	j	7640 <.L1489>
    5c3c:	00c15c03          	lhu	s8,12(sp)
    5c40:	ffbc0c13          	addi	s8,s8,-5
    5c44:	01811623          	sh	s8,12(sp)
    5c48:	981fc06f          	j	25c8 <.L1487>

00005c4c <.L105>:
    5c4c:	03700e13          	li	t3,55
    5c50:	00fe5463          	bge	t3,a5,5c58 <.L105+0xc>
    5c54:	0410506f          	j	b494 <.L124>
    5c58:	00c15e03          	lhu	t3,12(sp)
    5c5c:	ffae0e13          	addi	t3,t3,-6
    5c60:	01c11623          	sh	t3,12(sp)

00005c64 <.L125>:
    5c64:	d8200e13          	li	t3,-638
    5c68:	63c5d863          	bge	a1,t3,6298 <.L123>
    5c6c:	0b100e13          	li	t3,177
    5c70:	00ee5463          	bge	t3,a4,5c78 <.L125+0x14>
    5c74:	35d0206f          	j	87d0 <.L122>
    5c78:	00e15e03          	lhu	t3,14(sp)
    5c7c:	012e0e13          	addi	t3,t3,18
    5c80:	010e1e13          	slli	t3,t3,0x10
    5c84:	410e5e13          	srai	t3,t3,0x10
    5c88:	81dfa06f          	j	4a4 <.L129>

00005c8c <.L295>:
    5c8c:	00815e03          	lhu	t3,8(sp)
    5c90:	2df00c13          	li	s8,735
    5c94:	ff8e0e13          	addi	t3,t3,-8
    5c98:	01c11423          	sh	t3,8(sp)
    5c9c:	5aec4ee3          	blt	s8,a4,6a58 <.L297>

00005ca0 <.L305>:
    5ca0:	02051e03          	lh	t3,32(a0)
    5ca4:	00400c13          	li	s8,4
    5ca8:	01cc5463          	bge	s8,t3,5cb0 <.L298>
    5cac:	0ac0306f          	j	8d58 <.L299>

00005cb0 <.L298>:
    5cb0:	09700c13          	li	s8,151
    5cb4:	006c4463          	blt	s8,t1,5cbc <.L298+0xc>
    5cb8:	3f10506f          	j	b8a8 <.L307>
    5cbc:	00a15c03          	lhu	s8,10(sp)
    5cc0:	009c0c13          	addi	s8,s8,9
    5cc4:	010c1c13          	slli	s8,s8,0x10
    5cc8:	410c5c13          	srai	s8,s8,0x10

00005ccc <.L288>:
    5ccc:	01811523          	sh	s8,10(sp)
    5cd0:	08f00c13          	li	s8,143
    5cd4:	00dc5463          	bge	s8,a3,5cdc <.L291>
    5cd8:	aa9fa06f          	j	780 <.L317>

00005cdc <.L291>:
    5cdc:	03300c13          	li	s8,51
    5ce0:	00fc5463          	bge	s8,a5,5ce8 <.L291+0xc>
    5ce4:	af5fd06f          	j	37d8 <.L313>
    5ce8:	efc00c13          	li	s8,-260
    5cec:	5b8a40e3          	blt	s4,s8,6a8c <.L294>
    5cf0:	00c15c03          	lhu	s8,12(sp)
    5cf4:	ff7c0c13          	addi	s8,s8,-9
    5cf8:	01811623          	sh	s8,12(sp)

00005cfc <.L319>:
    5cfc:	d2500c13          	li	s8,-731
    5d00:	5b85c0e3          	blt	a1,s8,6aa0 <.L337>

00005d04 <.L321>:
    5d04:	02400c13          	li	s8,36
    5d08:	00dc5463          	bge	s8,a3,5d10 <.L321+0xc>
    5d0c:	ab1fa06f          	j	7bc <.L327>
    5d10:	00e15c03          	lhu	s8,14(sp)
    5d14:	ffbc0c13          	addi	s8,s8,-5
    5d18:	010c1c13          	slli	s8,s8,0x10
    5d1c:	410c5c13          	srai	s8,s8,0x10
    5d20:	aadfa06f          	j	7cc <.L338>

00005d24 <.L1278>:
    5d24:	00a15c03          	lhu	s8,10(sp)
    5d28:	03300c93          	li	s9,51
    5d2c:	008c0c13          	addi	s8,s8,8
    5d30:	01811523          	sh	s8,10(sp)
    5d34:	00fcc463          	blt	s9,a5,5d3c <.L1284>
    5d38:	7c90106f          	j	7d00 <.L2611>

00005d3c <.L1284>:
    5d3c:	04700c13          	li	s8,71
    5d40:	007c4463          	blt	s8,t2,5d48 <.L1284+0xc>
    5d44:	96dfb06f          	j	16b0 <.L1266>
    5d48:	01700c13          	li	s8,23
    5d4c:	01dc4463          	blt	s8,t4,5d54 <.L1295>
    5d50:	dc0fc06f          	j	2310 <.L1289>

00005d54 <.L1295>:
    5d54:	00c15c03          	lhu	s8,12(sp)
    5d58:	ffec0c13          	addi	s8,s8,-2
    5d5c:	010c1c13          	slli	s8,s8,0x10
    5d60:	410c5c13          	srai	s8,s8,0x10
    5d64:	dbcfc06f          	j	2320 <.L1281>

00005d68 <.L150>:
    5d68:	00a15e03          	lhu	t3,10(sp)
    5d6c:	10b00c13          	li	s8,267
    5d70:	ff7e0e13          	addi	t3,t3,-9
    5d74:	01c11523          	sh	t3,10(sp)
    5d78:	00dc5463          	bge	s8,a3,5d80 <.L161>
    5d7c:	0340106f          	j	6db0 <.L156>

00005d80 <.L161>:
    5d80:	03800e13          	li	t3,56
    5d84:	00fe5463          	bge	t3,a5,5d8c <.L161+0xc>
    5d88:	7a00506f          	j	b528 <.L169>
    5d8c:	efb00e13          	li	t3,-261
    5d90:	01ca4463          	blt	s4,t3,5d98 <.L161+0x18>
    5d94:	5dd0406f          	j	ab70 <.L157>
    5d98:	00c15e03          	lhu	t3,12(sp)
    5d9c:	004e0e13          	addi	t3,t3,4
    5da0:	01c11623          	sh	t3,12(sp)
    5da4:	ce400e13          	li	t3,-796
    5da8:	01c5d463          	bge	a1,t3,5db0 <.L188>
    5dac:	bb5fd06f          	j	3960 <.L2901>

00005db0 <.L188>:
    5db0:	03400e13          	li	t3,52
    5db4:	013e5463          	bge	t3,s3,5dbc <.L188+0xc>
    5db8:	3390406f          	j	a8f0 <.L191>
    5dbc:	00e15e03          	lhu	t3,14(sp)
    5dc0:	ff7e0e13          	addi	t3,t3,-9
    5dc4:	010e1e13          	slli	t3,t3,0x10
    5dc8:	410e5e13          	srai	t3,t3,0x10
    5dcc:	bb1fd06f          	j	397c <.L190>

00005dd0 <.L992>:
    5dd0:	00e15c03          	lhu	s8,14(sp)
    5dd4:	fa300c93          	li	s9,-93
    5dd8:	003c0c13          	addi	s8,s8,3
    5ddc:	01811723          	sh	s8,14(sp)
    5de0:	0192c463          	blt	t0,s9,5de8 <.L985>
    5de4:	965fe06f          	j	4748 <.L2596>

00005de8 <.L985>:
    5de8:	fa100c13          	li	s8,-95
    5dec:	0182d463          	bge	t0,s8,5df4 <.L985+0xc>
    5df0:	c24fb06f          	j	1214 <.L989>
    5df4:	00815c03          	lhu	s8,8(sp)
    5df8:	feac0c13          	addi	s8,s8,-22
    5dfc:	01811423          	sh	s8,8(sp)
    5e00:	c28fb06f          	j	1228 <.L1002>

00005e04 <.L231>:
    5e04:	0d500e13          	li	t3,213
    5e08:	009e5463          	bge	t3,s1,5e10 <.L231+0xc>
    5e0c:	0290406f          	j	a634 <.L235>
    5e10:	00a15e03          	lhu	t3,10(sp)
    5e14:	08c00c13          	li	s8,140
    5e18:	ff9e0e13          	addi	t3,t3,-7
    5e1c:	01c11523          	sh	t3,10(sp)
    5e20:	00dc5463          	bge	s8,a3,5e28 <.L239>
    5e24:	8a1fa06f          	j	6c4 <.L236>

00005e28 <.L239>:
    5e28:	03600e13          	li	t3,54
    5e2c:	00fe5463          	bge	t3,a5,5e34 <.L224>
    5e30:	4710406f          	j	aaa0 <.L243>

00005e34 <.L224>:
    5e34:	efc00e13          	li	t3,-260
    5e38:	01ca4463          	blt	s4,t3,5e40 <.L224+0xc>
    5e3c:	4210406f          	j	aa5c <.L241>
    5e40:	00c15e03          	lhu	t3,12(sp)
    5e44:	ce400c13          	li	s8,-796
    5e48:	003e0e13          	addi	t3,t3,3
    5e4c:	01c11623          	sh	t3,12(sp)
    5e50:	0185d463          	bge	a1,s8,5e58 <.L253>
    5e54:	8a9fa06f          	j	6fc <.L252>

00005e58 <.L253>:
    5e58:	00e15e03          	lhu	t3,14(sp)
    5e5c:	ff6e0e13          	addi	t3,t3,-10
    5e60:	010e1e13          	slli	t3,t3,0x10
    5e64:	410e5e13          	srai	t3,t3,0x10
    5e68:	8b1fa06f          	j	718 <.L275>

00005e6c <.L1005>:
    5e6c:	01400c13          	li	s8,20
    5e70:	011c5463          	bge	s8,a7,5e78 <.L1005+0xc>
    5e74:	7600306f          	j	95d4 <.L1008>
    5e78:	00a15c03          	lhu	s8,10(sp)
    5e7c:	ffec0c13          	addi	s8,s8,-2
    5e80:	010c1c13          	slli	s8,s8,0x10
    5e84:	010c5c13          	srli	s8,s8,0x10

00005e88 <.L1009>:
    5e88:	01811523          	sh	s8,10(sp)
    5e8c:	03d00c13          	li	s8,61
    5e90:	00fc5463          	bge	s8,a5,5e98 <.L1016>
    5e94:	870fc06f          	j	1f04 <.L1017>

00005e98 <.L1016>:
    5e98:	02700c13          	li	s8,39
    5e9c:	01dc5463          	bge	s8,t4,5ea4 <.L1016+0xc>
    5ea0:	60c0306f          	j	94ac <.L1020>
    5ea4:	00c15c03          	lhu	s8,12(sp)
    5ea8:	03900c93          	li	s9,57
    5eac:	003c0c13          	addi	s8,s8,3
    5eb0:	01811623          	sh	s8,12(sp)
    5eb4:	00fcd463          	bge	s9,a5,5ebc <.L1026>
    5eb8:	870fc06f          	j	1f28 <.L1014>

00005ebc <.L1026>:
    5ebc:	06200c13          	li	s8,98
    5ec0:	016c5463          	bge	s8,s6,5ec8 <.L1026+0xc>
    5ec4:	0740406f          	j	9f38 <.L2902>
    5ec8:	00e15c03          	lhu	s8,14(sp)
    5ecc:	001c0c13          	addi	s8,s8,1
    5ed0:	010c1c13          	slli	s8,s8,0x10
    5ed4:	410c5c13          	srai	s8,s8,0x10
    5ed8:	be8fb06f          	j	12c0 <.L1028>

00005edc <.L1142>:
    5edc:	01f00c13          	li	s8,31
    5ee0:	071c4863          	blt	s8,a7,5f50 <.L1144>
    5ee4:	00c15c03          	lhu	s8,12(sp)
    5ee8:	ff9c0c13          	addi	s8,s8,-7
    5eec:	010c1c13          	slli	s8,s8,0x10
    5ef0:	410c5c13          	srai	s8,s8,0x10
    5ef4:	da4fb06f          	j	1498 <.L1140>

00005ef8 <.L2577>:
    5ef8:	00815c03          	lhu	s8,8(sp)
    5efc:	fffc0c13          	addi	s8,s8,-1
    5f00:	010c1c13          	slli	s8,s8,0x10
    5f04:	410c5c13          	srai	s8,s8,0x10
    5f08:	ca9fa06f          	j	bb0 <.L552>

00005f0c <.L678>:
    5f0c:	ea900c13          	li	s8,-343
    5f10:	0182c463          	blt	t0,s8,5f18 <.L678+0xc>
    5f14:	26d0306f          	j	9980 <.L680>
    5f18:	00e15c03          	lhu	s8,14(sp)
    5f1c:	ffbc0c13          	addi	s8,s8,-5
    5f20:	010c1c13          	slli	s8,s8,0x10
    5f24:	010c5c13          	srli	s8,s8,0x10

00005f28 <.L681>:
    5f28:	01811723          	sh	s8,14(sp)
    5f2c:	00085463          	bgez	a6,5f34 <.L693>
    5f30:	aadfb06f          	j	19dc <.L2269>

00005f34 <.L693>:
    5f34:	ff700c13          	li	s8,-9
    5f38:	d5864a63          	blt	a2,s8,548c <.L695>
    5f3c:	00815c03          	lhu	s8,8(sp)
    5f40:	ffbc0c13          	addi	s8,s8,-5
    5f44:	010c1c13          	slli	s8,s8,0x10
    5f48:	410c5c13          	srai	s8,s8,0x10
    5f4c:	e61fa06f          	j	dac <.L692>

00005f50 <.L1144>:
    5f50:	00c15c03          	lhu	s8,12(sp)
    5f54:	001c0c13          	addi	s8,s8,1
    5f58:	010c1c13          	slli	s8,s8,0x10
    5f5c:	410c5c13          	srai	s8,s8,0x10
    5f60:	d38fb06f          	j	1498 <.L1140>

00005f64 <.L1857>:
    5f64:	eea00c13          	li	s8,-278
    5f68:	018a5463          	bge	s4,s8,5f70 <.L1857+0xc>
    5f6c:	bedfc06f          	j	2b58 <.L1856>
    5f70:	00c15c03          	lhu	s8,12(sp)
    5f74:	ff8c0c13          	addi	s8,s8,-8
    5f78:	01811623          	sh	s8,12(sp)
    5f7c:	bddfc06f          	j	2b58 <.L1856>

00005f80 <.L2653>:
    5f80:	00e15c03          	lhu	s8,14(sp)
    5f84:	004c0c13          	addi	s8,s8,4
    5f88:	01811723          	sh	s8,14(sp)
    5f8c:	d35fc06f          	j	2cc0 <.L1934>

00005f90 <.L1351>:
    5f90:	00a15c03          	lhu	s8,10(sp)
    5f94:	02a00c93          	li	s9,42
    5f98:	ffcc0c13          	addi	s8,s8,-4
    5f9c:	01811523          	sh	s8,10(sp)
    5fa0:	00dcd463          	bge	s9,a3,5fa8 <.L1351+0x18>
    5fa4:	f98fb06f          	j	173c <.L1328>
    5fa8:	fba00c13          	li	s8,-70
    5fac:	0185d463          	bge	a1,s8,5fb4 <.L1351+0x24>
    5fb0:	5ec0106f          	j	759c <.L1337>
    5fb4:	00c15c03          	lhu	s8,12(sp)
    5fb8:	03600c93          	li	s9,54
    5fbc:	00dc0c13          	addi	s8,s8,13
    5fc0:	01811623          	sh	s8,12(sp)
    5fc4:	00fcc463          	blt	s9,a5,5fcc <.L1351+0x3c>
    5fc8:	5f80106f          	j	75c0 <.L1353>
    5fcc:	ff600c13          	li	s8,-10
    5fd0:	01864463          	blt	a2,s8,5fd8 <.L1354>
    5fd4:	bfcfc06f          	j	23d0 <.L1355>

00005fd8 <.L1354>:
    5fd8:	00e15c03          	lhu	s8,14(sp)
    5fdc:	fa300c93          	li	s9,-93
    5fe0:	002c0c13          	addi	s8,s8,2
    5fe4:	01811723          	sh	s8,14(sp)
    5fe8:	0192c463          	blt	t0,s9,5ff0 <.L1354+0x18>
    5fec:	f29fd06f          	j	3f14 <.L1367>
    5ff0:	fa100c13          	li	s8,-95
    5ff4:	0182c463          	blt	t0,s8,5ffc <.L1354+0x24>
    5ff8:	6990106f          	j	7e90 <.L1369>
    5ffc:	03900c13          	li	s8,57
    6000:	006c4463          	blt	s8,t1,6008 <.L1354+0x30>
    6004:	fecfe06f          	j	47f0 <.L1372>
    6008:	ff800c13          	li	s8,-8
    600c:	01865463          	bge	a2,s8,6014 <.L1354+0x3c>
    6010:	c18fc06f          	j	2428 <.L1373>
    6014:	ea900c13          	li	s8,-343
    6018:	0182c463          	blt	t0,s8,6020 <.L1374>
    601c:	f39fd06f          	j	3f54 <.L2625>

00006020 <.L1374>:
    6020:	00a15c03          	lhu	s8,10(sp)
    6024:	00100c93          	li	s9,1
    6028:	007c0c13          	addi	s8,s8,7
    602c:	01811523          	sh	s8,10(sp)
    6030:	01ccd463          	bge	s9,t3,6038 <.L1375>
    6034:	f21fd06f          	j	3f54 <.L2625>

00006038 <.L1375>:
    6038:	01100c13          	li	s8,17
    603c:	011c4463          	blt	s8,a7,6044 <.L1375+0xc>
    6040:	3050206f          	j	8b44 <.L1395>
    6044:	02400c13          	li	s8,36
    6048:	00ec4463          	blt	s8,a4,6050 <.L1375+0x18>
    604c:	4750106f          	j	7cc0 <.L1405>
    6050:	00c15c03          	lhu	s8,12(sp)
    6054:	ff9c0c13          	addi	s8,s8,-7
    6058:	01811623          	sh	s8,12(sp)
    605c:	f05fd06f          	j	3f60 <.L1394>

00006060 <.L144>:
    6060:	38100e13          	li	t3,897
    6064:	00de4463          	blt	t3,a3,606c <.L144+0xc>
    6068:	64c0406f          	j	a6b4 <.L2903>
    606c:	2ff00e13          	li	t3,767
    6070:	54ee50e3          	bge	t3,a4,6db0 <.L156>
    6074:	00001e37          	lui	t3,0x1
    6078:	85be0e13          	addi	t3,t3,-1957 # 85b <.L352+0xf>
    607c:	00de4463          	blt	t3,a3,6084 <.L144+0x24>
    6080:	6580406f          	j	a6d8 <.L163>
    6084:	00c15e03          	lhu	t3,12(sp)
    6088:	03d00c13          	li	s8,61
    608c:	00ae0e13          	addi	t3,t3,10
    6090:	01c11623          	sh	t3,12(sp)
    6094:	01879463          	bne	a5,s8,609c <.L183>
    6098:	6580406f          	j	a6f0 <.L184>

0000609c <.L183>:
    609c:	ce400e13          	li	t3,-796
    60a0:	d1c5d8e3          	bge	a1,t3,5db0 <.L188>

000060a4 <.L189>:
    60a4:	00e15e03          	lhu	t3,14(sp)
    60a8:	ffae0e13          	addi	t3,t3,-6
    60ac:	010e1e13          	slli	t3,t3,0x10
    60b0:	410e5e13          	srai	t3,t3,0x10
    60b4:	8c9fd06f          	j	397c <.L190>

000060b8 <.L2754>:
    60b8:	00c15e03          	lhu	t3,12(sp)
    60bc:	00be0e13          	addi	t3,t3,11
    60c0:	01c11623          	sh	t3,12(sp)

000060c4 <.L172>:
    60c4:	bba00e13          	li	t3,-1094
    60c8:	01c5c463          	blt	a1,t3,60d0 <.L172+0xc>
    60cc:	0a50106f          	j	7970 <.L199>
    60d0:	00e15e03          	lhu	t3,14(sp)
    60d4:	07a00c13          	li	s8,122
    60d8:	00fe0e13          	addi	t3,t3,15
    60dc:	01c11723          	sh	t3,14(sp)
    60e0:	006c4463          	blt	s8,t1,60e8 <.L201>
    60e4:	0a50106f          	j	7988 <.L196>

000060e8 <.L201>:
    60e8:	00815e03          	lhu	t3,8(sp)
    60ec:	ff8e0e13          	addi	t3,t3,-8
    60f0:	010e1e13          	slli	t3,t3,0x10
    60f4:	410e5e13          	srai	t3,t3,0x10

000060f8 <.L220>:
    60f8:	01c11423          	sh	t3,8(sp)
    60fc:	08000e13          	li	t3,128
    6100:	00ee4463          	blt	t3,a4,6108 <.L220+0x10>
    6104:	d90fa06f          	j	694 <.L215>
    6108:	03d00e13          	li	t3,61
    610c:	00fe4463          	blt	t3,a5,6114 <.L220+0x1c>
    6110:	2fc0306f          	j	940c <.L211>
    6114:	35d00e13          	li	t3,861
    6118:	01ee4463          	blt	t3,t5,6120 <.L220+0x28>
    611c:	dd4fd06f          	j	36f0 <.L213>
    6120:	00a15e03          	lhu	t3,10(sp)
    6124:	08c00c13          	li	s8,140
    6128:	003e0e13          	addi	t3,t3,3
    612c:	01c11523          	sh	t3,10(sp)
    6130:	00dc4463          	blt	s8,a3,6138 <.L2727>
    6134:	dd4fd06f          	j	3708 <.L249>

00006138 <.L2727>:
    6138:	2df00e13          	li	t3,735
    613c:	00ee4463          	blt	t3,a4,6144 <.L2540>
    6140:	d84fa06f          	j	6c4 <.L236>

00006144 <.L2540>:
    6144:	7e700e13          	li	t3,2023
    6148:	00de5463          	bge	t3,a3,6150 <.L2540+0xc>
    614c:	7bc0506f          	j	b908 <.L264>
    6150:	00c15e03          	lhu	t3,12(sp)
    6154:	ff6e0e13          	addi	t3,t3,-10
    6158:	01c11623          	sh	t3,12(sp)
    615c:	dc8fd06f          	j	3724 <.L259>

00006160 <.L664>:
    6160:	1dc00c13          	li	s8,476
    6164:	016c5463          	bge	s8,s6,616c <.L664+0xc>
    6168:	4fc0406f          	j	a664 <.L666>
    616c:	00a15c03          	lhu	s8,10(sp)
    6170:	ffac0c13          	addi	s8,s8,-6
    6174:	010c1c13          	slli	s8,s8,0x10
    6178:	410c5c13          	srai	s8,s8,0x10
    617c:	ba1fa06f          	j	d1c <.L662>

00006180 <.L346>:
    6180:	01f00c13          	li	s8,31
    6184:	013c5463          	bge	s8,s3,618c <.L346+0xc>
    6188:	5040406f          	j	a68c <.L347>
    618c:	00815c03          	lhu	s8,8(sp)
    6190:	fffc0c13          	addi	s8,s8,-1
    6194:	01811423          	sh	s8,8(sp)
    6198:	e68fa06f          	j	800 <.L344>

0000619c <.L834>:
    619c:	31000c13          	li	s8,784
    61a0:	00dc5463          	bge	s8,a3,61a8 <.L834+0xc>
    61a4:	64c0306f          	j	97f0 <.L836>
    61a8:	00a15c03          	lhu	s8,10(sp)
    61ac:	007c0c13          	addi	s8,s8,7
    61b0:	010c1c13          	slli	s8,s8,0x10
    61b4:	410c5c13          	srai	s8,s8,0x10
    61b8:	e0dfa06f          	j	fc4 <.L829>

000061bc <.L653>:
    61bc:	00815c03          	lhu	s8,8(sp)
    61c0:	ff7c0c13          	addi	s8,s8,-9
    61c4:	01811423          	sh	s8,8(sp)
    61c8:	b25fa06f          	j	cec <.L649>

000061cc <.L1075>:
    61cc:	02f00c13          	li	s8,47
    61d0:	007c5463          	bge	s8,t2,61d8 <.L1075+0xc>
    61d4:	6040406f          	j	a7d8 <.L1081>
    61d8:	00c15c03          	lhu	s8,12(sp)
    61dc:	ffac0c13          	addi	s8,s8,-6
    61e0:	010c1c13          	slli	s8,s8,0x10
    61e4:	410c5c13          	srai	s8,s8,0x10
    61e8:	dd1fb06f          	j	1fb8 <.L1074>

000061ec <.L674>:
    61ec:	c2600c13          	li	s8,-986
    61f0:	0185c463          	blt	a1,s8,61f8 <.L674+0xc>
    61f4:	5e80306f          	j	97dc <.L677>
    61f8:	00e15c03          	lhu	s8,14(sp)
    61fc:	004c0c13          	addi	s8,s8,4
    6200:	010c1c13          	slli	s8,s8,0x10
    6204:	410c5c13          	srai	s8,s8,0x10
    6208:	b75fa06f          	j	d7c <.L676>

0000620c <.L2892>:
    620c:	01900c13          	li	s8,25
    6210:	1b0c5663          	bge	s8,a6,63bc <.L1049>
    6214:	00815c03          	lhu	s8,8(sp)
    6218:	03100c93          	li	s9,49
    621c:	ffdc0c13          	addi	s8,s8,-3
    6220:	01811423          	sh	s8,8(sp)
    6224:	01fcd463          	bge	s9,t6,622c <.L1044>
    6228:	2890206f          	j	8cb0 <.L1040>

0000622c <.L1044>:
    622c:	1f500c13          	li	s8,501
    6230:	00ec4463          	blt	s8,a4,6238 <.L1042>
    6234:	0f80306f          	j	932c <.L1041>

00006238 <.L1042>:
    6238:	ddc00c13          	li	s8,-548
    623c:	018a4463          	blt	s4,s8,6244 <.L1042+0xc>
    6240:	3b00406f          	j	a5f0 <.L1053>
    6244:	00a15c03          	lhu	s8,10(sp)
    6248:	ffac0c13          	addi	s8,s8,-6
    624c:	010c1c13          	slli	s8,s8,0x10
    6250:	410c5c13          	srai	s8,s8,0x10
    6254:	8c4fb06f          	j	1318 <.L1045>

00006258 <.L561>:
    6258:	46700c13          	li	s8,1127
    625c:	007c5463          	bge	s8,t2,6264 <.L561+0xc>
    6260:	6080306f          	j	9868 <.L566>
    6264:	00a15c03          	lhu	s8,10(sp)
    6268:	ff8c0c13          	addi	s8,s8,-8
    626c:	010c1c13          	slli	s8,s8,0x10
    6270:	410c5c13          	srai	s8,s8,0x10
    6274:	965fa06f          	j	bd8 <.L2578>

00006278 <.L430>:
    6278:	f9f00c13          	li	s8,-97
    627c:	0185c463          	blt	a1,s8,6284 <.L430+0xc>
    6280:	5250306f          	j	9fa4 <.L448>
    6284:	00c15c03          	lhu	s8,12(sp)
    6288:	ff8c0c13          	addi	s8,s8,-8
    628c:	010c1c13          	slli	s8,s8,0x10
    6290:	410c5c13          	srai	s8,s8,0x10
    6294:	f48fa06f          	j	9dc <.L431>

00006298 <.L123>:
    6298:	1ca00e13          	li	t3,458
    629c:	012e5463          	bge	t3,s2,62a4 <.L123+0xc>
    62a0:	5740306f          	j	9814 <.L130>
    62a4:	00e15e03          	lhu	t3,14(sp)
    62a8:	ff7e0e13          	addi	t3,t3,-9
    62ac:	010e1e13          	slli	t3,t3,0x10
    62b0:	410e5e13          	srai	t3,t3,0x10
    62b4:	9f0fa06f          	j	4a4 <.L129>

000062b8 <.L468>:
    62b8:	19e00c13          	li	s8,414
    62bc:	01ec5463          	bge	s8,t5,62c4 <.L468+0xc>
    62c0:	6000306f          	j	98c0 <.L471>
    62c4:	00a15c03          	lhu	s8,10(sp)
    62c8:	ff7c0c13          	addi	s8,s8,-9
    62cc:	010c1c13          	slli	s8,s8,0x10
    62d0:	410c5c13          	srai	s8,s8,0x10
    62d4:	f9cfa06f          	j	a70 <.L470>

000062d8 <.L2832>:
    62d8:	efc00c13          	li	s8,-260
    62dc:	018a4463          	blt	s4,s8,62e4 <.L2832+0xc>
    62e0:	4e00306f          	j	97c0 <.L441>
    62e4:	00c15c03          	lhu	s8,12(sp)
    62e8:	e2500c93          	li	s9,-475
    62ec:	002c0c13          	addi	s8,s8,2
    62f0:	01811623          	sh	s8,12(sp)
    62f4:	01944463          	blt	s0,s9,62fc <.L442>
    62f8:	b88fd06f          	j	3680 <.L443>

000062fc <.L442>:
    62fc:	25500c13          	li	s8,597
    6300:	069c5863          	bge	s8,s1,6370 <.L444>

00006304 <.L445>:
    6304:	00e15c03          	lhu	s8,14(sp)
    6308:	ff6c0c13          	addi	s8,s8,-10
    630c:	01811723          	sh	s8,14(sp)
    6310:	02200c13          	li	s8,34
    6314:	010c4463          	blt	s8,a6,631c <.L457>
    6318:	f04fa06f          	j	a1c <.L2904>

0000631c <.L457>:
    631c:	00815c03          	lhu	s8,8(sp)
    6320:	00095463          	bgez	s2,6328 <.L457+0xc>
    6324:	0f00506f          	j	b414 <.L2905>
    6328:	ff6c0c13          	addi	s8,s8,-10
    632c:	010c1c13          	slli	s8,s8,0x10
    6330:	410c5c13          	srai	s8,s8,0x10
    6334:	01811423          	sh	s8,8(sp)
    6338:	0b500c13          	li	s8,181
    633c:	006c4463          	blt	s8,t1,6344 <.L460>
    6340:	f08fa06f          	j	a48 <.L465>

00006344 <.L460>:
    6344:	e0d00c13          	li	s8,-499
    6348:	01844463          	blt	s0,s8,6350 <.L460+0xc>
    634c:	a10fd06f          	j	355c <.L472>
    6350:	27d00c13          	li	s8,637
    6354:	016c5463          	bge	s8,s6,635c <.L460+0x18>
    6358:	5900306f          	j	98e8 <.L473>
    635c:	00a15c03          	lhu	s8,10(sp)
    6360:	ff6c0c13          	addi	s8,s8,-10
    6364:	010c1c13          	slli	s8,s8,0x10
    6368:	410c5c13          	srai	s8,s8,0x10
    636c:	f04fa06f          	j	a70 <.L470>

00006370 <.L444>:
    6370:	df400c13          	li	s8,-524
    6374:	0182c463          	blt	t0,s8,637c <.L444+0xc>
    6378:	5200306f          	j	9898 <.L450>
    637c:	00e15c03          	lhu	s8,14(sp)
    6380:	ff7c0c13          	addi	s8,s8,-9
    6384:	010c1c13          	slli	s8,s8,0x10
    6388:	010c5c13          	srli	s8,s8,0x10
    638c:	e80fa06f          	j	a0c <.L2571>

00006390 <.L1030>:
    6390:	01800c13          	li	s8,24
    6394:	010c5463          	bge	s8,a6,639c <.L1030+0xc>
    6398:	0dd0206f          	j	8c74 <.L1035>
    639c:	00e15c03          	lhu	s8,14(sp)
    63a0:	01f00c93          	li	s9,31
    63a4:	ff8c0c13          	addi	s8,s8,-8
    63a8:	01811723          	sh	s8,14(sp)
    63ac:	013cd463          	bge	s9,s3,63b4 <.L1030+0x24>
    63b0:	f21fa06f          	j	12d0 <.L1037>
    63b4:	01c05463          	blez	t3,63bc <.L1049>
    63b8:	ecdfe06f          	j	5284 <.L1034>

000063bc <.L1049>:
    63bc:	00815c03          	lhu	s8,8(sp)
    63c0:	009c0c13          	addi	s8,s8,9
    63c4:	01811423          	sh	s8,8(sp)
    63c8:	f1dfa06f          	j	12e4 <.L1043>

000063cc <.L595>:
    63cc:	de700c13          	li	s8,-537
    63d0:	0182c463          	blt	t0,s8,63d8 <.L595+0xc>
    63d4:	6490306f          	j	a21c <.L598>
    63d8:	00e15c03          	lhu	s8,14(sp)
    63dc:	0a900c93          	li	s9,169
    63e0:	ff8c0c13          	addi	s8,s8,-8
    63e4:	01811723          	sh	s8,14(sp)
    63e8:	01ecc463          	blt	s9,t5,63f0 <.L595+0x24>
    63ec:	c94fb06f          	j	1880 <.L600>
    63f0:	c58ff06f          	j	5848 <.L2581>

000063f4 <.L2789>:
    63f4:	04200c13          	li	s8,66
    63f8:	007c5463          	bge	s8,t2,6400 <.L2789+0xc>
    63fc:	7f10406f          	j	b3ec <.L862>
    6400:	00815c03          	lhu	s8,8(sp)
    6404:	005c0c13          	addi	s8,s8,5
    6408:	010c1c13          	slli	s8,s8,0x10
    640c:	010c5c13          	srli	s8,s8,0x10

00006410 <.L863>:
    6410:	01811423          	sh	s8,8(sp)
    6414:	0b500c13          	li	s8,181
    6418:	006c5463          	bge	s8,t1,6420 <.L2261>
    641c:	8b9fb06f          	j	1cd4 <.L865>

00006420 <.L2261>:
    6420:	02c00c13          	li	s8,44
    6424:	00dc5463          	bge	s8,a3,642c <.L2261+0xc>
    6428:	2d80306f          	j	9700 <.L867>
    642c:	00a15c03          	lhu	s8,10(sp)
    6430:	f6a00c93          	li	s9,-150
    6434:	004c0c13          	addi	s8,s8,4
    6438:	01811523          	sh	s8,10(sp)
    643c:	0195d463          	bge	a1,s9,6444 <.L2261+0x24>
    6440:	0dd0206f          	j	8d1c <.L885>
    6444:	f5b00c13          	li	s8,-165
    6448:	0582c263          	blt	t0,s8,648c <.L871>

0000644c <.L894>:
    644c:	00c15c03          	lhu	s8,12(sp)
    6450:	ff8c0c13          	addi	s8,s8,-8
    6454:	01811623          	sh	s8,12(sp)

00006458 <.L870>:
    6458:	02f00c13          	li	s8,47
    645c:	010c5463          	bge	s8,a6,6464 <.L886>
    6460:	8c5fb06f          	j	1d24 <.L889>

00006464 <.L886>:
    6464:	03800c13          	li	s8,56
    6468:	05fc5463          	bge	s8,t6,64b0 <.L895>

0000646c <.L881>:
    646c:	03d00c13          	li	s8,61
    6470:	00fc5463          	bge	s8,a5,6478 <.L881+0xc>
    6474:	2c80306f          	j	973c <.L897>
    6478:	00e15c03          	lhu	s8,14(sp)
    647c:	ffac0c13          	addi	s8,s8,-6
    6480:	010c1c13          	slli	s8,s8,0x10
    6484:	410c5c13          	srai	s8,s8,0x10
    6488:	c31fa06f          	j	10b8 <.L896>

0000648c <.L871>:
    648c:	03200c13          	li	s8,50
    6490:	01fc5463          	bge	s8,t6,6498 <.L871+0xc>
    6494:	0440506f          	j	b4d8 <.L2906>
    6498:	00c15c03          	lhu	s8,12(sp)
    649c:	02f00c93          	li	s9,47
    64a0:	015c0c13          	addi	s8,s8,21
    64a4:	01811623          	sh	s8,12(sp)
    64a8:	010cd463          	bge	s9,a6,64b0 <.L895>
    64ac:	879fb06f          	j	1d24 <.L889>

000064b0 <.L895>:
    64b0:	08d00c13          	li	s8,141
    64b4:	00dc5463          	bge	s8,a3,64bc <.L895+0xc>
    64b8:	bf1fa06f          	j	10a8 <.L890>
    64bc:	00e15c03          	lhu	s8,14(sp)
    64c0:	005c0c13          	addi	s8,s8,5
    64c4:	010c1c13          	slli	s8,s8,0x10
    64c8:	410c5c13          	srai	s8,s8,0x10
    64cc:	bedfa06f          	j	10b8 <.L896>

000064d0 <.L876>:
    64d0:	03800c13          	li	s8,56
    64d4:	01fc4463          	blt	s8,t6,64dc <.L876+0xc>
    64d8:	b91fa06f          	j	1068 <.L874>
    64dc:	00a15c03          	lhu	s8,10(sp)
    64e0:	f6a00c93          	li	s9,-150
    64e4:	ff5c0c13          	addi	s8,s8,-11
    64e8:	01811523          	sh	s8,10(sp)
    64ec:	0195c463          	blt	a1,s9,64f4 <.L876+0x24>
    64f0:	2680506f          	j	b758 <.L879>
    64f4:	17000c13          	li	s8,368
    64f8:	00dc5463          	bge	s8,a3,6500 <.L876+0x30>
    64fc:	809fb06f          	j	1d04 <.L880>
    6500:	01500c13          	li	s8,21
    6504:	f50c4ae3          	blt	s8,a6,6458 <.L870>
    6508:	00c15c03          	lhu	s8,12(sp)
    650c:	ffac0c13          	addi	s8,s8,-6
    6510:	01811623          	sh	s8,12(sp)
    6514:	f59ff06f          	j	646c <.L881>

00006518 <.L903>:
    6518:	00e15c03          	lhu	s8,14(sp)
    651c:	009c0c13          	addi	s8,s8,9
    6520:	010c1c13          	slli	s8,s8,0x10
    6524:	410c5c13          	srai	s8,s8,0x10
    6528:	b91fa06f          	j	10b8 <.L896>

0000652c <.L462>:
    652c:	03200c13          	li	s8,50
    6530:	01fc5463          	bge	s8,t6,6538 <.L462+0xc>
    6534:	2700306f          	j	97a4 <.L467>
    6538:	00815c03          	lhu	s8,8(sp)
    653c:	0b500c93          	li	s9,181
    6540:	00cc0c13          	addi	s8,s8,12
    6544:	01811423          	sh	s8,8(sp)
    6548:	006cc463          	blt	s9,t1,6550 <.L462+0x24>
    654c:	cfcfa06f          	j	a48 <.L465>
    6550:	80cfd06f          	j	355c <.L472>

00006554 <.L435>:
    6554:	ff700c13          	li	s8,-9
    6558:	01864463          	blt	a2,s8,6560 <.L435+0xc>
    655c:	7ec0406f          	j	ad48 <.L438>
    6560:	00a15c03          	lhu	s8,10(sp)
    6564:	001c0c13          	addi	s8,s8,1
    6568:	010c1c13          	slli	s8,s8,0x10
    656c:	410c5c13          	srai	s8,s8,0x10
    6570:	f55fc06f          	j	34c4 <.L437>

00006574 <.L64>:
    6574:	00c15e03          	lhu	t3,12(sp)
    6578:	03d00393          	li	t2,61
    657c:	ff5e0e13          	addi	t3,t3,-11
    6580:	01c11623          	sh	t3,12(sp)
    6584:	00f3c463          	blt	t2,a5,658c <.L67>
    6588:	e41f906f          	j	3c8 <.L66>

0000658c <.L67>:
    658c:	01f00e13          	li	t3,31
    6590:	010e5463          	bge	t3,a6,6598 <.L67+0xc>
    6594:	0240406f          	j	a5b8 <.L78>
    6598:	00e15e03          	lhu	t3,14(sp)
    659c:	0d900393          	li	t2,217
    65a0:	00ce0e13          	addi	t3,t3,12
    65a4:	01c11723          	sh	t3,14(sp)
    65a8:	01e3c463          	blt	t2,t5,65b0 <.L67+0x24>
    65ac:	e55f906f          	j	400 <.L76>
    65b0:	c51f906f          	j	200 <.L2344>

000065b4 <.L13>:
    65b4:	00651a83          	lh	s5,6(a0)
    65b8:	f4700793          	li	a5,-185
    65bc:	00fac463          	blt	s5,a5,65c4 <.L13+0x10>
    65c0:	2a00206f          	j	8860 <.L15>
    65c4:	01f00793          	li	a5,31
    65c8:	00f11523          	sh	a5,10(sp)
    65cc:	d5c00793          	li	a5,-676
    65d0:	00fac463          	blt	s5,a5,65d8 <.L13+0x24>
    65d4:	2940206f          	j	8868 <.L17>
    65d8:	01251483          	lh	s1,18(a0)

000065dc <.L16>:
    65dc:	26a00793          	li	a5,618
    65e0:	00e7d463          	bge	a5,a4,65e8 <.L16+0xc>
    65e4:	2d10506f          	j	c0b4 <.L2907>
    65e8:	00051783          	lh	a5,0(a0)
    65ec:	00b00693          	li	a3,11
    65f0:	00d11623          	sh	a3,12(sp)
    65f4:	03e00693          	li	a3,62
    65f8:	00f6c463          	blt	a3,a5,6600 <.L16+0x24>
    65fc:	1480506f          	j	b744 <.L2314>
    6600:	00a51683          	lh	a3,10(a0)
    6604:	01051b03          	lh	s6,16(a0)
    6608:	02851e83          	lh	t4,40(a0)
    660c:	01451283          	lh	t0,20(a0)
    6610:	b11f906f          	j	120 <.L27>

00006614 <.L45>:
    6614:	00851803          	lh	a6,8(a0)
    6618:	00815883          	lhu	a7,8(sp)
    661c:	00085463          	bgez	a6,6624 <.L45+0x10>
    6620:	5a90406f          	j	b3c8 <.L2908>
    6624:	ff688893          	addi	a7,a7,-10
    6628:	01089893          	slli	a7,a7,0x10
    662c:	4108d893          	srai	a7,a7,0x10
    6630:	b39f906f          	j	168 <.L47>

00006634 <.L619>:
    6634:	1ab00c13          	li	s8,427
    6638:	007c5463          	bge	s8,t2,6640 <.L619+0xc>
    663c:	3d80106f          	j	7a14 <.L625>
    6640:	00a15c03          	lhu	s8,10(sp)
    6644:	08900c93          	li	s9,137
    6648:	ff7c0c13          	addi	s8,s8,-9
    664c:	01811523          	sh	s8,10(sp)
    6650:	00dcd463          	bge	s9,a3,6658 <.L626>
    6654:	3d80106f          	j	7a2c <.L2582>

00006658 <.L626>:
    6658:	03700c13          	li	s8,55
    665c:	00fc4463          	blt	s8,a5,6664 <.L634>
    6660:	a94fb06f          	j	18f4 <.L635>

00006664 <.L634>:
    6664:	23000c13          	li	s8,560
    6668:	01ec5463          	bge	s8,t5,6670 <.L634+0xc>
    666c:	5dd0406f          	j	b448 <.L637>
    6670:	00c15c03          	lhu	s8,12(sp)
    6674:	ff8c0c13          	addi	s8,s8,-8
    6678:	010c1c13          	slli	s8,s8,0x10
    667c:	410c5c13          	srai	s8,s8,0x10

00006680 <.L623>:
    6680:	01811623          	sh	s8,12(sp)
    6684:	03a00c13          	li	s8,58
    6688:	00fc4463          	blt	s8,a5,6690 <.L643>
    668c:	e24fa06f          	j	cb0 <.L636>

00006690 <.L643>:
    6690:	e4a00c13          	li	s8,-438
    6694:	0182c463          	blt	t0,s8,669c <.L643+0xc>
    6698:	2200106f          	j	78b8 <.L655>
    669c:	de700c13          	li	s8,-537
    66a0:	0185c863          	blt	a1,s8,66b0 <.L641>

000066a4 <.L656>:
    66a4:	00e15c03          	lhu	s8,14(sp)
    66a8:	ff7c0c13          	addi	s8,s8,-9
    66ac:	01811723          	sh	s8,14(sp)

000066b0 <.L641>:
    66b0:	0a900c13          	li	s8,169
    66b4:	01ec4463          	blt	s8,t5,66bc <.L2270>
    66b8:	a70fb06f          	j	1928 <.L648>

000066bc <.L2270>:
    66bc:	01e00c13          	li	s8,30
    66c0:	af3c4ee3          	blt	s8,s3,61bc <.L653>
    66c4:	03c00c13          	li	s8,60
    66c8:	00fc4463          	blt	s8,a5,66d0 <.L2270+0x14>
    66cc:	e14fa06f          	j	ce0 <.L652>
    66d0:	00815c03          	lhu	s8,8(sp)
    66d4:	006c0c13          	addi	s8,s8,6
    66d8:	01811423          	sh	s8,8(sp)
    66dc:	e10fa06f          	j	cec <.L649>

000066e0 <.L603>:
    66e0:	00b00c13          	li	s8,11
    66e4:	013c4463          	blt	s8,s3,66ec <.L603+0xc>
    66e8:	d78fa06f          	j	c60 <.L614>
    66ec:	00815c03          	lhu	s8,8(sp)
    66f0:	ff9c0c13          	addi	s8,s8,-7
    66f4:	01811423          	sh	s8,8(sp)
    66f8:	d68fa06f          	j	c60 <.L614>

000066fc <.L627>:
    66fc:	03c00c13          	li	s8,60
    6700:	00fc5463          	bge	s8,a5,6708 <.L627+0xc>
    6704:	6000406f          	j	ad04 <.L630>
    6708:	00a15c03          	lhu	s8,10(sp)
    670c:	009c0c13          	addi	s8,s8,9
    6710:	010c1c13          	slli	s8,s8,0x10
    6714:	410c5c13          	srai	s8,s8,0x10
    6718:	01811523          	sh	s8,10(sp)
    671c:	08900c13          	li	s8,137
    6720:	00dc4463          	blt	s8,a3,6728 <.L633>
    6724:	9bcfb06f          	j	18e0 <.L2909>

00006728 <.L633>:
    6728:	e9b00c13          	li	s8,-357
    672c:	018ac463          	blt	s5,s8,6734 <.L633+0xc>
    6730:	3380206f          	j	8a68 <.L622>
    6734:	27200c13          	li	s8,626
    6738:	00ec4463          	blt	s8,a4,6740 <.L633+0x18>
    673c:	2fc0106f          	j	7a38 <.L624>
    6740:	00c15c03          	lhu	s8,12(sp)
    6744:	fffc0c13          	addi	s8,s8,-1
    6748:	010c1c13          	slli	s8,s8,0x10
    674c:	410c5c13          	srai	s8,s8,0x10
    6750:	f31ff06f          	j	6680 <.L623>

00006754 <.L71>:
    6754:	0de00e13          	li	t3,222
    6758:	012e5463          	bge	t3,s2,6760 <.L71+0xc>
    675c:	0200306f          	j	977c <.L75>
    6760:	00e15e03          	lhu	t3,14(sp)
    6764:	ff6e0e13          	addi	t3,t3,-10
    6768:	010e1e13          	slli	t3,t3,0x10
    676c:	410e5e13          	srai	t3,t3,0x10
    6770:	01c11723          	sh	t3,14(sp)
    6774:	0d900e13          	li	t3,217
    6778:	01ee4463          	blt	t3,t5,6780 <.L74>
    677c:	c85f906f          	j	400 <.L76>

00006780 <.L74>:
    6780:	05700e13          	li	t3,87
    6784:	006e4463          	blt	t3,t1,678c <.L74+0xc>
    6788:	7980206f          	j	8f20 <.L83>
    678c:	02800e13          	li	t3,40
    6790:	00fe5463          	bge	t3,a5,6798 <.L74+0x18>
    6794:	a79f906f          	j	20c <.L82>
    6798:	00815e03          	lhu	t3,8(sp)
    679c:	1de00393          	li	t2,478
    67a0:	005e0e13          	addi	t3,t3,5
    67a4:	01c11423          	sh	t3,8(sp)
    67a8:	00e3d463          	bge	t2,a4,67b0 <.L74+0x30>
    67ac:	7b90106f          	j	8764 <.L2346>
    67b0:	02651383          	lh	t2,38(a0)
    67b4:	c71f906f          	j	424 <.L90>

000067b8 <.L55>:
    67b8:	6ca00893          	li	a7,1738
    67bc:	00e8d463          	bge	a7,a4,67c4 <.L55+0xc>
    67c0:	2990306f          	j	a258 <.L61>
    67c4:	00a15883          	lhu	a7,10(sp)
    67c8:	df700e13          	li	t3,-521
    67cc:	ff688893          	addi	a7,a7,-10
    67d0:	01111523          	sh	a7,10(sp)
    67d4:	01ca5463          	bge	s4,t3,67dc <.L2548>
    67d8:	8e0fd06f          	j	38b8 <.L60>

000067dc <.L2548>:
    67dc:	02a51883          	lh	a7,42(a0)

000067e0 <.L2950>:
    67e0:	eef00e13          	li	t3,-273
    67e4:	01c2d463          	bge	t0,t3,67ec <.L68>
    67e8:	bc9f906f          	j	3b0 <.L2910>

000067ec <.L68>:
    67ec:	ef500e13          	li	t3,-267
    67f0:	01c2c463          	blt	t0,t3,67f8 <.L68+0xc>
    67f4:	2640306f          	j	9a58 <.L53>
    67f8:	00c15e03          	lhu	t3,12(sp)
    67fc:	ff9e0e13          	addi	t3,t3,-7
    6800:	010e1e13          	slli	t3,t3,0x10
    6804:	410e5e13          	srai	t3,t3,0x10
    6808:	9cdf906f          	j	1d4 <.L65>

0000680c <.L379>:
    680c:	01c51c83          	lh	s9,28(a0)
    6810:	03800c13          	li	s8,56
    6814:	019c5463          	bge	s8,s9,681c <.L379+0x10>
    6818:	6a00306f          	j	9eb8 <.L390>
    681c:	00815c03          	lhu	s8,8(sp)
    6820:	0b500c93          	li	s9,181
    6824:	ff7c0c13          	addi	s8,s8,-9
    6828:	01811423          	sh	s8,8(sp)
    682c:	006cc463          	blt	s9,t1,6834 <.L381>
    6830:	894fa06f          	j	8c4 <.L2566>

00006834 <.L381>:
    6834:	e2700c13          	li	s8,-473
    6838:	05845a63          	bge	s0,s8,688c <.L386>

0000683c <.L389>:
    683c:	00a15c03          	lhu	s8,10(sp)
    6840:	ff9c0c13          	addi	s8,s8,-7
    6844:	010c1c13          	slli	s8,s8,0x10
    6848:	410c5c13          	srai	s8,s8,0x10
    684c:	894fa06f          	j	8e0 <.L383>

00006850 <.L382>:
    6850:	01a00c13          	li	s8,26
    6854:	013c5463          	bge	s8,s3,685c <.L382+0xc>
    6858:	1550306f          	j	a1ac <.L2911>
    685c:	00a15c03          	lhu	s8,10(sp)
    6860:	ffbc0c13          	addi	s8,s8,-5
    6864:	010c1c13          	slli	s8,s8,0x10
    6868:	410c5c13          	srai	s8,s8,0x10
    686c:	874fa06f          	j	8e0 <.L383>

00006870 <.L2191>:
    6870:	17300f13          	li	t5,371
    6874:	007f5463          	bge	t5,t2,687c <.L2191+0xc>
    6878:	1490306f          	j	a1c0 <.L2192>
    687c:	00815f03          	lhu	t5,8(sp)
    6880:	ffbf0f13          	addi	t5,t5,-5
    6884:	01e11423          	sh	t5,8(sp)
    6888:	86dfc06f          	j	30f4 <.L2189>

0000688c <.L386>:
    688c:	0ce00c13          	li	s8,206
    6890:	016c5463          	bge	s8,s6,6898 <.L386+0xc>
    6894:	24d0306f          	j	a2e0 <.L399>
    6898:	00a15c03          	lhu	s8,10(sp)
    689c:	ff8c0c13          	addi	s8,s8,-8
    68a0:	010c1c13          	slli	s8,s8,0x10
    68a4:	410c5c13          	srai	s8,s8,0x10
    68a8:	838fa06f          	j	8e0 <.L383>

000068ac <.L401>:
    68ac:	efc00c13          	li	s8,-260
    68b0:	018a4463          	blt	s4,s8,68b8 <.L401+0xc>
    68b4:	4890106f          	j	853c <.L404>
    68b8:	00c15c03          	lhu	s8,12(sp)
    68bc:	03b00c93          	li	s9,59
    68c0:	003c0c13          	addi	s8,s8,3
    68c4:	01811623          	sh	s8,12(sp)
    68c8:	00fcc463          	blt	s9,a5,68d0 <.L2569>
    68cc:	4890106f          	j	8554 <.L405>

000068d0 <.L2569>:
    68d0:	e4700c13          	li	s8,-441
    68d4:	0782de63          	bge	t0,s8,6950 <.L407>

000068d8 <.L406>:
    68d8:	00e15c03          	lhu	s8,14(sp)
    68dc:	ff9c0c13          	addi	s8,s8,-7
    68e0:	010c1c13          	slli	s8,s8,0x10
    68e4:	410c5c13          	srai	s8,s8,0x10
    68e8:	85cfa06f          	j	944 <.L412>

000068ec <.L474>:
    68ec:	00a15c03          	lhu	s8,10(sp)
    68f0:	2be00c93          	li	s9,702
    68f4:	006c0c13          	addi	s8,s8,6
    68f8:	01811523          	sh	s8,10(sp)
    68fc:	00dcd463          	bge	s9,a3,6904 <.L474+0x18>
    6900:	7cd0406f          	j	b8cc <.L477>
    6904:	0a300c13          	li	s8,163
    6908:	00ec5463          	bge	s8,a4,6910 <.L475>
    690c:	45c0506f          	j	bd68 <.L2912>

00006910 <.L475>:
    6910:	04d00c13          	li	s8,77
    6914:	00dc4463          	blt	s8,a3,691c <.L475+0xc>
    6918:	0800506f          	j	b998 <.L2279>
    691c:	00c15c03          	lhu	s8,12(sp)
    6920:	006c0c13          	addi	s8,s8,6
    6924:	01811623          	sh	s8,12(sp)

00006928 <.L2289>:
    6928:	03b00c13          	li	s8,59
    692c:	00fc5463          	bge	s8,a5,6934 <.L483>
    6930:	0a10206f          	j	91d0 <.L484>

00006934 <.L483>:
    6934:	03800c13          	li	s8,56
    6938:	05fc4e63          	blt	s8,t6,6994 <.L507>
    693c:	00e15c03          	lhu	s8,14(sp)
    6940:	ffac0c13          	addi	s8,s8,-6
    6944:	010c1c13          	slli	s8,s8,0x10
    6948:	410c5c13          	srai	s8,s8,0x10
    694c:	d2dfe06f          	j	5678 <.L504>

00006950 <.L407>:
    6950:	01800c13          	li	s8,24
    6954:	010c5463          	bge	s8,a6,695c <.L407+0xc>
    6958:	0790306f          	j	a1d0 <.L414>
    695c:	00e15c03          	lhu	s8,14(sp)
    6960:	0a900c93          	li	s9,169
    6964:	001c0c13          	addi	s8,s8,1
    6968:	01811723          	sh	s8,14(sp)
    696c:	01ecd463          	bge	s9,t5,6974 <.L418>
    6970:	af5fc06f          	j	3464 <.L415>

00006974 <.L418>:
    6974:	11800c13          	li	s8,280
    6978:	012c5463          	bge	s8,s2,6980 <.L418+0xc>
    697c:	1290306f          	j	a2a4 <.L2913>
    6980:	00815c03          	lhu	s8,8(sp)
    6984:	00ac0c13          	addi	s8,s8,10
    6988:	010c1c13          	slli	s8,s8,0x10
    698c:	410c5c13          	srai	s8,s8,0x10
    6990:	ff1f906f          	j	980 <.L420>

00006994 <.L507>:
    6994:	00e15c03          	lhu	s8,14(sp)
    6998:	ff6c0c13          	addi	s8,s8,-10
    699c:	010c1c13          	slli	s8,s8,0x10
    69a0:	410c5c13          	srai	s8,s8,0x10
    69a4:	cd5fe06f          	j	5678 <.L504>

000069a8 <.L672>:
    69a8:	00c15c03          	lhu	s8,12(sp)
    69ac:	ff8c0c13          	addi	s8,s8,-8
    69b0:	01811623          	sh	s8,12(sp)
    69b4:	b98fa06f          	j	d4c <.L670>

000069b8 <.L309>:
    69b8:	00a15c03          	lhu	s8,10(sp)
    69bc:	02051e03          	lh	t3,32(a0)
    69c0:	ff5c0c13          	addi	s8,s8,-11
    69c4:	01811523          	sh	s8,10(sp)

000069c8 <.L315>:
    69c8:	ddb00c13          	li	s8,-549
    69cc:	018ac463          	blt	s5,s8,69d4 <.L2949>
    69d0:	4840306f          	j	9e54 <.L331>

000069d4 <.L2949>:
    69d4:	00c15c03          	lhu	s8,12(sp)
    69d8:	03c00c93          	li	s9,60
    69dc:	005c0c13          	addi	s8,s8,5
    69e0:	01811623          	sh	s8,12(sp)
    69e4:	00fcd463          	bge	s9,a5,69ec <.L332>
    69e8:	e21fc06f          	j	3808 <.L325>

000069ec <.L332>:
    69ec:	d2500c13          	li	s8,-731
    69f0:	0185c463          	blt	a1,s8,69f8 <.L320>
    69f4:	dc9f906f          	j	7bc <.L327>

000069f8 <.L320>:
    69f8:	00e15c03          	lhu	s8,14(sp)
    69fc:	ffac0c13          	addi	s8,s8,-6
    6a00:	010c1c13          	slli	s8,s8,0x10
    6a04:	410c5c13          	srai	s8,s8,0x10
    6a08:	dc5f906f          	j	7cc <.L338>

00006a0c <.L324>:
    6a0c:	00c15c03          	lhu	s8,12(sp)
    6a10:	03c00c93          	li	s9,60
    6a14:	ff8c0c13          	addi	s8,s8,-8
    6a18:	01811623          	sh	s8,12(sp)
    6a1c:	00fcc463          	blt	s9,a5,6a24 <.L330>
    6a20:	d91f906f          	j	7b0 <.L2563>

00006a24 <.L330>:
    6a24:	01f00c13          	li	s8,31
    6a28:	090c4063          	blt	s8,a6,6aa8 <.L340>
    6a2c:	00e15c03          	lhu	s8,14(sp)
    6a30:	003c0c13          	addi	s8,s8,3
    6a34:	010c1c13          	slli	s8,s8,0x10
    6a38:	410c5c13          	srai	s8,s8,0x10
    6a3c:	d91f906f          	j	7cc <.L338>

00006a40 <.L282>:
    6a40:	00815e03          	lhu	t3,8(sp)
    6a44:	2df00c13          	li	s8,735
    6a48:	ff6e0e13          	addi	t3,t3,-10
    6a4c:	01c11423          	sh	t3,8(sp)
    6a50:	00ec4463          	blt	s8,a4,6a58 <.L297>
    6a54:	d05f906f          	j	758 <.L2684>

00006a58 <.L297>:
    6a58:	00001e37          	lui	t3,0x1
    6a5c:	bace0e13          	addi	t3,t3,-1108 # bac <.L546+0x20>
    6a60:	f4de4ce3          	blt	t3,a3,69b8 <.L309>
    6a64:	00a15e03          	lhu	t3,10(sp)
    6a68:	08f00c13          	li	s8,143
    6a6c:	00be0e13          	addi	t3,t3,11
    6a70:	01c11523          	sh	t3,10(sp)
    6a74:	00dc5463          	bge	s8,a3,6a7c <.L297+0x24>
    6a78:	3cc0306f          	j	9e44 <.L2564>
    6a7c:	03300e13          	li	t3,51
    6a80:	00fe5463          	bge	t3,a5,6a88 <.L297+0x30>
    6a84:	d51fc06f          	j	37d4 <.L2562>
    6a88:	02051e03          	lh	t3,32(a0)

00006a8c <.L294>:
    6a8c:	00c15c03          	lhu	s8,12(sp)
    6a90:	007c0c13          	addi	s8,s8,7
    6a94:	01811623          	sh	s8,12(sp)
    6a98:	d2500c13          	li	s8,-731
    6a9c:	a785d463          	bge	a1,s8,5d04 <.L321>

00006aa0 <.L337>:
    6aa0:	19c00c13          	li	s8,412
    6aa4:	f4ec4ae3          	blt	s8,a4,69f8 <.L320>

00006aa8 <.L340>:
    6aa8:	00e15c03          	lhu	s8,14(sp)
    6aac:	00dc0c13          	addi	s8,s8,13
    6ab0:	010c1c13          	slli	s8,s8,0x10
    6ab4:	410c5c13          	srai	s8,s8,0x10
    6ab8:	d15f906f          	j	7cc <.L338>

00006abc <.L281>:
    6abc:	09900e13          	li	t3,153
    6ac0:	9c9e4663          	blt	t3,s1,5c8c <.L295>
    6ac4:	00815e03          	lhu	t3,8(sp)
    6ac8:	2df00c13          	li	s8,735
    6acc:	007e0e13          	addi	t3,t3,7
    6ad0:	01c11423          	sh	t3,8(sp)
    6ad4:	f8ec42e3          	blt	s8,a4,6a58 <.L297>
    6ad8:	02051e03          	lh	t3,32(a0)
    6adc:	00400c13          	li	s8,4
    6ae0:	9dcc5863          	bge	s8,t3,5cb0 <.L298>
    6ae4:	00a15c03          	lhu	s8,10(sp)
    6ae8:	08f00c93          	li	s9,143
    6aec:	ff6c0c13          	addi	s8,s8,-10
    6af0:	01811523          	sh	s8,10(sp)
    6af4:	00dcd463          	bge	s9,a3,6afc <.L2560>
    6af8:	c89f906f          	j	780 <.L317>

00006afc <.L2560>:
    6afc:	03300c13          	li	s8,51
    6b00:	f8fc56e3          	bge	s8,a5,6a8c <.L294>
    6b04:	cd5fc06f          	j	37d8 <.L313>

00006b08 <.L1651>:
    6b08:	00815c03          	lhu	s8,8(sp)
    6b0c:	02e00c93          	li	s9,46
    6b10:	00ac0c13          	addi	s8,s8,10
    6b14:	01811423          	sh	s8,8(sp)
    6b18:	01dcc463          	blt	s9,t4,6b20 <.L1651+0x18>
    6b1c:	0780106f          	j	7b94 <.L1641>
    6b20:	00e00c13          	li	s8,14
    6b24:	010c4463          	blt	s8,a6,6b2c <.L1651+0x24>
    6b28:	4950406f          	j	b7bc <.L1653>
    6b2c:	00a15c03          	lhu	s8,10(sp)
    6b30:	00100c93          	li	s9,1
    6b34:	ff6c0c13          	addi	s8,s8,-10
    6b38:	01811523          	sh	s8,10(sp)
    6b3c:	03ccd863          	bge	s9,t3,6b6c <.L1654>

00006b40 <.L1655>:
    6b40:	00c15c03          	lhu	s8,12(sp)
    6b44:	ffbc0c13          	addi	s8,s8,-5
    6b48:	010c1c13          	slli	s8,s8,0x10
    6b4c:	410c5c13          	srai	s8,s8,0x10
    6b50:	fa9fe06f          	j	5af8 <.L1684>

00006b54 <.L2924>:
    6b54:	00a15c03          	lhu	s8,10(sp)
    6b58:	00100c93          	li	s9,1
    6b5c:	ffec0c13          	addi	s8,s8,-2
    6b60:	01811523          	sh	s8,10(sp)
    6b64:	01ccd463          	bge	s9,t3,6b6c <.L1654>
    6b68:	d19fb06f          	j	2880 <.L1659>

00006b6c <.L1654>:
    6b6c:	00c15c03          	lhu	s8,12(sp)
    6b70:	ff8c0c13          	addi	s8,s8,-8
    6b74:	010c1c13          	slli	s8,s8,0x10
    6b78:	410c5c13          	srai	s8,s8,0x10
    6b7c:	f7dfe06f          	j	5af8 <.L1684>

00006b80 <.L1776>:
    6b80:	00200c13          	li	s8,2
    6b84:	010c5463          	bge	s8,a6,6b8c <.L1776+0xc>
    6b88:	ea1fb06f          	j	2a28 <.L1775>
    6b8c:	00e15c03          	lhu	s8,14(sp)
    6b90:	ffbc0c13          	addi	s8,s8,-5
    6b94:	01811723          	sh	s8,14(sp)
    6b98:	e91fb06f          	j	2a28 <.L1775>

00006b9c <.L1757>:
    6b9c:	1fa00c13          	li	s8,506
    6ba0:	016c5463          	bge	s8,s6,6ba8 <.L1757+0xc>
    6ba4:	0080306f          	j	9bac <.L1767>
    6ba8:	00a15c03          	lhu	s8,10(sp)
    6bac:	ff6c0c13          	addi	s8,s8,-10
    6bb0:	01811523          	sh	s8,10(sp)
    6bb4:	e19fb06f          	j	29cc <.L1756>

00006bb8 <.L723>:
    6bb8:	03800c13          	li	s8,56
    6bbc:	00ec5463          	bge	s8,a4,6bc4 <.L723+0xc>
    6bc0:	ec9fa06f          	j	1a88 <.L722>
    6bc4:	00e15c03          	lhu	s8,14(sp)
    6bc8:	007c0c13          	addi	s8,s8,7
    6bcc:	01811723          	sh	s8,14(sp)
    6bd0:	eb9fa06f          	j	1a88 <.L722>

00006bd4 <.L545>:
    6bd4:	03600c13          	li	s8,54
    6bd8:	00fc4463          	blt	s8,a5,6be0 <.L545+0xc>
    6bdc:	de1fe06f          	j	59bc <.L544>
    6be0:	00e15c03          	lhu	s8,14(sp)
    6be4:	003c0c13          	addi	s8,s8,3
    6be8:	01811723          	sh	s8,14(sp)
    6bec:	00084463          	bltz	a6,6bf4 <.L545+0x20>
    6bf0:	f9df906f          	j	b8c <.L546>
    6bf4:	b71fa06f          	j	1764 <.L2757>

00006bf8 <.L2730>:
    6bf8:	01a00c13          	li	s8,26
    6bfc:	010c5463          	bge	s8,a6,6c04 <.L2730+0xc>
    6c00:	2b10406f          	j	b6b0 <.L716>
    6c04:	11800c13          	li	s8,280
    6c08:	012c4463          	blt	s8,s2,6c10 <.L2730+0x18>
    6c0c:	1140506f          	j	bd20 <.L2914>
    6c10:	00200c13          	li	s8,2
    6c14:	01cc4463          	blt	s8,t3,6c1c <.L736>
    6c18:	70c0306f          	j	a324 <.L2265>

00006c1c <.L736>:
    6c1c:	12800c13          	li	s8,296
    6c20:	029c5e63          	bge	s8,s1,6c5c <.L2590>
    6c24:	00a15c03          	lhu	s8,10(sp)
    6c28:	ffec0c13          	addi	s8,s8,-2
    6c2c:	010c1c13          	slli	s8,s8,0x10
    6c30:	410c5c13          	srai	s8,s8,0x10
    6c34:	a5cfa06f          	j	e90 <.L745>

00006c38 <.L542>:
    6c38:	ac400c13          	li	s8,-1340
    6c3c:	0185c463          	blt	a1,s8,6c44 <.L542+0xc>
    6c40:	d7dfe06f          	j	59bc <.L544>
    6c44:	00e15c03          	lhu	s8,14(sp)
    6c48:	00bc0c13          	addi	s8,s8,11
    6c4c:	01811723          	sh	s8,14(sp)
    6c50:	00084463          	bltz	a6,6c58 <.L542+0x20>
    6c54:	f39f906f          	j	b8c <.L546>
    6c58:	b0dfa06f          	j	1764 <.L2757>

00006c5c <.L2590>:
    6c5c:	00a15c03          	lhu	s8,10(sp)
    6c60:	ff7c0c13          	addi	s8,s8,-9
    6c64:	010c1c13          	slli	s8,s8,0x10
    6c68:	410c5c13          	srai	s8,s8,0x10
    6c6c:	a24fa06f          	j	e90 <.L745>

00006c70 <.L827>:
    6c70:	03b00c13          	li	s8,59
    6c74:	00fc5463          	bge	s8,a5,6c7c <.L827+0xc>
    6c78:	ce1fe06f          	j	5958 <.L830>
    6c7c:	00a15c03          	lhu	s8,10(sp)
    6c80:	27a00c93          	li	s9,634
    6c84:	005c0c13          	addi	s8,s8,5
    6c88:	01811523          	sh	s8,10(sp)
    6c8c:	00dcd463          	bge	s9,a3,6c94 <.L2592>
    6c90:	ce1fe06f          	j	5970 <.L831>

00006c94 <.L2592>:
    6c94:	02200c13          	li	s8,34
    6c98:	01dc4463          	blt	s8,t4,6ca0 <.L833>
    6c9c:	b54fa06f          	j	ff0 <.L838>

00006ca0 <.L833>:
    6ca0:	15300c13          	li	s8,339
    6ca4:	009c5463          	bge	s8,s1,6cac <.L833+0xc>
    6ca8:	41d0306f          	j	a8c4 <.L839>
    6cac:	00c15c03          	lhu	s8,12(sp)
    6cb0:	d2a00c93          	li	s9,-726
    6cb4:	ffdc0c13          	addi	s8,s8,-3
    6cb8:	01811623          	sh	s8,12(sp)
    6cbc:	0195c463          	blt	a1,s9,6cc4 <.L844>
    6cc0:	b3cfa06f          	j	ffc <.L840>

00006cc4 <.L844>:
    6cc4:	e2c00c13          	li	s8,-468
    6cc8:	0182c463          	blt	t0,s8,6cd0 <.L844+0xc>
    6ccc:	2d00406f          	j	af9c <.L2915>
    6cd0:	00e15c03          	lhu	s8,14(sp)
    6cd4:	fffc0c13          	addi	s8,s8,-1
    6cd8:	01811723          	sh	s8,14(sp)
    6cdc:	b34fa06f          	j	1010 <.L846>

00006ce0 <.L845>:
    6ce0:	03600c13          	li	s8,54
    6ce4:	4cfc42e3          	blt	s8,a5,79a8 <.L854>
    6ce8:	00e15c03          	lhu	s8,14(sp)
    6cec:	0a900c93          	li	s9,169
    6cf0:	ff9c0c13          	addi	s8,s8,-7
    6cf4:	01811723          	sh	s8,14(sp)
    6cf8:	01ecc463          	blt	s9,t5,6d00 <.L845+0x20>
    6cfc:	fb1fa06f          	j	1cac <.L860>
    6d00:	01e00c13          	li	s8,30
    6d04:	013c4463          	blt	s8,s3,6d0c <.L858>
    6d08:	06d0106f          	j	8574 <.L864>

00006d0c <.L858>:
    6d0c:	00815c03          	lhu	s8,8(sp)
    6d10:	ff7c0c13          	addi	s8,s8,-9
    6d14:	01811423          	sh	s8,8(sp)
    6d18:	b24fa06f          	j	103c <.L859>

00006d1c <.L2234>:
    6d1c:	f8d00693          	li	a3,-115
    6d20:	00dac463          	blt	s5,a3,6d28 <.L2234+0xc>
    6d24:	6c90306f          	j	abec <.L2237>
    6d28:	00815683          	lhu	a3,8(sp)
    6d2c:	00468693          	addi	a3,a3,4
    6d30:	01069693          	slli	a3,a3,0x10
    6d34:	4106d693          	srai	a3,a3,0x10
    6d38:	c70fc06f          	j	31a8 <.L2236>

00006d3c <.L984>:
    6d3c:	f1900c13          	li	s8,-231
    6d40:	0182c463          	blt	t0,s8,6d48 <.L984+0xc>
    6d44:	0c00206f          	j	8e04 <.L996>
    6d48:	00e15c03          	lhu	s8,14(sp)
    6d4c:	fffc0c13          	addi	s8,s8,-1
    6d50:	01811723          	sh	s8,14(sp)
    6d54:	cc0fa06f          	j	1214 <.L989>

00006d58 <.L1154>:
    6d58:	00815c03          	lhu	s8,8(sp)
    6d5c:	1b900c93          	li	s9,441
    6d60:	006c0c13          	addi	s8,s8,6
    6d64:	01811423          	sh	s8,8(sp)
    6d68:	01ecd463          	bge	s9,t5,6d70 <.L1158>
    6d6c:	fa0fa06f          	j	150c <.L1155>

00006d70 <.L1158>:
    6d70:	03200c13          	li	s8,50
    6d74:	01fc4463          	blt	s8,t6,6d7c <.L1158+0xc>
    6d78:	6e40206f          	j	945c <.L1181>
    6d7c:	00a15c03          	lhu	s8,10(sp)
    6d80:	002c0c13          	addi	s8,s8,2
    6d84:	01811523          	sh	s8,10(sp)
    6d88:	cddfc06f          	j	3a64 <.L1167>

00006d8c <.L149>:
    6d8c:	f8c00e13          	li	t3,-116
    6d90:	01ca4463          	blt	s4,t3,6d98 <.L149+0xc>
    6d94:	5b90306f          	j	ab4c <.L154>
    6d98:	00a15e03          	lhu	t3,10(sp)
    6d9c:	10b00c13          	li	s8,267
    6da0:	00fe0e13          	addi	t3,t3,15
    6da4:	01c11523          	sh	t3,10(sp)
    6da8:	00dc4463          	blt	s8,a3,6db0 <.L156>
    6dac:	fd5fe06f          	j	5d80 <.L161>

00006db0 <.L156>:
    6db0:	eef00e13          	li	t3,-273
    6db4:	01c2d463          	bge	t0,t3,6dbc <.L181>
    6db8:	b7dfc06f          	j	3934 <.L152>

00006dbc <.L181>:
    6dbc:	00c15e03          	lhu	t3,12(sp)
    6dc0:	ff6e0e13          	addi	t3,t3,-10
    6dc4:	010e1e13          	slli	t3,t3,0x10
    6dc8:	410e5e13          	srai	t3,t3,0x10
    6dcc:	b79fc06f          	j	3944 <.L175>

00006dd0 <.L1057>:
    6dd0:	00c15c03          	lhu	s8,12(sp)
    6dd4:	ff7c0c13          	addi	s8,s8,-9
    6dd8:	010c1c13          	slli	s8,s8,0x10
    6ddc:	410c5c13          	srai	s8,s8,0x10
    6de0:	9d8fb06f          	j	1fb8 <.L1074>

00006de4 <.L361>:
    6de4:	00a15c03          	lhu	s8,10(sp)
    6de8:	17000c93          	li	s9,368
    6dec:	008c0c13          	addi	s8,s8,8
    6df0:	01811523          	sh	s8,10(sp)
    6df4:	00dcc463          	blt	s9,a3,6dfc <.L362>
    6df8:	1490306f          	j	a740 <.L363>

00006dfc <.L362>:
    6dfc:	3fa00c13          	li	s8,1018
    6e00:	1cec5ae3          	bge	s8,a4,77d4 <.L359>
    6e04:	00001c37          	lui	s8,0x1
    6e08:	bd5c0c13          	addi	s8,s8,-1067 # bd5 <.L552+0x25>
    6e0c:	00dc5463          	bge	s8,a3,6e14 <.L362+0x18>
    6e10:	2f40306f          	j	a104 <.L367>
    6e14:	00c15c03          	lhu	s8,12(sp)
    6e18:	e9900c93          	li	s9,-359
    6e1c:	ff7c0c13          	addi	s8,s8,-9
    6e20:	01811623          	sh	s8,12(sp)
    6e24:	0195d463          	bge	a1,s9,6e2c <.L2366>
    6e28:	d24fc06f          	j	334c <.L368>

00006e2c <.L2366>:
    6e2c:	03d00c13          	li	s8,61
    6e30:	0efc4263          	blt	s8,a5,6f14 <.L371>

00006e34 <.L370>:
    6e34:	00e15c03          	lhu	s8,14(sp)
    6e38:	ff6c0c13          	addi	s8,s8,-10
    6e3c:	010c1c13          	slli	s8,s8,0x10
    6e40:	410c5c13          	srai	s8,s8,0x10
    6e44:	a41f906f          	j	884 <.L375>

00006e48 <.L2870>:
    6e48:	32100c13          	li	s8,801
    6e4c:	00dc5463          	bge	s8,a3,6e54 <.L2870+0xc>
    6e50:	1f00406f          	j	b040 <.L968>
    6e54:	00a15c03          	lhu	s8,10(sp)
    6e58:	ff5c0c13          	addi	s8,s8,-11
    6e5c:	010c1c13          	slli	s8,s8,0x10
    6e60:	410c5c13          	srai	s8,s8,0x10
    6e64:	01811523          	sh	s8,10(sp)
    6e68:	03900c13          	li	s8,57
    6e6c:	00dc4463          	blt	s8,a3,6e74 <.L970>
    6e70:	b64fa06f          	j	11d4 <.L960>

00006e74 <.L970>:
    6e74:	02700c13          	li	s8,39
    6e78:	00ec4463          	blt	s8,a4,6e80 <.L970+0xc>
    6e7c:	0180206f          	j	8e94 <.L972>
    6e80:	ff600c13          	li	s8,-10
    6e84:	01865463          	bge	a2,s8,6e8c <.L970+0x18>
    6e88:	901fd06f          	j	4788 <.L966>
    6e8c:	00c15c03          	lhu	s8,12(sp)
    6e90:	cf000c93          	li	s9,-784
    6e94:	ffac0c13          	addi	s8,s8,-6
    6e98:	01811623          	sh	s8,12(sp)
    6e9c:	0195d463          	bge	a1,s9,6ea4 <.L970+0x30>
    6ea0:	879fd06f          	j	4718 <.L962>
    6ea4:	8f9fd06f          	j	479c <.L2408>

00006ea8 <.L952>:
    6ea8:	00815c03          	lhu	s8,8(sp)
    6eac:	fffc0c13          	addi	s8,s8,-1
    6eb0:	010c1c13          	slli	s8,s8,0x10
    6eb4:	410c5c13          	srai	s8,s8,0x10
    6eb8:	f71fa06f          	j	1e28 <.L948>

00006ebc <.L360>:
    6ebc:	f2b00c13          	li	s8,-213
    6ec0:	018ac463          	blt	s5,s8,6ec8 <.L360+0xc>
    6ec4:	2710306f          	j	a934 <.L364>
    6ec8:	00a15c03          	lhu	s8,10(sp)
    6ecc:	00cc0c13          	addi	s8,s8,12
    6ed0:	010c1c13          	slli	s8,s8,0x10
    6ed4:	010c5c13          	srli	s8,s8,0x10

00006ed8 <.L365>:
    6ed8:	01811523          	sh	s8,10(sp)
    6edc:	17000c13          	li	s8,368
    6ee0:	f0dc4ee3          	blt	s8,a3,6dfc <.L362>

00006ee4 <.L351>:
    6ee4:	ffa00c13          	li	s8,-6
    6ee8:	01865463          	bge	a2,s8,6ef0 <.L354>
    6eec:	c34fc06f          	j	3320 <.L353>

00006ef0 <.L354>:
    6ef0:	01c51c83          	lh	s9,28(a0)
    6ef4:	03c00c13          	li	s8,60
    6ef8:	019c5463          	bge	s8,s9,6f00 <.L354+0x10>
    6efc:	0590306f          	j	a754 <.L2916>
    6f00:	00c15c03          	lhu	s8,12(sp)
    6f04:	ff6c0c13          	addi	s8,s8,-10
    6f08:	010c1c13          	slli	s8,s8,0x10
    6f0c:	410c5c13          	srai	s8,s8,0x10
    6f10:	93df906f          	j	84c <.L352>

00006f14 <.L371>:
    6f14:	0b300c13          	li	s8,179
    6f18:	007c5463          	bge	s8,t2,6f20 <.L371+0xc>
    6f1c:	2410306f          	j	a95c <.L377>
    6f20:	00e15c03          	lhu	s8,14(sp)
    6f24:	00bc0c13          	addi	s8,s8,11
    6f28:	010c1c13          	slli	s8,s8,0x10
    6f2c:	410c5c13          	srai	s8,s8,0x10
    6f30:	955f906f          	j	884 <.L375>

00006f34 <.L953>:
    6f34:	13100c13          	li	s8,305
    6f38:	016c5463          	bge	s8,s6,6f40 <.L953+0xc>
    6f3c:	2490306f          	j	a984 <.L955>
    6f40:	00815c03          	lhu	s8,8(sp)
    6f44:	008c0c13          	addi	s8,s8,8
    6f48:	010c1c13          	slli	s8,s8,0x10
    6f4c:	410c5c13          	srai	s8,s8,0x10
    6f50:	ed9fa06f          	j	1e28 <.L948>

00006f54 <.L146>:
    6f54:	00815e03          	lhu	t3,8(sp)
    6f58:	ff6e0e13          	addi	t3,t3,-10
    6f5c:	010e1e13          	slli	t3,t3,0x10
    6f60:	410e5e13          	srai	t3,t3,0x10
    6f64:	e94f906f          	j	5f8 <.L147>

00006f68 <.L1883>:
    6f68:	00c15c03          	lhu	s8,12(sp)
    6f6c:	05800c93          	li	s9,88
    6f70:	fffc0c13          	addi	s8,s8,-1
    6f74:	01811623          	sh	s8,12(sp)
    6f78:	009cd463          	bge	s9,s1,6f80 <.L1883+0x18>
    6f7c:	9a4fe06f          	j	5120 <.L1884>
    6f80:	f5300c13          	li	s8,-173
    6f84:	01845463          	bge	s0,s8,6f8c <.L1883+0x24>
    6f88:	6f40406f          	j	b67c <.L1893>
    6f8c:	00e15c03          	lhu	s8,14(sp)
    6f90:	07300c93          	li	s9,115
    6f94:	003c0c13          	addi	s8,s8,3
    6f98:	01811723          	sh	s8,14(sp)
    6f9c:	012cc463          	blt	s9,s2,6fa4 <.L1895>
    6fa0:	a59fd06f          	j	49f8 <.L1894>

00006fa4 <.L1895>:
    6fa4:	00a00c13          	li	s8,10
    6fa8:	010c5463          	bge	s8,a6,6fb0 <.L1895+0xc>
    6fac:	64c0206f          	j	95f8 <.L1910>
    6fb0:	00815c03          	lhu	s8,8(sp)
    6fb4:	007c0c13          	addi	s8,s8,7
    6fb8:	01811423          	sh	s8,8(sp)
    6fbc:	c7dfb06f          	j	2c38 <.L1909>

00006fc0 <.L1946>:
    6fc0:	01400c13          	li	s8,20
    6fc4:	010c5463          	bge	s8,a6,6fcc <.L1946+0xc>
    6fc8:	2f00306f          	j	a2b8 <.L1954>
    6fcc:	00a15c03          	lhu	s8,10(sp)
    6fd0:	00ac0c13          	addi	s8,s8,10
    6fd4:	010c1c13          	slli	s8,s8,0x10
    6fd8:	010c5c13          	srli	s8,s8,0x10

00006fdc <.L1955>:
    6fdc:	01811523          	sh	s8,10(sp)
    6fe0:	03c00c13          	li	s8,60
    6fe4:	00fc4463          	blt	s8,a5,6fec <.L1953>
    6fe8:	b0dfd06f          	j	4af4 <.L1963>

00006fec <.L1953>:
    6fec:	f0000c13          	li	s8,-256
    6ff0:	0185d463          	bge	a1,s8,6ff8 <.L1953+0xc>
    6ff4:	2480106f          	j	823c <.L1986>
    6ff8:	05800c13          	li	s8,88
    6ffc:	009c4463          	blt	s8,s1,7004 <.L1953+0x18>
    7000:	2540106f          	j	8254 <.L1982>
    7004:	1a500c13          	li	s8,421
    7008:	007c4463          	blt	s8,t2,7010 <.L1953+0x24>
    700c:	d61fb06f          	j	2d6c <.L1983>
    7010:	00e15c03          	lhu	s8,14(sp)
    7014:	ffcc0c13          	addi	s8,s8,-4
    7018:	01811723          	sh	s8,14(sp)

0000701c <.L1988>:
    701c:	00815c03          	lhu	s8,8(sp)
    7020:	004c0c13          	addi	s8,s8,4
    7024:	01811423          	sh	s8,8(sp)
    7028:	d71fb06f          	j	2d98 <.L1972>

0000702c <.L2194>:
    702c:	01100513          	li	a0,17
    7030:	01d55463          	bge	a0,t4,7038 <.L2194+0xc>
    7034:	39d0306f          	j	abd0 <.L2197>
    7038:	25b00513          	li	a0,603
    703c:	00e54463          	blt	a0,a4,7044 <.L2198>
    7040:	8f4fc06f          	j	3134 <.L2201>

00007044 <.L2198>:
    7044:	eb700513          	li	a0,-329
    7048:	24a5c263          	blt	a1,a0,728c <.L2666>
    704c:	00c15503          	lhu	a0,12(sp)
    7050:	ff850513          	addi	a0,a0,-8
    7054:	01051513          	slli	a0,a0,0x10
    7058:	41055513          	srai	a0,a0,0x10
    705c:	900fc06f          	j	315c <.L2207>

00007060 <.L2079>:
    7060:	00a15b03          	lhu	s6,10(sp)
    7064:	02700c13          	li	s8,39
    7068:	ffcb0b13          	addi	s6,s6,-4
    706c:	01611523          	sh	s6,10(sp)
    7070:	006c5463          	bge	s8,t1,7078 <.L2080>
    7074:	fc5fd06f          	j	5038 <.L2659>

00007078 <.L2080>:
    7078:	ff800b13          	li	s6,-8
    707c:	01661463          	bne	a2,s6,7084 <.L2089>
    7080:	5840106f          	j	8604 <.L2085>

00007084 <.L2089>:
    7084:	06c00b13          	li	s6,108
    7088:	00db5463          	bge	s6,a3,7090 <.L2089+0xc>
    708c:	2990306f          	j	ab24 <.L2917>
    7090:	00c15b03          	lhu	s6,12(sp)
    7094:	ff9b0b13          	addi	s6,s6,-7
    7098:	010b1b13          	slli	s6,s6,0x10
    709c:	410b5b13          	srai	s6,s6,0x10
    70a0:	ea9fb06f          	j	2f48 <.L2082>

000070a4 <.L302>:
    70a4:	00815e03          	lhu	t3,8(sp)
    70a8:	ff6e0e13          	addi	t3,t3,-10
    70ac:	010e1e13          	slli	t3,t3,0x10
    70b0:	410e5e13          	srai	t3,t3,0x10
    70b4:	ed0fc06f          	j	3784 <.L304>

000070b8 <.L342>:
    70b8:	ffa00c13          	li	s8,-6
    70bc:	01894463          	blt	s2,s8,70c4 <.L342+0xc>
    70c0:	7d90306f          	j	b098 <.L345>
    70c4:	00815c03          	lhu	s8,8(sp)
    70c8:	006c0c13          	addi	s8,s8,6
    70cc:	01811423          	sh	s8,8(sp)
    70d0:	f30f906f          	j	800 <.L344>

000070d4 <.L824>:
    70d4:	00815c03          	lhu	s8,8(sp)
    70d8:	ffcc0c13          	addi	s8,s8,-4
    70dc:	01811423          	sh	s8,8(sp)
    70e0:	eb5f906f          	j	f94 <.L825>

000070e4 <.L660>:
    70e4:	ecc00c13          	li	s8,-308
    70e8:	018a4463          	blt	s4,s8,70f0 <.L660+0xc>
    70ec:	2050306f          	j	aaf0 <.L663>
    70f0:	00a15c03          	lhu	s8,10(sp)
    70f4:	ffdc0c13          	addi	s8,s8,-3
    70f8:	010c1c13          	slli	s8,s8,0x10
    70fc:	410c5c13          	srai	s8,s8,0x10
    7100:	c1df906f          	j	d1c <.L662>

00007104 <.L611>:
    7104:	00400c13          	li	s8,4
    7108:	01cc5463          	bge	s8,t3,7110 <.L611+0xc>
    710c:	b49f906f          	j	c54 <.L617>
    7110:	00815c03          	lhu	s8,8(sp)
    7114:	ff7c0c13          	addi	s8,s8,-9
    7118:	01811423          	sh	s8,8(sp)
    711c:	b45f906f          	j	c60 <.L614>

00007120 <.L748>:
    7120:	00a15c03          	lhu	s8,10(sp)
    7124:	0dd00c93          	li	s9,221
    7128:	005c0c13          	addi	s8,s8,5
    712c:	01811523          	sh	s8,10(sp)
    7130:	00dcc463          	blt	s9,a3,7138 <.L748+0x18>
    7134:	84cfe06f          	j	5180 <.L749>
    7138:	25b00c13          	li	s8,603
    713c:	00ec4463          	blt	s8,a4,7144 <.L748+0x24>
    7140:	1a90406f          	j	bae8 <.L757>
    7144:	00c15c03          	lhu	s8,12(sp)
    7148:	03e00c93          	li	s9,62
    714c:	004c0c13          	addi	s8,s8,4
    7150:	01811623          	sh	s8,12(sp)
    7154:	00fcc463          	blt	s9,a5,715c <.L748+0x3c>
    7158:	9d1fa06f          	j	1b28 <.L751>
    715c:	00e15c03          	lhu	s8,14(sp)
    7160:	ffe00c93          	li	s9,-2
    7164:	009c0c13          	addi	s8,s8,9
    7168:	01811723          	sh	s8,14(sp)
    716c:	01984463          	blt	a6,s9,7174 <.L748+0x54>
    7170:	d55fd06f          	j	4ec4 <.L2387>
    7174:	00815c03          	lhu	s8,8(sp)
    7178:	03300c93          	li	s9,51
    717c:	ff9c0c13          	addi	s8,s8,-7
    7180:	01811423          	sh	s8,8(sp)
    7184:	01fcd463          	bge	s9,t6,718c <.L795>
    7188:	c9dfd06f          	j	4e24 <.L789>

0000718c <.L795>:
    718c:	64b00c13          	li	s8,1611
    7190:	00ec5463          	bge	s8,a4,7198 <.L795+0xc>
    7194:	7150306f          	j	b0a8 <.L799>
    7198:	00a15c03          	lhu	s8,10(sp)
    719c:	ff6c0c13          	addi	s8,s8,-10
    71a0:	010c1c13          	slli	s8,s8,0x10
    71a4:	410c5c13          	srai	s8,s8,0x10
    71a8:	c99fd06f          	j	4e40 <.L800>

000071ac <.L2863>:
    71ac:	0a000b13          	li	s6,160
    71b0:	00db4463          	blt	s6,a3,71b8 <.L2863+0xc>
    71b4:	e35fb06f          	j	2fe8 <.L2124>
    71b8:	00c15b03          	lhu	s6,12(sp)
    71bc:	005b0b13          	addi	s6,s6,5
    71c0:	01611623          	sh	s6,12(sp)
    71c4:	a20fd06f          	j	43e4 <.L2128>

000071c8 <.L1257>:
    71c8:	02e00c13          	li	s8,46
    71cc:	00ec5463          	bge	s8,a4,71d4 <.L1257+0xc>
    71d0:	7910206f          	j	a160 <.L1261>
    71d4:	00e15c03          	lhu	s8,14(sp)
    71d8:	004c0c13          	addi	s8,s8,4
    71dc:	010c1c13          	slli	s8,s8,0x10
    71e0:	410c5c13          	srai	s8,s8,0x10
    71e4:	c58fa06f          	j	163c <.L1259>

000071e8 <.L1450>:
    71e8:	fe400c13          	li	s8,-28
    71ec:	01874463          	blt	a4,s8,71f4 <.L1450+0xc>
    71f0:	6cd0306f          	j	b0bc <.L1459>
    71f4:	00815c03          	lhu	s8,8(sp)
    71f8:	f8b00c93          	li	s9,-117
    71fc:	006c0c13          	addi	s8,s8,6
    7200:	01811423          	sh	s8,8(sp)
    7204:	0195c463          	blt	a1,s9,720c <.L1450+0x24>
    7208:	e59fc06f          	j	4060 <.L1464>
    720c:	b74fb06f          	j	2580 <.L2737>

00007210 <.L1427>:
    7210:	0ea00c13          	li	s8,234
    7214:	006c5463          	bge	s8,t1,721c <.L1427+0xc>
    7218:	7290206f          	j	a140 <.L1430>
    721c:	00a15c03          	lhu	s8,10(sp)
    7220:	ff9c0c13          	addi	s8,s8,-7
    7224:	01811523          	sh	s8,10(sp)
    7228:	ad8fb06f          	j	2500 <.L1429>

0000722c <.L1828>:
    722c:	04c00c13          	li	s8,76
    7230:	016c5463          	bge	s8,s6,7238 <.L1828+0xc>
    7234:	6a50306f          	j	b0d8 <.L1834>
    7238:	00815c03          	lhu	s8,8(sp)
    723c:	ffec0c13          	addi	s8,s8,-2
    7240:	010c1c13          	slli	s8,s8,0x10
    7244:	410c5c13          	srai	s8,s8,0x10
    7248:	a4dfd06f          	j	4c94 <.L1835>

0000724c <.L1423>:
    724c:	07100c13          	li	s8,113
    7250:	012c5463          	bge	s8,s2,7258 <.L1423+0xc>
    7254:	6fd0206f          	j	a150 <.L1425>
    7258:	00815c03          	lhu	s8,8(sp)
    725c:	00cc0c13          	addi	s8,s8,12
    7260:	01811423          	sh	s8,8(sp)
    7264:	03b00c13          	li	s8,59
    7268:	00fc4463          	blt	s8,a5,7270 <.L1431>
    726c:	d5dfc06f          	j	3fc8 <.L2918>

00007270 <.L1431>:
    7270:	17900c13          	li	s8,377
    7274:	009c5463          	bge	s8,s1,727c <.L1431+0xc>
    7278:	4a90306f          	j	af20 <.L1432>
    727c:	00a15c03          	lhu	s8,10(sp)
    7280:	ff8c0c13          	addi	s8,s8,-8
    7284:	01811523          	sh	s8,10(sp)
    7288:	a78fb06f          	j	2500 <.L1429>

0000728c <.L2666>:
    728c:	00c15503          	lhu	a0,12(sp)
    7290:	fff50513          	addi	a0,a0,-1
    7294:	01051513          	slli	a0,a0,0x10
    7298:	41055513          	srai	a0,a0,0x10
    729c:	ec1fb06f          	j	315c <.L2207>

000072a0 <.L1165>:
    72a0:	00815c03          	lhu	s8,8(sp)
    72a4:	ff7c0c13          	addi	s8,s8,-9
    72a8:	010c1c13          	slli	s8,s8,0x10
    72ac:	010c5c13          	srli	s8,s8,0x10
    72b0:	dd4fd06f          	j	4884 <.L1166>

000072b4 <.L1515>:
    72b4:	00300c13          	li	s8,3
    72b8:	010c5463          	bge	s8,a6,72c0 <.L1515+0xc>
    72bc:	4500306f          	j	a70c <.L1518>
    72c0:	00a15c03          	lhu	s8,10(sp)
    72c4:	f9800c93          	li	s9,-104
    72c8:	003c0c13          	addi	s8,s8,3
    72cc:	01811523          	sh	s8,10(sp)
    72d0:	01944463          	blt	s0,s9,72d8 <.L1515+0x24>
    72d4:	accfd06f          	j	45a0 <.L1507>
    72d8:	0c700c13          	li	s8,199
    72dc:	016c5463          	bge	s8,s6,72e4 <.L1515+0x30>
    72e0:	e5dfc06f          	j	413c <.L1529>
    72e4:	ea900c13          	li	s8,-343
    72e8:	018a4463          	blt	s4,s8,72f0 <.L1530>
    72ec:	3850206f          	j	9e70 <.L1523>

000072f0 <.L1530>:
    72f0:	11a00c13          	li	s8,282
    72f4:	007c5463          	bge	s8,t2,72fc <.L1547>
    72f8:	ae4fd06f          	j	45dc <.L1536>

000072fc <.L1547>:
    72fc:	00e15c03          	lhu	s8,14(sp)
    7300:	003c0c13          	addi	s8,s8,3
    7304:	01811723          	sh	s8,14(sp)
    7308:	b9cfb06f          	j	26a4 <.L1539>

0000730c <.L510>:
    730c:	fb100c13          	li	s8,-79
    7310:	0182c463          	blt	t0,s8,7318 <.L510+0xc>
    7314:	0050206f          	j	9b18 <.L513>
    7318:	00815c03          	lhu	s8,8(sp)
    731c:	ff8c0c13          	addi	s8,s8,-8
    7320:	010c1c13          	slli	s8,s8,0x10
    7324:	410c5c13          	srai	s8,s8,0x10
    7328:	978fd06f          	j	44a0 <.L512>

0000732c <.L576>:
    732c:	efc00c13          	li	s8,-260
    7330:	018a4463          	blt	s4,s8,7338 <.L576+0xc>
    7334:	52c0306f          	j	a860 <.L579>
    7338:	00c15c03          	lhu	s8,12(sp)
    733c:	e0800c93          	li	s9,-504
    7340:	009c0c13          	addi	s8,s8,9
    7344:	01811623          	sh	s8,12(sp)
    7348:	01944463          	blt	s0,s9,7350 <.L580>
    734c:	8d5f906f          	j	c20 <.L581>

00007350 <.L580>:
    7350:	25500c13          	li	s8,597
    7354:	869c5c63          	bge	s8,s1,63cc <.L595>

00007358 <.L606>:
    7358:	00e15c03          	lhu	s8,14(sp)
    735c:	0a900c93          	li	s9,169
    7360:	ff7c0c13          	addi	s8,s8,-9
    7364:	01811723          	sh	s8,14(sp)
    7368:	01ecc463          	blt	s9,t5,7370 <.L606+0x18>
    736c:	d14fa06f          	j	1880 <.L600>
    7370:	cd8fe06f          	j	5848 <.L2581>

00007374 <.L1437>:
    7374:	fa700c13          	li	s8,-89
    7378:	01844463          	blt	s0,s8,7380 <.L1437+0xc>
    737c:	5850306f          	j	b100 <.L1439>
    7380:	00c15c03          	lhu	s8,12(sp)
    7384:	003c0c13          	addi	s8,s8,3
    7388:	01811623          	sh	s8,12(sp)
    738c:	9a0fb06f          	j	252c <.L1435>

00007390 <.L1956>:
    7390:	0b100c93          	li	s9,177
    7394:	687cd6e3          	bge	s9,t2,8220 <.L1958>
    7398:	00a15c83          	lhu	s9,10(sp)
    739c:	ff7c8c93          	addi	s9,s9,-9
    73a0:	01911523          	sh	s9,10(sp)
    73a4:	00fc5463          	bge	s8,a5,73ac <.L1956+0x1c>
    73a8:	989fb06f          	j	2d30 <.L1959>
    73ac:	42200c13          	li	s8,1058
    73b0:	007c5463          	bge	s8,t2,73b8 <.L1960>
    73b4:	f4cfd06f          	j	4b00 <.L1951>

000073b8 <.L1960>:
    73b8:	00c15c03          	lhu	s8,12(sp)
    73bc:	05800c93          	li	s9,88
    73c0:	003c0c13          	addi	s8,s8,3
    73c4:	01811623          	sh	s8,12(sp)
    73c8:	6c9cc6e3          	blt	s9,s1,8294 <.L1973>
    73cc:	f5300c13          	li	s8,-173
    73d0:	01845463          	bge	s0,s8,73d8 <.L1975>
    73d4:	13d0406f          	j	bd10 <.L2919>

000073d8 <.L1975>:
    73d8:	16200c13          	li	s8,354
    73dc:	007c5463          	bge	s8,t2,73e4 <.L1967>
    73e0:	f50fd06f          	j	4b30 <.L1995>

000073e4 <.L1967>:
    73e4:	03b00c13          	li	s8,59
    73e8:	6cfc58e3          	bge	s8,a5,82b8 <.L1969>
    73ec:	00815c03          	lhu	s8,8(sp)
    73f0:	001c0c13          	addi	s8,s8,1
    73f4:	01811423          	sh	s8,8(sp)
    73f8:	9a1fb06f          	j	2d98 <.L1972>

000073fc <.L1113>:
    73fc:	bf300c13          	li	s8,-1037
    7400:	0185c463          	blt	a1,s8,7408 <.L1113+0xc>
    7404:	4300306f          	j	a834 <.L1117>
    7408:	00e15c03          	lhu	s8,14(sp)
    740c:	01500c93          	li	s9,21
    7410:	005c0c13          	addi	s8,s8,5
    7414:	01811723          	sh	s8,14(sp)
    7418:	007cc463          	blt	s9,t2,7420 <.L1113+0x24>
    741c:	c8dfa06f          	j	20a8 <.L1118>
    7420:	fe9f906f          	j	1408 <.L2602>

00007424 <.L520>:
    7424:	f2000c13          	li	s8,-224
    7428:	0182c463          	blt	t0,s8,7430 <.L520+0xc>
    742c:	3dc0306f          	j	a808 <.L524>
    7430:	00a15c03          	lhu	s8,10(sp)
    7434:	17000c93          	li	s9,368
    7438:	009c0c13          	addi	s8,s8,9
    743c:	01811523          	sh	s8,10(sp)
    7440:	00dcd463          	bge	s9,a3,7448 <.L525>
    7444:	5350106f          	j	9178 <.L526>

00007448 <.L525>:
    7448:	02200c13          	li	s8,34
    744c:	01dc4463          	blt	s8,t4,7454 <.L536>
    7450:	5f50106f          	j	9244 <.L530>

00007454 <.L536>:
    7454:	fda00c13          	li	s8,-38
    7458:	01874463          	blt	a4,s8,7460 <.L536+0xc>
    745c:	b58fa06f          	j	17b4 <.L531>
    7460:	00c15c03          	lhu	s8,12(sp)
    7464:	006c0c13          	addi	s8,s8,6
    7468:	010c1c13          	slli	s8,s8,0x10
    746c:	410c5c13          	srai	s8,s8,0x10
    7470:	eecf906f          	j	b5c <.L538>

00007474 <.L1499>:
    7474:	02500c13          	li	s8,37
    7478:	01fc5463          	bge	s8,t6,7480 <.L1499+0xc>
    747c:	4a50206f          	j	a120 <.L1500>
    7480:	00e15c03          	lhu	s8,14(sp)
    7484:	00ac0c13          	addi	s8,s8,10
    7488:	01811723          	sh	s8,14(sp)
    748c:	c3dfc06f          	j	40c8 <.L1497>

00007490 <.L2241>:
    7490:	00c15783          	lhu	a5,12(sp)
    7494:	00f78793          	addi	a5,a5,15
    7498:	01079793          	slli	a5,a5,0x10
    749c:	4107d793          	srai	a5,a5,0x10
    74a0:	d61fb06f          	j	3200 <.L2242>

000074a4 <.L1010>:
    74a4:	d5d00c13          	li	s8,-675
    74a8:	3b8ad463          	bge	s5,s8,7850 <.L1012>
    74ac:	00a15c03          	lhu	s8,10(sp)
    74b0:	03d00c93          	li	s9,61
    74b4:	ffdc0c13          	addi	s8,s8,-3
    74b8:	01811523          	sh	s8,10(sp)
    74bc:	00fcc463          	blt	s9,a5,74c4 <.L1024>
    74c0:	da5f906f          	j	1264 <.L1013>

000074c4 <.L1024>:
    74c4:	00c15c03          	lhu	s8,12(sp)
    74c8:	007c0c13          	addi	s8,s8,7
    74cc:	01811623          	sh	s8,12(sp)
    74d0:	a59fa06f          	j	1f28 <.L1014>

000074d4 <.L1187>:
    74d4:	3ce00c13          	li	s8,974
    74d8:	016c5463          	bge	s8,s6,74e0 <.L1187+0xc>
    74dc:	5180306f          	j	a9f4 <.L2920>
    74e0:	00c15c03          	lhu	s8,12(sp)
    74e4:	007c0c13          	addi	s8,s8,7
    74e8:	010c1c13          	slli	s8,s8,0x10
    74ec:	410c5c13          	srai	s8,s8,0x10
    74f0:	ce5fa06f          	j	21d4 <.L1189>

000074f4 <.L1555>:
    74f4:	00d00c13          	li	s8,13
    74f8:	013c5463          	bge	s8,s3,7500 <.L1555+0xc>
    74fc:	5340306f          	j	aa30 <.L1556>
    7500:	00815c03          	lhu	s8,8(sp)
    7504:	003c0c13          	addi	s8,s8,3
    7508:	010c1c13          	slli	s8,s8,0x10
    750c:	410c5c13          	srai	s8,s8,0x10
    7510:	9c8fb06f          	j	26d8 <.L1553>

00007514 <.L2248>:
    7514:	00c15783          	lhu	a5,12(sp)
    7518:	ff978793          	addi	a5,a5,-7
    751c:	01079793          	slli	a5,a5,0x10
    7520:	4107d793          	srai	a5,a5,0x10
    7524:	cddfb06f          	j	3200 <.L2242>

00007528 <.L2157>:
    7528:	06f00b13          	li	s6,111
    752c:	00db4463          	blt	s6,a3,7534 <.L2157+0xc>
    7530:	42d0306f          	j	b15c <.L2167>
    7534:	00a15b03          	lhu	s6,10(sp)
    7538:	fdb00c13          	li	s8,-37
    753c:	ff7b0b13          	addi	s6,s6,-9
    7540:	01611523          	sh	s6,10(sp)
    7544:	01875463          	bge	a4,s8,754c <.L2157+0x24>
    7548:	3fd0306f          	j	b144 <.L2721>
    754c:	02600b13          	li	s6,38
    7550:	00eb4463          	blt	s6,a4,7558 <.L2157+0x30>
    7554:	b4dfb06f          	j	30a0 <.L2171>
    7558:	08600b13          	li	s6,134
    755c:	14db5463          	bge	s6,a3,76a4 <.L2181>
    7560:	a1cfe06f          	j	577c <.L2170>

00007564 <.L2848>:
    7564:	e2c00c13          	li	s8,-468
    7568:	0182c463          	blt	t0,s8,7570 <.L2848+0xc>
    756c:	3190306f          	j	b084 <.L1348>
    7570:	00a15c03          	lhu	s8,10(sp)
    7574:	006c0c13          	addi	s8,s8,6
    7578:	010c1c13          	slli	s8,s8,0x10
    757c:	010c5c13          	srli	s8,s8,0x10

00007580 <.L1349>:
    7580:	01811523          	sh	s8,10(sp)
    7584:	02a00c13          	li	s8,42
    7588:	00dc5463          	bge	s8,a3,7590 <.L1345>
    758c:	9b0fa06f          	j	173c <.L1328>

00007590 <.L1345>:
    7590:	fba00c13          	li	s8,-70
    7594:	0185c463          	blt	a1,s8,759c <.L1337>
    7598:	4f50106f          	j	928c <.L1338>

0000759c <.L1337>:
    759c:	25400c13          	li	s8,596
    75a0:	016c4463          	blt	s8,s6,75a8 <.L1337+0xc>
    75a4:	e09fa06f          	j	23ac <.L1357>
    75a8:	00c15c03          	lhu	s8,12(sp)
    75ac:	03600c93          	li	s9,54
    75b0:	005c0c13          	addi	s8,s8,5
    75b4:	01811623          	sh	s8,12(sp)
    75b8:	00fcd463          	bge	s9,a5,75c0 <.L1353>
    75bc:	e09fa06f          	j	23c4 <.L1356>

000075c0 <.L1353>:
    75c0:	00e15c03          	lhu	s8,14(sp)
    75c4:	ff8c0c13          	addi	s8,s8,-8
    75c8:	010c1c13          	slli	s8,s8,0x10
    75cc:	410c5c13          	srai	s8,s8,0x10
    75d0:	e1dfa06f          	j	23ec <.L1366>

000075d4 <.L1492>:
    75d4:	f4200c13          	li	s8,-190
    75d8:	0182c463          	blt	t0,s8,75e0 <.L1492+0xc>
    75dc:	2890306f          	j	b064 <.L1498>
    75e0:	00e15c03          	lhu	s8,14(sp)
    75e4:	014c0c13          	addi	s8,s8,20
    75e8:	01811723          	sh	s8,14(sp)
    75ec:	addfc06f          	j	40c8 <.L1497>

000075f0 <.L2825>:
    75f0:	03b00513          	li	a0,59
    75f4:	c8f54ce3          	blt	a0,a5,728c <.L2666>
    75f8:	00c15503          	lhu	a0,12(sp)
    75fc:	02800e93          	li	t4,40
    7600:	00450513          	addi	a0,a0,4
    7604:	00a11623          	sh	a0,12(sp)
    7608:	007ed463          	bge	t4,t2,7610 <.L2224>
    760c:	fbdfd06f          	j	55c8 <.L2209>

00007610 <.L2224>:
    7610:	ff968693          	addi	a3,a3,-7
    7614:	00d11723          	sh	a3,14(sp)
    7618:	b61fb06f          	j	3178 <.L2210>

0000761c <.L1471>:
    761c:	00c00c13          	li	s8,12
    7620:	01cc5463          	bge	s8,t3,7628 <.L1471+0xc>
    7624:	6990306f          	j	b4bc <.L2921>
    7628:	02700c13          	li	s8,39
    762c:	01dc5463          	bge	s8,t4,7634 <.L1471+0x18>
    7630:	3780406f          	j	b9a8 <.L1478>
    7634:	04900c13          	li	s8,73
    7638:	011c4463          	blt	s8,a7,7640 <.L1489>
    763c:	f75fa06f          	j	25b0 <.L1476>

00007640 <.L1489>:
    7640:	01c51c03          	lh	s8,28(a0)
    7644:	01804463          	bgtz	s8,764c <.L1489+0xc>
    7648:	f81fa06f          	j	25c8 <.L1487>
    764c:	00c15c03          	lhu	s8,12(sp)
    7650:	009c0c13          	addi	s8,s8,9
    7654:	01811623          	sh	s8,12(sp)
    7658:	f71fa06f          	j	25c8 <.L1487>

0000765c <.L2822>:
    765c:	00815b03          	lhu	s6,8(sp)
    7660:	03b00c13          	li	s8,59
    7664:	fffb0b13          	addi	s6,s6,-1
    7668:	01611423          	sh	s6,8(sp)
    766c:	00fc5463          	bge	s8,a5,7674 <.L2822+0x18>
    7670:	c38fc06f          	j	3aa8 <.L2146>
    7674:	33f00b13          	li	s6,831
    7678:	00eb4463          	blt	s6,a4,7680 <.L2149>
    767c:	9f1fb06f          	j	306c <.L2153>

00007680 <.L2149>:
    7680:	ddf00b13          	li	s6,-545
    7684:	016a4463          	blt	s4,s6,768c <.L2149+0xc>
    7688:	31c0206f          	j	99a4 <.L2155>
    768c:	00a15b03          	lhu	s6,10(sp)
    7690:	fffb0b13          	addi	s6,s6,-1
    7694:	01611523          	sh	s6,10(sp)

00007698 <.L2156>:
    7698:	08600b13          	li	s6,134
    769c:	00db5463          	bge	s6,a3,76a4 <.L2181>
    76a0:	a0dfb06f          	j	30ac <.L2164>

000076a4 <.L2181>:
    76a4:	00c15683          	lhu	a3,12(sp)
    76a8:	ffc68693          	addi	a3,a3,-4
    76ac:	00d11623          	sh	a3,12(sp)
    76b0:	9fdfb06f          	j	30ac <.L2164>

000076b4 <.L2202>:
    76b4:	3fb00513          	li	a0,1019
    76b8:	00e55463          	bge	a0,a4,76c0 <.L2202+0xc>
    76bc:	1390306f          	j	aff4 <.L2204>
    76c0:	00a15503          	lhu	a0,10(sp)
    76c4:	ff850513          	addi	a0,a0,-8
    76c8:	01051513          	slli	a0,a0,0x10
    76cc:	41055513          	srai	a0,a0,0x10
    76d0:	a59fb06f          	j	3128 <.L2196>

000076d4 <.L2123>:
    76d4:	00c15b03          	lhu	s6,12(sp)
    76d8:	02600c13          	li	s8,38
    76dc:	002b0b13          	addi	s6,s6,2
    76e0:	01611623          	sh	s6,12(sp)
    76e4:	00dc5463          	bge	s8,a3,76ec <.L2123+0x18>
    76e8:	cfdfc06f          	j	43e4 <.L2128>
    76ec:	01300b13          	li	s6,19
    76f0:	7edb44e3          	blt	s6,a3,86d8 <.L2127>

000076f4 <.L2662>:
    76f4:	00e15b03          	lhu	s6,14(sp)
    76f8:	ffcb0b13          	addi	s6,s6,-4
    76fc:	010b1b13          	slli	s6,s6,0x10
    7700:	410b5b13          	srai	s6,s6,0x10
    7704:	c55fd06f          	j	5358 <.L2138>

00007708 <.L80>:
    7708:	02651383          	lh	t2,38(a0)
    770c:	fe800e13          	li	t3,-24
    7710:	01c3c463          	blt	t2,t3,7718 <.L80+0x10>
    7714:	6250206f          	j	a538 <.L87>
    7718:	00815e03          	lhu	t3,8(sp)
    771c:	011e0e13          	addi	t3,t3,17
    7720:	010e1e13          	slli	t3,t3,0x10
    7724:	010e5e13          	srli	t3,t3,0x10
    7728:	af1f806f          	j	218 <.L2549>

0000772c <.L910>:
    772c:	ea700c13          	li	s8,-345
    7730:	0182c463          	blt	t0,s8,7738 <.L910+0xc>
    7734:	50c0306f          	j	ac40 <.L915>
    7738:	00a15c03          	lhu	s8,10(sp)
    773c:	007c0c13          	addi	s8,s8,7
    7740:	010c1c13          	slli	s8,s8,0x10
    7744:	410c5c13          	srai	s8,s8,0x10
    7748:	9d1f906f          	j	1118 <.L912>

0000774c <.L911>:
    774c:	00a15c03          	lhu	s8,10(sp)
    7750:	03300c93          	li	s9,51
    7754:	ff6c0c13          	addi	s8,s8,-10
    7758:	01811523          	sh	s8,10(sp)
    775c:	00fcd463          	bge	s9,a5,7764 <.L913>
    7760:	9c9f906f          	j	1128 <.L914>

00007764 <.L913>:
    7764:	00c15c03          	lhu	s8,12(sp)
    7768:	00085463          	bgez	a6,7770 <.L913+0xc>
    776c:	3510306f          	j	b2bc <.L2922>
    7770:	008c0c13          	addi	s8,s8,8
    7774:	01811623          	sh	s8,12(sp)
    7778:	b99fd06f          	j	5310 <.L928>

0000777c <.L499>:
    777c:	c2600c13          	li	s8,-986
    7780:	a185da63          	bge	a1,s8,6994 <.L507>
    7784:	00e15c03          	lhu	s8,14(sp)
    7788:	008c0c13          	addi	s8,s8,8
    778c:	010c1c13          	slli	s8,s8,0x10
    7790:	410c5c13          	srai	s8,s8,0x10
    7794:	ee5fd06f          	j	5678 <.L504>

00007798 <.L747>:
    7798:	0bb00c13          	li	s8,187
    779c:	cd6c5063          	bge	s8,s6,6c5c <.L2590>
    77a0:	00a15c03          	lhu	s8,10(sp)
    77a4:	004c0c13          	addi	s8,s8,4
    77a8:	010c1c13          	slli	s8,s8,0x10
    77ac:	410c5c13          	srai	s8,s8,0x10
    77b0:	ee0f906f          	j	e90 <.L745>

000077b4 <.L349>:
    77b4:	09900c13          	li	s8,153
    77b8:	01ec5463          	bge	s8,t5,77c0 <.L349+0xc>
    77bc:	12d0206f          	j	a0e8 <.L357>
    77c0:	00a15c03          	lhu	s8,10(sp)
    77c4:	17000c93          	li	s9,368
    77c8:	ff6c0c13          	addi	s8,s8,-10
    77cc:	01811523          	sh	s8,10(sp)
    77d0:	f2dcd063          	bge	s9,a3,6ef0 <.L354>

000077d4 <.L359>:
    77d4:	ef700c13          	li	s8,-265
    77d8:	0182d463          	bge	t0,s8,77e0 <.L359+0xc>
    77dc:	860f906f          	j	83c <.L355>
    77e0:	00c15c03          	lhu	s8,12(sp)
    77e4:	ff7c0c13          	addi	s8,s8,-9
    77e8:	010c1c13          	slli	s8,s8,0x10
    77ec:	410c5c13          	srai	s8,s8,0x10
    77f0:	85cf906f          	j	84c <.L352>

000077f4 <.L2096>:
    77f4:	e1500b13          	li	s6,-491
    77f8:	01645463          	bge	s0,s6,7800 <.L2096+0xc>
    77fc:	f68fb06f          	j	2f64 <.L2095>
    7800:	00e15b03          	lhu	s6,14(sp)
    7804:	ff7b0b13          	addi	s6,s6,-9
    7808:	01611723          	sh	s6,14(sp)
    780c:	f58fb06f          	j	2f64 <.L2095>

00007810 <.L2861>:
    7810:	e2c00b13          	li	s6,-468
    7814:	0162c463          	blt	t0,s6,781c <.L2861+0xc>
    7818:	3e80306f          	j	ac00 <.L2116>
    781c:	00a15b03          	lhu	s6,10(sp)
    7820:	25b00c13          	li	s8,603
    7824:	004b0b13          	addi	s6,s6,4
    7828:	01611523          	sh	s6,10(sp)
    782c:	00ec4463          	blt	s8,a4,7834 <.L2117>
    7830:	b85fc06f          	j	43b4 <.L2120>

00007834 <.L2117>:
    7834:	e9800b13          	li	s6,-360
    7838:	0165c463          	blt	a1,s6,7840 <.L2117+0xc>
    783c:	0e50306f          	j	b120 <.L2130>
    7840:	00c15b03          	lhu	s6,12(sp)
    7844:	fffb0b13          	addi	s6,s6,-1
    7848:	01611623          	sh	s6,12(sp)
    784c:	f9cfb06f          	j	2fe8 <.L2124>

00007850 <.L1012>:
    7850:	00a15c03          	lhu	s8,10(sp)
    7854:	005c0c13          	addi	s8,s8,5
    7858:	010c1c13          	slli	s8,s8,0x10
    785c:	410c5c13          	srai	s8,s8,0x10
    7860:	9f9f906f          	j	1258 <.L1007>

00007864 <.L1864>:
    7864:	e0800c13          	li	s8,-504
    7868:	01844463          	blt	s0,s8,7870 <.L1864+0xc>
    786c:	0c50306f          	j	b130 <.L1869>
    7870:	00e15c03          	lhu	s8,14(sp)
    7874:	002c0c13          	addi	s8,s8,2
    7878:	010c1c13          	slli	s8,s8,0x10
    787c:	010c5c13          	srli	s8,s8,0x10

00007880 <.L1870>:
    7880:	01811723          	sh	s8,14(sp)
    7884:	01f00c13          	li	s8,31
    7888:	013c5463          	bge	s8,s3,7890 <.L1870+0x10>
    788c:	c89fd06f          	j	5514 <.L1867>
    7890:	04600c13          	li	s8,70
    7894:	011c5463          	bge	s8,a7,789c <.L1870+0x1c>
    7898:	c75fd06f          	j	550c <.L1871>
    789c:	03300c13          	li	s8,51
    78a0:	011c4463          	blt	s8,a7,78a8 <.L1870+0x28>
    78a4:	c3dfd06f          	j	54e0 <.L1866>
    78a8:	00815c03          	lhu	s8,8(sp)
    78ac:	006c0c13          	addi	s8,s8,6
    78b0:	01811423          	sh	s8,8(sp)
    78b4:	c2dfd06f          	j	54e0 <.L1866>

000078b8 <.L655>:
    78b8:	01f00c13          	li	s8,31
    78bc:	010c4463          	blt	s8,a6,78c4 <.L655+0xc>
    78c0:	1b90206f          	j	a278 <.L2271>
    78c4:	00e15c03          	lhu	s8,14(sp)
    78c8:	0a900c93          	li	s9,169
    78cc:	009c0c13          	addi	s8,s8,9
    78d0:	01811723          	sh	s8,14(sp)
    78d4:	01ecd463          	bge	s9,t5,78dc <.L651>
    78d8:	de5fe06f          	j	66bc <.L2270>

000078dc <.L651>:
    78dc:	ff500c13          	li	s8,-11
    78e0:	01864463          	blt	a2,s8,78e8 <.L651+0xc>
    78e4:	48c0206f          	j	9d70 <.L658>
    78e8:	00815c03          	lhu	s8,8(sp)
    78ec:	009c0c13          	addi	s8,s8,9
    78f0:	01811423          	sh	s8,8(sp)
    78f4:	bf8f906f          	j	cec <.L649>

000078f8 <.L1785>:
    78f8:	f5c00c13          	li	s8,-164
    78fc:	01844463          	blt	s0,s8,7904 <.L1785+0xc>
    7900:	31d0206f          	j	a41c <.L1790>
    7904:	00815c03          	lhu	s8,8(sp)
    7908:	ffcc0c13          	addi	s8,s8,-4
    790c:	010c1c13          	slli	s8,s8,0x10
    7910:	010c5c13          	srli	s8,s8,0x10

00007914 <.L1791>:
    7914:	01811423          	sh	s8,8(sp)
    7918:	02e00c13          	li	s8,46
    791c:	01dc5463          	bge	s8,t4,7924 <.L1791+0x10>
    7920:	ff9fd06f          	j	5918 <.L1780>
    7924:	01700c13          	li	s8,23
    7928:	011c4463          	blt	s8,a7,7930 <.L1791+0x1c>
    792c:	92cfb06f          	j	2a58 <.L1783>
    7930:	ffa00c13          	li	s8,-6
    7934:	01865463          	bge	a2,s8,793c <.L1791+0x28>
    7938:	a78fd06f          	j	4bb0 <.L1789>
    793c:	00a15c03          	lhu	s8,10(sp)
    7940:	005c0c13          	addi	s8,s8,5
    7944:	010c1c13          	slli	s8,s8,0x10
    7948:	410c5c13          	srai	s8,s8,0x10
    794c:	928fb06f          	j	2a74 <.L1793>

00007950 <.L927>:
    7950:	02200c13          	li	s8,34
    7954:	013c5463          	bge	s8,s3,795c <.L927+0xc>
    7958:	4a80306f          	j	ae00 <.L2923>
    795c:	00c15c03          	lhu	s8,12(sp)
    7960:	009c0c13          	addi	s8,s8,9
    7964:	010c1c13          	slli	s8,s8,0x10
    7968:	410c5c13          	srai	s8,s8,0x10
    796c:	c58fa06f          	j	1dc4 <.L931>

00007970 <.L199>:
    7970:	00e15e03          	lhu	t3,14(sp)
    7974:	07a00c13          	li	s8,122
    7978:	ff7e0e13          	addi	t3,t3,-9
    797c:	01c11723          	sh	t3,14(sp)
    7980:	006c5463          	bge	s8,t1,7988 <.L196>
    7984:	f64fe06f          	j	60e8 <.L201>

00007988 <.L196>:
    7988:	01800e13          	li	t3,24
    798c:	010e5463          	bge	t3,a6,7994 <.L196+0xc>
    7990:	29c0306f          	j	ac2c <.L219>
    7994:	00815e03          	lhu	t3,8(sp)
    7998:	006e0e13          	addi	t3,t3,6
    799c:	010e1e13          	slli	t3,t3,0x10
    79a0:	410e5e13          	srai	t3,t3,0x10
    79a4:	f54fe06f          	j	60f8 <.L220>

000079a8 <.L854>:
    79a8:	00e15c03          	lhu	s8,14(sp)
    79ac:	003c0c13          	addi	s8,s8,3
    79b0:	01811723          	sh	s8,14(sp)
    79b4:	e5cf906f          	j	1010 <.L846>

000079b8 <.L2184>:
    79b8:	03c00693          	li	a3,60
    79bc:	00f6d463          	bge	a3,a5,79c4 <.L2184+0xc>
    79c0:	dd5fd06f          	j	5794 <.L2186>
    79c4:	00e15683          	lhu	a3,14(sp)
    79c8:	fff68693          	addi	a3,a3,-1
    79cc:	01069693          	slli	a3,a3,0x10
    79d0:	4106d693          	srai	a3,a3,0x10
    79d4:	ef4fb06f          	j	30c8 <.L2183>

000079d8 <.L1798>:
    79d8:	27600c13          	li	s8,630
    79dc:	009c5463          	bge	s8,s1,79e4 <.L1798+0xc>
    79e0:	6240306f          	j	b004 <.L1805>
    79e4:	00c15c03          	lhu	s8,12(sp)
    79e8:	ff9c0c13          	addi	s8,s8,-7
    79ec:	01811623          	sh	s8,12(sp)
    79f0:	8b8fb06f          	j	2aa8 <.L1808>

000079f4 <.L1235>:
    79f4:	04700c13          	li	s8,71
    79f8:	007c5463          	bge	s8,t2,7a00 <.L1235+0xc>
    79fc:	7b90106f          	j	99b4 <.L1243>
    7a00:	00c15c03          	lhu	s8,12(sp)
    7a04:	ffcc0c13          	addi	s8,s8,-4
    7a08:	010c1c13          	slli	s8,s8,0x10
    7a0c:	410c5c13          	srai	s8,s8,0x10
    7a10:	879fa06f          	j	2288 <.L1240>

00007a14 <.L625>:
    7a14:	00a15c03          	lhu	s8,10(sp)
    7a18:	08900c93          	li	s9,137
    7a1c:	fffc0c13          	addi	s8,s8,-1
    7a20:	01811523          	sh	s8,10(sp)
    7a24:	00dcc463          	blt	s9,a3,7a2c <.L2582>
    7a28:	c31fe06f          	j	6658 <.L626>

00007a2c <.L2582>:
    7a2c:	e9b00c13          	li	s8,-357
    7a30:	018ac463          	blt	s5,s8,7a38 <.L624>
    7a34:	0340106f          	j	8a68 <.L622>

00007a38 <.L624>:
    7a38:	00c15c03          	lhu	s8,12(sp)
    7a3c:	008c0c13          	addi	s8,s8,8
    7a40:	010c1c13          	slli	s8,s8,0x10
    7a44:	410c5c13          	srai	s8,s8,0x10
    7a48:	c39fe06f          	j	6680 <.L623>

00007a4c <.L1126>:
    7a4c:	00815c03          	lhu	s8,8(sp)
    7a50:	03300c93          	li	s9,51
    7a54:	fffc0c13          	addi	s8,s8,-1
    7a58:	01811423          	sh	s8,8(sp)
    7a5c:	01fcd463          	bge	s9,t6,7a64 <.L1128>
    7a60:	e7cfa06f          	j	20dc <.L1129>

00007a64 <.L1128>:
    7a64:	32100c13          	li	s8,801
    7a68:	00dc5463          	bge	s8,a3,7a70 <.L1128+0xc>
    7a6c:	4780306f          	j	aee4 <.L1134>
    7a70:	00a15c03          	lhu	s8,10(sp)
    7a74:	ff6c0c13          	addi	s8,s8,-10
    7a78:	010c1c13          	slli	s8,s8,0x10
    7a7c:	410c5c13          	srai	s8,s8,0x10
    7a80:	9e5f906f          	j	1464 <.L1133>

00007a84 <.L1203>:
    7a84:	f0100c13          	li	s8,-255
    7a88:	0182d463          	bge	t0,s8,7a90 <.L1203+0xc>
    7a8c:	c60fd06f          	j	4eec <.L1211>
    7a90:	00400c13          	li	s8,4
    7a94:	011c4463          	blt	s8,a7,7a9c <.L2606>
    7a98:	c6cfd06f          	j	4f04 <.L1209>

00007a9c <.L2606>:
    7a9c:	00e00c13          	li	s8,14
    7aa0:	01dc4463          	blt	s8,t4,7aa8 <.L1217>
    7aa4:	f08fc06f          	j	41ac <.L1218>

00007aa8 <.L1217>:
    7aa8:	0ac00c13          	li	s8,172
    7aac:	01ec5463          	bge	s8,t5,7ab4 <.L1219>
    7ab0:	f88fa06f          	j	2238 <.L1210>

00007ab4 <.L1219>:
    7ab4:	00815c03          	lhu	s8,8(sp)
    7ab8:	03500c93          	li	s9,53
    7abc:	007c0c13          	addi	s8,s8,7
    7ac0:	01811423          	sh	s8,8(sp)
    7ac4:	00ecc463          	blt	s9,a4,7acc <.L2607>
    7ac8:	af1f906f          	j	15b8 <.L1215>

00007acc <.L2607>:
    7acc:	0e100c13          	li	s8,225
    7ad0:	00dc4463          	blt	s8,a3,7ad8 <.L1221>
    7ad4:	f78fa06f          	j	224c <.L1220>

00007ad8 <.L1221>:
    7ad8:	00a15c03          	lhu	s8,10(sp)
    7adc:	ffbc0c13          	addi	s8,s8,-5
    7ae0:	01811523          	sh	s8,10(sp)

00007ae4 <.L1234>:
    7ae4:	0c100c13          	li	s8,193
    7ae8:	009c4463          	blt	s8,s1,7af0 <.L1234+0xc>
    7aec:	af5f906f          	j	15e0 <.L1228>
    7af0:	f6900c13          	li	s8,-151
    7af4:	f185d0e3          	bge	a1,s8,79f4 <.L1235>
    7af8:	27a00c13          	li	s8,634
    7afc:	00dc4463          	blt	s8,a3,7b04 <.L1234+0x20>
    7b00:	f78fa06f          	j	2278 <.L1230>
    7b04:	00c15c03          	lhu	s8,12(sp)
    7b08:	004c0c13          	addi	s8,s8,4
    7b0c:	010c1c13          	slli	s8,s8,0x10
    7b10:	410c5c13          	srai	s8,s8,0x10
    7b14:	f74fa06f          	j	2288 <.L1240>

00007b18 <.L1940>:
    7b18:	fd600c13          	li	s8,-42
    7b1c:	01874463          	blt	a4,s8,7b24 <.L1940+0xc>
    7b20:	4f40306f          	j	b014 <.L1942>
    7b24:	00815c03          	lhu	s8,8(sp)
    7b28:	005c0c13          	addi	s8,s8,5
    7b2c:	01811423          	sh	s8,8(sp)
    7b30:	9bcfb06f          	j	2cec <.L1941>

00007b34 <.L1562>:
    7b34:	4b400c13          	li	s8,1204
    7b38:	00ec5463          	bge	s8,a4,7b40 <.L1562+0xc>
    7b3c:	36c0306f          	j	aea8 <.L1566>
    7b40:	00a15c03          	lhu	s8,10(sp)
    7b44:	10b00c93          	li	s9,267
    7b48:	ffdc0c13          	addi	s8,s8,-3
    7b4c:	01811523          	sh	s8,10(sp)
    7b50:	00dcd463          	bge	s9,a3,7b58 <.L1562+0x24>
    7b54:	bc5fa06f          	j	2718 <.L1568>
    7b58:	06a00c13          	li	s8,106
    7b5c:	02ec5263          	bge	s8,a4,7b80 <.L1573>

00007b60 <.L1560>:
    7b60:	02800c13          	li	s8,40
    7b64:	006c5463          	bge	s8,t1,7b6c <.L1560+0xc>
    7b68:	35c0306f          	j	aec4 <.L1575>
    7b6c:	00c15c03          	lhu	s8,12(sp)
    7b70:	005c0c13          	addi	s8,s8,5
    7b74:	010c1c13          	slli	s8,s8,0x10
    7b78:	410c5c13          	srai	s8,s8,0x10
    7b7c:	bc5fa06f          	j	2740 <.L1574>

00007b80 <.L1573>:
    7b80:	00c15c03          	lhu	s8,12(sp)
    7b84:	004c0c13          	addi	s8,s8,4
    7b88:	010c1c13          	slli	s8,s8,0x10
    7b8c:	410c5c13          	srai	s8,s8,0x10
    7b90:	bb1fa06f          	j	2740 <.L1574>

00007b94 <.L1641>:
    7b94:	01200c13          	li	s8,18
    7b98:	01dc4463          	blt	s8,t4,7ba0 <.L1641+0xc>
    7b9c:	fb9fe06f          	j	6b54 <.L2924>
    7ba0:	00a15c03          	lhu	s8,10(sp)
    7ba4:	00100c93          	li	s9,1
    7ba8:	002c0c13          	addi	s8,s8,2
    7bac:	01811523          	sh	s8,10(sp)
    7bb0:	01ccc463          	blt	s9,t3,7bb8 <.L1680>
    7bb4:	3380406f          	j	beec <.L1679>

00007bb8 <.L1680>:
    7bb8:	02000c13          	li	s8,32
    7bbc:	01dc4463          	blt	s8,t4,7bc4 <.L1680+0xc>
    7bc0:	cc1fa06f          	j	2880 <.L1659>
    7bc4:	00c15c03          	lhu	s8,12(sp)
    7bc8:	ff600c93          	li	s9,-10
    7bcc:	ffbc0c13          	addi	s8,s8,-5
    7bd0:	01811623          	sh	s8,12(sp)
    7bd4:	01965463          	bge	a2,s9,7bdc <.L1680+0x24>
    7bd8:	ccdfa06f          	j	28a4 <.L1682>
    7bdc:	d04fd06f          	j	50e0 <.L1683>

00007be0 <.L1225>:
    7be0:	ffe00c13          	li	s8,-2
    7be4:	f18650e3          	bge	a2,s8,7ae4 <.L1234>
    7be8:	00a15c03          	lhu	s8,10(sp)
    7bec:	ff7c0c13          	addi	s8,s8,-9
    7bf0:	01811523          	sh	s8,10(sp)
    7bf4:	ef1ff06f          	j	7ae4 <.L1234>

00007bf8 <.L2869>:
    7bf8:	00700c13          	li	s8,7
    7bfc:	01cc5463          	bge	s8,t3,7c04 <.L2869+0xc>
    7c00:	73d0106f          	j	9b3c <.L1263>
    7c04:	00815c03          	lhu	s8,8(sp)
    7c08:	08c00c93          	li	s9,140
    7c0c:	ffdc0c13          	addi	s8,s8,-3
    7c10:	01811423          	sh	s8,8(sp)
    7c14:	006cc463          	blt	s9,t1,7c1c <.L2869+0x24>
    7c18:	ec4fa06f          	j	22dc <.L1250>
    7c1c:	01700c13          	li	s8,23
    7c20:	01dc5463          	bge	s8,t4,7c28 <.L2869+0x30>
    7c24:	0d00406f          	j	bcf4 <.L2925>
    7c28:	03300c13          	li	s8,51
    7c2c:	00fc4463          	blt	s8,a5,7c34 <.L2869+0x3c>
    7c30:	a2dfc06f          	j	465c <.L2734>
    7c34:	a7df906f          	j	16b0 <.L1266>

00007c38 <.L1542>:
    7c38:	02600c13          	li	s8,38
    7c3c:	007c5463          	bge	s8,t2,7c44 <.L1542+0xc>
    7c40:	7c00206f          	j	a400 <.L1546>
    7c44:	00c15c03          	lhu	s8,12(sp)
    7c48:	01800c93          	li	s9,24
    7c4c:	003c0c13          	addi	s8,s8,3
    7c50:	01811623          	sh	s8,12(sp)
    7c54:	010cd463          	bge	s9,a6,7c5c <.L1537>
    7c58:	82cfc06f          	j	3c84 <.L1545>

00007c5c <.L1537>:
    7c5c:	12700c13          	li	s8,295
    7c60:	e96c5e63          	bge	s8,s6,72fc <.L1547>

00007c64 <.L1535>:
    7c64:	00e15c03          	lhu	s8,14(sp)
    7c68:	ffcc0c13          	addi	s8,s8,-4
    7c6c:	01811723          	sh	s8,14(sp)
    7c70:	a35fa06f          	j	26a4 <.L1539>

00007c74 <.L1898>:
    7c74:	1a500c13          	li	s8,421
    7c78:	007c5463          	bge	s8,t2,7c80 <.L1898+0xc>
    7c7c:	d5dfc06f          	j	49d8 <.L1899>
    7c80:	00e15c03          	lhu	s8,14(sp)
    7c84:	001c0c13          	addi	s8,s8,1
    7c88:	010c1c13          	slli	s8,s8,0x10
    7c8c:	410c5c13          	srai	s8,s8,0x10
    7c90:	f79fa06f          	j	2c08 <.L1897>

00007c94 <.L2871>:
    7c94:	ff600c13          	li	s8,-10
    7c98:	01874463          	blt	a4,s8,7ca0 <.L2871+0xc>
    7c9c:	1690206f          	j	a604 <.L1397>
    7ca0:	00a15c03          	lhu	s8,10(sp)
    7ca4:	00100c93          	li	s9,1
    7ca8:	002c0c13          	addi	s8,s8,2
    7cac:	01811523          	sh	s8,10(sp)
    7cb0:	01ccd463          	bge	s9,t3,7cb8 <.L2871+0x24>
    7cb4:	fa4fa06f          	j	2458 <.L1396>
    7cb8:	01100c13          	li	s8,17
    7cbc:	691c54e3          	bge	s8,a7,8b44 <.L1395>

00007cc0 <.L1405>:
    7cc0:	00c15c03          	lhu	s8,12(sp)
    7cc4:	03c00c93          	li	s9,60
    7cc8:	004c0c13          	addi	s8,s8,4
    7ccc:	01811623          	sh	s8,12(sp)
    7cd0:	00fcc463          	blt	s9,a5,7cd8 <.L1405+0x18>
    7cd4:	a94fc06f          	j	3f68 <.L1403>
    7cd8:	0a100c13          	li	s8,161
    7cdc:	007c4463          	blt	s8,t2,7ce4 <.L1405+0x24>
    7ce0:	1400406f          	j	be20 <.L1407>
    7ce4:	01f00c13          	li	s8,31
    7ce8:	013c4463          	blt	s8,s3,7cf0 <.L1409>
    7cec:	fccfa06f          	j	24b8 <.L1408>

00007cf0 <.L1409>:
    7cf0:	00815c03          	lhu	s8,8(sp)
    7cf4:	ff8c0c13          	addi	s8,s8,-8
    7cf8:	01811423          	sh	s8,8(sp)
    7cfc:	fd8fa06f          	j	24d4 <.L1424>

00007d00 <.L2611>:
    7d00:	00c15c03          	lhu	s8,12(sp)
    7d04:	ff8c0c13          	addi	s8,s8,-8
    7d08:	010c1c13          	slli	s8,s8,0x10
    7d0c:	410c5c13          	srai	s8,s8,0x10
    7d10:	01811623          	sh	s8,12(sp)
    7d14:	f3900c13          	li	s8,-199
    7d18:	018a4463          	blt	s4,s8,7d20 <.L2614>
    7d1c:	971fc06f          	j	468c <.L1299>

00007d20 <.L2614>:
    7d20:	00e15c03          	lhu	s8,14(sp)
    7d24:	ffe00c93          	li	s9,-2
    7d28:	ff8c0c13          	addi	s8,s8,-8
    7d2c:	01811723          	sh	s8,14(sp)
    7d30:	01985463          	bge	a6,s9,7d38 <.L2614+0x18>
    7d34:	9c1f906f          	j	16f4 <.L1300>
    7d38:	979fc06f          	j	46b0 <.L1301>

00007d3c <.L2802>:
    7d3c:	ea700c13          	li	s8,-345
    7d40:	018a4463          	blt	s4,s8,7d48 <.L2802+0xc>
    7d44:	6ec0206f          	j	a430 <.L1285>
    7d48:	00a15c03          	lhu	s8,10(sp)
    7d4c:	03300c93          	li	s9,51
    7d50:	001c0c13          	addi	s8,s8,1
    7d54:	01811523          	sh	s8,10(sp)
    7d58:	00fcd463          	bge	s9,a5,7d60 <.L2802+0x24>
    7d5c:	fe1fd06f          	j	5d3c <.L1284>
    7d60:	00300c13          	li	s8,3
    7d64:	010c4463          	blt	s8,a6,7d6c <.L1291>
    7d68:	7a40106f          	j	950c <.L2926>

00007d6c <.L1291>:
    7d6c:	00c15c03          	lhu	s8,12(sp)
    7d70:	f3900c93          	li	s9,-199
    7d74:	007c0c13          	addi	s8,s8,7
    7d78:	01811623          	sh	s8,12(sp)
    7d7c:	019a5463          	bge	s4,s9,7d84 <.L1291+0x18>
    7d80:	3990306f          	j	b918 <.L2927>
    7d84:	01800c13          	li	s8,24
    7d88:	012c5463          	bge	s8,s2,7d90 <.L2615>
    7d8c:	4cd0306f          	j	ba58 <.L1313>

00007d90 <.L2615>:
    7d90:	00e15c03          	lhu	s8,14(sp)
    7d94:	ff8c0c13          	addi	s8,s8,-8
    7d98:	01811723          	sh	s8,14(sp)
    7d9c:	915fc06f          	j	46b0 <.L1301>

00007da0 <.L410>:
    7da0:	00c15c03          	lhu	s8,12(sp)
    7da4:	008c0c13          	addi	s8,s8,8
    7da8:	010c1c13          	slli	s8,s8,0x10
    7dac:	410c5c13          	srai	s8,s8,0x10
    7db0:	b69f806f          	j	918 <.L403>

00007db4 <.L408>:
    7db4:	03b00c13          	li	s8,59
    7db8:	feec54e3          	bge	s8,a4,7da0 <.L410>
    7dbc:	00c15c03          	lhu	s8,12(sp)
    7dc0:	ff7c0c13          	addi	s8,s8,-9
    7dc4:	010c1c13          	slli	s8,s8,0x10
    7dc8:	410c5c13          	srai	s8,s8,0x10
    7dcc:	b4df806f          	j	918 <.L403>

00007dd0 <.L1326>:
    7dd0:	02500c13          	li	s8,37
    7dd4:	01cc5463          	bge	s8,t3,7ddc <.L1326+0xc>
    7dd8:	9b8fe06f          	j	5f90 <.L1351>
    7ddc:	00a15c03          	lhu	s8,10(sp)
    7de0:	02a00c93          	li	s9,42
    7de4:	009c0c13          	addi	s8,s8,9
    7de8:	01811523          	sh	s8,10(sp)
    7dec:	00dcd463          	bge	s9,a3,7df4 <.L1326+0x24>
    7df0:	94df906f          	j	173c <.L1328>
    7df4:	fba00c13          	li	s8,-70
    7df8:	fb85c263          	blt	a1,s8,759c <.L1337>

00007dfc <.L1359>:
    7dfc:	00c15c03          	lhu	s8,12(sp)
    7e00:	03600c93          	li	s9,54
    7e04:	00dc0c13          	addi	s8,s8,13
    7e08:	01811623          	sh	s8,12(sp)
    7e0c:	fafcda63          	bge	s9,a5,75c0 <.L1353>
    7e10:	db4fa06f          	j	23c4 <.L1356>

00007e14 <.L688>:
    7e14:	1ab00c13          	li	s8,427
    7e18:	007c5463          	bge	s8,t2,7e20 <.L688+0xc>
    7e1c:	c15f906f          	j	1a30 <.L2268>
    7e20:	00a15c03          	lhu	s8,10(sp)
    7e24:	ff7c0c13          	addi	s8,s8,-9
    7e28:	01811523          	sh	s8,10(sp)
    7e2c:	01000c13          	li	s8,16
    7e30:	01dc4463          	blt	s8,t4,7e38 <.L704>
    7e34:	c09f906f          	j	1a3c <.L2928>

00007e38 <.L704>:
    7e38:	eb900c13          	li	s8,-327
    7e3c:	018a4463          	blt	s4,s8,7e44 <.L704+0xc>
    7e40:	6f50106f          	j	9d34 <.L707>
    7e44:	00c15c03          	lhu	s8,12(sp)
    7e48:	002c0c13          	addi	s8,s8,2
    7e4c:	010c1c13          	slli	s8,s8,0x10
    7e50:	410c5c13          	srai	s8,s8,0x10
    7e54:	fc1f806f          	j	e14 <.L706>

00007e58 <.L1110>:
    7e58:	00c15c03          	lhu	s8,12(sp)
    7e5c:	e4a00c93          	li	s9,-438
    7e60:	ffac0c13          	addi	s8,s8,-6
    7e64:	01811623          	sh	s8,12(sp)
    7e68:	0192c463          	blt	t0,s9,7e70 <.L1110+0x18>
    7e6c:	a10fa06f          	j	207c <.L1112>
    7e70:	d68fd06f          	j	53d8 <.L1115>

00007e74 <.L1103>:
    7e74:	1a300c13          	li	s8,419
    7e78:	007c5463          	bge	s8,t2,7e80 <.L1103+0xc>
    7e7c:	d58f906f          	j	13d4 <.L1108>
    7e80:	00c15c03          	lhu	s8,12(sp)
    7e84:	ff7c0c13          	addi	s8,s8,-9
    7e88:	01811623          	sh	s8,12(sp)
    7e8c:	d48f906f          	j	13d4 <.L1108>

00007e90 <.L1369>:
    7e90:	fa100c13          	li	s8,-95
    7e94:	01828463          	beq	t0,s8,7e9c <.L1369+0xc>
    7e98:	945fc06f          	j	47dc <.L1376>
    7e9c:	00815c03          	lhu	s8,8(sp)
    7ea0:	03900c93          	li	s9,57
    7ea4:	feac0c13          	addi	s8,s8,-22
    7ea8:	01811423          	sh	s8,8(sp)
    7eac:	006cd463          	bge	s9,t1,7eb4 <.L1369+0x24>
    7eb0:	88cfc06f          	j	3f3c <.L2620>
    7eb4:	93dfc06f          	j	47f0 <.L1372>

00007eb8 <.L1238>:
    7eb8:	fa800c13          	li	s8,-88
    7ebc:	01844463          	blt	s0,s8,7ec4 <.L1238+0xc>
    7ec0:	3d50106f          	j	9a94 <.L1241>
    7ec4:	00c15c03          	lhu	s8,12(sp)
    7ec8:	016c0c13          	addi	s8,s8,22
    7ecc:	010c1c13          	slli	s8,s8,0x10
    7ed0:	410c5c13          	srai	s8,s8,0x10
    7ed4:	bb4fa06f          	j	2288 <.L1240>

00007ed8 <.L393>:
    7ed8:	16600c13          	li	s8,358
    7edc:	007c5463          	bge	s8,t2,7ee4 <.L393+0xc>
    7ee0:	4950106f          	j	9b74 <.L396>
    7ee4:	00815c03          	lhu	s8,8(sp)
    7ee8:	ffec0c13          	addi	s8,s8,-2
    7eec:	010c1c13          	slli	s8,s8,0x10
    7ef0:	410c5c13          	srai	s8,s8,0x10
    7ef4:	01811423          	sh	s8,8(sp)
    7ef8:	0b500c13          	li	s8,181
    7efc:	006c4463          	blt	s8,t1,7f04 <.L397>
    7f00:	cbcfb06f          	j	33bc <.L2929>

00007f04 <.L397>:
    7f04:	e2700c13          	li	s8,-473
    7f08:	01844463          	blt	s0,s8,7f10 <.L397+0xc>
    7f0c:	981fe06f          	j	688c <.L386>
    7f10:	36200c13          	li	s8,866
    7f14:	01ec4463          	blt	s8,t5,7f1c <.L397+0x18>
    7f18:	925fe06f          	j	683c <.L389>
    7f1c:	00a15c03          	lhu	s8,10(sp)
    7f20:	009c0c13          	addi	s8,s8,9
    7f24:	010c1c13          	slli	s8,s8,0x10
    7f28:	410c5c13          	srai	s8,s8,0x10
    7f2c:	9b5f806f          	j	8e0 <.L383>

00007f30 <.L1706>:
    7f30:	00815c03          	lhu	s8,8(sp)
    7f34:	03b00c93          	li	s9,59
    7f38:	ff8c0c13          	addi	s8,s8,-8
    7f3c:	01811423          	sh	s8,8(sp)
    7f40:	00fcc463          	blt	s9,a5,7f48 <.L1708>
    7f44:	870fd06f          	j	4fb4 <.L1712>

00007f48 <.L1708>:
    7f48:	f0100c13          	li	s8,-255
    7f4c:	018ac463          	blt	s5,s8,7f54 <.L1708+0xc>
    7f50:	3810106f          	j	9ad0 <.L1724>
    7f54:	00a15c03          	lhu	s8,10(sp)
    7f58:	003c0c13          	addi	s8,s8,3
    7f5c:	010c1c13          	slli	s8,s8,0x10
    7f60:	410c5c13          	srai	s8,s8,0x10
    7f64:	9b9fa06f          	j	291c <.L1721>

00007f68 <.L1146>:
    7f68:	f0600c13          	li	s8,-250
    7f6c:	018ac463          	blt	s5,s8,7f74 <.L1146+0xc>
    7f70:	7680106f          	j	96d8 <.L1149>
    7f74:	00e15c03          	lhu	s8,14(sp)
    7f78:	ffac0c13          	addi	s8,s8,-6
    7f7c:	010c1c13          	slli	s8,s8,0x10
    7f80:	410c5c13          	srai	s8,s8,0x10
    7f84:	d48f906f          	j	14cc <.L1148>

00007f88 <.L1714>:
    7f88:	25b00c13          	li	s8,603
    7f8c:	00ec5463          	bge	s8,a4,7f94 <.L1714+0xc>
    7f90:	4400206f          	j	a3d0 <.L1717>
    7f94:	00815c03          	lhu	s8,8(sp)
    7f98:	001c0c13          	addi	s8,s8,1
    7f9c:	010c1c13          	slli	s8,s8,0x10
    7fa0:	010c5c13          	srli	s8,s8,0x10

00007fa4 <.L1718>:
    7fa4:	01811423          	sh	s8,8(sp)
    7fa8:	ec100c13          	li	s8,-319
    7fac:	f9844ee3          	blt	s0,s8,7f48 <.L1708>
    7fb0:	07500c13          	li	s8,117
    7fb4:	00dc5463          	bge	s8,a3,7fbc <.L1718+0x18>
    7fb8:	db5fc06f          	j	4d6c <.L1725>
    7fbc:	00a15c03          	lhu	s8,10(sp)
    7fc0:	fffc0c13          	addi	s8,s8,-1
    7fc4:	010c1c13          	slli	s8,s8,0x10
    7fc8:	410c5c13          	srai	s8,s8,0x10
    7fcc:	951fa06f          	j	291c <.L1721>

00007fd0 <.L2014>:
    7fd0:	00e15c03          	lhu	s8,14(sp)
    7fd4:	001c0c13          	addi	s8,s8,1
    7fd8:	010c1c13          	slli	s8,s8,0x10
    7fdc:	410c5c13          	srai	s8,s8,0x10
    7fe0:	e35fa06f          	j	2e14 <.L2015>

00007fe4 <.L2020>:
    7fe4:	00815c83          	lhu	s9,8(sp)
    7fe8:	0f000d13          	li	s10,240
    7fec:	002c8c93          	addi	s9,s9,2
    7ff0:	01911423          	sh	s9,8(sp)
    7ff4:	006d4463          	blt	s10,t1,7ffc <.L2020+0x18>
    7ff8:	a5cfc06f          	j	4254 <.L2029>
    7ffc:	f5200c93          	li	s9,-174
    8000:	0595d863          	bge	a1,s9,8050 <.L2026>
    8004:	00a15c83          	lhu	s9,10(sp)
    8008:	01500d13          	li	s10,21
    800c:	004c8c93          	addi	s9,s9,4
    8010:	01911523          	sh	s9,10(sp)
    8014:	010d5463          	bge	s10,a6,801c <.L2040>
    8018:	5f10106f          	j	9e08 <.L2930>

0000801c <.L2040>:
    801c:	00c15c03          	lhu	s8,12(sp)
    8020:	ffbc0c13          	addi	s8,s8,-5
    8024:	010c1c13          	slli	s8,s8,0x10
    8028:	410c5c13          	srai	s8,s8,0x10
    802c:	e69fa06f          	j	2e94 <.L2043>

00008030 <.L2027>:
    8030:	01c51c83          	lh	s9,28(a0)
    8034:	03400c13          	li	s8,52
    8038:	019c4463          	blt	s8,s9,8040 <.L2028>
    803c:	e01fa06f          	j	2e3c <.L2021>

00008040 <.L2028>:
    8040:	00815c03          	lhu	s8,8(sp)
    8044:	005c0c13          	addi	s8,s8,5
    8048:	01811423          	sh	s8,8(sp)
    804c:	df1fa06f          	j	2e3c <.L2021>

00008050 <.L2026>:
    8050:	21200c13          	li	s8,530
    8054:	006c5463          	bge	s8,t1,805c <.L2026+0xc>
    8058:	3540206f          	j	a3ac <.L2042>
    805c:	00a15c03          	lhu	s8,10(sp)
    8060:	ff8c0c13          	addi	s8,s8,-8
    8064:	01811523          	sh	s8,10(sp)
    8068:	bc0fd06f          	j	5428 <.L2037>

0000806c <.L2792>:
    806c:	0b900c13          	li	s8,185
    8070:	012c5463          	bge	s8,s2,8078 <.L2792+0xc>
    8074:	cf1f906f          	j	1d64 <.L907>
    8078:	864f906f          	j	10dc <.L2595>

0000807c <.L2016>:
    807c:	01600c13          	li	s8,22
    8080:	010c5463          	bge	s8,a6,8088 <.L2016+0xc>
    8084:	2250106f          	j	9aa8 <.L2018>
    8088:	00e15c03          	lhu	s8,14(sp)
    808c:	fffc0c13          	addi	s8,s8,-1
    8090:	010c1c13          	slli	s8,s8,0x10
    8094:	410c5c13          	srai	s8,s8,0x10
    8098:	d7dfa06f          	j	2e14 <.L2015>

0000809c <.L2009>:
    809c:	00c15c03          	lhu	s8,12(sp)
    80a0:	006c0c13          	addi	s8,s8,6
    80a4:	01811623          	sh	s8,12(sp)
    80a8:	d45fa06f          	j	2dec <.L2010>

000080ac <.L1876>:
    80ac:	ea700c13          	li	s8,-345
    80b0:	0182c463          	blt	t0,s8,80b8 <.L1876+0xc>
    80b4:	b09fa06f          	j	2bbc <.L1880>
    80b8:	00a15c03          	lhu	s8,10(sp)
    80bc:	007c0c13          	addi	s8,s8,7
    80c0:	01811523          	sh	s8,10(sp)
    80c4:	af9fa06f          	j	2bbc <.L1880>

000080c8 <.L2880>:
    80c8:	3b500c13          	li	s8,949
    80cc:	00ec5463          	bge	s8,a4,80d4 <.L2880+0xc>
    80d0:	8ecfc06f          	j	41bc <.L2004>
    80d4:	00a15c03          	lhu	s8,10(sp)
    80d8:	ff8c0c13          	addi	s8,s8,-8
    80dc:	01811523          	sh	s8,10(sp)
    80e0:	cddfa06f          	j	2dbc <.L1999>

000080e4 <.L1589>:
    80e4:	00815c83          	lhu	s9,8(sp)
    80e8:	ff8c8c93          	addi	s9,s9,-8
    80ec:	01911423          	sh	s9,8(sp)
    80f0:	eb0fa06f          	j	27a0 <.L1584>

000080f4 <.L1943>:
    80f4:	04100c13          	li	s8,65
    80f8:	00dc5463          	bge	s8,a3,8100 <.L1943+0xc>
    80fc:	4e10206f          	j	addc <.L1944>
    8100:	00815c03          	lhu	s8,8(sp)
    8104:	006c0c13          	addi	s8,s8,6
    8108:	01811423          	sh	s8,8(sp)
    810c:	be1fa06f          	j	2cec <.L1941>

00008110 <.L1583>:
    8110:	e0d00c93          	li	s9,-499
    8114:	539ad863          	bge	s5,s9,8644 <.L1585>
    8118:	00815c83          	lhu	s9,8(sp)
    811c:	e2c00d13          	li	s10,-468
    8120:	ffbc8c93          	addi	s9,s9,-5
    8124:	01911423          	sh	s9,8(sp)
    8128:	01a2d463          	bge	t0,s10,8130 <.L1586>
    812c:	c4dfb06f          	j	3d78 <.L1590>

00008130 <.L1586>:
    8130:	fff00c13          	li	s8,-1
    8134:	01865463          	bge	a2,s8,813c <.L1586+0xc>
    8138:	1dc0306f          	j	b314 <.L2931>
    813c:	00a15c03          	lhu	s8,10(sp)
    8140:	03c00c93          	li	s9,60
    8144:	004c0c13          	addi	s8,s8,4
    8148:	01811523          	sh	s8,10(sp)
    814c:	00fcd463          	bge	s9,a5,8154 <.L1586+0x24>
    8150:	e94fa06f          	j	27e4 <.L1615>
    8154:	00f00c13          	li	s8,15
    8158:	030c4663          	blt	s8,a6,8184 <.L1616>

0000815c <.L1606>:
    815c:	f6300c13          	li	s8,-157
    8160:	0185c463          	blt	a1,s8,8168 <.L1606+0xc>
    8164:	0d00306f          	j	b234 <.L2932>
    8168:	00c15c03          	lhu	s8,12(sp)
    816c:	00300c93          	li	s9,3
    8170:	ffcc0c13          	addi	s8,s8,-4
    8174:	01811623          	sh	s8,12(sp)
    8178:	01ccc463          	blt	s9,t3,8180 <.L1606+0x24>
    817c:	c5dfb06f          	j	3dd8 <.L1621>
    8180:	89dfd06f          	j	5a1c <.L1620>

00008184 <.L1616>:
    8184:	00c15c03          	lhu	s8,12(sp)
    8188:	00300c93          	li	s9,3
    818c:	ff9c0c13          	addi	s8,s8,-7
    8190:	01811623          	sh	s8,12(sp)
    8194:	01ccc463          	blt	s9,t3,819c <.L1616+0x18>
    8198:	c41fb06f          	j	3dd8 <.L1621>
    819c:	881fd06f          	j	5a1c <.L1620>

000081a0 <.L42>:
    81a0:	f4100e13          	li	t3,-191
    81a4:	01c2c463          	blt	t0,t3,81ac <.L42+0xc>
    81a8:	0990106f          	j	9a40 <.L50>
    81ac:	00a15e03          	lhu	t3,10(sp)
    81b0:	014e0e13          	addi	t3,t3,20
    81b4:	010e1e13          	slli	t3,t3,0x10
    81b8:	410e5e13          	srai	t3,t3,0x10
    81bc:	fe5f706f          	j	1a0 <.L51>

000081c0 <.L2251>:
    81c0:	e1500793          	li	a5,-491
    81c4:	00f45463          	bge	s0,a5,81cc <.L2251+0xc>
    81c8:	850fb06f          	j	3218 <.L2250>
    81cc:	00e15783          	lhu	a5,14(sp)
    81d0:	ff778793          	addi	a5,a5,-9
    81d4:	00f11723          	sh	a5,14(sp)
    81d8:	840fb06f          	j	3218 <.L2250>

000081dc <.L1579>:
    81dc:	00e15c83          	lhu	s9,14(sp)
    81e0:	fffc8c93          	addi	s9,s9,-1
    81e4:	01911723          	sh	s9,14(sp)
    81e8:	d8cfa06f          	j	2774 <.L1580>

000081ec <.L1578>:
    81ec:	00e15c83          	lhu	s9,14(sp)
    81f0:	003c8c93          	addi	s9,s9,3
    81f4:	01911723          	sh	s9,14(sp)
    81f8:	d7cfa06f          	j	2774 <.L1580>

000081fc <.L1709>:
    81fc:	01c51c83          	lh	s9,28(a0)
    8200:	03500c13          	li	s8,53
    8204:	019c5463          	bge	s8,s9,820c <.L1709+0x10>
    8208:	4f10206f          	j	aef8 <.L1720>
    820c:	00a15c03          	lhu	s8,10(sp)
    8210:	001c0c13          	addi	s8,s8,1
    8214:	010c1c13          	slli	s8,s8,0x10
    8218:	410c5c13          	srai	s8,s8,0x10
    821c:	f00fa06f          	j	291c <.L1721>

00008220 <.L1958>:
    8220:	4afc5ae3          	bge	s8,a5,8ed4 <.L1950>
    8224:	daa00c13          	li	s8,-598
    8228:	018ad463          	bge	s5,s8,8230 <.L1958+0x10>
    822c:	7b40306f          	j	b9e0 <.L2933>
    8230:	f0000c13          	li	s8,-256
    8234:	0185c463          	blt	a1,s8,823c <.L1986>
    8238:	7b40306f          	j	b9ec <.L2654>

0000823c <.L1986>:
    823c:	00c15c03          	lhu	s8,12(sp)
    8240:	05800c93          	li	s9,88
    8244:	ffac0c13          	addi	s8,s8,-6
    8248:	01811623          	sh	s8,12(sp)
    824c:	009cd463          	bge	s9,s1,8254 <.L1982>
    8250:	b11fa06f          	j	2d60 <.L1984>

00008254 <.L1982>:
    8254:	f5300c13          	li	s8,-173
    8258:	01844463          	blt	s0,s8,8260 <.L1982+0xc>
    825c:	b1dfa06f          	j	2d78 <.L1968>
    8260:	00e15c03          	lhu	s8,14(sp)
    8264:	00ec0c13          	addi	s8,s8,14
    8268:	01811723          	sh	s8,14(sp)
    826c:	b0dfa06f          	j	2d78 <.L1968>

00008270 <.L2323>:
    8270:	02a51883          	lh	a7,42(a0)

00008274 <.L58>:
    8274:	df800e13          	li	t3,-520
    8278:	01cac463          	blt	s5,t3,8280 <.L58+0xc>
    827c:	af8fe06f          	j	6574 <.L64>
    8280:	00c15e03          	lhu	t3,12(sp)
    8284:	016e0e13          	addi	t3,t3,22
    8288:	010e1e13          	slli	t3,t3,0x10
    828c:	410e5e13          	srai	t3,t3,0x10
    8290:	f45f706f          	j	1d4 <.L65>

00008294 <.L1973>:
    8294:	03600c13          	li	s8,54
    8298:	00fc5463          	bge	s8,a5,82a0 <.L1973+0xc>
    829c:	6590306f          	j	c0f4 <.L1992>
    82a0:	00e15c03          	lhu	s8,14(sp)
    82a4:	16200c93          	li	s9,354
    82a8:	ff9c0c13          	addi	s8,s8,-7
    82ac:	01811723          	sh	s8,14(sp)
    82b0:	007cd463          	bge	s9,t2,82b8 <.L1969>
    82b4:	87dfc06f          	j	4b30 <.L1995>

000082b8 <.L1969>:
    82b8:	00815c03          	lhu	s8,8(sp)
    82bc:	02e00c93          	li	s9,46
    82c0:	ffec0c13          	addi	s8,s8,-2
    82c4:	01811423          	sh	s8,8(sp)
    82c8:	01dcc463          	blt	s9,t4,82d0 <.L1969+0x18>
    82cc:	889fc06f          	j	4b54 <.L1993>
    82d0:	03900c13          	li	s8,57
    82d4:	01fc5463          	bge	s8,t6,82dc <.L1998>
    82d8:	7580106f          	j	9a30 <.L2006>

000082dc <.L1998>:
    82dc:	00e00c13          	li	s8,14
    82e0:	010c5463          	bge	s8,a6,82e8 <.L1998+0xc>
    82e4:	889fc06f          	j	4b6c <.L2501>
    82e8:	00a15c03          	lhu	s8,10(sp)
    82ec:	004c0c13          	addi	s8,s8,4
    82f0:	01811523          	sh	s8,10(sp)
    82f4:	ac9fa06f          	j	2dbc <.L1999>

000082f8 <.L206>:
    82f8:	0fd00e13          	li	t3,253
    82fc:	00de5463          	bge	t3,a3,8304 <.L206+0xc>
    8300:	1c10106f          	j	9cc0 <.L212>
    8304:	00815e03          	lhu	t3,8(sp)
    8308:	08000c13          	li	s8,128
    830c:	ff8e0e13          	addi	t3,t3,-8
    8310:	01c11423          	sh	t3,8(sp)
    8314:	00ec4463          	blt	s8,a4,831c <.L206+0x24>
    8318:	b7cf806f          	j	694 <.L215>
    831c:	bc8fb06f          	j	36e4 <.L2557>

00008320 <.L277>:
    8320:	bba00e13          	li	t3,-1094
    8324:	01c5c463          	blt	a1,t3,832c <.L277+0xc>
    8328:	7440106f          	j	9a6c <.L279>
    832c:	00e15e03          	lhu	t3,14(sp)
    8330:	00de0e13          	addi	t3,t3,13
    8334:	010e1e13          	slli	t3,t3,0x10
    8338:	410e5e13          	srai	t3,t3,0x10
    833c:	bdcf806f          	j	718 <.L275>

00008340 <.L1581>:
    8340:	03600c93          	li	s9,54
    8344:	00fcd463          	bge	s9,a5,834c <.L1581+0xc>
    8348:	c2cfa06f          	j	2774 <.L1580>
    834c:	00e15c83          	lhu	s9,14(sp)
    8350:	ff8c8c93          	addi	s9,s9,-8
    8354:	01911723          	sh	s9,14(sp)
    8358:	c1cfa06f          	j	2774 <.L1580>

0000835c <.L1888>:
    835c:	0fe00c13          	li	s8,254
    8360:	00dc5463          	bge	s8,a3,8368 <.L1888+0xc>
    8364:	da5fc06f          	j	5108 <.L1890>
    8368:	00c15c03          	lhu	s8,12(sp)
    836c:	05800c93          	li	s9,88
    8370:	ffcc0c13          	addi	s8,s8,-4
    8374:	01811623          	sh	s8,12(sp)
    8378:	009cd463          	bge	s9,s1,8380 <.L1891>
    837c:	da5fc06f          	j	5120 <.L1884>

00008380 <.L1891>:
    8380:	f5300c13          	li	s8,-173
    8384:	01844463          	blt	s0,s8,838c <.L1885>
    8388:	e50fc06f          	j	49d8 <.L1899>

0000838c <.L1885>:
    838c:	00e15c03          	lhu	s8,14(sp)
    8390:	010c0c13          	addi	s8,s8,16
    8394:	010c1c13          	slli	s8,s8,0x10
    8398:	410c5c13          	srai	s8,s8,0x10
    839c:	86dfa06f          	j	2c08 <.L1897>

000083a0 <.L1558>:
    83a0:	00a15c03          	lhu	s8,10(sp)
    83a4:	10b00c93          	li	s9,267
    83a8:	005c0c13          	addi	s8,s8,5
    83ac:	01811523          	sh	s8,10(sp)
    83b0:	fadcd863          	bge	s9,a3,7b60 <.L1560>

000083b4 <.L2632>:
    83b4:	e8500c13          	li	s8,-379
    83b8:	038acc63          	blt	s5,s8,83f0 <.L1572>

000083bc <.L1569>:
    83bc:	00c15c03          	lhu	s8,12(sp)
    83c0:	ff6c0c13          	addi	s8,s8,-10
    83c4:	010c1c13          	slli	s8,s8,0x10
    83c8:	410c5c13          	srai	s8,s8,0x10
    83cc:	b74fa06f          	j	2740 <.L1574>

000083d0 <.L1551>:
    83d0:	05500c13          	li	s8,85
    83d4:	009c5463          	bge	s8,s1,83dc <.L1551+0xc>
    83d8:	1e10206f          	j	adb8 <.L1554>
    83dc:	00815c03          	lhu	s8,8(sp)
    83e0:	ffec0c13          	addi	s8,s8,-2
    83e4:	010c1c13          	slli	s8,s8,0x10
    83e8:	410c5c13          	srai	s8,s8,0x10
    83ec:	aecfa06f          	j	26d8 <.L1553>

000083f0 <.L1572>:
    83f0:	01c51c83          	lh	s9,28(a0)
    83f4:	00300c13          	li	s8,3
    83f8:	019c5463          	bge	s8,s9,8400 <.L1572+0x10>
    83fc:	79c0106f          	j	9b98 <.L2934>
    8400:	00c15c03          	lhu	s8,12(sp)
    8404:	ffcc0c13          	addi	s8,s8,-4
    8408:	010c1c13          	slli	s8,s8,0x10
    840c:	410c5c13          	srai	s8,s8,0x10
    8410:	b30fa06f          	j	2740 <.L1574>

00008414 <.L2885>:
    8414:	00c15c03          	lhu	s8,12(sp)
    8418:	02700c93          	li	s9,39
    841c:	ffbc0c13          	addi	s8,s8,-5
    8420:	01811623          	sh	s8,12(sp)
    8424:	007cd463          	bge	s9,t2,842c <.L1762>
    8428:	8c5fc06f          	j	4cec <.L1763>

0000842c <.L1762>:
    842c:	00e15c03          	lhu	s8,14(sp)
    8430:	002c0c13          	addi	s8,s8,2
    8434:	01811723          	sh	s8,14(sp)
    8438:	df0fa06f          	j	2a28 <.L1775>

0000843c <.L31>:
    843c:	00c51903          	lh	s2,12(a0)
    8440:	17c00893          	li	a7,380
    8444:	ff600813          	li	a6,-10
    8448:	0128c463          	blt	a7,s2,8450 <.L31+0x14>
    844c:	eedf706f          	j	338 <.L32>
    8450:	00700813          	li	a6,7
    8454:	ee5f706f          	j	338 <.L32>

00008458 <.L668>:
    8458:	fda00c13          	li	s8,-38
    845c:	01874463          	blt	a4,s8,8464 <.L668+0xc>
    8460:	00d0106f          	j	9c6c <.L671>
    8464:	00c15c03          	lhu	s8,12(sp)
    8468:	004c0c13          	addi	s8,s8,4
    846c:	01811623          	sh	s8,12(sp)
    8470:	8ddf806f          	j	d4c <.L670>

00008474 <.L145>:
    8474:	00d00e13          	li	t3,13
    8478:	013e5463          	bge	t3,s3,8480 <.L145+0xc>
    847c:	ad9fe06f          	j	6f54 <.L146>
    8480:	00815e03          	lhu	t3,8(sp)
    8484:	ffde0e13          	addi	t3,t3,-3
    8488:	010e1e13          	slli	t3,t3,0x10
    848c:	410e5e13          	srai	t3,t3,0x10
    8490:	968f806f          	j	5f8 <.L147>

00008494 <.L1915>:
    8494:	00a15c03          	lhu	s8,10(sp)
    8498:	fffc0c13          	addi	s8,s8,-1
    849c:	01811523          	sh	s8,10(sp)
    84a0:	fb8fa06f          	j	2c58 <.L1914>

000084a4 <.L1135>:
    84a4:	00200c13          	li	s8,2
    84a8:	01cc5463          	bge	s8,t3,84b0 <.L1135+0xc>
    84ac:	1800106f          	j	962c <.L1137>
    84b0:	00a15c03          	lhu	s8,10(sp)
    84b4:	004c0c13          	addi	s8,s8,4
    84b8:	010c1c13          	slli	s8,s8,0x10
    84bc:	410c5c13          	srai	s8,s8,0x10
    84c0:	fa5f806f          	j	1464 <.L1133>

000084c4 <.L1727>:
    84c4:	f6e00c13          	li	s8,-146
    84c8:	0185c463          	blt	a1,s8,84d0 <.L1727+0xc>
    84cc:	1110106f          	j	9ddc <.L1732>
    84d0:	00c15c03          	lhu	s8,12(sp)
    84d4:	ff8c0c13          	addi	s8,s8,-8
    84d8:	010c1c13          	slli	s8,s8,0x10
    84dc:	010c5c13          	srli	s8,s8,0x10
    84e0:	01811623          	sh	s8,12(sp)
    84e4:	c68fa06f          	j	294c <.L1731>

000084e8 <.L2768>:
    84e8:	00c15c03          	lhu	s8,12(sp)
    84ec:	0d800c93          	li	s9,216
    84f0:	005c0c13          	addi	s8,s8,5
    84f4:	01811623          	sh	s8,12(sp)
    84f8:	012cd463          	bge	s9,s2,8500 <.L1194>
    84fc:	868f906f          	j	1564 <.L1195>

00008500 <.L1194>:
    8500:	0cc00c13          	li	s8,204
    8504:	006c4463          	blt	s8,t1,850c <.L1194+0xc>
    8508:	d05f906f          	j	220c <.L1201>
    850c:	00e15c03          	lhu	s8,14(sp)
    8510:	ff9c0c13          	addi	s8,s8,-7
    8514:	01811723          	sh	s8,14(sp)
    8518:	cf5f906f          	j	220c <.L1201>

0000851c <.L373>:
    851c:	ac400c13          	li	s8,-1340
    8520:	0185c463          	blt	a1,s8,8528 <.L373+0xc>
    8524:	911fe06f          	j	6e34 <.L370>
    8528:	00e15c03          	lhu	s8,14(sp)
    852c:	00dc0c13          	addi	s8,s8,13
    8530:	010c1c13          	slli	s8,s8,0x10
    8534:	410c5c13          	srai	s8,s8,0x10
    8538:	b4cf806f          	j	884 <.L375>

0000853c <.L404>:
    853c:	00c15c03          	lhu	s8,12(sp)
    8540:	03b00c93          	li	s9,59
    8544:	ff7c0c13          	addi	s8,s8,-9
    8548:	01811623          	sh	s8,12(sp)
    854c:	00fcd463          	bge	s9,a5,8554 <.L405>
    8550:	b80fe06f          	j	68d0 <.L2569>

00008554 <.L405>:
    8554:	03800c13          	li	s8,56
    8558:	01fc4463          	blt	s8,t6,8560 <.L405+0xc>
    855c:	b7cfe06f          	j	68d8 <.L406>
    8560:	00e15c03          	lhu	s8,14(sp)
    8564:	ff6c0c13          	addi	s8,s8,-10
    8568:	010c1c13          	slli	s8,s8,0x10
    856c:	410c5c13          	srai	s8,s8,0x10
    8570:	bd4f806f          	j	944 <.L412>

00008574 <.L864>:
    8574:	00815c03          	lhu	s8,8(sp)
    8578:	fffc0c13          	addi	s8,s8,-1
    857c:	01811423          	sh	s8,8(sp)
    8580:	abdf806f          	j	103c <.L859>

00008584 <.L1416>:
    8584:	00e15c03          	lhu	s8,14(sp)
    8588:	003c0c13          	addi	s8,s8,3
    858c:	01811723          	sh	s8,14(sp)
    8590:	f1df906f          	j	24ac <.L1411>

00008594 <.L422>:
    8594:	00815c03          	lhu	s8,8(sp)
    8598:	ff6c0c13          	addi	s8,s8,-10
    859c:	010c1c13          	slli	s8,s8,0x10
    85a0:	410c5c13          	srai	s8,s8,0x10
    85a4:	bdcf806f          	j	980 <.L420>

000085a8 <.L2084>:
    85a8:	00a15b03          	lhu	s6,10(sp)
    85ac:	02700c13          	li	s8,39
    85b0:	004b0b13          	addi	s6,s6,4
    85b4:	01611523          	sh	s6,10(sp)
    85b8:	046c5663          	bge	s8,t1,8604 <.L2085>

000085bc <.L2512>:
    85bc:	ecb00b13          	li	s6,-309
    85c0:	016ad463          	bge	s5,s6,85c8 <.L2081>
    85c4:	d61fb06f          	j	4324 <.L2087>

000085c8 <.L2081>:
    85c8:	00900b13          	li	s6,9
    85cc:	01db5463          	bge	s6,t4,85d4 <.L2081+0xc>
    85d0:	6840206f          	j	ac54 <.L2093>
    85d4:	00c15b03          	lhu	s6,12(sp)
    85d8:	005b0b13          	addi	s6,s6,5
    85dc:	010b1b13          	slli	s6,s6,0x10
    85e0:	410b5b13          	srai	s6,s6,0x10
    85e4:	965fa06f          	j	2f48 <.L2082>

000085e8 <.L2078>:
    85e8:	ffe00b13          	li	s6,-2
    85ec:	fb685ee3          	bge	a6,s6,85a8 <.L2084>
    85f0:	00a15b03          	lhu	s6,10(sp)
    85f4:	02700c13          	li	s8,39
    85f8:	ffab0b13          	addi	s6,s6,-6
    85fc:	01611523          	sh	s6,10(sp)
    8600:	fa6c4ee3          	blt	s8,t1,85bc <.L2512>

00008604 <.L2085>:
    8604:	0c100b13          	li	s6,193
    8608:	009b4463          	blt	s6,s1,8610 <.L2085+0xc>
    860c:	92dfa06f          	j	2f38 <.L2092>
    8610:	00c15b03          	lhu	s6,12(sp)
    8614:	00db0b13          	addi	s6,s6,13
    8618:	010b1b13          	slli	s6,s6,0x10
    861c:	410b5b13          	srai	s6,s6,0x10
    8620:	929fa06f          	j	2f48 <.L2082>

00008624 <.L586>:
    8624:	ea900c13          	li	s8,-343
    8628:	7f82d6e3          	bge	t0,s8,9614 <.L608>
    862c:	00e15c03          	lhu	s8,14(sp)
    8630:	ffac0c13          	addi	s8,s8,-6
    8634:	010c1c13          	slli	s8,s8,0x10
    8638:	010c5c13          	srli	s8,s8,0x10
    863c:	01811723          	sh	s8,14(sp)
    8640:	df4f806f          	j	c34 <.L607>

00008644 <.L1585>:
    8644:	00815c03          	lhu	s8,8(sp)
    8648:	e2c00c93          	li	s9,-468
    864c:	009c0c13          	addi	s8,s8,9
    8650:	01811423          	sh	s8,8(sp)
    8654:	ad92dee3          	bge	t0,s9,8130 <.L1586>

00008658 <.L1588>:
    8658:	16900c13          	li	s8,361
    865c:	7fec40e3          	blt	s8,t5,963c <.L1608>
    8660:	00a15c03          	lhu	s8,10(sp)
    8664:	03c00c93          	li	s9,60
    8668:	fffc0c13          	addi	s8,s8,-1
    866c:	01811523          	sh	s8,10(sp)
    8670:	00fcc463          	blt	s9,a5,8678 <.L2712>
    8674:	b78fd06f          	j	59ec <.L1604>

00008678 <.L2712>:
    8678:	ec100c13          	li	s8,-319
    867c:	01845463          	bge	s0,s8,8684 <.L2712+0xc>
    8680:	5e80206f          	j	ac68 <.L1594>
    8684:	00c15c03          	lhu	s8,12(sp)
    8688:	00300c93          	li	s9,3
    868c:	006c0c13          	addi	s8,s8,6
    8690:	01811623          	sh	s8,12(sp)
    8694:	11ccc2e3          	blt	s9,t3,8f98 <.L1596>

00008698 <.L1595>:
    8698:	0c100c13          	li	s8,193
    869c:	012c4463          	blt	s8,s2,86a4 <.L1595+0xc>
    86a0:	974fa06f          	j	2814 <.L1635>
    86a4:	00e15c03          	lhu	s8,14(sp)
    86a8:	007c0c13          	addi	s8,s8,7
    86ac:	01811723          	sh	s8,14(sp)
    86b0:	f40fb06f          	j	3df0 <.L1628>

000086b4 <.L946>:
    86b4:	01c51c83          	lh	s9,28(a0)
    86b8:	01900c13          	li	s8,25
    86bc:	019c4463          	blt	s8,s9,86c4 <.L946+0x10>
    86c0:	fe8fe06f          	j	6ea8 <.L952>
    86c4:	00815c03          	lhu	s8,8(sp)
    86c8:	00dc0c13          	addi	s8,s8,13
    86cc:	010c1c13          	slli	s8,s8,0x10
    86d0:	410c5c13          	srai	s8,s8,0x10
    86d4:	f54f906f          	j	1e28 <.L948>

000086d8 <.L2127>:
    86d8:	ff800b13          	li	s6,-8
    86dc:	01694463          	blt	s2,s6,86e4 <.L2127+0xc>
    86e0:	33c0106f          	j	9a1c <.L2139>
    86e4:	00e15b03          	lhu	s6,14(sp)
    86e8:	00400c13          	li	s8,4
    86ec:	ffcb0b13          	addi	s6,s6,-4
    86f0:	01611723          	sh	s6,14(sp)
    86f4:	011c5463          	bge	s8,a7,86fc <.L2132>
    86f8:	c6dfc06f          	j	5364 <.L2140>

000086fc <.L2132>:
    86fc:	00815b03          	lhu	s6,8(sp)
    8700:	03b00c13          	li	s8,59
    8704:	008b0b13          	addi	s6,s6,8
    8708:	01611423          	sh	s6,8(sp)
    870c:	00fc4463          	blt	s8,a5,8714 <.L2132+0x18>
    8710:	81cfd06f          	j	572c <.L2141>
    8714:	b94fb06f          	j	3aa8 <.L2146>

00008718 <.L94>:
    8718:	f1900e13          	li	t3,-231
    871c:	01cac463          	blt	s5,t3,8724 <.L94+0xc>
    8720:	0dd0106f          	j	9ffc <.L99>
    8724:	00a15e03          	lhu	t3,10(sp)
    8728:	31a00c13          	li	s8,794
    872c:	012e0e13          	addi	t3,t3,18
    8730:	01c11523          	sh	t3,10(sp)
    8734:	00dc5463          	bge	s8,a3,873c <.L96>
    8738:	d1df706f          	j	454 <.L2349>

0000873c <.L96>:
    873c:	ea700e13          	li	t3,-345
    8740:	01ca4463          	blt	s4,t3,8748 <.L96+0xc>
    8744:	d08fd06f          	j	5c4c <.L105>
    8748:	11d00e13          	li	t3,285
    874c:	12ee4ee3          	blt	t3,a4,9088 <.L104>
    8750:	00c15e03          	lhu	t3,12(sp)
    8754:	005e0e13          	addi	t3,t3,5
    8758:	010e1e13          	slli	t3,t3,0x10
    875c:	410e5e13          	srai	t3,t3,0x10
    8760:	d11f706f          	j	470 <.L120>

00008764 <.L2346>:
    8764:	4ae00e13          	li	t3,1198
    8768:	02651383          	lh	t2,38(a0)
    876c:	0ede5ee3          	bge	t3,a3,9068 <.L91>

00008770 <.L92>:
    8770:	00001e37          	lui	t3,0x1
    8774:	9f8e0e13          	addi	t3,t3,-1544 # 9f8 <.L446+0xc>
    8778:	00ee5463          	bge	t3,a4,8780 <.L92+0x10>
    877c:	7ec0106f          	j	9f68 <.L110>
    8780:	00a15e03          	lhu	t3,10(sp)
    8784:	31a00c13          	li	s8,794
    8788:	ff6e0e13          	addi	t3,t3,-10
    878c:	01c11523          	sh	t3,10(sp)
    8790:	0edc56e3          	bge	s8,a3,907c <.L111>

00008794 <.L2351>:
    8794:	e4e00e13          	li	t3,-434
    8798:	01cac463          	blt	s5,t3,87a0 <.L2351+0xc>
    879c:	7ec0106f          	j	9f88 <.L107>
    87a0:	6c100e13          	li	t3,1729
    87a4:	00ee4463          	blt	t3,a4,87ac <.L114>
    87a8:	cb9f706f          	j	460 <.L119>

000087ac <.L114>:
    87ac:	00c15e03          	lhu	t3,12(sp)
    87b0:	03d00c13          	li	s8,61
    87b4:	fffe0e13          	addi	t3,t3,-1
    87b8:	01c11623          	sh	t3,12(sp)
    87bc:	00fc5463          	bge	s8,a5,87c4 <.L128>
    87c0:	cc1f706f          	j	480 <.L121>

000087c4 <.L128>:
    87c4:	d8200e13          	li	t3,-638
    87c8:	01c5c463          	blt	a1,t3,87d0 <.L122>
    87cc:	acdfd06f          	j	6298 <.L123>

000087d0 <.L122>:
    87d0:	00e15e03          	lhu	t3,14(sp)
    87d4:	ffae0e13          	addi	t3,t3,-6
    87d8:	010e1e13          	slli	t3,t3,0x10
    87dc:	410e5e13          	srai	t3,t3,0x10
    87e0:	cc5f706f          	j	4a4 <.L129>

000087e4 <.L18>:
    87e4:	02851e83          	lh	t4,40(a0)
    87e8:	06a00793          	li	a5,106
    87ec:	00651a83          	lh	s5,6(a0)
    87f0:	01d7d463          	bge	a5,t4,87f8 <.L18+0x14>
    87f4:	4a10106f          	j	a494 <.L23>
    87f8:	ff400793          	li	a5,-12
    87fc:	00f11523          	sh	a5,10(sp)
    8800:	d5c00613          	li	a2,-676
    8804:	00cad463          	bge	s5,a2,880c <.L18+0x28>
    8808:	6910206f          	j	b698 <.L24>
    880c:	01851603          	lh	a2,24(a0)
    8810:	01251483          	lh	s1,18(a0)
    8814:	01051b03          	lh	s6,16(a0)

00008818 <.L20>:
    8818:	ea700793          	li	a5,-345
    881c:	06fa5463          	bge	s4,a5,8884 <.L29>
    8820:	ff700593          	li	a1,-9
    8824:	01451283          	lh	t0,20(a0)
    8828:	00b65463          	bge	a2,a1,8830 <.L28>
    882c:	00600593          	li	a1,6

00008830 <.L28>:
    8830:	00051783          	lh	a5,0(a0)
    8834:	00b11623          	sh	a1,12(sp)
    8838:	03e00593          	li	a1,62
    883c:	00f5c463          	blt	a1,a5,8844 <.L28+0x14>
    8840:	ad5f706f          	j	314 <.L26>
    8844:	d8400593          	li	a1,-636
    8848:	00bad463          	bge	s5,a1,8850 <.L28+0x20>
    884c:	8d5f706f          	j	120 <.L27>
    8850:	01e51583          	lh	a1,30(a0)
    8854:	00c51903          	lh	s2,12(a0)
    8858:	02600813          	li	a6,38
    885c:	addf706f          	j	338 <.L32>

00008860 <.L15>:
    8860:	ff600793          	li	a5,-10
    8864:	00f11523          	sh	a5,10(sp)

00008868 <.L17>:
    8868:	ea700793          	li	a5,-345
    886c:	00fa5463          	bge	s4,a5,8874 <.L17+0xc>
    8870:	6280306f          	j	be98 <.L2296>
    8874:	01251483          	lh	s1,18(a0)
    8878:	00a51683          	lh	a3,10(a0)
    887c:	01051b03          	lh	s6,16(a0)
    8880:	02851e83          	lh	t4,40(a0)

00008884 <.L29>:
    8884:	01451283          	lh	t0,20(a0)
    8888:	ef52a593          	slti	a1,t0,-267
    888c:	40b005b3          	neg	a1,a1
    8890:	0055f593          	andi	a1,a1,5
    8894:	ff458593          	addi	a1,a1,-12
    8898:	f99ff06f          	j	8830 <.L28>

0000889c <.L708>:
    889c:	00c15c03          	lhu	s8,12(sp)
    88a0:	00ec0c13          	addi	s8,s8,14
    88a4:	010c1c13          	slli	s8,s8,0x10
    88a8:	410c5c13          	srai	s8,s8,0x10
    88ac:	d68f806f          	j	e14 <.L706>

000088b0 <.L711>:
    88b0:	06200c13          	li	s8,98
    88b4:	016c5463          	bge	s8,s6,88bc <.L711+0xc>
    88b8:	2d10106f          	j	a388 <.L721>
    88bc:	00e15c03          	lhu	s8,14(sp)
    88c0:	fffc0c13          	addi	s8,s8,-1
    88c4:	01811723          	sh	s8,14(sp)
    88c8:	9c0f906f          	j	1a88 <.L722>

000088cc <.L1738>:
    88cc:	f6900c13          	li	s8,-151
    88d0:	01844463          	blt	s0,s8,88d8 <.L1748>
    88d4:	921fc06f          	j	51f4 <.L2646>

000088d8 <.L1748>:
    88d8:	00e15c03          	lhu	s8,14(sp)
    88dc:	009c0c13          	addi	s8,s8,9
    88e0:	010c1c13          	slli	s8,s8,0x10
    88e4:	410c5c13          	srai	s8,s8,0x10
    88e8:	91dfc06f          	j	5204 <.L1744>

000088ec <.L2011>:
    88ec:	e7600c13          	li	s8,-394
    88f0:	0185d463          	bge	a1,s8,88f8 <.L2011+0xc>
    88f4:	cf8fa06f          	j	2dec <.L2010>
    88f8:	00c15c03          	lhu	s8,12(sp)
    88fc:	ff7c0c13          	addi	s8,s8,-9
    8900:	01811623          	sh	s8,12(sp)
    8904:	ce8fa06f          	j	2dec <.L2010>

00008908 <.L2008>:
    8908:	ef800c13          	li	s8,-264
    890c:	f98a4863          	blt	s4,s8,809c <.L2009>
    8910:	00c15c03          	lhu	s8,12(sp)
    8914:	ff9c0c13          	addi	s8,s8,-7
    8918:	01811623          	sh	s8,12(sp)
    891c:	cd0fa06f          	j	2dec <.L2010>

00008920 <.L808>:
    8920:	eb900c13          	li	s8,-327
    8924:	018a4463          	blt	s4,s8,892c <.L808+0xc>
    8928:	01c0106f          	j	9944 <.L811>
    892c:	00c15c03          	lhu	s8,12(sp)
    8930:	001c0c13          	addi	s8,s8,1
    8934:	010c1c13          	slli	s8,s8,0x10
    8938:	410c5c13          	srai	s8,s8,0x10
    893c:	a9cf906f          	j	1bd8 <.L810>

00008940 <.L1214>:
    8940:	00815c03          	lhu	s8,8(sp)
    8944:	03500c93          	li	s9,53
    8948:	001c0c13          	addi	s8,s8,1
    894c:	01811423          	sh	s8,8(sp)
    8950:	00ecc463          	blt	s9,a4,8958 <.L1214+0x18>
    8954:	c65f806f          	j	15b8 <.L1215>
    8958:	0e100c13          	li	s8,225
    895c:	64dc4c63          	blt	s8,a3,8fb4 <.L1223>

00008960 <.L1222>:
    8960:	00a15c03          	lhu	s8,10(sp)
    8964:	0c100c93          	li	s9,193
    8968:	004c0c13          	addi	s8,s8,4
    896c:	01811523          	sh	s8,10(sp)
    8970:	009cc463          	blt	s9,s1,8978 <.L1222+0x18>
    8974:	c6df806f          	j	15e0 <.L1228>
    8978:	8f5f906f          	j	226c <.L2608>

0000897c <.L1841>:
    897c:	ddc00c13          	li	s8,-548
    8980:	018a4463          	blt	s4,s8,8988 <.L1841+0xc>
    8984:	3fc0106f          	j	9d80 <.L1844>
    8988:	00a15c03          	lhu	s8,10(sp)
    898c:	ffbc0c13          	addi	s8,s8,-5
    8990:	010c1c13          	slli	s8,s8,0x10
    8994:	410c5c13          	srai	s8,s8,0x10
    8998:	01811523          	sh	s8,10(sp)
    899c:	f89fb06f          	j	4924 <.L2884>

000089a0 <.L1758>:
    89a0:	00a15c03          	lhu	s8,10(sp)
    89a4:	f9800c93          	li	s9,-104
    89a8:	004c0c13          	addi	s8,s8,4
    89ac:	01811523          	sh	s8,10(sp)
    89b0:	01944463          	blt	s0,s9,89b8 <.L1758+0x18>
    89b4:	b14fc06f          	j	4cc8 <.L1759>
    89b8:	f6600c13          	li	s8,-154
    89bc:	01845463          	bge	s0,s8,89c4 <.L1760>
    89c0:	1500306f          	j	bb10 <.L2935>

000089c4 <.L1760>:
    89c4:	01a00c13          	li	s8,26
    89c8:	013c5463          	bge	s8,s3,89d0 <.L1760+0xc>
    89cc:	1180106f          	j	9ae4 <.L1771>
    89d0:	00c15c03          	lhu	s8,12(sp)
    89d4:	ff8c0c13          	addi	s8,s8,-8
    89d8:	01811623          	sh	s8,12(sp)
    89dc:	81cfa06f          	j	29f8 <.L1770>

000089e0 <.L1754>:
    89e0:	12800c13          	li	s8,296
    89e4:	009c5463          	bge	s8,s1,89ec <.L1754+0xc>
    89e8:	fe5f906f          	j	29cc <.L1756>
    89ec:	00a15c03          	lhu	s8,10(sp)
    89f0:	ff9c0c13          	addi	s8,s8,-7
    89f4:	01811523          	sh	s8,10(sp)
    89f8:	fd5f906f          	j	29cc <.L1756>

000089fc <.L1434>:
    89fc:	00e00c13          	li	s8,14
    8a00:	010c5463          	bge	s8,a6,8a08 <.L1434+0xc>
    8a04:	0f00106f          	j	9af4 <.L1436>
    8a08:	00c15c03          	lhu	s8,12(sp)
    8a0c:	ffec0c13          	addi	s8,s8,-2
    8a10:	01811623          	sh	s8,12(sp)
    8a14:	b19f906f          	j	252c <.L1435>

00008a18 <.L1446>:
    8a18:	00e15c03          	lhu	s8,14(sp)
    8a1c:	ff800c93          	li	s9,-8
    8a20:	ff6c0c13          	addi	s8,s8,-10
    8a24:	01811723          	sh	s8,14(sp)
    8a28:	01964463          	blt	a2,s9,8a30 <.L1448>
    8a2c:	9acfd06f          	j	5bd8 <.L1449>

00008a30 <.L1448>:
    8a30:	00815c03          	lhu	s8,8(sp)
    8a34:	f8b00c93          	li	s9,-117
    8a38:	ffec0c13          	addi	s8,s8,-2
    8a3c:	01811423          	sh	s8,8(sp)
    8a40:	0195d463          	bge	a1,s9,8a48 <.L1486>
    8a44:	bd9fe06f          	j	761c <.L1471>

00008a48 <.L1486>:
    8a48:	00a15c03          	lhu	s8,10(sp)
    8a4c:	ff8c0c13          	addi	s8,s8,-8
    8a50:	010c1c13          	slli	s8,s8,0x10
    8a54:	410c5c13          	srai	s8,s8,0x10
    8a58:	9c8fd06f          	j	5c20 <.L1472>

00008a5c <.L2952>:
    8a5c:	e9b00c13          	li	s8,-357
    8a60:	018ad463          	bge	s5,s8,8a68 <.L622>
    8a64:	10c0306f          	j	bb70 <.L2936>

00008a68 <.L622>:
    8a68:	01000c13          	li	s8,16
    8a6c:	01dc5463          	bge	s8,t4,8a74 <.L622+0xc>
    8a70:	4b10106f          	j	a720 <.L644>
    8a74:	00c15c03          	lhu	s8,12(sp)
    8a78:	007c0c13          	addi	s8,s8,7
    8a7c:	010c1c13          	slli	s8,s8,0x10
    8a80:	410c5c13          	srai	s8,s8,0x10
    8a84:	bfdfd06f          	j	6680 <.L623>

00008a88 <.L1058>:
    8a88:	00c15c83          	lhu	s9,12(sp)
    8a8c:	02f00d13          	li	s10,47
    8a90:	ffbc8c93          	addi	s9,s9,-5
    8a94:	01911623          	sh	s9,12(sp)
    8a98:	010d4463          	blt	s10,a6,8aa0 <.L1058+0x18>
    8a9c:	b01fa06f          	j	359c <.L2731>
    8aa0:	e1900c13          	li	s8,-487
    8aa4:	018a5463          	bge	s4,s8,8aac <.L1058+0x24>
    8aa8:	2b00306f          	j	bd58 <.L1071>
    8aac:	00e15c03          	lhu	s8,14(sp)
    8ab0:	00300c93          	li	s9,3
    8ab4:	008c0c13          	addi	s8,s8,8
    8ab8:	01811723          	sh	s8,14(sp)
    8abc:	00dcd463          	bge	s9,a3,8ac4 <.L1072>
    8ac0:	5e10106f          	j	a8a0 <.L1073>

00008ac4 <.L1072>:
    8ac4:	00815c03          	lhu	s8,8(sp)
    8ac8:	30000c93          	li	s9,768
    8acc:	003c0c13          	addi	s8,s8,3
    8ad0:	01811423          	sh	s8,8(sp)
    8ad4:	01ecd463          	bge	s9,t5,8adc <.L1096>
    8ad8:	d54f906f          	j	202c <.L1095>

00008adc <.L1096>:
    8adc:	ea900c13          	li	s8,-343
    8ae0:	0182c463          	blt	t0,s8,8ae8 <.L1096+0xc>
    8ae4:	0800106f          	j	9b64 <.L1098>
    8ae8:	00a15c03          	lhu	s8,10(sp)
    8aec:	007c0c13          	addi	s8,s8,7
    8af0:	01811523          	sh	s8,10(sp)
    8af4:	8b5f806f          	j	13a8 <.L1097>

00008af8 <.L1245>:
    8af8:	00e15c03          	lhu	s8,14(sp)
    8afc:	01500c93          	li	s9,21
    8b00:	ff8c0c13          	addi	s8,s8,-8
    8b04:	01811723          	sh	s8,14(sp)
    8b08:	007cc463          	blt	s9,t2,8b10 <.L1245+0x18>
    8b0c:	aedfb06f          	j	45f8 <.L1254>
    8b10:	11d00c13          	li	s8,285
    8b14:	7a7c4663          	blt	s8,t2,92c0 <.L1256>

00008b18 <.L1255>:
    8b18:	00815c03          	lhu	s8,8(sp)
    8b1c:	ffdc0c13          	addi	s8,s8,-3
    8b20:	010c1c13          	slli	s8,s8,0x10
    8b24:	410c5c13          	srai	s8,s8,0x10
    8b28:	aedfb06f          	j	4614 <.L1253>

00008b2c <.L1387>:
    8b2c:	00a15c03          	lhu	s8,10(sp)
    8b30:	00100c93          	li	s9,1
    8b34:	007c0c13          	addi	s8,s8,7
    8b38:	01811523          	sh	s8,10(sp)
    8b3c:	01ccd463          	bge	s9,t3,8b44 <.L1395>
    8b40:	919f906f          	j	2458 <.L1396>

00008b44 <.L1395>:
    8b44:	00c15c03          	lhu	s8,12(sp)
    8b48:	ff7c0c13          	addi	s8,s8,-9
    8b4c:	01811623          	sh	s8,12(sp)
    8b50:	c10fb06f          	j	3f60 <.L1394>

00008b54 <.L1150>:
    8b54:	00e15c03          	lhu	s8,14(sp)
    8b58:	01f00c93          	li	s9,31
    8b5c:	009c0c13          	addi	s8,s8,9
    8b60:	01811723          	sh	s8,14(sp)
    8b64:	013cd463          	bge	s9,s3,8b6c <.L1153>
    8b68:	d01fb06f          	j	4868 <.L1152>

00008b6c <.L1153>:
    8b6c:	e2100c13          	li	s8,-479
    8b70:	0182c463          	blt	t0,s8,8b78 <.L1153+0xc>
    8b74:	3950206f          	j	b708 <.L1163>
    8b78:	00815c03          	lhu	s8,8(sp)
    8b7c:	1b900c93          	li	s9,441
    8b80:	ff7c0c13          	addi	s8,s8,-9
    8b84:	01811423          	sh	s8,8(sp)
    8b88:	01ecc463          	blt	s9,t5,8b90 <.L1153+0x24>
    8b8c:	d15fb06f          	j	48a0 <.L1164>
    8b90:	df0f906f          	j	2180 <.L1162>

00008b94 <.L815>:
    8b94:	f5100c13          	li	s8,-175
    8b98:	018ac463          	blt	s5,s8,8ba0 <.L815+0xc>
    8b9c:	dd0fc06f          	j	516c <.L821>
    8ba0:	00e15c03          	lhu	s8,14(sp)
    8ba4:	ffac0c13          	addi	s8,s8,-6
    8ba8:	010c1c13          	slli	s8,s8,0x10
    8bac:	410c5c13          	srai	s8,s8,0x10
    8bb0:	bb8f806f          	j	f68 <.L820>

00008bb4 <.L1674>:
    8bb4:	03900c13          	li	s8,57
    8bb8:	1bfc50e3          	bge	s8,t6,9558 <.L1667>
    8bbc:	03d00c13          	li	s8,61
    8bc0:	00fc4463          	blt	s8,a5,8bc8 <.L1674+0x14>
    8bc4:	f01fc06f          	j	5ac4 <.L1690>
    8bc8:	00100c13          	li	s8,1
    8bcc:	01cc5463          	bge	s8,t3,8bd4 <.L1694>
    8bd0:	f0dfc06f          	j	5adc <.L1692>

00008bd4 <.L1694>:
    8bd4:	01100c13          	li	s8,17
    8bd8:	011c4463          	blt	s8,a7,8be0 <.L1693>
    8bdc:	f91fd06f          	j	6b6c <.L1654>

00008be0 <.L1693>:
    8be0:	00c15c03          	lhu	s8,12(sp)
    8be4:	ffac0c13          	addi	s8,s8,-6
    8be8:	010c1c13          	slli	s8,s8,0x10
    8bec:	410c5c13          	srai	s8,s8,0x10
    8bf0:	f09fc06f          	j	5af8 <.L1684>

00008bf4 <.L2762>:
    8bf4:	00e15c03          	lhu	s8,14(sp)
    8bf8:	ffe00c93          	li	s9,-2
    8bfc:	009c0c13          	addi	s8,s8,9
    8c00:	01811723          	sh	s8,14(sp)
    8c04:	01984463          	blt	a6,s9,8c0c <.L776>
    8c08:	abcfc06f          	j	4ec4 <.L2387>

00008c0c <.L776>:
    8c0c:	0dd00c13          	li	s8,221
    8c10:	006c5463          	bge	s8,t1,8c18 <.L776+0xc>
    8c14:	5bc0206f          	j	b1d0 <.L791>
    8c18:	00815c03          	lhu	s8,8(sp)
    8c1c:	03300c93          	li	s9,51
    8c20:	006c0c13          	addi	s8,s8,6
    8c24:	01811423          	sh	s8,8(sp)
    8c28:	01fcc463          	blt	s9,t6,8c30 <.L776+0x24>
    8c2c:	f59f806f          	j	1b84 <.L788>
    8c30:	9f4fc06f          	j	4e24 <.L789>

00008c34 <.L2758>:
    8c34:	01600c13          	li	s8,22
    8c38:	011c5463          	bge	s8,a7,8c40 <.L2758+0xc>
    8c3c:	abcfd06f          	j	5ef8 <.L2577>
    8c40:	00815c03          	lhu	s8,8(sp)
    8c44:	00bc0c13          	addi	s8,s8,11
    8c48:	010c1c13          	slli	s8,s8,0x10
    8c4c:	410c5c13          	srai	s8,s8,0x10
    8c50:	f61f706f          	j	bb0 <.L552>

00008c54 <.L2245>:
    8c54:	1fa00693          	li	a3,506
    8c58:	00e6d463          	bge	a3,a4,8c60 <.L2245+0xc>
    8c5c:	6b50106f          	j	ab10 <.L2216>
    8c60:	00a15703          	lhu	a4,10(sp)
    8c64:	ffa70713          	addi	a4,a4,-6
    8c68:	01071713          	slli	a4,a4,0x10
    8c6c:	41075713          	srai	a4,a4,0x10
    8c70:	fa5fa06f          	j	3c14 <.L2247>

00008c74 <.L1035>:
    8c74:	00e15c03          	lhu	s8,14(sp)
    8c78:	01f00c93          	li	s9,31
    8c7c:	003c0c13          	addi	s8,s8,3
    8c80:	01811723          	sh	s8,14(sp)
    8c84:	013cc463          	blt	s9,s3,8c8c <.L1035+0x18>
    8c88:	df8fc06f          	j	5280 <.L1038>
    8c8c:	00600c13          	li	s8,6
    8c90:	011c4463          	blt	s8,a7,8c98 <.L1035+0x24>
    8c94:	0b40306f          	j	bd48 <.L1039>
    8c98:	00815c03          	lhu	s8,8(sp)
    8c9c:	03100c93          	li	s9,49
    8ca0:	ff7c0c13          	addi	s8,s8,-9
    8ca4:	01811423          	sh	s8,8(sp)
    8ca8:	01fcc463          	blt	s9,t6,8cb0 <.L1040>
    8cac:	d80fd06f          	j	622c <.L1044>

00008cb0 <.L1040>:
    8cb0:	00b00c13          	li	s8,11
    8cb4:	011c4463          	blt	s8,a7,8cbc <.L1040+0xc>
    8cb8:	abcf906f          	j	1f74 <.L1054>
    8cbc:	00a15c03          	lhu	s8,10(sp)
    8cc0:	ffcc0c13          	addi	s8,s8,-4
    8cc4:	010c1c13          	slli	s8,s8,0x10
    8cc8:	410c5c13          	srai	s8,s8,0x10
    8ccc:	e4cf806f          	j	1318 <.L1045>

00008cd0 <.L2759>:
    8cd0:	ff400c13          	li	s8,-12
    8cd4:	01864463          	blt	a2,s8,8cdc <.L2759+0xc>
    8cd8:	5140206f          	j	b1ec <.L569>
    8cdc:	00a15c03          	lhu	s8,10(sp)
    8ce0:	17000c93          	li	s9,368
    8ce4:	ff6c0c13          	addi	s8,s8,-10
    8ce8:	01811523          	sh	s8,10(sp)
    8cec:	00dcc463          	blt	s9,a3,8cf4 <.L2288>
    8cf0:	ef9f706f          	j	be8 <.L563>

00008cf4 <.L2288>:
    8cf4:	3fa00c13          	li	s8,1018
    8cf8:	00ec5463          	bge	s8,a4,8d00 <.L571>
    8cfc:	afdfc06f          	j	57f8 <.L572>

00008d00 <.L571>:
    8d00:	00c15c03          	lhu	s8,12(sp)
    8d04:	e0800c93          	li	s9,-504
    8d08:	00ac0c13          	addi	s8,s8,10
    8d0c:	01811623          	sh	s8,12(sp)
    8d10:	01945463          	bge	s0,s9,8d18 <.L571+0x18>
    8d14:	b09fc06f          	j	581c <.L584>
    8d18:	b49f806f          	j	1860 <.L2375>

00008d1c <.L885>:
    8d1c:	01500c13          	li	s8,21
    8d20:	010c5463          	bge	s8,a6,8d28 <.L885+0xc>
    8d24:	f34fd06f          	j	6458 <.L870>
    8d28:	00c15c03          	lhu	s8,12(sp)
    8d2c:	ffac0c13          	addi	s8,s8,-6
    8d30:	01811623          	sh	s8,12(sp)
    8d34:	f30fd06f          	j	6464 <.L886>

00008d38 <.L2819>:
    8d38:	ed600c13          	li	s8,-298
    8d3c:	0182c463          	blt	t0,s8,8d44 <.L2819+0xc>
    8d40:	6f40206f          	j	b434 <.L2068>
    8d44:	00e15c03          	lhu	s8,14(sp)
    8d48:	ffdc0c13          	addi	s8,s8,-3
    8d4c:	010c1c13          	slli	s8,s8,0x10
    8d50:	410c5c13          	srai	s8,s8,0x10
    8d54:	974fa06f          	j	2ec8 <.L2058>

00008d58 <.L299>:
    8d58:	1a600c13          	li	s8,422
    8d5c:	009c4463          	blt	s8,s1,8d64 <.L299+0xc>
    8d60:	7480206f          	j	b4a8 <.L2937>
    8d64:	00a15c03          	lhu	s8,10(sp)
    8d68:	001c0c13          	addi	s8,s8,1
    8d6c:	010c1c13          	slli	s8,s8,0x10
    8d70:	410c5c13          	srai	s8,s8,0x10
    8d74:	f59fc06f          	j	5ccc <.L288>

00008d78 <.L943>:
    8d78:	03d00c13          	li	s8,61
    8d7c:	00fc5463          	bge	s8,a5,8d84 <.L943+0xc>
    8d80:	50c0206f          	j	b28c <.L2938>
    8d84:	00e15c03          	lhu	s8,14(sp)
    8d88:	ff8c0c13          	addi	s8,s8,-8
    8d8c:	01811723          	sh	s8,14(sp)
    8d90:	be0f806f          	j	1170 <.L940>

00008d94 <.L514>:
    8d94:	00815c03          	lhu	s8,8(sp)
    8d98:	ff6c0c13          	addi	s8,s8,-10
    8d9c:	010c1c13          	slli	s8,s8,0x10
    8da0:	410c5c13          	srai	s8,s8,0x10
    8da4:	efcfb06f          	j	44a0 <.L512>

00008da8 <.L1528>:
    8da8:	ea900c13          	li	s8,-343
    8dac:	018a4463          	blt	s4,s8,8db4 <.L1528+0xc>
    8db0:	0c00106f          	j	9e70 <.L1523>
    8db4:	01800c13          	li	s8,24
    8db8:	010c5463          	bge	s8,a6,8dc0 <.L1528+0x18>
    8dbc:	ba8fb06f          	j	4164 <.L1532>
    8dc0:	d30fe06f          	j	72f0 <.L1530>

00008dc4 <.L1737>:
    8dc4:	e9800c13          	li	s8,-360
    8dc8:	0185c463          	blt	a1,s8,8dd0 <.L1736>
    8dcc:	b81f906f          	j	294c <.L1731>

00008dd0 <.L1736>:
    8dd0:	00c15c03          	lhu	s8,12(sp)
    8dd4:	ff8c0c13          	addi	s8,s8,-8
    8dd8:	01811623          	sh	s8,12(sp)
    8ddc:	b71f906f          	j	294c <.L1731>

00008de0 <.L1821>:
    8de0:	16c00c13          	li	s8,364
    8de4:	00dc5463          	bge	s8,a3,8dec <.L1821+0xc>
    8de8:	4340206f          	j	b21c <.L1824>
    8dec:	00e15c03          	lhu	s8,14(sp)
    8df0:	003c0c13          	addi	s8,s8,3
    8df4:	010c1c13          	slli	s8,s8,0x10
    8df8:	010c5c13          	srli	s8,s8,0x10
    8dfc:	01811723          	sh	s8,14(sp)
    8e00:	e65fb06f          	j	4c64 <.L1822>

00008e04 <.L996>:
    8e04:	00e15c03          	lhu	s8,14(sp)
    8e08:	fa300c93          	li	s9,-93
    8e0c:	008c0c13          	addi	s8,s8,8
    8e10:	01811723          	sh	s8,14(sp)
    8e14:	0192d463          	bge	t0,s9,8e1c <.L996+0x18>
    8e18:	fd1fc06f          	j	5de8 <.L985>
    8e1c:	11c00c13          	li	s8,284
    8e20:	012c4463          	blt	s8,s2,8e28 <.L991>
    8e24:	88cf906f          	j	1eb0 <.L994>

00008e28 <.L991>:
    8e28:	02300c13          	li	s8,35
    8e2c:	00dc5463          	bge	s8,a3,8e34 <.L991+0xc>
    8e30:	99dfb06f          	j	47cc <.L995>
    8e34:	00815c03          	lhu	s8,8(sp)
    8e38:	ff8c0c13          	addi	s8,s8,-8
    8e3c:	01811423          	sh	s8,8(sp)
    8e40:	be8f806f          	j	1228 <.L1002>

00008e44 <.L1307>:
    8e44:	01f00c13          	li	s8,31
    8e48:	010c4463          	blt	s8,a6,8e50 <.L1307+0xc>
    8e4c:	2140106f          	j	a060 <.L2939>
    8e50:	00e15c03          	lhu	s8,14(sp)
    8e54:	006c0c13          	addi	s8,s8,6
    8e58:	01811723          	sh	s8,14(sp)
    8e5c:	ec700c13          	li	s8,-313
    8e60:	01845463          	bge	s0,s8,8e68 <.L1333>
    8e64:	cf4f906f          	j	2358 <.L2940>

00008e68 <.L1333>:
    8e68:	00815c03          	lhu	s8,8(sp)
    8e6c:	008c0c13          	addi	s8,s8,8
    8e70:	010c1c13          	slli	s8,s8,0x10
    8e74:	410c5c13          	srai	s8,s8,0x10
    8e78:	cf0f906f          	j	2368 <.L1332>

00008e7c <.L971>:
    8e7c:	00a15c03          	lhu	s8,10(sp)
    8e80:	03900c93          	li	s9,57
    8e84:	ffbc0c13          	addi	s8,s8,-5
    8e88:	01811523          	sh	s8,10(sp)
    8e8c:	00dcc463          	blt	s9,a3,8e94 <.L972>
    8e90:	b44f806f          	j	11d4 <.L960>

00008e94 <.L972>:
    8e94:	ea600c13          	li	s8,-346
    8e98:	01845463          	bge	s0,s8,8ea0 <.L972+0xc>
    8e9c:	869fb06f          	j	4704 <.L961>
    8ea0:	00c15c03          	lhu	s8,12(sp)
    8ea4:	cf000c93          	li	s9,-784
    8ea8:	00bc0c13          	addi	s8,s8,11
    8eac:	01811623          	sh	s8,12(sp)
    8eb0:	0195d463          	bge	a1,s9,8eb8 <.L972+0x24>
    8eb4:	865fb06f          	j	4718 <.L962>
    8eb8:	8e5fb06f          	j	479c <.L2408>

00008ebc <.L908>:
    8ebc:	03b00c13          	li	s8,59
    8ec0:	0afc46e3          	blt	s8,a5,976c <.L902>
    8ec4:	00815c03          	lhu	s8,8(sp)
    8ec8:	fffc0c13          	addi	s8,s8,-1
    8ecc:	01811423          	sh	s8,8(sp)
    8ed0:	a18f806f          	j	10e8 <.L906>

00008ed4 <.L1950>:
    8ed4:	07100c13          	li	s8,113
    8ed8:	007c5463          	bge	s8,t2,8ee0 <.L1950+0xc>
    8edc:	cdcfe06f          	j	73b8 <.L1960>
    8ee0:	00c15c03          	lhu	s8,12(sp)
    8ee4:	05800c93          	li	s9,88
    8ee8:	fffc0c13          	addi	s8,s8,-1
    8eec:	01811623          	sh	s8,12(sp)
    8ef0:	009cd463          	bge	s9,s1,8ef8 <.L1950+0x24>
    8ef4:	1050206f          	j	b7f8 <.L1964>
    8ef8:	f5300c13          	li	s8,-173
    8efc:	01844463          	blt	s0,s8,8f04 <.L1950+0x30>
    8f00:	3990206f          	j	ba98 <.L1965>
    8f04:	00e15c03          	lhu	s8,14(sp)
    8f08:	01500c93          	li	s9,21
    8f0c:	00ec0c13          	addi	s8,s8,14
    8f10:	01811723          	sh	s8,14(sp)
    8f14:	007cc463          	blt	s9,t2,8f1c <.L1950+0x48>
    8f18:	e6df906f          	j	2d84 <.L1966>
    8f1c:	cc8fe06f          	j	73e4 <.L1967>

00008f20 <.L83>:
    8f20:	01800e13          	li	t3,24
    8f24:	010e5463          	bge	t3,a6,8f2c <.L83+0xc>
    8f28:	6b40106f          	j	a5dc <.L81>
    8f2c:	00815e03          	lhu	t3,8(sp)
    8f30:	02651383          	lh	t2,38(a0)
    8f34:	00ae0e13          	addi	t3,t3,10
    8f38:	01c11423          	sh	t3,8(sp)
    8f3c:	ae0f706f          	j	21c <.L85>

00008f40 <.L2891>:
    8f40:	f5c00c13          	li	s8,-164
    8f44:	01844463          	blt	s0,s8,8f4c <.L2891+0xc>
    8f48:	3140206f          	j	b25c <.L766>
    8f4c:	00c15c03          	lhu	s8,12(sp)
    8f50:	03e00c93          	li	s9,62
    8f54:	009c0c13          	addi	s8,s8,9
    8f58:	01811623          	sh	s8,12(sp)
    8f5c:	00fcd463          	bge	s9,a5,8f64 <.L764>
    8f60:	f45fb06f          	j	4ea4 <.L752>

00008f64 <.L764>:
    8f64:	03800c13          	li	s8,56
    8f68:	00ec4463          	blt	s8,a4,8f70 <.L767>
    8f6c:	a54fc06f          	j	51c0 <.L770>

00008f70 <.L767>:
    8f70:	00e15c03          	lhu	s8,14(sp)
    8f74:	ffac0c13          	addi	s8,s8,-6
    8f78:	010c1c13          	slli	s8,s8,0x10
    8f7c:	410c5c13          	srai	s8,s8,0x10
    8f80:	bc5f806f          	j	1b44 <.L779>

00008f84 <.L1599>:
    8f84:	005c0c13          	addi	s8,s8,5
    8f88:	01811623          	sh	s8,12(sp)
    8f8c:	00300c13          	li	s8,3
    8f90:	01cc4463          	blt	s8,t3,8f98 <.L1596>
    8f94:	e45fa06f          	j	3dd8 <.L1621>

00008f98 <.L1596>:
    8f98:	de700c13          	li	s8,-537
    8f9c:	0185d463          	bge	a1,s8,8fa4 <.L1622>
    8fa0:	e51fa06f          	j	3df0 <.L1628>

00008fa4 <.L1622>:
    8fa4:	00e15c03          	lhu	s8,14(sp)
    8fa8:	ff8c0c13          	addi	s8,s8,-8
    8fac:	01811723          	sh	s8,14(sp)
    8fb0:	e41fa06f          	j	3df0 <.L1628>

00008fb4 <.L1223>:
    8fb4:	22f00c13          	li	s8,559
    8fb8:	01ec4463          	blt	s8,t5,8fc0 <.L1223+0xc>
    8fbc:	b1dfe06f          	j	7ad8 <.L1221>
    8fc0:	00a15c03          	lhu	s8,10(sp)
    8fc4:	004c0c13          	addi	s8,s8,4
    8fc8:	01811523          	sh	s8,10(sp)
    8fcc:	b19fe06f          	j	7ae4 <.L1234>

00008fd0 <.L1139>:
    8fd0:	0aa00c13          	li	s8,170
    8fd4:	01ec5463          	bge	s8,t5,8fdc <.L1139+0xc>
    8fd8:	3280206f          	j	b300 <.L1141>
    8fdc:	00c15c03          	lhu	s8,12(sp)
    8fe0:	ffec0c13          	addi	s8,s8,-2
    8fe4:	010c1c13          	slli	s8,s8,0x10
    8fe8:	410c5c13          	srai	s8,s8,0x10
    8fec:	cacf806f          	j	1498 <.L1140>

00008ff0 <.L1850>:
    8ff0:	00c15c03          	lhu	s8,12(sp)
    8ff4:	fffc0c13          	addi	s8,s8,-1
    8ff8:	01811623          	sh	s8,12(sp)
    8ffc:	b5df906f          	j	2b58 <.L1856>

00009000 <.L683>:
    9000:	0dd00c13          	li	s8,221
    9004:	006c5463          	bge	s8,t1,900c <.L683+0xc>
    9008:	3ac0206f          	j	b3b4 <.L691>
    900c:	00815c03          	lhu	s8,8(sp)
    9010:	007c0c13          	addi	s8,s8,7
    9014:	010c1c13          	slli	s8,s8,0x10
    9018:	410c5c13          	srai	s8,s8,0x10
    901c:	d91f706f          	j	dac <.L692>

00009020 <.L2824>:
    9020:	00815f03          	lhu	t5,8(sp)
    9024:	ffaf0f13          	addi	t5,t5,-6
    9028:	01e11423          	sh	t5,8(sp)
    902c:	8c8fa06f          	j	30f4 <.L2189>

00009030 <.L2763>:
    9030:	01900c13          	li	s8,25
    9034:	010c5463          	bge	s8,a6,903c <.L2763+0xc>
    9038:	89cfe06f          	j	70d4 <.L824>
    903c:	00815c03          	lhu	s8,8(sp)
    9040:	00ac0c13          	addi	s8,s8,10
    9044:	01811423          	sh	s8,8(sp)
    9048:	f4df706f          	j	f94 <.L825>

0000904c <.L2873>:
    904c:	0a100c13          	li	s8,161
    9050:	007c5463          	bge	s8,t2,9058 <.L2873+0xc>
    9054:	c58f906f          	j	24ac <.L1411>
    9058:	00e15c03          	lhu	s8,14(sp)
    905c:	008c0c13          	addi	s8,s8,8
    9060:	01811723          	sh	s8,14(sp)
    9064:	c48f906f          	j	24ac <.L1411>

00009068 <.L91>:
    9068:	00a15e03          	lhu	t3,10(sp)
    906c:	31a00c13          	li	s8,794
    9070:	010e0e13          	addi	t3,t3,16
    9074:	01c11523          	sh	t3,10(sp)
    9078:	f0dc4e63          	blt	s8,a3,8794 <.L2351>

0000907c <.L111>:
    907c:	ea700e13          	li	t3,-345
    9080:	01ca4463          	blt	s4,t3,9088 <.L104>
    9084:	bc9fc06f          	j	5c4c <.L105>

00009088 <.L104>:
    9088:	00c15e03          	lhu	t3,12(sp)
    908c:	03d00c13          	li	s8,61
    9090:	ff6e0e13          	addi	t3,t3,-10
    9094:	01c11623          	sh	t3,12(sp)
    9098:	f2fc5663          	bge	s8,a5,87c4 <.L128>
    909c:	be4f706f          	j	480 <.L121>

000090a0 <.L2821>:
    90a0:	01c05463          	blez	t3,90a8 <.L2821+0x8>
    90a4:	e91fb06f          	j	4f34 <.L2102>
    90a8:	00815b03          	lhu	s6,8(sp)
    90ac:	004b0b13          	addi	s6,s6,4
    90b0:	01611423          	sh	s6,8(sp)
    90b4:	e81fb06f          	j	4f34 <.L2102>

000090b8 <.L273>:
    90b8:	03a00e13          	li	t3,58
    90bc:	00fe4463          	blt	t3,a5,90c4 <.L273+0xc>
    90c0:	d99fc06f          	j	5e58 <.L253>
    90c4:	00e15e03          	lhu	t3,14(sp)
    90c8:	ffae0e13          	addi	t3,t3,-6
    90cc:	010e1e13          	slli	t3,t3,0x10
    90d0:	410e5e13          	srai	t3,t3,0x10
    90d4:	e44f706f          	j	718 <.L275>

000090d8 <.L1076>:
    90d8:	00c15c03          	lhu	s8,12(sp)
    90dc:	02f00c93          	li	s9,47
    90e0:	003c0c13          	addi	s8,s8,3
    90e4:	01811623          	sh	s8,12(sp)
    90e8:	010cd463          	bge	s9,a6,90f0 <.L1076+0x18>
    90ec:	f74fc06f          	j	5860 <.L1082>
    90f0:	03800c13          	li	s8,56
    90f4:	01fc4463          	blt	s8,t6,90fc <.L1078>
    90f8:	7840106f          	j	a87c <.L1067>

000090fc <.L1078>:
    90fc:	03b00c13          	li	s8,59
    9100:	00fc4463          	blt	s8,a5,9108 <.L1078+0xc>
    9104:	0700106f          	j	a174 <.L1070>
    9108:	00e15c03          	lhu	s8,14(sp)
    910c:	ffe00c93          	li	s9,-2
    9110:	fffc0c13          	addi	s8,s8,-1
    9114:	01811723          	sh	s8,14(sp)
    9118:	01984463          	blt	a6,s9,9120 <.L1061>
    911c:	eddf806f          	j	1ff8 <.L1080>

00009120 <.L1061>:
    9120:	0a400c13          	li	s8,164
    9124:	02dc5063          	bge	s8,a3,9144 <.L2941>
    9128:	0c100c13          	li	s8,193
    912c:	026c4063          	blt	s8,t1,914c <.L1093>
    9130:	00815c03          	lhu	s8,8(sp)
    9134:	005c0c13          	addi	s8,s8,5
    9138:	010c1c13          	slli	s8,s8,0x10
    913c:	410c5c13          	srai	s8,s8,0x10
    9140:	a3cf806f          	j	137c <.L1092>

00009144 <.L2941>:
    9144:	de600c13          	li	s8,-538
    9148:	458a58e3          	bge	s4,s8,9d98 <.L2942>

0000914c <.L1093>:
    914c:	00815c03          	lhu	s8,8(sp)
    9150:	ffac0c13          	addi	s8,s8,-6
    9154:	010c1c13          	slli	s8,s8,0x10
    9158:	410c5c13          	srai	s8,s8,0x10
    915c:	a20f806f          	j	137c <.L1092>

00009160 <.L521>:
    9160:	00a15c03          	lhu	s8,10(sp)
    9164:	17000c93          	li	s9,368
    9168:	ff7c0c13          	addi	s8,s8,-9
    916c:	01811523          	sh	s8,10(sp)
    9170:	00dcc463          	blt	s9,a3,9178 <.L526>
    9174:	ae4fb06f          	j	4458 <.L522>

00009178 <.L526>:
    9178:	eef00c13          	li	s8,-273
    917c:	0182c463          	blt	t0,s8,9184 <.L526+0xc>
    9180:	6a00106f          	j	a820 <.L527>
    9184:	00c15c03          	lhu	s8,12(sp)
    9188:	00ac0c13          	addi	s8,s8,10
    918c:	010c1c13          	slli	s8,s8,0x10
    9190:	410c5c13          	srai	s8,s8,0x10
    9194:	9c9f706f          	j	b5c <.L538>

00009198 <.L480>:
    9198:	00f00c13          	li	s8,15
    919c:	01dc5863          	bge	s8,t4,91ac <.L485>
    91a0:	00c15c03          	lhu	s8,12(sp)
    91a4:	ff8c0c13          	addi	s8,s8,-8
    91a8:	01811623          	sh	s8,12(sp)

000091ac <.L485>:
    91ac:	e0800c13          	li	s8,-504
    91b0:	01845463          	bge	s0,s8,91b8 <.L498>
    91b4:	8fdf706f          	j	ab0 <.L482>

000091b8 <.L498>:
    91b8:	03b00c13          	li	s8,59
    91bc:	00fc4463          	blt	s8,a5,91c4 <.L498+0xc>
    91c0:	f74fd06f          	j	6934 <.L483>
    91c4:	0d400c13          	li	s8,212
    91c8:	00ec5463          	bge	s8,a4,91d0 <.L484>
    91cc:	c9cfc06f          	j	5668 <.L508>

000091d0 <.L484>:
    91d0:	00e15c03          	lhu	s8,14(sp)
    91d4:	005c0c13          	addi	s8,s8,5
    91d8:	010c1c13          	slli	s8,s8,0x10
    91dc:	410c5c13          	srai	s8,s8,0x10
    91e0:	c98fc06f          	j	5678 <.L504>

000091e4 <.L1563>:
    91e4:	00a15c03          	lhu	s8,10(sp)
    91e8:	004c0c13          	addi	s8,s8,4
    91ec:	01811523          	sh	s8,10(sp)

000091f0 <.L1565>:
    91f0:	06a00c13          	li	s8,106
    91f4:	00ec4463          	blt	s8,a4,91fc <.L1565+0xc>
    91f8:	b01fa06f          	j	3cf8 <.L1564>
    91fc:	965fe06f          	j	7b60 <.L1560>

00009200 <.L1178>:
    9200:	f1200c13          	li	s8,-238
    9204:	01844463          	blt	s0,s8,920c <.L1178+0xc>
    9208:	2f40206f          	j	b4fc <.L1182>
    920c:	00a15c03          	lhu	s8,10(sp)
    9210:	03c00c93          	li	s9,60
    9214:	007c0c13          	addi	s8,s8,7
    9218:	01811523          	sh	s8,10(sp)
    921c:	00fcc463          	blt	s9,a5,9224 <.L2603>
    9220:	845fa06f          	j	3a64 <.L1167>

00009224 <.L2603>:
    9224:	daa00c13          	li	s8,-598
    9228:	018ad463          	bge	s5,s8,9230 <.L1184>
    922c:	aa8fe06f          	j	74d4 <.L1187>

00009230 <.L1184>:
    9230:	00c15c03          	lhu	s8,12(sp)
    9234:	ff9c0c13          	addi	s8,s8,-7
    9238:	010c1c13          	slli	s8,s8,0x10
    923c:	410c5c13          	srai	s8,s8,0x10
    9240:	f95f806f          	j	21d4 <.L1189>

00009244 <.L530>:
    9244:	ffa00c13          	li	s8,-6
    9248:	01865463          	bge	a2,s8,9250 <.L530+0xc>
    924c:	a18fb06f          	j	4464 <.L2277>
    9250:	00c15c03          	lhu	s8,12(sp)
    9254:	ff8c0c13          	addi	s8,s8,-8
    9258:	010c1c13          	slli	s8,s8,0x10
    925c:	410c5c13          	srai	s8,s8,0x10
    9260:	8fdf706f          	j	b5c <.L538>

00009264 <.L489>:
    9264:	30200c13          	li	s8,770
    9268:	00ec4463          	blt	s8,a4,9270 <.L489+0xc>
    926c:	3700206f          	j	b5dc <.L2943>
    9270:	00c15c03          	lhu	s8,12(sp)
    9274:	e0800c93          	li	s9,-504
    9278:	ff7c0c13          	addi	s8,s8,-9
    927c:	01811623          	sh	s8,12(sp)
    9280:	01945463          	bge	s0,s9,9288 <.L489+0x24>
    9284:	82df706f          	j	ab0 <.L482>
    9288:	bd4fc06f          	j	565c <.L491>

0000928c <.L1338>:
    928c:	07a00c13          	li	s8,122
    9290:	016c4463          	blt	s8,s6,9298 <.L1338+0xc>
    9294:	924f906f          	j	23b8 <.L1360>
    9298:	b65fe06f          	j	7dfc <.L1359>

0000929c <.L1258>:
    929c:	00e15c03          	lhu	s8,14(sp)
    92a0:	01500c93          	li	s9,21
    92a4:	003c0c13          	addi	s8,s8,3
    92a8:	01811723          	sh	s8,14(sp)
    92ac:	007cc463          	blt	s9,t2,92b4 <.L1258+0x18>
    92b0:	b48fb06f          	j	45f8 <.L1254>
    92b4:	11d00c13          	li	s8,285
    92b8:	007c4463          	blt	s8,t2,92c0 <.L1256>
    92bc:	ba8f806f          	j	1664 <.L1260>

000092c0 <.L1256>:
    92c0:	2ad00c13          	li	s8,685
    92c4:	006c4463          	blt	s8,t1,92cc <.L1256+0xc>
    92c8:	6b90106f          	j	b180 <.L1272>
    92cc:	00815c03          	lhu	s8,8(sp)
    92d0:	00c00c93          	li	s9,12
    92d4:	019c0c33          	add	s8,s8,s9
    92d8:	01811423          	sh	s8,8(sp)
    92dc:	01ccd463          	bge	s9,t3,92e4 <.L1256+0x24>
    92e0:	b50fb06f          	j	4630 <.L1275>
    92e4:	01700c13          	li	s8,23
    92e8:	01dc5463          	bge	s8,t4,92f0 <.L1256+0x30>
    92ec:	ba0f806f          	j	168c <.L1268>
    92f0:	03300c13          	li	s8,51
    92f4:	00fc4463          	blt	s8,a5,92fc <.L1256+0x3c>
    92f8:	b64fb06f          	j	465c <.L2734>
    92fc:	814f906f          	j	2310 <.L1289>

00009300 <.L726>:
    9300:	01c51c83          	lh	s9,28(a0)
    9304:	03400c13          	li	s8,52
    9308:	019c4a63          	blt	s8,s9,931c <.L2587>
    930c:	00815c03          	lhu	s8,8(sp)
    9310:	ff8c0c13          	addi	s8,s8,-8
    9314:	01811423          	sh	s8,8(sp)
    9318:	f9cf806f          	j	1ab4 <.L718>

0000931c <.L2587>:
    931c:	00815c03          	lhu	s8,8(sp)
    9320:	004c0c13          	addi	s8,s8,4
    9324:	01811423          	sh	s8,8(sp)
    9328:	f8cf806f          	j	1ab4 <.L718>

0000932c <.L1041>:
    932c:	00a15c03          	lhu	s8,10(sp)
    9330:	ff5c0c13          	addi	s8,s8,-11
    9334:	010c1c13          	slli	s8,s8,0x10
    9338:	410c5c13          	srai	s8,s8,0x10
    933c:	fddf706f          	j	1318 <.L1045>

00009340 <.L1668>:
    9340:	00815c03          	lhu	s8,8(sp)
    9344:	01d00c93          	li	s9,29
    9348:	005c0c13          	addi	s8,s8,5
    934c:	01811423          	sh	s8,8(sp)
    9350:	011cc463          	blt	s9,a7,9358 <.L1669>
    9354:	d14f906f          	j	2868 <.L2717>

00009358 <.L1669>:
    9358:	3b500c13          	li	s8,949
    935c:	00ec5463          	bge	s8,a4,9364 <.L1669+0xc>
    9360:	1fc0206f          	j	b55c <.L1686>
    9364:	00a15c03          	lhu	s8,10(sp)
    9368:	00100c93          	li	s9,1
    936c:	ff7c0c13          	addi	s8,s8,-9
    9370:	01811523          	sh	s8,10(sp)
    9374:	01ccd463          	bge	s9,t3,937c <.L1670>
    9378:	d08f906f          	j	2880 <.L1659>

0000937c <.L1670>:
    937c:	00c15c03          	lhu	s8,12(sp)
    9380:	ff600c93          	li	s9,-10
    9384:	004c0c13          	addi	s8,s8,4
    9388:	01811623          	sh	s8,12(sp)
    938c:	01965463          	bge	a2,s9,9394 <.L1670+0x18>
    9390:	d14f906f          	j	28a4 <.L1682>
    9394:	d4dfb06f          	j	50e0 <.L1683>

00009398 <.L1702>:
    9398:	00815c03          	lhu	s8,8(sp)
    939c:	03b00c93          	li	s9,59
    93a0:	ffbc0c13          	addi	s8,s8,-5
    93a4:	01811423          	sh	s8,8(sp)
    93a8:	00fcd463          	bge	s9,a5,93b0 <.L1702+0x18>
    93ac:	b9dfe06f          	j	7f48 <.L1708>
    93b0:	d50f906f          	j	2900 <.L2644>

000093b4 <.L2876>:
    93b4:	11b00c13          	li	s8,283
    93b8:	01ec5463          	bge	s8,t5,93c0 <.L2876+0xc>
    93bc:	ec4fb06f          	j	4a80 <.L1937>
    93c0:	00e15c03          	lhu	s8,14(sp)
    93c4:	00cc0c13          	addi	s8,s8,12
    93c8:	01811723          	sh	s8,14(sp)
    93cc:	8f5f906f          	j	2cc0 <.L1934>

000093d0 <.L1704>:
    93d0:	00e15c03          	lhu	s8,14(sp)
    93d4:	004c0c13          	addi	s8,s8,4
    93d8:	010c1c13          	slli	s8,s8,0x10
    93dc:	010c5c13          	srli	s8,s8,0x10
    93e0:	ce0f906f          	j	28c0 <.L1697>

000093e4 <.L2897>:
    93e4:	02400c13          	li	s8,36
    93e8:	f27c5ae3          	bge	s8,t2,931c <.L2587>
    93ec:	00815c03          	lhu	s8,8(sp)
    93f0:	ffcc0c13          	addi	s8,s8,-4
    93f4:	01811423          	sh	s8,8(sp)
    93f8:	ebcf806f          	j	1ab4 <.L718>

000093fc <.L2755>:
    93fc:	03d00e13          	li	t3,61
    9400:	01c78463          	beq	a5,t3,9408 <.L2755+0xc>
    9404:	aecfa06f          	j	36f0 <.L213>
    9408:	03d00793          	li	a5,61

0000940c <.L211>:
    940c:	f2000e13          	li	t3,-224
    9410:	01ca4463          	blt	s4,t3,9418 <.L211+0xc>
    9414:	66c0106f          	j	aa80 <.L238>
    9418:	00a15e03          	lhu	t3,10(sp)
    941c:	08c00c13          	li	s8,140
    9420:	009e0e13          	addi	t3,t3,9
    9424:	01c11523          	sh	t3,10(sp)
    9428:	00dc4463          	blt	s8,a3,9430 <.L211+0x24>
    942c:	9fdfc06f          	j	5e28 <.L239>
    9430:	dacfa06f          	j	39dc <.L225>

00009434 <.L1453>:
    9434:	02700c13          	li	s8,39
    9438:	01dc4463          	blt	s8,t4,9440 <.L1453+0xc>
    943c:	974f906f          	j	25b0 <.L1476>
    9440:	00a15c03          	lhu	s8,10(sp)
    9444:	007c0c13          	addi	s8,s8,7
    9448:	01811523          	sh	s8,10(sp)
    944c:	c39fa06f          	j	4084 <.L1477>

00009450 <.L1176>:
    9450:	f1200c13          	li	s8,-238
    9454:	01845463          	bge	s0,s8,945c <.L1181>
    9458:	6500206f          	j	baa8 <.L2944>

0000945c <.L1181>:
    945c:	00a15c03          	lhu	s8,10(sp)
    9460:	ff6c0c13          	addi	s8,s8,-10
    9464:	01811523          	sh	s8,10(sp)
    9468:	dfcfa06f          	j	3a64 <.L1167>

0000946c <.L2889>:
    946c:	00c15c03          	lhu	s8,12(sp)
    9470:	ff600c93          	li	s9,-10
    9474:	003c0c13          	addi	s8,s8,3
    9478:	01811623          	sh	s8,12(sp)
    947c:	01965463          	bge	a2,s9,9484 <.L2889+0x18>
    9480:	c39fb06f          	j	50b8 <.L1931>
    9484:	de4fb06f          	j	4a68 <.L1930>

00009488 <.L2190>:
    9488:	00815f03          	lhu	t5,8(sp)
    948c:	005f0f13          	addi	t5,t5,5
    9490:	01e11423          	sh	t5,8(sp)
    9494:	c61f906f          	j	30f4 <.L2189>

00009498 <.L694>:
    9498:	00815c03          	lhu	s8,8(sp)
    949c:	ff7c0c13          	addi	s8,s8,-9
    94a0:	010c1c13          	slli	s8,s8,0x10
    94a4:	410c5c13          	srai	s8,s8,0x10
    94a8:	905f706f          	j	dac <.L692>

000094ac <.L1020>:
    94ac:	00c15c03          	lhu	s8,12(sp)
    94b0:	ffdc0c13          	addi	s8,s8,-3
    94b4:	010c1c13          	slli	s8,s8,0x10
    94b8:	410c5c13          	srai	s8,s8,0x10
    94bc:	dd1f706f          	j	128c <.L1019>

000094c0 <.L1414>:
    94c0:	00c15c03          	lhu	s8,12(sp)
    94c4:	03c00c93          	li	s9,60
    94c8:	003c0c13          	addi	s8,s8,3
    94cc:	01811623          	sh	s8,12(sp)
    94d0:	00fcd463          	bge	s9,a5,94d8 <.L1414+0x18>
    94d4:	b6cfb06f          	j	4840 <.L1390>
    94d8:	fb1f806f          	j	2488 <.L2626>

000094dc <.L1050>:
    94dc:	00815c03          	lhu	s8,8(sp)
    94e0:	001c0c13          	addi	s8,s8,1
    94e4:	01811423          	sh	s8,8(sp)
    94e8:	dfdf706f          	j	12e4 <.L1043>

000094ec <.L1858>:
    94ec:	00c15c03          	lhu	s8,12(sp)
    94f0:	009c0c13          	addi	s8,s8,9
    94f4:	01811623          	sh	s8,12(sp)
    94f8:	e60f906f          	j	2b58 <.L1856>

000094fc <.L2806>:
    94fc:	ff000c13          	li	s8,-16
    9500:	01865463          	bge	a2,s8,9508 <.L2806+0xc>
    9504:	b28fb06f          	j	482c <.L1389>
    9508:	a59fa06f          	j	3f60 <.L1394>

0000950c <.L2926>:
    950c:	00c15c03          	lhu	s8,12(sp)
    9510:	ffec0c13          	addi	s8,s8,-2
    9514:	01811623          	sh	s8,12(sp)

00009518 <.L1302>:
    9518:	02a00c13          	li	s8,42
    951c:	011c4463          	blt	s8,a7,9524 <.L1302+0xc>
    9520:	801fe06f          	j	7d20 <.L2614>
    9524:	00e15c03          	lhu	s8,14(sp)
    9528:	ffe00c93          	li	s9,-2
    952c:	002c0c13          	addi	s8,s8,2
    9530:	01811723          	sh	s8,14(sp)
    9534:	01985463          	bge	a6,s9,953c <.L1302+0x24>
    9538:	9bcf806f          	j	16f4 <.L1300>
    953c:	974fb06f          	j	46b0 <.L1301>

00009540 <.L2811>:
    9540:	ffc00c13          	li	s8,-4
    9544:	01864463          	blt	a2,s8,954c <.L2811+0xc>
    9548:	8c9fa06f          	j	3e10 <.L1665>
    954c:	02e00c13          	li	s8,46
    9550:	01dc4463          	blt	s8,t4,9558 <.L1667>
    9554:	8d5fa06f          	j	3e28 <.L1666>

00009558 <.L1667>:
    9558:	00e00c13          	li	s8,14
    955c:	010c5463          	bge	s8,a6,9564 <.L1667+0xc>
    9560:	2240206f          	j	b784 <.L2945>
    9564:	00a15c03          	lhu	s8,10(sp)
    9568:	00100c93          	li	s9,1
    956c:	004c0c13          	addi	s8,s8,4
    9570:	01811523          	sh	s8,10(sp)
    9574:	01ccd463          	bge	s9,t3,957c <.L1667+0x24>
    9578:	d64fc06f          	j	5adc <.L1692>
    957c:	e58ff06f          	j	8bd4 <.L1694>

00009580 <.L849>:
    9580:	00c15c03          	lhu	s8,12(sp)
    9584:	d2a00c93          	li	s9,-726
    9588:	ff8c0c13          	addi	s8,s8,-8
    958c:	01811623          	sh	s8,12(sp)
    9590:	0195d463          	bge	a1,s9,9598 <.L849+0x18>
    9594:	c00fc06f          	j	5994 <.L850>
    9598:	ef4f806f          	j	1c8c <.L2593>

0000959c <.L1696>:
    959c:	00e15c03          	lhu	s8,14(sp)
    95a0:	003c0c13          	addi	s8,s8,3
    95a4:	010c1c13          	slli	s8,s8,0x10
    95a8:	010c5c13          	srli	s8,s8,0x10
    95ac:	b14f906f          	j	28c0 <.L1697>

000095b0 <.L2887>:
    95b0:	00a15b03          	lhu	s6,10(sp)
    95b4:	ff9b0b13          	addi	s6,s6,-7
    95b8:	01611523          	sh	s6,10(sp)
    95bc:	9fdf906f          	j	2fb8 <.L2115>

000095c0 <.L954>:
    95c0:	00815c03          	lhu	s8,8(sp)
    95c4:	ffbc0c13          	addi	s8,s8,-5
    95c8:	010c1c13          	slli	s8,s8,0x10
    95cc:	410c5c13          	srai	s8,s8,0x10
    95d0:	859f806f          	j	1e28 <.L948>

000095d4 <.L1008>:
    95d4:	00a15c03          	lhu	s8,10(sp)
    95d8:	ff7c0c13          	addi	s8,s8,-9
    95dc:	010c1c13          	slli	s8,s8,0x10
    95e0:	010c5c13          	srli	s8,s8,0x10
    95e4:	8a5fc06f          	j	5e88 <.L1009>

000095e8 <.L2121>:
    95e8:	00a15b03          	lhu	s6,10(sp)
    95ec:	001b0b13          	addi	s6,s6,1
    95f0:	01611523          	sh	s6,10(sp)
    95f4:	9c5f906f          	j	2fb8 <.L2115>

000095f8 <.L1910>:
    95f8:	00815c03          	lhu	s8,8(sp)
    95fc:	fffc0c13          	addi	s8,s8,-1
    9600:	01811423          	sh	s8,8(sp)
    9604:	02b00c13          	li	s8,43
    9608:	010c5463          	bge	s8,a6,9610 <.L1910+0x18>
    960c:	a6dfb06f          	j	5078 <.L1903>
    9610:	e28f906f          	j	2c38 <.L1909>

00009614 <.L608>:
    9614:	00e15c03          	lhu	s8,14(sp)
    9618:	009c0c13          	addi	s8,s8,9
    961c:	010c1c13          	slli	s8,s8,0x10
    9620:	010c5c13          	srli	s8,s8,0x10
    9624:	01811723          	sh	s8,14(sp)
    9628:	e0cf706f          	j	c34 <.L607>

0000962c <.L1137>:
    962c:	00a15c03          	lhu	s8,10(sp)
    9630:	ffcc0c13          	addi	s8,s8,-4
    9634:	01811523          	sh	s8,10(sp)
    9638:	e39f706f          	j	1470 <.L1138>

0000963c <.L1608>:
    963c:	00a15c03          	lhu	s8,10(sp)
    9640:	03c00c93          	li	s9,60
    9644:	00ac0c13          	addi	s8,s8,10
    9648:	01811523          	sh	s8,10(sp)
    964c:	00fcc463          	blt	s9,a5,9654 <.L1608+0x18>
    9650:	b9cfc06f          	j	59ec <.L1604>
    9654:	824ff06f          	j	8678 <.L2712>

00009658 <.L702>:
    9658:	00a15c03          	lhu	s8,10(sp)
    965c:	003c0c13          	addi	s8,s8,3
    9660:	010c1c13          	slli	s8,s8,0x10
    9664:	410c5c13          	srai	s8,s8,0x10
    9668:	bbcf806f          	j	1a24 <.L701>

0000966c <.L2354>:
    966c:	2ff00e13          	li	t3,767
    9670:	00ee4463          	blt	t3,a4,9678 <.L2354+0xc>
    9674:	f3cfd06f          	j	6db0 <.L156>
    9678:	00001e37          	lui	t3,0x1
    967c:	85be0e13          	addi	t3,t3,-1957 # 85b <.L352+0xf>
    9680:	00de4463          	blt	t3,a3,9688 <.L2354+0x1c>
    9684:	2b00206f          	j	b934 <.L2946>
    9688:	00c15e03          	lhu	t3,12(sp)
    968c:	00ae0e13          	addi	t3,t3,10
    9690:	01c11623          	sh	t3,12(sp)
    9694:	fadf606f          	j	640 <.L174>

00009698 <.L942>:
    9698:	00e15c03          	lhu	s8,14(sp)
    969c:	002c0c13          	addi	s8,s8,2
    96a0:	01811723          	sh	s8,14(sp)
    96a4:	acdf706f          	j	1170 <.L940>

000096a8 <.L804>:
    96a8:	00a15c03          	lhu	s8,10(sp)
    96ac:	ffc00c93          	li	s9,-4
    96b0:	ffbc0c13          	addi	s8,s8,-5
    96b4:	01811523          	sh	s8,10(sp)
    96b8:	01964463          	blt	a2,s9,96c0 <.L804+0x18>
    96bc:	885f706f          	j	f40 <.L812>
    96c0:	cf0f806f          	j	1bb0 <.L797>

000096c4 <.L423>:
    96c4:	00815c03          	lhu	s8,8(sp)
    96c8:	002c0c13          	addi	s8,s8,2
    96cc:	010c1c13          	slli	s8,s8,0x10
    96d0:	410c5c13          	srai	s8,s8,0x10
    96d4:	aacf706f          	j	980 <.L420>

000096d8 <.L1149>:
    96d8:	00e15c03          	lhu	s8,14(sp)
    96dc:	001c0c13          	addi	s8,s8,1
    96e0:	010c1c13          	slli	s8,s8,0x10
    96e4:	410c5c13          	srai	s8,s8,0x10
    96e8:	de5f706f          	j	14cc <.L1148>

000096ec <.L665>:
    96ec:	00a15c03          	lhu	s8,10(sp)
    96f0:	008c0c13          	addi	s8,s8,8
    96f4:	010c1c13          	slli	s8,s8,0x10
    96f8:	410c5c13          	srai	s8,s8,0x10
    96fc:	e20f706f          	j	d1c <.L662>

00009700 <.L867>:
    9700:	00a15c03          	lhu	s8,10(sp)
    9704:	ffdc0c13          	addi	s8,s8,-3
    9708:	01811523          	sh	s8,10(sp)
    970c:	95df706f          	j	1068 <.L874>

00009710 <.L463>:
    9710:	00815c03          	lhu	s8,8(sp)
    9714:	0b500c93          	li	s9,181
    9718:	ffbc0c13          	addi	s8,s8,-5
    971c:	01811423          	sh	s8,8(sp)
    9720:	006cc463          	blt	s9,t1,9728 <.L463+0x18>
    9724:	b24f706f          	j	a48 <.L465>
    9728:	e35f906f          	j	355c <.L472>

0000972c <.L877>:
    972c:	00a15c03          	lhu	s8,10(sp)
    9730:	005c0c13          	addi	s8,s8,5
    9734:	01811523          	sh	s8,10(sp)
    9738:	dc0f806f          	j	1cf8 <.L878>

0000973c <.L897>:
    973c:	00e15c03          	lhu	s8,14(sp)
    9740:	ec600c93          	li	s9,-314
    9744:	001c0c13          	addi	s8,s8,1
    9748:	01811723          	sh	s8,14(sp)
    974c:	01945463          	bge	s0,s9,9754 <.L897+0x18>
    9750:	dfcf806f          	j	1d4c <.L904>
    9754:	ebf00c13          	li	s8,-321
    9758:	0185da63          	bge	a1,s8,976c <.L902>

0000975c <.L901>:
    975c:	00815c03          	lhu	s8,8(sp)
    9760:	019c0c13          	addi	s8,s8,25
    9764:	01811423          	sh	s8,8(sp)
    9768:	981f706f          	j	10e8 <.L906>

0000976c <.L902>:
    976c:	00815c03          	lhu	s8,8(sp)
    9770:	004c0c13          	addi	s8,s8,4
    9774:	01811423          	sh	s8,8(sp)
    9778:	971f706f          	j	10e8 <.L906>

0000977c <.L75>:
    977c:	00e15e03          	lhu	t3,14(sp)
    9780:	fffe0e13          	addi	t3,t3,-1
    9784:	010e1e13          	slli	t3,t3,0x10
    9788:	410e5e13          	srai	t3,t3,0x10
    978c:	c65f606f          	j	3f0 <.L73>

00009790 <.L436>:
    9790:	00a15c03          	lhu	s8,10(sp)
    9794:	ff9c0c13          	addi	s8,s8,-7
    9798:	010c1c13          	slli	s8,s8,0x10
    979c:	410c5c13          	srai	s8,s8,0x10
    97a0:	d25f906f          	j	34c4 <.L437>

000097a4 <.L467>:
    97a4:	00815c03          	lhu	s8,8(sp)
    97a8:	0b500c93          	li	s9,181
    97ac:	ff8c0c13          	addi	s8,s8,-8
    97b0:	01811423          	sh	s8,8(sp)
    97b4:	006cc463          	blt	s9,t1,97bc <.L467+0x18>
    97b8:	a90f706f          	j	a48 <.L465>
    97bc:	da1f906f          	j	355c <.L472>

000097c0 <.L441>:
    97c0:	00c15c03          	lhu	s8,12(sp)
    97c4:	e2500c93          	li	s9,-475
    97c8:	ff8c0c13          	addi	s8,s8,-8
    97cc:	01811623          	sh	s8,12(sp)
    97d0:	01944463          	blt	s0,s9,97d8 <.L441+0x18>
    97d4:	eadf906f          	j	3680 <.L443>
    97d8:	b25fc06f          	j	62fc <.L442>

000097dc <.L677>:
    97dc:	00e15c03          	lhu	s8,14(sp)
    97e0:	ff7c0c13          	addi	s8,s8,-9
    97e4:	010c1c13          	slli	s8,s8,0x10
    97e8:	410c5c13          	srai	s8,s8,0x10
    97ec:	d90f706f          	j	d7c <.L676>

000097f0 <.L836>:
    97f0:	00a15c03          	lhu	s8,10(sp)
    97f4:	fffc0c13          	addi	s8,s8,-1
    97f8:	01811523          	sh	s8,10(sp)
    97fc:	c60f806f          	j	1c5c <.L837>

00009800 <.L469>:
    9800:	00a15c03          	lhu	s8,10(sp)
    9804:	007c0c13          	addi	s8,s8,7
    9808:	010c1c13          	slli	s8,s8,0x10
    980c:	410c5c13          	srai	s8,s8,0x10
    9810:	a60f706f          	j	a70 <.L470>

00009814 <.L130>:
    9814:	00e15e03          	lhu	t3,14(sp)
    9818:	006e0e13          	addi	t3,t3,6
    981c:	010e1e13          	slli	t3,t3,0x10
    9820:	410e5e13          	srai	t3,t3,0x10
    9824:	c81f606f          	j	4a4 <.L129>

00009828 <.L458>:
    9828:	00815c03          	lhu	s8,8(sp)
    982c:	ffbc0c13          	addi	s8,s8,-5
    9830:	01811423          	sh	s8,8(sp)
    9834:	b11fc06f          	j	6344 <.L460>

00009838 <.L434>:
    9838:	00a15c03          	lhu	s8,10(sp)
    983c:	06300c93          	li	s9,99
    9840:	001c0c13          	addi	s8,s8,1
    9844:	01811523          	sh	s8,10(sp)
    9848:	00dcc463          	blt	s9,a3,9850 <.L434+0x18>
    984c:	dfdf906f          	j	3648 <.L432>
    9850:	970f706f          	j	9c0 <.L427>

00009854 <.L1094>:
    9854:	00815c03          	lhu	s8,8(sp)
    9858:	006c0c13          	addi	s8,s8,6
    985c:	010c1c13          	slli	s8,s8,0x10
    9860:	410c5c13          	srai	s8,s8,0x10
    9864:	b19f706f          	j	137c <.L1092>

00009868 <.L566>:
    9868:	00a15c03          	lhu	s8,10(sp)
    986c:	003c0c13          	addi	s8,s8,3
    9870:	010c1c13          	slli	s8,s8,0x10
    9874:	410c5c13          	srai	s8,s8,0x10
    9878:	b60f706f          	j	bd8 <.L2578>

0000987c <.L426>:
    987c:	00a15c03          	lhu	s8,10(sp)
    9880:	06300c93          	li	s9,99
    9884:	009c0c13          	addi	s8,s8,9
    9888:	01811523          	sh	s8,10(sp)
    988c:	00dcc463          	blt	s9,a3,9894 <.L426+0x18>
    9890:	db9f906f          	j	3648 <.L432>
    9894:	92cf706f          	j	9c0 <.L427>

00009898 <.L450>:
    9898:	00e15c03          	lhu	s8,14(sp)
    989c:	00ac0c13          	addi	s8,s8,10
    98a0:	010c1c13          	slli	s8,s8,0x10
    98a4:	010c5c13          	srli	s8,s8,0x10
    98a8:	964f706f          	j	a0c <.L2571>

000098ac <.L440>:
    98ac:	00c15c03          	lhu	s8,12(sp)
    98b0:	ffec0c13          	addi	s8,s8,-2
    98b4:	010c1c13          	slli	s8,s8,0x10
    98b8:	410c5c13          	srai	s8,s8,0x10
    98bc:	920f706f          	j	9dc <.L431>

000098c0 <.L471>:
    98c0:	00a15c03          	lhu	s8,10(sp)
    98c4:	ffec0c13          	addi	s8,s8,-2
    98c8:	010c1c13          	slli	s8,s8,0x10
    98cc:	410c5c13          	srai	s8,s8,0x10
    98d0:	9a0f706f          	j	a70 <.L470>

000098d4 <.L1031>:
    98d4:	00e15c03          	lhu	s8,14(sp)
    98d8:	ffdc0c13          	addi	s8,s8,-3
    98dc:	010c1c13          	slli	s8,s8,0x10
    98e0:	410c5c13          	srai	s8,s8,0x10
    98e4:	9ddf706f          	j	12c0 <.L1028>

000098e8 <.L473>:
    98e8:	00a15c03          	lhu	s8,10(sp)
    98ec:	004c0c13          	addi	s8,s8,4
    98f0:	010c1c13          	slli	s8,s8,0x10
    98f4:	410c5c13          	srai	s8,s8,0x10
    98f8:	978f706f          	j	a70 <.L470>

000098fc <.L1442>:
    98fc:	00400c13          	li	s8,4
    9900:	011c5463          	bge	s8,a7,9908 <.L1442+0xc>
    9904:	a80fc06f          	j	5b84 <.L1444>
    9908:	c61f806f          	j	2568 <.L1445>

0000990c <.L1131>:
    990c:	00815c03          	lhu	s8,8(sp)
    9910:	03300c93          	li	s9,51
    9914:	003c0c13          	addi	s8,s8,3
    9918:	01811423          	sh	s8,8(sp)
    991c:	01fcd463          	bge	s9,t6,9924 <.L1131+0x18>
    9920:	fbcf806f          	j	20dc <.L1129>
    9924:	fe200c13          	li	s8,-30
    9928:	01864463          	blt	a2,s8,9930 <.L1132>
    992c:	938fe06f          	j	7a64 <.L1128>

00009930 <.L1132>:
    9930:	00a15c03          	lhu	s8,10(sp)
    9934:	005c0c13          	addi	s8,s8,5
    9938:	010c1c13          	slli	s8,s8,0x10
    993c:	410c5c13          	srai	s8,s8,0x10
    9940:	b25f706f          	j	1464 <.L1133>

00009944 <.L811>:
    9944:	00c15c03          	lhu	s8,12(sp)
    9948:	ff9c0c13          	addi	s8,s8,-7
    994c:	010c1c13          	slli	s8,s8,0x10
    9950:	410c5c13          	srai	s8,s8,0x10
    9954:	a84f806f          	j	1bd8 <.L810>

00009958 <.L675>:
    9958:	00e15c03          	lhu	s8,14(sp)
    995c:	ffac0c13          	addi	s8,s8,-6
    9960:	010c1c13          	slli	s8,s8,0x10
    9964:	410c5c13          	srai	s8,s8,0x10
    9968:	c14f706f          	j	d7c <.L676>

0000996c <.L705>:
    996c:	00c15c03          	lhu	s8,12(sp)
    9970:	00dc0c13          	addi	s8,s8,13
    9974:	010c1c13          	slli	s8,s8,0x10
    9978:	410c5c13          	srai	s8,s8,0x10
    997c:	c98f706f          	j	e14 <.L706>

00009980 <.L680>:
    9980:	00e15c03          	lhu	s8,14(sp)
    9984:	008c0c13          	addi	s8,s8,8
    9988:	010c1c13          	slli	s8,s8,0x10
    998c:	010c5c13          	srli	s8,s8,0x10
    9990:	d98fc06f          	j	5f28 <.L681>

00009994 <.L2180>:
    9994:	00c15683          	lhu	a3,12(sp)
    9998:	ffe68693          	addi	a3,a3,-2
    999c:	00d11623          	sh	a3,12(sp)
    99a0:	f0cf906f          	j	30ac <.L2164>

000099a4 <.L2155>:
    99a4:	00a15b03          	lhu	s6,10(sp)
    99a8:	007b0b13          	addi	s6,s6,7
    99ac:	01611523          	sh	s6,10(sp)
    99b0:	ce9fd06f          	j	7698 <.L2156>

000099b4 <.L1243>:
    99b4:	00c15c03          	lhu	s8,12(sp)
    99b8:	009c0c13          	addi	s8,s8,9
    99bc:	010c1c13          	slli	s8,s8,0x10
    99c0:	410c5c13          	srai	s8,s8,0x10
    99c4:	8c5f806f          	j	2288 <.L1240>

000099c8 <.L1976>:
    99c8:	00c15c03          	lhu	s8,12(sp)
    99cc:	05800c93          	li	s9,88
    99d0:	ff7c0c13          	addi	s8,s8,-9
    99d4:	01811623          	sh	s8,12(sp)
    99d8:	009cca63          	blt	s9,s1,99ec <.L1977>
    99dc:	f5300c13          	li	s8,-173
    99e0:	01844463          	blt	s0,s8,99e8 <.L1976+0x20>
    99e4:	94cfb06f          	j	4b30 <.L1995>
    99e8:	93cfb06f          	j	4b24 <.L2656>

000099ec <.L1977>:
    99ec:	03600c13          	li	s8,54
    99f0:	00fc5463          	bge	s8,a5,99f8 <.L1977+0xc>
    99f4:	2310106f          	j	b424 <.L1990>
    99f8:	00e15c03          	lhu	s8,14(sp)
    99fc:	ff9c0c13          	addi	s8,s8,-7
    9a00:	01811723          	sh	s8,14(sp)
    9a04:	92cfb06f          	j	4b30 <.L1995>

00009a08 <.L1516>:
    9a08:	00a15c03          	lhu	s8,10(sp)
    9a0c:	007c0c13          	addi	s8,s8,7
    9a10:	010c1c13          	slli	s8,s8,0x10
    9a14:	410c5c13          	srai	s8,s8,0x10
    9a18:	f0cfa06f          	j	4124 <.L1517>

00009a1c <.L2139>:
    9a1c:	00e15b03          	lhu	s6,14(sp)
    9a20:	009b0b13          	addi	s6,s6,9
    9a24:	010b1b13          	slli	s6,s6,0x10
    9a28:	410b5b13          	srai	s6,s6,0x10
    9a2c:	92dfb06f          	j	5358 <.L2138>

00009a30 <.L2006>:
    9a30:	00a15c03          	lhu	s8,10(sp)
    9a34:	008c0c13          	addi	s8,s8,8
    9a38:	01811523          	sh	s8,10(sp)
    9a3c:	b80f906f          	j	2dbc <.L1999>

00009a40 <.L50>:
    9a40:	00a15e03          	lhu	t3,10(sp)
    9a44:	df700393          	li	t2,-521
    9a48:	ff9e0e13          	addi	t3,t3,-7
    9a4c:	01c11523          	sh	t3,10(sp)
    9a50:	007a5463          	bge	s4,t2,9a58 <.L53>
    9a54:	f58f606f          	j	1ac <.L52>

00009a58 <.L53>:
    9a58:	00c15e03          	lhu	t3,12(sp)
    9a5c:	ff5e0e13          	addi	t3,t3,-11
    9a60:	010e1e13          	slli	t3,t3,0x10
    9a64:	410e5e13          	srai	t3,t3,0x10
    9a68:	f6cf606f          	j	1d4 <.L65>

00009a6c <.L279>:
    9a6c:	00e15e03          	lhu	t3,14(sp)
    9a70:	ff7e0e13          	addi	t3,t3,-9
    9a74:	010e1e13          	slli	t3,t3,0x10
    9a78:	410e5e13          	srai	t3,t3,0x10
    9a7c:	c9df606f          	j	718 <.L275>

00009a80 <.L394>:
    9a80:	00815c03          	lhu	s8,8(sp)
    9a84:	ff6c0c13          	addi	s8,s8,-10
    9a88:	010c1c13          	slli	s8,s8,0x10
    9a8c:	410c5c13          	srai	s8,s8,0x10
    9a90:	91df906f          	j	33ac <.L395>

00009a94 <.L1241>:
    9a94:	00c15c03          	lhu	s8,12(sp)
    9a98:	ffac0c13          	addi	s8,s8,-6
    9a9c:	010c1c13          	slli	s8,s8,0x10
    9aa0:	410c5c13          	srai	s8,s8,0x10
    9aa4:	fe4f806f          	j	2288 <.L1240>

00009aa8 <.L2018>:
    9aa8:	00e15c03          	lhu	s8,14(sp)
    9aac:	002c0c13          	addi	s8,s8,2
    9ab0:	010c1c13          	slli	s8,s8,0x10
    9ab4:	410c5c13          	srai	s8,s8,0x10
    9ab8:	b5cf906f          	j	2e14 <.L2015>

00009abc <.L1147>:
    9abc:	00e15c03          	lhu	s8,14(sp)
    9ac0:	ffbc0c13          	addi	s8,s8,-5
    9ac4:	010c1c13          	slli	s8,s8,0x10
    9ac8:	410c5c13          	srai	s8,s8,0x10
    9acc:	a01f706f          	j	14cc <.L1148>

00009ad0 <.L1724>:
    9ad0:	00a15c03          	lhu	s8,10(sp)
    9ad4:	ff7c0c13          	addi	s8,s8,-9
    9ad8:	010c1c13          	slli	s8,s8,0x10
    9adc:	410c5c13          	srai	s8,s8,0x10
    9ae0:	e3df806f          	j	291c <.L1721>

00009ae4 <.L1771>:
    9ae4:	00c15c03          	lhu	s8,12(sp)
    9ae8:	002c0c13          	addi	s8,s8,2
    9aec:	01811623          	sh	s8,12(sp)
    9af0:	f09f806f          	j	29f8 <.L1770>

00009af4 <.L1436>:
    9af4:	00c15c03          	lhu	s8,12(sp)
    9af8:	002c0c13          	addi	s8,s8,2
    9afc:	01811623          	sh	s8,12(sp)
    9b00:	a2df806f          	j	252c <.L1435>

00009b04 <.L322>:
    9b04:	00c15c03          	lhu	s8,12(sp)
    9b08:	014c0c13          	addi	s8,s8,20
    9b0c:	010c1c13          	slli	s8,s8,0x10
    9b10:	010c5c13          	srli	s8,s8,0x10
    9b14:	ce5f906f          	j	37f8 <.L323>

00009b18 <.L513>:
    9b18:	00815c03          	lhu	s8,8(sp)
    9b1c:	004c0c13          	addi	s8,s8,4
    9b20:	010c1c13          	slli	s8,s8,0x10
    9b24:	410c5c13          	srai	s8,s8,0x10
    9b28:	979fa06f          	j	44a0 <.L512>

00009b2c <.L1123>:
    9b2c:	00e15c03          	lhu	s8,14(sp)
    9b30:	003c0c13          	addi	s8,s8,3
    9b34:	01811723          	sh	s8,14(sp)
    9b38:	a05fb06f          	j	553c <.L1122>

00009b3c <.L1263>:
    9b3c:	00815c03          	lhu	s8,8(sp)
    9b40:	004c0c13          	addi	s8,s8,4
    9b44:	010c1c13          	slli	s8,s8,0x10
    9b48:	410c5c13          	srai	s8,s8,0x10
    9b4c:	ac9fa06f          	j	4614 <.L1253>

00009b50 <.L1331>:
    9b50:	00815c03          	lhu	s8,8(sp)
    9b54:	ffec0c13          	addi	s8,s8,-2
    9b58:	010c1c13          	slli	s8,s8,0x10
    9b5c:	410c5c13          	srai	s8,s8,0x10
    9b60:	809f806f          	j	2368 <.L1332>

00009b64 <.L1098>:
    9b64:	00a15c03          	lhu	s8,10(sp)
    9b68:	fffc0c13          	addi	s8,s8,-1
    9b6c:	01811523          	sh	s8,10(sp)
    9b70:	839f706f          	j	13a8 <.L1097>

00009b74 <.L396>:
    9b74:	00815c03          	lhu	s8,8(sp)
    9b78:	00bc0c13          	addi	s8,s8,11
    9b7c:	010c1c13          	slli	s8,s8,0x10
    9b80:	410c5c13          	srai	s8,s8,0x10
    9b84:	829f906f          	j	33ac <.L395>

00009b88 <.L1774>:
    9b88:	00e15c03          	lhu	s8,14(sp)
    9b8c:	ffec0c13          	addi	s8,s8,-2
    9b90:	01811723          	sh	s8,14(sp)
    9b94:	e95f806f          	j	2a28 <.L1775>

00009b98 <.L2934>:
    9b98:	00c15c03          	lhu	s8,12(sp)
    9b9c:	006c0c13          	addi	s8,s8,6
    9ba0:	010c1c13          	slli	s8,s8,0x10
    9ba4:	410c5c13          	srai	s8,s8,0x10
    9ba8:	b99f806f          	j	2740 <.L1574>

00009bac <.L1767>:
    9bac:	00a15c03          	lhu	s8,10(sp)
    9bb0:	001c0c13          	addi	s8,s8,1
    9bb4:	01811523          	sh	s8,10(sp)
    9bb8:	e15f806f          	j	29cc <.L1756>

00009bbc <.L2044>:
    9bbc:	00c15c03          	lhu	s8,12(sp)
    9bc0:	ffcc0c13          	addi	s8,s8,-4
    9bc4:	01811623          	sh	s8,12(sp)
    9bc8:	01c04463          	bgtz	t3,9bd0 <.L2044+0x14>
    9bcc:	cddfb06f          	j	58a8 <.L2657>
    9bd0:	ff600c13          	li	s8,-10
    9bd4:	01864463          	blt	a2,s8,9bdc <.L2044+0x20>
    9bd8:	64d0106f          	j	ba24 <.L2059>
    9bdc:	02900c13          	li	s8,41
    9be0:	01dc5463          	bge	s8,t4,9be8 <.L2044+0x2c>
    9be4:	3240206f          	j	bf08 <.L2060>
    9be8:	00e15c03          	lhu	s8,14(sp)
    9bec:	0a900c93          	li	s9,169
    9bf0:	ffbc0c13          	addi	s8,s8,-5
    9bf4:	01811723          	sh	s8,14(sp)
    9bf8:	01ecc463          	blt	s9,t5,9c00 <.L2044+0x44>
    9bfc:	adcf906f          	j	2ed8 <.L2050>
    9c00:	cc1fb06f          	j	58c0 <.L2046>

00009c04 <.L724>:
    9c04:	00e15c03          	lhu	s8,14(sp)
    9c08:	003c0c13          	addi	s8,s8,3
    9c0c:	01811723          	sh	s8,14(sp)
    9c10:	e79f706f          	j	1a88 <.L722>

00009c14 <.L2341>:
    9c14:	00851803          	lh	a6,8(a0)
    9c18:	02200593          	li	a1,34
    9c1c:	0105c463          	blt	a1,a6,9c24 <.L2341+0x10>
    9c20:	c49f906f          	j	3868 <.L2317>
    9c24:	01e51583          	lh	a1,30(a0)
    9c28:	00c51903          	lh	s2,12(a0)

00009c2c <.L35>:
    9c2c:	00815883          	lhu	a7,8(sp)
    9c30:	1b500e13          	li	t3,437
    9c34:	ff488893          	addi	a7,a7,-12
    9c38:	01111423          	sh	a7,8(sp)
    9c3c:	00ee5463          	bge	t3,a4,9c44 <.L35+0x18>
    9c40:	c49f906f          	j	3888 <.L44>
    9c44:	f34f606f          	j	378 <.L2544>

00009c48 <.L669>:
    9c48:	00c15c03          	lhu	s8,12(sp)
    9c4c:	ffec0c13          	addi	s8,s8,-2
    9c50:	01811623          	sh	s8,12(sp)
    9c54:	8f8f706f          	j	d4c <.L670>

00009c58 <.L679>:
    9c58:	00e15c03          	lhu	s8,14(sp)
    9c5c:	008c0c13          	addi	s8,s8,8
    9c60:	010c1c13          	slli	s8,s8,0x10
    9c64:	410c5c13          	srai	s8,s8,0x10
    9c68:	914f706f          	j	d7c <.L676>

00009c6c <.L671>:
    9c6c:	00c15c03          	lhu	s8,12(sp)
    9c70:	ff7c0c13          	addi	s8,s8,-9
    9c74:	01811623          	sh	s8,12(sp)
    9c78:	8d4f706f          	j	d4c <.L670>

00009c7c <.L562>:
    9c7c:	00a15c03          	lhu	s8,10(sp)
    9c80:	006c0c13          	addi	s8,s8,6
    9c84:	010c1c13          	slli	s8,s8,0x10
    9c88:	410c5c13          	srai	s8,s8,0x10
    9c8c:	f4df606f          	j	bd8 <.L2578>

00009c90 <.L887>:
    9c90:	00c15c03          	lhu	s8,12(sp)
    9c94:	02f00c93          	li	s9,47
    9c98:	fffc0c13          	addi	s8,s8,-1
    9c9c:	01811623          	sh	s8,12(sp)
    9ca0:	010cd463          	bge	s9,a6,9ca8 <.L887+0x18>
    9ca4:	880f806f          	j	1d24 <.L889>
    9ca8:	bf4f706f          	j	109c <.L888>

00009cac <.L278>:
    9cac:	00e15e03          	lhu	t3,14(sp)
    9cb0:	002e0e13          	addi	t3,t3,2
    9cb4:	010e1e13          	slli	t3,t3,0x10
    9cb8:	410e5e13          	srai	t3,t3,0x10
    9cbc:	a5df606f          	j	718 <.L275>

00009cc0 <.L212>:
    9cc0:	00815e03          	lhu	t3,8(sp)
    9cc4:	08000c13          	li	s8,128
    9cc8:	008e0e13          	addi	t3,t3,8
    9ccc:	01c11423          	sh	t3,8(sp)
    9cd0:	00ec4463          	blt	s8,a4,9cd8 <.L212+0x18>
    9cd4:	9c1f606f          	j	694 <.L215>
    9cd8:	03d00e13          	li	t3,61
    9cdc:	00fe5463          	bge	t3,a5,9ce4 <.L212+0x24>
    9ce0:	65d0106f          	j	bb3c <.L2947>
    9ce4:	f2000e13          	li	t3,-224
    9ce8:	01ca4463          	blt	s4,t3,9cf0 <.L212+0x30>
    9cec:	2a40206f          	j	bf90 <.L2948>
    9cf0:	00a15e03          	lhu	t3,10(sp)
    9cf4:	009e0e13          	addi	t3,t3,9
    9cf8:	01c11523          	sh	t3,10(sp)
    9cfc:	ce1f906f          	j	39dc <.L225>

00009d00 <.L1249>:
    9d00:	2ad00c13          	li	s8,685
    9d04:	006c4463          	blt	s8,t1,9d0c <.L1249+0xc>
    9d08:	4780106f          	j	b180 <.L1272>
    9d0c:	00815c03          	lhu	s8,8(sp)
    9d10:	00c00c93          	li	s9,12
    9d14:	019c0c33          	add	s8,s8,s9
    9d18:	01811423          	sh	s8,8(sp)
    9d1c:	25ccdae3          	bge	s9,t3,a770 <.L1251>

00009d20 <.L1252>:
    9d20:	00a15c03          	lhu	s8,10(sp)
    9d24:	ff5c0c13          	addi	s8,s8,-11
    9d28:	010c1c13          	slli	s8,s8,0x10
    9d2c:	010c5c13          	srli	s8,s8,0x10
    9d30:	91dfa06f          	j	464c <.L1297>

00009d34 <.L707>:
    9d34:	00c15c03          	lhu	s8,12(sp)
    9d38:	ff8c0c13          	addi	s8,s8,-8
    9d3c:	010c1c13          	slli	s8,s8,0x10
    9d40:	410c5c13          	srai	s8,s8,0x10
    9d44:	8d0f706f          	j	e14 <.L706>

00009d48 <.L2782>:
    9d48:	00a15c03          	lhu	s8,10(sp)
    9d4c:	005c0c13          	addi	s8,s8,5
    9d50:	010c1c13          	slli	s8,s8,0x10
    9d54:	410c5c13          	srai	s8,s8,0x10
    9d58:	ccdf706f          	j	1a24 <.L701>

00009d5c <.L1136>:
    9d5c:	00a15c03          	lhu	s8,10(sp)
    9d60:	003c0c13          	addi	s8,s8,3
    9d64:	010c1c13          	slli	s8,s8,0x10
    9d68:	410c5c13          	srai	s8,s8,0x10
    9d6c:	ef8f706f          	j	1464 <.L1133>

00009d70 <.L658>:
    9d70:	00815c03          	lhu	s8,8(sp)
    9d74:	ffbc0c13          	addi	s8,s8,-5
    9d78:	01811423          	sh	s8,8(sp)
    9d7c:	f71f606f          	j	cec <.L649>

00009d80 <.L1844>:
    9d80:	00a15c03          	lhu	s8,10(sp)
    9d84:	004c0c13          	addi	s8,s8,4
    9d88:	010c1c13          	slli	s8,s8,0x10
    9d8c:	410c5c13          	srai	s8,s8,0x10
    9d90:	01811523          	sh	s8,10(sp)
    9d94:	b91fa06f          	j	4924 <.L2884>

00009d98 <.L2942>:
    9d98:	00815c03          	lhu	s8,8(sp)
    9d9c:	009c0c13          	addi	s8,s8,9
    9da0:	010c1c13          	slli	s8,s8,0x10
    9da4:	410c5c13          	srai	s8,s8,0x10
    9da8:	dd4f706f          	j	137c <.L1092>

00009dac <.L374>:
    9dac:	00e15c03          	lhu	s8,14(sp)
    9db0:	00ac0c13          	addi	s8,s8,10
    9db4:	010c1c13          	slli	s8,s8,0x10
    9db8:	410c5c13          	srai	s8,s8,0x10
    9dbc:	ac9f606f          	j	884 <.L375>

00009dc0 <.L1106>:
    9dc0:	00a15c03          	lhu	s8,10(sp)
    9dc4:	04900c93          	li	s9,73
    9dc8:	006c0c13          	addi	s8,s8,6
    9dcc:	01811523          	sh	s8,10(sp)
    9dd0:	011cd463          	bge	s9,a7,9dd8 <.L1106+0x18>
    9dd4:	dd4fb06f          	j	53a8 <.L1105>
    9dd8:	a84f806f          	j	205c <.L1104>

00009ddc <.L1732>:
    9ddc:	00c15c03          	lhu	s8,12(sp)
    9de0:	005c0c13          	addi	s8,s8,5
    9de4:	010c1c13          	slli	s8,s8,0x10
    9de8:	010c5c13          	srli	s8,s8,0x10
    9dec:	01811623          	sh	s8,12(sp)
    9df0:	b5df806f          	j	294c <.L1731>

00009df4 <.L1198>:
    9df4:	00e15c03          	lhu	s8,14(sp)
    9df8:	008c0c13          	addi	s8,s8,8
    9dfc:	010c1c13          	slli	s8,s8,0x10
    9e00:	010c5c13          	srli	s8,s8,0x10
    9e04:	c04f806f          	j	2208 <.L1199>

00009e08 <.L2930>:
    9e08:	00fc5463          	bge	s8,a5,9e10 <.L2033>
    9e0c:	e30fb06f          	j	543c <.L2052>

00009e10 <.L2033>:
    9e10:	00c15c03          	lhu	s8,12(sp)
    9e14:	ffcc0c13          	addi	s8,s8,-4
    9e18:	010c1c13          	slli	s8,s8,0x10
    9e1c:	410c5c13          	srai	s8,s8,0x10
    9e20:	874f906f          	j	2e94 <.L2043>

00009e24 <.L2072>:
    9e24:	00815b03          	lhu	s6,8(sp)
    9e28:	ffab0b13          	addi	s6,s6,-6
    9e2c:	01611423          	sh	s6,8(sp)
    9e30:	8ccf906f          	j	2efc <.L2070>

00009e34 <.L1514>:
    9e34:	00815c03          	lhu	s8,8(sp)
    9e38:	012c0c13          	addi	s8,s8,18
    9e3c:	01811423          	sh	s8,8(sp)
    9e40:	fe8f806f          	j	2628 <.L1511>

00009e44 <.L2564>:
    9e44:	ddb00c13          	li	s8,-549
    9e48:	02051e03          	lh	t3,32(a0)
    9e4c:	018ad463          	bge	s5,s8,9e54 <.L331>
    9e50:	b85fc06f          	j	69d4 <.L2949>

00009e54 <.L331>:
    9e54:	00c15c03          	lhu	s8,12(sp)
    9e58:	03c00c93          	li	s9,60
    9e5c:	ff6c0c13          	addi	s8,s8,-10
    9e60:	01811623          	sh	s8,12(sp)
    9e64:	00fcd463          	bge	s9,a5,9e6c <.L331+0x18>
    9e68:	9a1f906f          	j	3808 <.L325>
    9e6c:	b81fc06f          	j	69ec <.L332>

00009e70 <.L1523>:
    9e70:	00c15c03          	lhu	s8,12(sp)
    9e74:	01800c93          	li	s9,24
    9e78:	ff7c0c13          	addi	s8,s8,-9
    9e7c:	01811623          	sh	s8,12(sp)
    9e80:	010cc463          	blt	s9,a6,9e88 <.L1523+0x18>
    9e84:	c6cfd06f          	j	72f0 <.L1530>
    9e88:	adcfa06f          	j	4164 <.L1532>

00009e8c <.L588>:
    9e8c:	00c15c03          	lhu	s8,12(sp)
    9e90:	e0800c93          	li	s9,-504
    9e94:	ff6c0c13          	addi	s8,s8,-10
    9e98:	01811623          	sh	s8,12(sp)
    9e9c:	01945463          	bge	s0,s9,9ea4 <.L588+0x18>
    9ea0:	97dfb06f          	j	581c <.L584>
    9ea4:	9bdf706f          	j	1860 <.L2375>

00009ea8 <.L343>:
    9ea8:	00815c03          	lhu	s8,8(sp)
    9eac:	ffac0c13          	addi	s8,s8,-6
    9eb0:	01811423          	sh	s8,8(sp)
    9eb4:	94df606f          	j	800 <.L344>

00009eb8 <.L390>:
    9eb8:	00815c03          	lhu	s8,8(sp)
    9ebc:	0b500c93          	li	s9,181
    9ec0:	006c0c13          	addi	s8,s8,6
    9ec4:	01811423          	sh	s8,8(sp)
    9ec8:	006cd463          	bge	s9,t1,9ed0 <.L390+0x18>
    9ecc:	969fc06f          	j	6834 <.L381>
    9ed0:	9f5f606f          	j	8c4 <.L2566>

00009ed4 <.L339>:
    9ed4:	00e15c03          	lhu	s8,14(sp)
    9ed8:	007c0c13          	addi	s8,s8,7
    9edc:	010c1c13          	slli	s8,s8,0x10
    9ee0:	410c5c13          	srai	s8,s8,0x10
    9ee4:	8e9f606f          	j	7cc <.L338>

00009ee8 <.L2810>:
    9ee8:	00e15c03          	lhu	s8,14(sp)
    9eec:	ff9c0c13          	addi	s8,s8,-7
    9ef0:	01811723          	sh	s8,14(sp)
    9ef4:	efdf906f          	j	3df0 <.L1628>

00009ef8 <.L1619>:
    9ef8:	00c15c03          	lhu	s8,12(sp)
    9efc:	00300c93          	li	s9,3
    9f00:	ff8c0c13          	addi	s8,s8,-8
    9f04:	01811623          	sh	s8,12(sp)
    9f08:	01ccd463          	bge	s9,t3,9f10 <.L1619+0x18>
    9f0c:	17d0106f          	j	b888 <.L1634>
    9f10:	0c100c13          	li	s8,193
    9f14:	012c4463          	blt	s8,s2,9f1c <.L1619+0x24>
    9f18:	8fdf806f          	j	2814 <.L1635>
    9f1c:	00e15c03          	lhu	s8,14(sp)
    9f20:	00400c93          	li	s9,4
    9f24:	007c0c13          	addi	s8,s8,7
    9f28:	01811723          	sh	s8,14(sp)
    9f2c:	011cc463          	blt	s9,a7,9f34 <.L1619+0x3c>
    9f30:	b59fb06f          	j	5a88 <.L1643>
    9f34:	ed5f906f          	j	3e08 <.L1645>

00009f38 <.L2902>:
    9f38:	00e15c03          	lhu	s8,14(sp)
    9f3c:	ff7c0c13          	addi	s8,s8,-9
    9f40:	010c1c13          	slli	s8,s8,0x10
    9f44:	410c5c13          	srai	s8,s8,0x10
    9f48:	b78f706f          	j	12c0 <.L1028>

00009f4c <.L207>:
    9f4c:	00815e03          	lhu	t3,8(sp)
    9f50:	08000c13          	li	s8,128
    9f54:	00ce0e13          	addi	t3,t3,12
    9f58:	01c11423          	sh	t3,8(sp)
    9f5c:	00ec4463          	blt	s8,a4,9f64 <.L207+0x18>
    9f60:	f34f606f          	j	694 <.L215>
    9f64:	f80f906f          	j	36e4 <.L2557>

00009f68 <.L110>:
    9f68:	00a15e03          	lhu	t3,10(sp)
    9f6c:	31a00c13          	li	s8,794
    9f70:	00ee0e13          	addi	t3,t3,14
    9f74:	01c11523          	sh	t3,10(sp)
    9f78:	90dc5263          	bge	s8,a3,907c <.L111>
    9f7c:	e4e00e13          	li	t3,-434
    9f80:	01cad463          	bge	s5,t3,9f88 <.L107>
    9f84:	829fe06f          	j	87ac <.L114>

00009f88 <.L107>:
    9f88:	00c15e03          	lhu	t3,12(sp)
    9f8c:	03d00c13          	li	s8,61
    9f90:	ff7e0e13          	addi	t3,t3,-9
    9f94:	01c11623          	sh	t3,12(sp)
    9f98:	00fc4463          	blt	s8,a5,9fa0 <.L107+0x18>
    9f9c:	829fe06f          	j	87c4 <.L128>
    9fa0:	ce0f606f          	j	480 <.L121>

00009fa4 <.L448>:
    9fa4:	00c15c03          	lhu	s8,12(sp)
    9fa8:	e2500c93          	li	s9,-475
    9fac:	00ac0c13          	addi	s8,s8,10
    9fb0:	01811623          	sh	s8,12(sp)
    9fb4:	01944463          	blt	s0,s9,9fbc <.L448+0x18>
    9fb8:	ec8f906f          	j	3680 <.L443>
    9fbc:	b40fc06f          	j	62fc <.L442>

00009fc0 <.L1552>:
    9fc0:	00815c03          	lhu	s8,8(sp)
    9fc4:	fefc0c13          	addi	s8,s8,-17
    9fc8:	010c1c13          	slli	s8,s8,0x10
    9fcc:	410c5c13          	srai	s8,s8,0x10
    9fd0:	f08f806f          	j	26d8 <.L1553>

00009fd4 <.L2299>:
    9fd4:	00c51903          	lh	s2,12(a0)
    9fd8:	02400813          	li	a6,36
    9fdc:	b5cf606f          	j	338 <.L32>

00009fe0 <.L37>:
    9fe0:	00815883          	lhu	a7,8(sp)
    9fe4:	1b500e13          	li	t3,437
    9fe8:	01488893          	addi	a7,a7,20
    9fec:	01111423          	sh	a7,8(sp)
    9ff0:	00ee5463          	bge	t3,a4,9ff8 <.L37+0x18>
    9ff4:	895f906f          	j	3888 <.L44>
    9ff8:	b80f606f          	j	378 <.L2544>

00009ffc <.L99>:
    9ffc:	00a15e03          	lhu	t3,10(sp)
    a000:	31a00c13          	li	s8,794
    a004:	ff9e0e13          	addi	t3,t3,-7
    a008:	01c11523          	sh	t3,10(sp)
    a00c:	00dc4463          	blt	s8,a3,a014 <.L101>
    a010:	f2cfe06f          	j	873c <.L96>

0000a014 <.L101>:
    a014:	1a100e13          	li	t3,417
    a018:	f6ee48e3          	blt	t3,a4,9f88 <.L107>
    a01c:	00c15e03          	lhu	t3,12(sp)
    a020:	00de0e13          	addi	t3,t3,13
    a024:	010e1e13          	slli	t3,t3,0x10
    a028:	410e5e13          	srai	t3,t3,0x10
    a02c:	c44f606f          	j	470 <.L120>

0000a030 <.L1802>:
    a030:	00a15c03          	lhu	s8,10(sp)
    a034:	009c0c13          	addi	s8,s8,9
    a038:	010c1c13          	slli	s8,s8,0x10
    a03c:	410c5c13          	srai	s8,s8,0x10
    a040:	a35f806f          	j	2a74 <.L1793>

0000a044 <.L95>:
    a044:	00a15e03          	lhu	t3,10(sp)
    a048:	31a00c13          	li	s8,794
    a04c:	001e0e13          	addi	t3,t3,1
    a050:	01c11523          	sh	t3,10(sp)
    a054:	00dc4463          	blt	s8,a3,a05c <.L95+0x18>
    a058:	ee4fe06f          	j	873c <.L96>
    a05c:	bf8f606f          	j	454 <.L2349>

0000a060 <.L2939>:
    a060:	00e15c03          	lhu	s8,14(sp)
    a064:	ffe00c93          	li	s9,-2
    a068:	ff7c0c13          	addi	s8,s8,-9
    a06c:	01811723          	sh	s8,14(sp)
    a070:	01985463          	bge	a6,s9,a078 <.L2939+0x18>
    a074:	e80f706f          	j	16f4 <.L1300>
    a078:	ad4f806f          	j	234c <.L1321>

0000a07c <.L796>:
    a07c:	00a15c03          	lhu	s8,10(sp)
    a080:	006c0c13          	addi	s8,s8,6
    a084:	010c1c13          	slli	s8,s8,0x10
    a088:	010c5c13          	srli	s8,s8,0x10
    a08c:	01811523          	sh	s8,10(sp)
    a090:	b21f706f          	j	1bb0 <.L797>

0000a094 <.L738>:
    a094:	25b00c13          	li	s8,603
    a098:	00ec5463          	bge	s8,a4,a0a0 <.L753>
    a09c:	2ed0106f          	j	bb88 <.L744>

0000a0a0 <.L753>:
    a0a0:	00c15c03          	lhu	s8,12(sp)
    a0a4:	007c0c13          	addi	s8,s8,7
    a0a8:	01811623          	sh	s8,12(sp)
    a0ac:	908fb06f          	j	51b4 <.L741>

0000a0b0 <.L782>:
    a0b0:	00e15c03          	lhu	s8,14(sp)
    a0b4:	ffe00c93          	li	s9,-2
    a0b8:	004c0c13          	addi	s8,s8,4
    a0bc:	01811723          	sh	s8,14(sp)
    a0c0:	01985463          	bge	a6,s9,a0c8 <.L782+0x18>
    a0c4:	d31fa06f          	j	4df4 <.L783>
    a0c8:	dfdfa06f          	j	4ec4 <.L2387>

0000a0cc <.L2111>:
    a0cc:	00815b03          	lhu	s6,8(sp)
    a0d0:	02e00c13          	li	s8,46
    a0d4:	ffeb0b13          	addi	s6,s6,-2
    a0d8:	01611423          	sh	s6,8(sp)
    a0dc:	01dc4463          	blt	s8,t4,a0e4 <.L2111+0x18>
    a0e0:	aa4fa06f          	j	4384 <.L2099>
    a0e4:	ebdf806f          	j	2fa0 <.L2112>

0000a0e8 <.L357>:
    a0e8:	00a15c03          	lhu	s8,10(sp)
    a0ec:	17000c93          	li	s9,368
    a0f0:	00bc0c13          	addi	s8,s8,11
    a0f4:	01811523          	sh	s8,10(sp)
    a0f8:	00dcc463          	blt	s9,a3,a100 <.L357+0x18>
    a0fc:	df5fc06f          	j	6ef0 <.L354>
    a100:	ed4fd06f          	j	77d4 <.L359>

0000a104 <.L367>:
    a104:	00c15c03          	lhu	s8,12(sp)
    a108:	e9900c93          	li	s9,-359
    a10c:	00ac0c13          	addi	s8,s8,10
    a110:	01811623          	sh	s8,12(sp)
    a114:	0195d463          	bge	a1,s9,a11c <.L367+0x18>
    a118:	a34f906f          	j	334c <.L368>
    a11c:	d11fc06f          	j	6e2c <.L2366>

0000a120 <.L1500>:
    a120:	00e15c03          	lhu	s8,14(sp)
    a124:	ffbc0c13          	addi	s8,s8,-5
    a128:	01811723          	sh	s8,14(sp)
    a12c:	f9df906f          	j	40c8 <.L1497>

0000a130 <.L1025>:
    a130:	00c15c03          	lhu	s8,12(sp)
    a134:	003c0c13          	addi	s8,s8,3
    a138:	01811623          	sh	s8,12(sp)
    a13c:	dedf706f          	j	1f28 <.L1014>

0000a140 <.L1430>:
    a140:	00a15c03          	lhu	s8,10(sp)
    a144:	004c0c13          	addi	s8,s8,4
    a148:	01811523          	sh	s8,10(sp)
    a14c:	bb4f806f          	j	2500 <.L1429>

0000a150 <.L1425>:
    a150:	00815c03          	lhu	s8,8(sp)
    a154:	ffec0c13          	addi	s8,s8,-2
    a158:	01811423          	sh	s8,8(sp)
    a15c:	e61f906f          	j	3fbc <.L1426>

0000a160 <.L1261>:
    a160:	00e15c03          	lhu	s8,14(sp)
    a164:	fffc0c13          	addi	s8,s8,-1
    a168:	010c1c13          	slli	s8,s8,0x10
    a16c:	410c5c13          	srai	s8,s8,0x10
    a170:	cccf706f          	j	163c <.L1259>

0000a174 <.L1070>:
    a174:	00e15c03          	lhu	s8,14(sp)
    a178:	ffe00c93          	li	s9,-2
    a17c:	ff8c0c13          	addi	s8,s8,-8
    a180:	01811723          	sh	s8,14(sp)
    a184:	01985463          	bge	a6,s9,a18c <.L1070+0x18>
    a188:	f99fe06f          	j	9120 <.L1061>
    a18c:	9d4f706f          	j	1360 <.L1062>

0000a190 <.L925>:
    a190:	00a15c03          	lhu	s8,10(sp)
    a194:	03300c93          	li	s9,51
    a198:	ffac0c13          	addi	s8,s8,-6
    a19c:	01811523          	sh	s8,10(sp)
    a1a0:	00fcc463          	blt	s9,a5,a1a8 <.L925+0x18>
    a1a4:	954fb06f          	j	52f8 <.L923>
    a1a8:	c01f706f          	j	1da8 <.L918>

0000a1ac <.L2911>:
    a1ac:	00a15c03          	lhu	s8,10(sp)
    a1b0:	00bc0c13          	addi	s8,s8,11
    a1b4:	010c1c13          	slli	s8,s8,0x10
    a1b8:	410c5c13          	srai	s8,s8,0x10
    a1bc:	f24f606f          	j	8e0 <.L383>

0000a1c0 <.L2192>:
    a1c0:	00815f03          	lhu	t5,8(sp)
    a1c4:	002f0f13          	addi	t5,t5,2
    a1c8:	01e11423          	sh	t5,8(sp)
    a1cc:	f29f806f          	j	30f4 <.L2189>

0000a1d0 <.L414>:
    a1d0:	00e15c03          	lhu	s8,14(sp)
    a1d4:	00bc0c13          	addi	s8,s8,11
    a1d8:	010c1c13          	slli	s8,s8,0x10
    a1dc:	410c5c13          	srai	s8,s8,0x10
    a1e0:	f64f606f          	j	944 <.L412>

0000a1e4 <.L2144>:
    a1e4:	00e15b03          	lhu	s6,14(sp)
    a1e8:	ff8b0b13          	addi	s6,s6,-8
    a1ec:	010b1b13          	slli	s6,s6,0x10
    a1f0:	410b5b13          	srai	s6,s6,0x10
    a1f4:	964fb06f          	j	5358 <.L2138>

0000a1f8 <.L577>:
    a1f8:	00c15c03          	lhu	s8,12(sp)
    a1fc:	ffac0c13          	addi	s8,s8,-6
    a200:	010c1c13          	slli	s8,s8,0x10
    a204:	010c5c13          	srli	s8,s8,0x10
    a208:	a09f606f          	j	c10 <.L578>

0000a20c <.L2031>:
    a20c:	00a15c03          	lhu	s8,10(sp)
    a210:	ffdc0c13          	addi	s8,s8,-3
    a214:	01811523          	sh	s8,10(sp)
    a218:	a10fb06f          	j	5428 <.L2037>

0000a21c <.L598>:
    a21c:	00e15c03          	lhu	s8,14(sp)
    a220:	0a900c93          	li	s9,169
    a224:	00ac0c13          	addi	s8,s8,10
    a228:	01811723          	sh	s8,14(sp)
    a22c:	01ecc463          	blt	s9,t5,a234 <.L598+0x18>
    a230:	e50f706f          	j	1880 <.L600>
    a234:	e14fb06f          	j	5848 <.L2581>

0000a238 <.L56>:
    a238:	00a15883          	lhu	a7,10(sp)
    a23c:	df700e13          	li	t3,-521
    a240:	01688893          	addi	a7,a7,22
    a244:	01111523          	sh	a7,10(sp)
    a248:	01ca5463          	bge	s4,t3,a250 <.L56+0x18>
    a24c:	e6cf906f          	j	38b8 <.L60>
    a250:	02a51883          	lh	a7,42(a0)
    a254:	d8cfc06f          	j	67e0 <.L2950>

0000a258 <.L61>:
    a258:	00a15883          	lhu	a7,10(sp)
    a25c:	df700e13          	li	t3,-521
    a260:	01188893          	addi	a7,a7,17
    a264:	01111523          	sh	a7,10(sp)
    a268:	01ca5463          	bge	s4,t3,a270 <.L61+0x18>
    a26c:	e4cf906f          	j	38b8 <.L60>
    a270:	02a51883          	lh	a7,42(a0)
    a274:	d6cfc06f          	j	67e0 <.L2950>

0000a278 <.L2271>:
    a278:	00e15c03          	lhu	s8,14(sp)
    a27c:	001c0c13          	addi	s8,s8,1
    a280:	01811723          	sh	s8,14(sp)
    a284:	c2cfc06f          	j	66b0 <.L641>

0000a288 <.L380>:
    a288:	00815c03          	lhu	s8,8(sp)
    a28c:	0b500c93          	li	s9,181
    a290:	fffc0c13          	addi	s8,s8,-1
    a294:	01811423          	sh	s8,8(sp)
    a298:	006cd463          	bge	s9,t1,a2a0 <.L380+0x18>
    a29c:	d98fc06f          	j	6834 <.L381>
    a2a0:	e24f606f          	j	8c4 <.L2566>

0000a2a4 <.L2913>:
    a2a4:	00815c03          	lhu	s8,8(sp)
    a2a8:	ffec0c13          	addi	s8,s8,-2
    a2ac:	010c1c13          	slli	s8,s8,0x10
    a2b0:	410c5c13          	srai	s8,s8,0x10
    a2b4:	eccf606f          	j	980 <.L420>

0000a2b8 <.L1954>:
    a2b8:	00a15c03          	lhu	s8,10(sp)
    a2bc:	003c0c13          	addi	s8,s8,3
    a2c0:	010c1c13          	slli	s8,s8,0x10
    a2c4:	010c5c13          	srli	s8,s8,0x10
    a2c8:	d15fc06f          	j	6fdc <.L1955>

0000a2cc <.L402>:
    a2cc:	00c15c03          	lhu	s8,12(sp)
    a2d0:	ffcc0c13          	addi	s8,s8,-4
    a2d4:	010c1c13          	slli	s8,s8,0x10
    a2d8:	410c5c13          	srai	s8,s8,0x10
    a2dc:	e3cf606f          	j	918 <.L403>

0000a2e0 <.L399>:
    a2e0:	00a15c03          	lhu	s8,10(sp)
    a2e4:	008c0c13          	addi	s8,s8,8
    a2e8:	010c1c13          	slli	s8,s8,0x10
    a2ec:	410c5c13          	srai	s8,s8,0x10
    a2f0:	df0f606f          	j	8e0 <.L383>

0000a2f4 <.L2246>:
    a2f4:	00a15703          	lhu	a4,10(sp)
    a2f8:	ffe70713          	addi	a4,a4,-2
    a2fc:	01071713          	slli	a4,a4,0x10
    a300:	41075713          	srai	a4,a4,0x10
    a304:	911f906f          	j	3c14 <.L2247>

0000a308 <.L2244>:
    a308:	00a15703          	lhu	a4,10(sp)
    a30c:	f5b00693          	li	a3,-165
    a310:	00370713          	addi	a4,a4,3
    a314:	00e11523          	sh	a4,10(sp)
    a318:	00d2c463          	blt	t0,a3,a320 <.L2244+0x18>
    a31c:	a20fa06f          	j	453c <.L2240>
    a320:	ec5f806f          	j	31e4 <.L2670>

0000a324 <.L2265>:
    a324:	00a15c03          	lhu	s8,10(sp)
    a328:	0dd00c93          	li	s9,221
    a32c:	006c0c13          	addi	s8,s8,6
    a330:	01811523          	sh	s8,10(sp)
    a334:	d6dcc0e3          	blt	s9,a3,a094 <.L738>
    a338:	f5000c13          	li	s8,-176
    a33c:	0185c463          	blt	a1,s8,a344 <.L2265+0x20>
    a340:	1f10106f          	j	bd30 <.L739>
    a344:	00f00c13          	li	s8,15
    a348:	010c5463          	bge	s8,a6,a350 <.L2265+0x2c>
    a34c:	3f90106f          	j	bf44 <.L740>
    a350:	00c15c03          	lhu	s8,12(sp)
    a354:	ff8c0c13          	addi	s8,s8,-8
    a358:	01811623          	sh	s8,12(sp)
    a35c:	e59fa06f          	j	51b4 <.L741>

0000a360 <.L1797>:
    a360:	00a15c03          	lhu	s8,10(sp)
    a364:	ff8c0c13          	addi	s8,s8,-8
    a368:	010c1c13          	slli	s8,s8,0x10
    a36c:	410c5c13          	srai	s8,s8,0x10
    a370:	f04f806f          	j	2a74 <.L1793>

0000a374 <.L453>:
    a374:	00e15c03          	lhu	s8,14(sp)
    a378:	008c0c13          	addi	s8,s8,8
    a37c:	010c1c13          	slli	s8,s8,0x10
    a380:	410c5c13          	srai	s8,s8,0x10
    a384:	998f906f          	j	351c <.L454>

0000a388 <.L721>:
    a388:	00e15c03          	lhu	s8,14(sp)
    a38c:	ff7c0c13          	addi	s8,s8,-9
    a390:	01811723          	sh	s8,14(sp)
    a394:	ef4f706f          	j	1a88 <.L722>

0000a398 <.L1715>:
    a398:	00815c03          	lhu	s8,8(sp)
    a39c:	fffc0c13          	addi	s8,s8,-1
    a3a0:	010c1c13          	slli	s8,s8,0x10
    a3a4:	010c5c13          	srli	s8,s8,0x10
    a3a8:	c09fa06f          	j	4fb0 <.L1716>

0000a3ac <.L2042>:
    a3ac:	00a15c03          	lhu	s8,10(sp)
    a3b0:	003c0c13          	addi	s8,s8,3
    a3b4:	01811523          	sh	s8,10(sp)
    a3b8:	870fb06f          	j	5428 <.L2037>

0000a3bc <.L2017>:
    a3bc:	00e15c03          	lhu	s8,14(sp)
    a3c0:	ffec0c13          	addi	s8,s8,-2
    a3c4:	010c1c13          	slli	s8,s8,0x10
    a3c8:	410c5c13          	srai	s8,s8,0x10
    a3cc:	a49f806f          	j	2e14 <.L2015>

0000a3d0 <.L1717>:
    a3d0:	00815c03          	lhu	s8,8(sp)
    a3d4:	00cc0c13          	addi	s8,s8,12
    a3d8:	010c1c13          	slli	s8,s8,0x10
    a3dc:	010c5c13          	srli	s8,s8,0x10
    a3e0:	bc5fd06f          	j	7fa4 <.L1718>

0000a3e4 <.L2771>:
    a3e4:	00c15c03          	lhu	s8,12(sp)
    a3e8:	03c00c93          	li	s9,60
    a3ec:	007c0c13          	addi	s8,s8,7
    a3f0:	01811623          	sh	s8,12(sp)
    a3f4:	00fcc463          	blt	s9,a5,a3fc <.L2771+0x18>
    a3f8:	a88fa06f          	j	4680 <.L1292>
    a3fc:	ad8f706f          	j	16d4 <.L2612>

0000a400 <.L1546>:
    a400:	00c15c03          	lhu	s8,12(sp)
    a404:	01800c93          	li	s9,24
    a408:	ffac0c13          	addi	s8,s8,-6
    a40c:	01811623          	sh	s8,12(sp)
    a410:	010cc463          	blt	s9,a6,a418 <.L1546+0x18>
    a414:	9bcfa06f          	j	45d0 <.L1544>
    a418:	86df906f          	j	3c84 <.L1545>

0000a41c <.L1790>:
    a41c:	00815c03          	lhu	s8,8(sp)
    a420:	001c0c13          	addi	s8,s8,1
    a424:	010c1c13          	slli	s8,s8,0x10
    a428:	010c5c13          	srli	s8,s8,0x10
    a42c:	ce8fd06f          	j	7914 <.L1791>

0000a430 <.L1285>:
    a430:	00a15c03          	lhu	s8,10(sp)
    a434:	03300c93          	li	s9,51
    a438:	ff8c0c13          	addi	s8,s8,-8
    a43c:	01811523          	sh	s8,10(sp)
    a440:	00fcc463          	blt	s9,a5,a448 <.L1285+0x18>
    a444:	a24fa06f          	j	4668 <.L1287>
    a448:	8f5fb06f          	j	5d3c <.L1284>

0000a44c <.L2158>:
    a44c:	00a15b03          	lhu	s6,10(sp)
    a450:	fdb00c13          	li	s8,-37
    a454:	ff9b0b13          	addi	s6,s6,-7
    a458:	01611523          	sh	s6,10(sp)
    a45c:	01874463          	blt	a4,s8,a464 <.L2165>
    a460:	e78f906f          	j	3ad8 <.L2159>

0000a464 <.L2165>:
    a464:	00a00693          	li	a3,10
    a468:	0136d463          	bge	a3,s3,a470 <.L2165+0xc>
    a46c:	28c0106f          	j	b6f8 <.L2177>
    a470:	00c15683          	lhu	a3,12(sp)
    a474:	ff868693          	addi	a3,a3,-8
    a478:	00d11623          	sh	a3,12(sp)
    a47c:	e70f906f          	j	3aec <.L2161>

0000a480 <.L1746>:
    a480:	00e15c03          	lhu	s8,14(sp)
    a484:	ffbc0c13          	addi	s8,s8,-5
    a488:	010c1c13          	slli	s8,s8,0x10
    a48c:	410c5c13          	srai	s8,s8,0x10
    a490:	d75fa06f          	j	5204 <.L1744>

0000a494 <.L23>:
    a494:	01a00793          	li	a5,26
    a498:	00f11523          	sh	a5,10(sp)
    a49c:	d5c00793          	li	a5,-676
    a4a0:	01851603          	lh	a2,24(a0)
    a4a4:	0afacce3          	blt	s5,a5,ad5c <.L2338>
    a4a8:	01251483          	lh	s1,18(a0)
    a4ac:	01051b03          	lh	s6,16(a0)
    a4b0:	b68fe06f          	j	8818 <.L20>

0000a4b4 <.L19>:
    a4b4:	02400793          	li	a5,36
    a4b8:	00f11523          	sh	a5,10(sp)
    a4bc:	d5c00793          	li	a5,-676
    a4c0:	01851603          	lh	a2,24(a0)
    a4c4:	00fad463          	bge	s5,a5,a4cc <.L2543>
    a4c8:	e25f506f          	j	2ec <.L2337>

0000a4cc <.L2543>:
    a4cc:	01251483          	lh	s1,18(a0)
    a4d0:	02851e83          	lh	t4,40(a0)
    a4d4:	b44fe06f          	j	8818 <.L20>

0000a4d8 <.L2195>:
    a4d8:	00a15503          	lhu	a0,10(sp)
    a4dc:	ffd50513          	addi	a0,a0,-3
    a4e0:	01051513          	slli	a0,a0,0x10
    a4e4:	41055513          	srai	a0,a0,0x10
    a4e8:	c41f806f          	j	3128 <.L2196>

0000a4ec <.L500>:
    a4ec:	00e15c03          	lhu	s8,14(sp)
    a4f0:	00ac0c13          	addi	s8,s8,10
    a4f4:	010c1c13          	slli	s8,s8,0x10
    a4f8:	410c5c13          	srai	s8,s8,0x10
    a4fc:	97cfb06f          	j	5678 <.L504>

0000a500 <.L2012>:
    a500:	00c15c03          	lhu	s8,12(sp)
    a504:	ffbc0c13          	addi	s8,s8,-5
    a508:	01811623          	sh	s8,12(sp)
    a50c:	8e1f806f          	j	2dec <.L2010>

0000a510 <.L709>:
    a510:	00c15c03          	lhu	s8,12(sp)
    a514:	ff7c0c13          	addi	s8,s8,-9
    a518:	010c1c13          	slli	s8,s8,0x10
    a51c:	410c5c13          	srai	s8,s8,0x10
    a520:	8f5f606f          	j	e14 <.L706>

0000a524 <.L2235>:
    a524:	00815683          	lhu	a3,8(sp)
    a528:	fff68693          	addi	a3,a3,-1
    a52c:	01069693          	slli	a3,a3,0x10
    a530:	4106d693          	srai	a3,a3,0x10
    a534:	c75f806f          	j	31a8 <.L2236>

0000a538 <.L87>:
    a538:	00815e03          	lhu	t3,8(sp)
    a53c:	ff7e0e13          	addi	t3,t3,-9
    a540:	010e1e13          	slli	t3,t3,0x10
    a544:	010e5e13          	srli	t3,t3,0x10
    a548:	cd1f506f          	j	218 <.L2549>

0000a54c <.L2203>:
    a54c:	00a15503          	lhu	a0,10(sp)
    a550:	00550513          	addi	a0,a0,5
    a554:	01051513          	slli	a0,a0,0x10
    a558:	41055513          	srai	a0,a0,0x10
    a55c:	bcdf806f          	j	3128 <.L2196>

0000a560 <.L84>:
    a560:	00815e03          	lhu	t3,8(sp)
    a564:	02651383          	lh	t2,38(a0)
    a568:	011e0e13          	addi	t3,t3,17
    a56c:	01c11423          	sh	t3,8(sp)
    a570:	cadf506f          	j	21c <.L85>

0000a574 <.L787>:
    a574:	00815c03          	lhu	s8,8(sp)
    a578:	03300c93          	li	s9,51
    a57c:	014c0c13          	addi	s8,s8,20
    a580:	01811423          	sh	s8,8(sp)
    a584:	01fcc463          	blt	s9,t6,a58c <.L787+0x18>
    a588:	dfcf706f          	j	1b84 <.L788>
    a58c:	00a15c03          	lhu	s8,10(sp)
    a590:	ffc00c93          	li	s9,-4
    a594:	004c0c13          	addi	s8,s8,4
    a598:	01811523          	sh	s8,10(sp)
    a59c:	01964463          	blt	a2,s9,a5a4 <.L787+0x30>
    a5a0:	8b9fa06f          	j	4e58 <.L803>
    a5a4:	e0cf706f          	j	1bb0 <.L797>

0000a5a8 <.L1755>:
    a5a8:	00a15c03          	lhu	s8,10(sp)
    a5ac:	ffcc0c13          	addi	s8,s8,-4
    a5b0:	01811523          	sh	s8,10(sp)
    a5b4:	c18f806f          	j	29cc <.L1756>

0000a5b8 <.L78>:
    a5b8:	00e15e03          	lhu	t3,14(sp)
    a5bc:	0d900393          	li	t2,217
    a5c0:	017e0e13          	addi	t3,t3,23
    a5c4:	01c11723          	sh	t3,14(sp)
    a5c8:	01e3c463          	blt	t2,t5,a5d0 <.L78+0x18>
    a5cc:	93cfd06f          	j	7708 <.L80>
    a5d0:	05700e13          	li	t3,87
    a5d4:	006e5463          	bge	t3,t1,a5dc <.L81>
    a5d8:	c35f506f          	j	20c <.L82>

0000a5dc <.L81>:
    a5dc:	00815e03          	lhu	t3,8(sp)
    a5e0:	02651383          	lh	t2,38(a0)
    a5e4:	ff8e0e13          	addi	t3,t3,-8
    a5e8:	01c11423          	sh	t3,8(sp)
    a5ec:	c31f506f          	j	21c <.L85>

0000a5f0 <.L1053>:
    a5f0:	00a15c03          	lhu	s8,10(sp)
    a5f4:	006c0c13          	addi	s8,s8,6
    a5f8:	010c1c13          	slli	s8,s8,0x10
    a5fc:	410c5c13          	srai	s8,s8,0x10
    a600:	d19f606f          	j	1318 <.L1045>

0000a604 <.L1397>:
    a604:	00a15c03          	lhu	s8,10(sp)
    a608:	ff7c0c13          	addi	s8,s8,-9
    a60c:	010c1c13          	slli	s8,s8,0x10
    a610:	410c5c13          	srai	s8,s8,0x10
    a614:	e35f706f          	j	2448 <.L1399>

0000a618 <.L137>:
    a618:	00815e03          	lhu	t3,8(sp)
    a61c:	0a600c13          	li	s8,166
    a620:	fffe0e13          	addi	t3,t3,-1
    a624:	01c11423          	sh	t3,8(sp)
    a628:	00ec4463          	blt	s8,a4,a630 <.L137+0x18>
    a62c:	ad8f906f          	j	3904 <.L143>
    a630:	eb1f506f          	j	4e0 <.L2552>

0000a634 <.L235>:
    a634:	00a15e03          	lhu	t3,10(sp)
    a638:	08c00c13          	li	s8,140
    a63c:	00fe0e13          	addi	t3,t3,15
    a640:	01c11523          	sh	t3,10(sp)
    a644:	00dc4463          	blt	s8,a3,a64c <.L235+0x18>
    a648:	fe0fb06f          	j	5e28 <.L239>
    a64c:	878f606f          	j	6c4 <.L236>

0000a650 <.L132>:
    a650:	00e15e03          	lhu	t3,14(sp)
    a654:	011e0e13          	addi	t3,t3,17
    a658:	010e1e13          	slli	t3,t3,0x10
    a65c:	410e5e13          	srai	t3,t3,0x10
    a660:	e45f506f          	j	4a4 <.L129>

0000a664 <.L666>:
    a664:	00a15c03          	lhu	s8,10(sp)
    a668:	003c0c13          	addi	s8,s8,3
    a66c:	010c1c13          	slli	s8,s8,0x10
    a670:	410c5c13          	srai	s8,s8,0x10
    a674:	ea8f606f          	j	d1c <.L662>

0000a678 <.L835>:
    a678:	00a15c03          	lhu	s8,10(sp)
    a67c:	ff9c0c13          	addi	s8,s8,-7
    a680:	010c1c13          	slli	s8,s8,0x10
    a684:	410c5c13          	srai	s8,s8,0x10
    a688:	93df606f          	j	fc4 <.L829>

0000a68c <.L347>:
    a68c:	00815c03          	lhu	s8,8(sp)
    a690:	ff6c0c13          	addi	s8,s8,-10
    a694:	01811423          	sh	s8,8(sp)
    a698:	968f606f          	j	800 <.L344>

0000a69c <.L133>:
    a69c:	00e15e03          	lhu	t3,14(sp)
    a6a0:	ff6e0e13          	addi	t3,t3,-10
    a6a4:	010e1e13          	slli	t3,t3,0x10
    a6a8:	010e5e13          	srli	t3,t3,0x10
    a6ac:	01c11723          	sh	t3,14(sp)
    a6b0:	f21f506f          	j	5d0 <.L135>

0000a6b4 <.L2903>:
    a6b4:	00a15e03          	lhu	t3,10(sp)
    a6b8:	10b00c13          	li	s8,267
    a6bc:	00ce0e13          	addi	t3,t3,12
    a6c0:	01c11523          	sh	t3,10(sp)
    a6c4:	00dc4463          	blt	s8,a3,a6cc <.L2903+0x18>
    a6c8:	eb8fb06f          	j	5d80 <.L161>
    a6cc:	2ff00e13          	li	t3,767
    a6d0:	00ee4463          	blt	t3,a4,a6d8 <.L163>
    a6d4:	edcfc06f          	j	6db0 <.L156>

0000a6d8 <.L163>:
    a6d8:	00c15e03          	lhu	t3,12(sp)
    a6dc:	03d00c13          	li	s8,61
    a6e0:	ff5e0e13          	addi	t3,t3,-11
    a6e4:	01c11623          	sh	t3,12(sp)
    a6e8:	01878463          	beq	a5,s8,a6f0 <.L184>
    a6ec:	9b1fb06f          	j	609c <.L183>

0000a6f0 <.L184>:
    a6f0:	03d00793          	li	a5,61
    a6f4:	f4df506f          	j	640 <.L174>

0000a6f8 <.L511>:
    a6f8:	00815c03          	lhu	s8,8(sp)
    a6fc:	fffc0c13          	addi	s8,s8,-1
    a700:	010c1c13          	slli	s8,s8,0x10
    a704:	410c5c13          	srai	s8,s8,0x10
    a708:	d99f906f          	j	44a0 <.L512>

0000a70c <.L1518>:
    a70c:	00a15c03          	lhu	s8,10(sp)
    a710:	ffbc0c13          	addi	s8,s8,-5
    a714:	010c1c13          	slli	s8,s8,0x10
    a718:	410c5c13          	srai	s8,s8,0x10
    a71c:	a09f906f          	j	4124 <.L1517>

0000a720 <.L644>:
    a720:	00c15c03          	lhu	s8,12(sp)
    a724:	ff9c0c13          	addi	s8,s8,-7
    a728:	010c1c13          	slli	s8,s8,0x10
    a72c:	410c5c13          	srai	s8,s8,0x10
    a730:	f51fb06f          	j	6680 <.L623>

0000a734 <.L654>:
    a734:	00e15c03          	lhu	s8,14(sp)
    a738:	0a900c93          	li	s9,169
    a73c:	d8cf606f          	j	cc8 <.L2586>

0000a740 <.L363>:
    a740:	00c15c03          	lhu	s8,12(sp)
    a744:	ffac0c13          	addi	s8,s8,-6
    a748:	010c1c13          	slli	s8,s8,0x10
    a74c:	410c5c13          	srai	s8,s8,0x10
    a750:	8fcf606f          	j	84c <.L352>

0000a754 <.L2916>:
    a754:	00c15c03          	lhu	s8,12(sp)
    a758:	008c0c13          	addi	s8,s8,8
    a75c:	010c1c13          	slli	s8,s8,0x10
    a760:	410c5c13          	srai	s8,s8,0x10
    a764:	8e8f606f          	j	84c <.L352>

0000a768 <.L2801>:
    a768:	00c00c13          	li	s8,12
    a76c:	dbcc4a63          	blt	s8,t3,9d20 <.L1252>

0000a770 <.L1251>:
    a770:	01700c13          	li	s8,23
    a774:	01dc5463          	bge	s8,t4,a77c <.L1251+0xc>
    a778:	f15f606f          	j	168c <.L1268>
    a77c:	03300c13          	li	s8,51
    a780:	00fc4463          	blt	s8,a5,a788 <.L1251+0x18>
    a784:	ed9f906f          	j	465c <.L2734>
    a788:	b81f706f          	j	2308 <.L1279>

0000a78c <.L1548>:
    a78c:	00e15c03          	lhu	s8,14(sp)
    a790:	ff6c0c13          	addi	s8,s8,-10
    a794:	01811723          	sh	s8,14(sp)
    a798:	f0df706f          	j	26a4 <.L1539>

0000a79c <.L2805>:
    a79c:	00a15c03          	lhu	s8,10(sp)
    a7a0:	ffcc0c13          	addi	s8,s8,-4
    a7a4:	010c1c13          	slli	s8,s8,0x10
    a7a8:	410c5c13          	srai	s8,s8,0x10
    a7ac:	c9df706f          	j	2448 <.L1399>

0000a7b0 <.L267>:
    a7b0:	00c15e03          	lhu	t3,12(sp)
    a7b4:	ff8e0e13          	addi	t3,t3,-8
    a7b8:	010e1e13          	slli	t3,t3,0x10
    a7bc:	410e5e13          	srai	t3,t3,0x10
    a7c0:	f21f506f          	j	6e0 <.L263>

0000a7c4 <.L661>:
    a7c4:	00a15c03          	lhu	s8,10(sp)
    a7c8:	ff9c0c13          	addi	s8,s8,-7
    a7cc:	010c1c13          	slli	s8,s8,0x10
    a7d0:	410c5c13          	srai	s8,s8,0x10
    a7d4:	d48f606f          	j	d1c <.L662>

0000a7d8 <.L1081>:
    a7d8:	00c15c03          	lhu	s8,12(sp)
    a7dc:	00ac0c13          	addi	s8,s8,10
    a7e0:	010c1c13          	slli	s8,s8,0x10
    a7e4:	410c5c13          	srai	s8,s8,0x10
    a7e8:	fd0f706f          	j	1fb8 <.L1074>

0000a7ec <.L843>:
    a7ec:	00c15c03          	lhu	s8,12(sp)
    a7f0:	d2a00c93          	li	s9,-726
    a7f4:	008c0c13          	addi	s8,s8,8
    a7f8:	01811623          	sh	s8,12(sp)
    a7fc:	0195c463          	blt	a1,s9,a804 <.L843+0x18>
    a800:	c8cf706f          	j	1c8c <.L2593>
    a804:	990fb06f          	j	5994 <.L850>

0000a808 <.L524>:
    a808:	00a15c03          	lhu	s8,10(sp)
    a80c:	17000c93          	li	s9,368
    a810:	ffbc0c13          	addi	s8,s8,-5
    a814:	01811523          	sh	s8,10(sp)
    a818:	00dcc463          	blt	s9,a3,a820 <.L527>
    a81c:	c2dfc06f          	j	7448 <.L525>

0000a820 <.L527>:
    a820:	00c15c03          	lhu	s8,12(sp)
    a824:	ffac0c13          	addi	s8,s8,-6
    a828:	010c1c13          	slli	s8,s8,0x10
    a82c:	410c5c13          	srai	s8,s8,0x10
    a830:	b2cf606f          	j	b5c <.L538>

0000a834 <.L1117>:
    a834:	00e15c03          	lhu	s8,14(sp)
    a838:	01500c93          	li	s9,21
    a83c:	ff7c0c13          	addi	s8,s8,-9
    a840:	01811723          	sh	s8,14(sp)
    a844:	007cc463          	blt	s9,t2,a84c <.L1117+0x18>
    a848:	861f706f          	j	20a8 <.L1118>
    a84c:	bbdf606f          	j	1408 <.L2602>

0000a850 <.L1438>:
    a850:	00c15c03          	lhu	s8,12(sp)
    a854:	005c0c13          	addi	s8,s8,5
    a858:	01811623          	sh	s8,12(sp)
    a85c:	cd1f706f          	j	252c <.L1435>

0000a860 <.L579>:
    a860:	00c15c03          	lhu	s8,12(sp)
    a864:	e0800c93          	li	s9,-504
    a868:	ffac0c13          	addi	s8,s8,-6
    a86c:	01811623          	sh	s8,12(sp)
    a870:	01945463          	bge	s0,s9,a878 <.L579+0x18>
    a874:	addfc06f          	j	7350 <.L580>
    a878:	ba8f606f          	j	c20 <.L581>

0000a87c <.L1067>:
    a87c:	00e15c03          	lhu	s8,14(sp)
    a880:	ffe00c93          	li	s9,-2
    a884:	ff9c0c13          	addi	s8,s8,-7
    a888:	01811723          	sh	s8,14(sp)
    a88c:	01985463          	bge	a6,s9,a894 <.L1067+0x18>
    a890:	891fe06f          	j	9120 <.L1061>
    a894:	03c00c13          	li	s8,60
    a898:	00fc5463          	bge	s8,a5,a8a0 <.L1073>
    a89c:	f64f706f          	j	2000 <.L1089>

0000a8a0 <.L1073>:
    a8a0:	00815c03          	lhu	s8,8(sp)
    a8a4:	ffec0c13          	addi	s8,s8,-2
    a8a8:	010c1c13          	slli	s8,s8,0x10
    a8ac:	410c5c13          	srai	s8,s8,0x10
    a8b0:	acdf606f          	j	137c <.L1092>

0000a8b4 <.L1877>:
    a8b4:	00a15c03          	lhu	s8,10(sp)
    a8b8:	001c0c13          	addi	s8,s8,1
    a8bc:	01811523          	sh	s8,10(sp)
    a8c0:	afcf806f          	j	2bbc <.L1880>

0000a8c4 <.L839>:
    a8c4:	00c15c03          	lhu	s8,12(sp)
    a8c8:	ff6c0c13          	addi	s8,s8,-10
    a8cc:	01811623          	sh	s8,12(sp)
    a8d0:	f20f606f          	j	ff0 <.L838>

0000a8d4 <.L2239>:
    a8d4:	00a15703          	lhu	a4,10(sp)
    a8d8:	f5b00693          	li	a3,-165
    a8dc:	ff970713          	addi	a4,a4,-7
    a8e0:	00e11523          	sh	a4,10(sp)
    a8e4:	00d2c463          	blt	t0,a3,a8ec <.L2239+0x18>
    a8e8:	c55f906f          	j	453c <.L2240>
    a8ec:	8f9f806f          	j	31e4 <.L2670>

0000a8f0 <.L191>:
    a8f0:	00e15e03          	lhu	t3,14(sp)
    a8f4:	00de0e13          	addi	t3,t3,13
    a8f8:	010e1e13          	slli	t3,t3,0x10
    a8fc:	410e5e13          	srai	t3,t3,0x10
    a900:	87cf906f          	j	397c <.L190>

0000a904 <.L980>:
    a904:	00c15c03          	lhu	s8,12(sp)
    a908:	ff7c0c13          	addi	s8,s8,-9
    a90c:	010c1c13          	slli	s8,s8,0x10
    a910:	410c5c13          	srai	s8,s8,0x10
    a914:	d68f706f          	j	1e7c <.L979>

0000a918 <.L2765>:
    a918:	00e15c03          	lhu	s8,14(sp)
    a91c:	fa300c93          	li	s9,-93
    a920:	009c0c13          	addi	s8,s8,9
    a924:	01811723          	sh	s8,14(sp)
    a928:	0192d463          	bge	t0,s9,a930 <.L2765+0x18>
    a92c:	cbcfb06f          	j	5de8 <.L985>
    a930:	e19f906f          	j	4748 <.L2596>

0000a934 <.L364>:
    a934:	00a15c03          	lhu	s8,10(sp)
    a938:	ffbc0c13          	addi	s8,s8,-5
    a93c:	010c1c13          	slli	s8,s8,0x10
    a940:	010c5c13          	srli	s8,s8,0x10
    a944:	d94fc06f          	j	6ed8 <.L365>

0000a948 <.L975>:
    a948:	00c15c03          	lhu	s8,12(sp)
    a94c:	00ec0c13          	addi	s8,s8,14
    a950:	010c1c13          	slli	s8,s8,0x10
    a954:	410c5c13          	srai	s8,s8,0x10
    a958:	d24f706f          	j	1e7c <.L979>

0000a95c <.L377>:
    a95c:	00e15c03          	lhu	s8,14(sp)
    a960:	ff9c0c13          	addi	s8,s8,-7
    a964:	010c1c13          	slli	s8,s8,0x10
    a968:	410c5c13          	srai	s8,s8,0x10
    a96c:	f19f506f          	j	884 <.L375>

0000a970 <.L973>:
    a970:	00a15c03          	lhu	s8,10(sp)
    a974:	fffc0c13          	addi	s8,s8,-1
    a978:	010c1c13          	slli	s8,s8,0x10
    a97c:	410c5c13          	srai	s8,s8,0x10
    a980:	845f606f          	j	11c4 <.L969>

0000a984 <.L955>:
    a984:	00815c03          	lhu	s8,8(sp)
    a988:	ff9c0c13          	addi	s8,s8,-7
    a98c:	010c1c13          	slli	s8,s8,0x10
    a990:	410c5c13          	srai	s8,s8,0x10
    a994:	c94f706f          	j	1e28 <.L948>

0000a998 <.L232>:
    a998:	00a15e03          	lhu	t3,10(sp)
    a99c:	08c00c13          	li	s8,140
    a9a0:	017e0e13          	addi	t3,t3,23
    a9a4:	01c11523          	sh	t3,10(sp)
    a9a8:	00dc4463          	blt	s8,a3,a9b0 <.L232+0x18>
    a9ac:	c7cfb06f          	j	5e28 <.L239>
    a9b0:	d15f506f          	j	6c4 <.L236>

0000a9b4 <.L1525>:
    a9b4:	00a15c03          	lhu	s8,10(sp)
    a9b8:	f9800c93          	li	s9,-104
    a9bc:	001c0c13          	addi	s8,s8,1
    a9c0:	01811523          	sh	s8,10(sp)
    a9c4:	01944463          	blt	s0,s9,a9cc <.L1525+0x18>
    a9c8:	bd9f906f          	j	45a0 <.L1507>
    a9cc:	00c15c03          	lhu	s8,12(sp)
    a9d0:	01800c93          	li	s9,24
    a9d4:	fffc0c13          	addi	s8,s8,-1
    a9d8:	01811623          	sh	s8,12(sp)
    a9dc:	010cd463          	bge	s9,a6,a9e4 <.L1525+0x30>
    a9e0:	c9df706f          	j	267c <.L1534>
    a9e4:	11a00c13          	li	s8,282
    a9e8:	007c5463          	bge	s8,t2,a9f0 <.L1525+0x3c>
    a9ec:	bf1f906f          	j	45dc <.L1536>
    a9f0:	a74fd06f          	j	7c64 <.L1535>

0000a9f4 <.L2920>:
    a9f4:	00c15c03          	lhu	s8,12(sp)
    a9f8:	ffdc0c13          	addi	s8,s8,-3
    a9fc:	010c1c13          	slli	s8,s8,0x10
    aa00:	410c5c13          	srai	s8,s8,0x10
    aa04:	fd0f706f          	j	21d4 <.L1189>

0000aa08 <.L1454>:
    aa08:	00a15c03          	lhu	s8,10(sp)
    aa0c:	002c0c13          	addi	s8,s8,2
    aa10:	01811523          	sh	s8,10(sp)

0000aa14 <.L1485>:
    aa14:	02700c13          	li	s8,39
    aa18:	01dc5463          	bge	s8,t4,aa20 <.L1482>
    aa1c:	e68f906f          	j	4084 <.L1477>

0000aa20 <.L1482>:
    aa20:	00c15c03          	lhu	s8,12(sp)
    aa24:	003c0c13          	addi	s8,s8,3
    aa28:	01811623          	sh	s8,12(sp)
    aa2c:	b9df706f          	j	25c8 <.L1487>

0000aa30 <.L1556>:
    aa30:	00815c03          	lhu	s8,8(sp)
    aa34:	ffdc0c13          	addi	s8,s8,-3
    aa38:	010c1c13          	slli	s8,s8,0x10
    aa3c:	410c5c13          	srai	s8,s8,0x10
    aa40:	c99f706f          	j	26d8 <.L1553>

0000aa44 <.L223>:
    aa44:	00a15e03          	lhu	t3,10(sp)
    aa48:	08c00c13          	li	s8,140
    aa4c:	ffae0e13          	addi	t3,t3,-6
    aa50:	01c11523          	sh	t3,10(sp)
    aa54:	00dc5463          	bge	s8,a3,aa5c <.L241>
    aa58:	f85f806f          	j	39dc <.L225>

0000aa5c <.L241>:
    aa5c:	00c15e03          	lhu	t3,12(sp)
    aa60:	ce400c13          	li	s8,-796
    aa64:	ff7e0e13          	addi	t3,t3,-9
    aa68:	01c11623          	sh	t3,12(sp)
    aa6c:	5b85c8e3          	blt	a1,s8,b81c <.L254>
    aa70:	00e15e03          	lhu	t3,14(sp)
    aa74:	ff6e0e13          	addi	t3,t3,-10
    aa78:	01c11723          	sh	t3,14(sp)
    aa7c:	ce1f806f          	j	375c <.L280>

0000aa80 <.L238>:
    aa80:	00a15e03          	lhu	t3,10(sp)
    aa84:	08c00c13          	li	s8,140
    aa88:	ffae0e13          	addi	t3,t3,-6
    aa8c:	01c11523          	sh	t3,10(sp)
    aa90:	00dc5463          	bge	s8,a3,aa98 <.L238+0x18>
    aa94:	f49f806f          	j	39dc <.L225>
    aa98:	03600e13          	li	t3,54
    aa9c:	fcfe50e3          	bge	t3,a5,aa5c <.L241>

0000aaa0 <.L243>:
    aaa0:	01c51c03          	lh	s8,28(a0)
    aaa4:	03b00e13          	li	t3,59
    aaa8:	658e46e3          	blt	t3,s8,b8f4 <.L262>
    aaac:	00c15e03          	lhu	t3,12(sp)
    aab0:	ff7e0e13          	addi	t3,t3,-9
    aab4:	010e1e13          	slli	t3,t3,0x10
    aab8:	410e5e13          	srai	t3,t3,0x10
    aabc:	c25f506f          	j	6e0 <.L263>

0000aac0 <.L303>:
    aac0:	00815e03          	lhu	t3,8(sp)
    aac4:	fffe0e13          	addi	t3,t3,-1
    aac8:	010e1e13          	slli	t3,t3,0x10
    aacc:	410e5e13          	srai	t3,t3,0x10
    aad0:	cb5f806f          	j	3784 <.L304>

0000aad4 <.L141>:
    aad4:	00815e03          	lhu	t3,8(sp)
    aad8:	0a600c13          	li	s8,166
    aadc:	007e0e13          	addi	t3,t3,7
    aae0:	01c11423          	sh	t3,8(sp)
    aae4:	00ec4463          	blt	s8,a4,aaec <.L141+0x18>
    aae8:	e1df806f          	j	3904 <.L143>
    aaec:	9f5f506f          	j	4e0 <.L2552>

0000aaf0 <.L663>:
    aaf0:	00a15c03          	lhu	s8,10(sp)
    aaf4:	ff6c0c13          	addi	s8,s8,-10
    aaf8:	010c1c13          	slli	s8,s8,0x10
    aafc:	410c5c13          	srai	s8,s8,0x10
    ab00:	a1cf606f          	j	d1c <.L662>

0000ab04 <.L2867>:
    ab04:	02b00713          	li	a4,43
    ab08:	01074463          	blt	a4,a6,ab10 <.L2216>
    ab0c:	8ecf906f          	j	3bf8 <.L2215>

0000ab10 <.L2216>:
    ab10:	00a15703          	lhu	a4,10(sp)
    ab14:	fff70713          	addi	a4,a4,-1
    ab18:	01071713          	slli	a4,a4,0x10
    ab1c:	41075713          	srai	a4,a4,0x10
    ab20:	8f4f906f          	j	3c14 <.L2247>

0000ab24 <.L2917>:
    ab24:	00c15b03          	lhu	s6,12(sp)
    ab28:	002b0b13          	addi	s6,s6,2
    ab2c:	010b1b13          	slli	s6,s6,0x10
    ab30:	410b5b13          	srai	s6,s6,0x10
    ab34:	c14f806f          	j	2f48 <.L2082>

0000ab38 <.L1239>:
    ab38:	00c15c03          	lhu	s8,12(sp)
    ab3c:	ff7c0c13          	addi	s8,s8,-9
    ab40:	010c1c13          	slli	s8,s8,0x10
    ab44:	410c5c13          	srai	s8,s8,0x10
    ab48:	f40f706f          	j	2288 <.L1240>

0000ab4c <.L154>:
    ab4c:	00a15e03          	lhu	t3,10(sp)
    ab50:	10b00c13          	li	s8,267
    ab54:	ff6e0e13          	addi	t3,t3,-10
    ab58:	01c11523          	sh	t3,10(sp)
    ab5c:	00dc5463          	bge	s8,a3,ab64 <.L154+0x18>
    ab60:	a50fc06f          	j	6db0 <.L156>
    ab64:	03800e13          	li	t3,56
    ab68:	00fe5463          	bge	t3,a5,ab70 <.L157>
    ab6c:	a50fc06f          	j	6dbc <.L181>

0000ab70 <.L157>:
    ab70:	00c15e03          	lhu	t3,12(sp)
    ab74:	ff7e0e13          	addi	t3,t3,-9
    ab78:	01c11623          	sh	t3,12(sp)
    ab7c:	dd9f806f          	j	3954 <.L170>

0000ab80 <.L2868>:
    ab80:	00815c03          	lhu	s8,8(sp)
    ab84:	12e00c93          	li	s9,302
    ab88:	002c0c13          	addi	s8,s8,2
    ab8c:	01811423          	sh	s8,8(sp)
    ab90:	006cc463          	blt	s9,t1,ab98 <.L2868+0x18>
    ab94:	d68f906f          	j	40fc <.L1504>
    ab98:	9e5f906f          	j	457c <.L2631>

0000ab9c <.L2053>:
    ab9c:	00c15c03          	lhu	s8,12(sp)
    aba0:	001c0c13          	addi	s8,s8,1
    aba4:	01811623          	sh	s8,12(sp)
    aba8:	5bc054e3          	blez	t3,b950 <.L2951>
    abac:	ff600c13          	li	s8,-10
    abb0:	65865ee3          	bge	a2,s8,ba0c <.L2063>
    abb4:	02900c13          	li	s8,41
    abb8:	01dc5463          	bge	s8,t4,abc0 <.L2053+0x24>
    abbc:	3780106f          	j	bf34 <.L2064>
    abc0:	00e15c03          	lhu	s8,14(sp)
    abc4:	ffbc0c13          	addi	s8,s8,-5
    abc8:	01811723          	sh	s8,14(sp)
    abcc:	f00f906f          	j	42cc <.L2056>

0000abd0 <.L2197>:
    abd0:	00a15503          	lhu	a0,10(sp)
    abd4:	25b00e93          	li	t4,603
    abd8:	00850513          	addi	a0,a0,8
    abdc:	00a11523          	sh	a0,10(sp)
    abe0:	00eec463          	blt	t4,a4,abe8 <.L2197+0x18>
    abe4:	d50f806f          	j	3134 <.L2201>
    abe8:	c5cfc06f          	j	7044 <.L2198>

0000abec <.L2237>:
    abec:	00815683          	lhu	a3,8(sp)
    abf0:	ff968693          	addi	a3,a3,-7
    abf4:	01069693          	slli	a3,a3,0x10
    abf8:	4106d693          	srai	a3,a3,0x10
    abfc:	dacf806f          	j	31a8 <.L2236>

0000ac00 <.L2116>:
    ac00:	00a15b03          	lhu	s6,10(sp)
    ac04:	25b00c13          	li	s8,603
    ac08:	fffb0b13          	addi	s6,s6,-1
    ac0c:	01611523          	sh	s6,10(sp)
    ac10:	00ec4463          	blt	s8,a4,ac18 <.L2116+0x18>
    ac14:	fa0f906f          	j	43b4 <.L2120>
    ac18:	c1dfc06f          	j	7834 <.L2117>

0000ac1c <.L2129>:
    ac1c:	00c15b03          	lhu	s6,12(sp)
    ac20:	ffcb0b13          	addi	s6,s6,-4
    ac24:	01611623          	sh	s6,12(sp)
    ac28:	bc0f806f          	j	2fe8 <.L2124>

0000ac2c <.L219>:
    ac2c:	00815e03          	lhu	t3,8(sp)
    ac30:	ff9e0e13          	addi	t3,t3,-7
    ac34:	010e1e13          	slli	t3,t3,0x10
    ac38:	410e5e13          	srai	t3,t3,0x10
    ac3c:	cbcfb06f          	j	60f8 <.L220>

0000ac40 <.L915>:
    ac40:	00a15c03          	lhu	s8,10(sp)
    ac44:	ffec0c13          	addi	s8,s8,-2
    ac48:	010c1c13          	slli	s8,s8,0x10
    ac4c:	410c5c13          	srai	s8,s8,0x10
    ac50:	cc8f606f          	j	1118 <.L912>

0000ac54 <.L2093>:
    ac54:	00c15b03          	lhu	s6,12(sp)
    ac58:	ff8b0b13          	addi	s6,s6,-8
    ac5c:	010b1b13          	slli	s6,s6,0x10
    ac60:	410b5b13          	srai	s6,s6,0x10
    ac64:	ae4f806f          	j	2f48 <.L2082>

0000ac68 <.L1594>:
    ac68:	00c15c03          	lhu	s8,12(sp)
    ac6c:	00300c93          	li	s9,3
    ac70:	ffec0c13          	addi	s8,s8,-2
    ac74:	01811623          	sh	s8,12(sp)
    ac78:	01ccd463          	bge	s9,t3,ac80 <.L1632>
    ac7c:	b1cfe06f          	j	8f98 <.L1596>

0000ac80 <.L1632>:
    ac80:	0c100c13          	li	s8,193
    ac84:	012c4463          	blt	s8,s2,ac8c <.L1632+0xc>
    ac88:	b8df706f          	j	2814 <.L1635>
    ac8c:	00e15c03          	lhu	s8,14(sp)
    ac90:	00400c93          	li	s9,4
    ac94:	007c0c13          	addi	s8,s8,7
    ac98:	01811723          	sh	s8,14(sp)
    ac9c:	011cc463          	blt	s9,a7,aca4 <.L1632+0x24>
    aca0:	de9fa06f          	j	5a88 <.L1643>
    aca4:	00e00c13          	li	s8,14
    aca8:	01dc4463          	blt	s8,t4,acb0 <.L1632+0x30>
    acac:	ba5f706f          	j	2850 <.L1644>
    acb0:	958f906f          	j	3e08 <.L1645>

0000acb4 <.L421>:
    acb4:	00815c03          	lhu	s8,8(sp)
    acb8:	004c0c13          	addi	s8,s8,4
    acbc:	010c1c13          	slli	s8,s8,0x10
    acc0:	410c5c13          	srai	s8,s8,0x10
    acc4:	cbdf506f          	j	980 <.L420>

0000acc8 <.L875>:
    acc8:	00a15c03          	lhu	s8,10(sp)
    accc:	002c0c13          	addi	s8,s8,2
    acd0:	01811523          	sh	s8,10(sp)
    acd4:	b94f606f          	j	1068 <.L874>

0000acd8 <.L917>:
    acd8:	00a15c03          	lhu	s8,10(sp)
    acdc:	03300c93          	li	s9,51
    ace0:	fe1c0c13          	addi	s8,s8,-31
    ace4:	01811523          	sh	s8,10(sp)
    ace8:	00fcc463          	blt	s9,a5,acf0 <.L917+0x18>
    acec:	e0cfa06f          	j	52f8 <.L923>
    acf0:	8b8f706f          	j	1da8 <.L918>

0000acf4 <.L72>:
    acf4:	00e15e03          	lhu	t3,14(sp)
    acf8:	ffbe0e13          	addi	t3,t3,-5
    acfc:	01c11723          	sh	t3,14(sp)
    ad00:	a81fb06f          	j	6780 <.L74>

0000ad04 <.L630>:
    ad04:	00a15c03          	lhu	s8,10(sp)
    ad08:	08900c93          	li	s9,137
    ad0c:	ffbc0c13          	addi	s8,s8,-5
    ad10:	01811523          	sh	s8,10(sp)
    ad14:	00dcd463          	bge	s9,a3,ad1c <.L630+0x18>
    ad18:	d45fd06f          	j	8a5c <.L2952>
    ad1c:	23000c13          	li	s8,560
    ad20:	57ec44e3          	blt	s8,t5,ba88 <.L2273>
    ad24:	00c15c03          	lhu	s8,12(sp)
    ad28:	ff8c0c13          	addi	s8,s8,-8
    ad2c:	01811623          	sh	s8,12(sp)
    ad30:	961fb06f          	j	6690 <.L643>

0000ad34 <.L46>:
    ad34:	ffa88893          	addi	a7,a7,-6
    ad38:	01089893          	slli	a7,a7,0x10
    ad3c:	00851803          	lh	a6,8(a0)
    ad40:	4108d893          	srai	a7,a7,0x10
    ad44:	c24f506f          	j	168 <.L47>

0000ad48 <.L438>:
    ad48:	00a15c03          	lhu	s8,10(sp)
    ad4c:	00ac0c13          	addi	s8,s8,10
    ad50:	010c1c13          	slli	s8,s8,0x10
    ad54:	410c5c13          	srai	s8,s8,0x10
    ad58:	f6cf806f          	j	34c4 <.L437>

0000ad5c <.L2338>:
    ad5c:	ff400793          	li	a5,-12
    ad60:	01251483          	lh	s1,18(a0)
    ad64:	01051b03          	lh	s6,16(a0)
    ad68:	00f64463          	blt	a2,a5,ad70 <.L25>
    ad6c:	d90f506f          	j	2fc <.L22>

0000ad70 <.L25>:
    ad70:	00051783          	lh	a5,0(a0)
    ad74:	ffb00593          	li	a1,-5
    ad78:	00b11623          	sh	a1,12(sp)
    ad7c:	03e00593          	li	a1,62
    ad80:	01451283          	lh	t0,20(a0)
    ad84:	00f5c463          	blt	a1,a5,ad8c <.L25+0x1c>
    ad88:	d8cf506f          	j	314 <.L26>
    ad8c:	b94f506f          	j	120 <.L27>

0000ad90 <.L455>:
    ad90:	00e15c03          	lhu	s8,14(sp)
    ad94:	006c0c13          	addi	s8,s8,6
    ad98:	010c1c13          	slli	s8,s8,0x10
    ad9c:	410c5c13          	srai	s8,s8,0x10
    ada0:	f7cf806f          	j	351c <.L454>

0000ada4 <.L628>:
    ada4:	00a15c03          	lhu	s8,10(sp)
    ada8:	004c0c13          	addi	s8,s8,4
    adac:	010c1c13          	slli	s8,s8,0x10
    adb0:	410c5c13          	srai	s8,s8,0x10
    adb4:	b1df606f          	j	18d0 <.L629>

0000adb8 <.L1554>:
    adb8:	00815c03          	lhu	s8,8(sp)
    adbc:	007c0c13          	addi	s8,s8,7
    adc0:	010c1c13          	slli	s8,s8,0x10
    adc4:	410c5c13          	srai	s8,s8,0x10
    adc8:	911f706f          	j	26d8 <.L1553>

0000adcc <.L2069>:
    adcc:	00815b03          	lhu	s6,8(sp)
    add0:	ff6b0b13          	addi	s6,s6,-10
    add4:	01611423          	sh	s6,8(sp)
    add8:	924f806f          	j	2efc <.L2070>

0000addc <.L1944>:
    addc:	00815c03          	lhu	s8,8(sp)
    ade0:	ffec0c13          	addi	s8,s8,-2
    ade4:	01811423          	sh	s8,8(sp)
    ade8:	f05f706f          	j	2cec <.L1941>

0000adec <.L1029>:
    adec:	00e15c03          	lhu	s8,14(sp)
    adf0:	00dc0c13          	addi	s8,s8,13
    adf4:	010c1c13          	slli	s8,s8,0x10
    adf8:	410c5c13          	srai	s8,s8,0x10
    adfc:	cc4f606f          	j	12c0 <.L1028>

0000ae00 <.L2923>:
    ae00:	00c15c83          	lhu	s9,12(sp)
    ae04:	03900d13          	li	s10,57
    ae08:	fffc8c93          	addi	s9,s9,-1
    ae0c:	01911623          	sh	s9,12(sp)
    ae10:	24fd42e3          	blt	s10,a5,b854 <.L932>
    ae14:	01500c13          	li	s8,21
    ae18:	006c5463          	bge	s8,t1,ae20 <.L2923+0x20>
    ae1c:	b3cf606f          	j	1158 <.L933>
    ae20:	01f00c13          	li	s8,31
    ae24:	01dc4463          	blt	s8,t4,ae2c <.L2923+0x2c>
    ae28:	c84f806f          	j	32ac <.L934>
    ae2c:	00e15c03          	lhu	s8,14(sp)
    ae30:	015c0c13          	addi	s8,s8,21
    ae34:	01811723          	sh	s8,14(sp)
    ae38:	fc5f606f          	j	1dfc <.L935>

0000ae3c <.L1421>:
    ae3c:	00e15c03          	lhu	s8,14(sp)
    ae40:	006c0c13          	addi	s8,s8,6
    ae44:	01811723          	sh	s8,14(sp)
    ae48:	e64f706f          	j	24ac <.L1411>

0000ae4c <.L1777>:
    ae4c:	00e15c03          	lhu	s8,14(sp)
    ae50:	fffc0c13          	addi	s8,s8,-1
    ae54:	01811723          	sh	s8,14(sp)
    ae58:	bd1f706f          	j	2a28 <.L1775>

0000ae5c <.L1739>:
    ae5c:	00e15c03          	lhu	s8,14(sp)
    ae60:	ffac0c13          	addi	s8,s8,-6
    ae64:	01811723          	sh	s8,14(sp)
    ae68:	ba8fa06f          	j	5210 <.L1742>

0000ae6c <.L698>:
    ae6c:	00a15c03          	lhu	s8,10(sp)
    ae70:	ffdc0c13          	addi	s8,s8,-3
    ae74:	010c1c13          	slli	s8,s8,0x10
    ae78:	010c5c13          	srli	s8,s8,0x10
    ae7c:	f69f506f          	j	de4 <.L699>

0000ae80 <.L534>:
    ae80:	00a15c03          	lhu	s8,10(sp)
    ae84:	ff5c0c13          	addi	s8,s8,-11
    ae88:	010c1c13          	slli	s8,s8,0x10
    ae8c:	010c5c13          	srli	s8,s8,0x10
    ae90:	c9df506f          	j	b2c <.L535>

0000ae94 <.L1006>:
    ae94:	00a15c03          	lhu	s8,10(sp)
    ae98:	ff8c0c13          	addi	s8,s8,-8
    ae9c:	010c1c13          	slli	s8,s8,0x10
    aea0:	410c5c13          	srai	s8,s8,0x10
    aea4:	bb4f606f          	j	1258 <.L1007>

0000aea8 <.L1566>:
    aea8:	00a15c03          	lhu	s8,10(sp)
    aeac:	10b00c93          	li	s9,267
    aeb0:	003c0c13          	addi	s8,s8,3
    aeb4:	01811523          	sh	s8,10(sp)
    aeb8:	00dcc463          	blt	s9,a3,aec0 <.L1566+0x18>
    aebc:	ca5fc06f          	j	7b60 <.L1560>
    aec0:	cf4fd06f          	j	83b4 <.L2632>

0000aec4 <.L1575>:
    aec4:	00c15c03          	lhu	s8,12(sp)
    aec8:	ff7c0c13          	addi	s8,s8,-9
    aecc:	010c1c13          	slli	s8,s8,0x10
    aed0:	410c5c13          	srai	s8,s8,0x10
    aed4:	86df706f          	j	2740 <.L1574>

0000aed8 <.L2839>:
    aed8:	ffe68693          	addi	a3,a3,-2
    aedc:	00d11723          	sh	a3,14(sp)
    aee0:	a98f806f          	j	3178 <.L2210>

0000aee4 <.L1134>:
    aee4:	00a15c03          	lhu	s8,10(sp)
    aee8:	fffc0c13          	addi	s8,s8,-1
    aeec:	010c1c13          	slli	s8,s8,0x10
    aef0:	410c5c13          	srai	s8,s8,0x10
    aef4:	d70f606f          	j	1464 <.L1133>

0000aef8 <.L1720>:
    aef8:	00a15c03          	lhu	s8,10(sp)
    aefc:	ffac0c13          	addi	s8,s8,-6
    af00:	010c1c13          	slli	s8,s8,0x10
    af04:	410c5c13          	srai	s8,s8,0x10
    af08:	a15f706f          	j	291c <.L1721>

0000af0c <.L1370>:
    af0c:	00e15c03          	lhu	s8,14(sp)
    af10:	006c0c13          	addi	s8,s8,6
    af14:	010c1c13          	slli	s8,s8,0x10
    af18:	410c5c13          	srai	s8,s8,0x10
    af1c:	cd0f706f          	j	23ec <.L1366>

0000af20 <.L1432>:
    af20:	00a15c03          	lhu	s8,10(sp)
    af24:	001c0c13          	addi	s8,s8,1
    af28:	01811523          	sh	s8,10(sp)
    af2c:	dd4f706f          	j	2500 <.L1429>

0000af30 <.L1322>:
    af30:	00815c03          	lhu	s8,8(sp)
    af34:	03400c93          	li	s9,52
    af38:	00bc0c13          	addi	s8,s8,11
    af3c:	01811423          	sh	s8,8(sp)
    af40:	01dcc463          	blt	s9,t4,af48 <.L1322+0x18>
    af44:	f45f806f          	j	3e88 <.L1329>
    af48:	fd4f606f          	j	171c <.L1323>

0000af4c <.L2211>:
    af4c:	00c15503          	lhu	a0,12(sp)
    af50:	02800e93          	li	t4,40
    af54:	ffc50513          	addi	a0,a0,-4
    af58:	00a11623          	sh	a0,12(sp)
    af5c:	167ec0e3          	blt	t4,t2,b8bc <.L2223>
    af60:	03c00513          	li	a0,60
    af64:	00f54463          	blt	a0,a5,af6c <.L2527>
    af68:	ea8fc06f          	j	7610 <.L2224>

0000af6c <.L2527>:
    af6c:	f7a00693          	li	a3,-134
    af70:	00da4463          	blt	s4,a3,af78 <.L2668>
    af74:	a0cf806f          	j	3180 <.L2218>

0000af78 <.L2668>:
    af78:	f4000693          	li	a3,-192
    af7c:	00da4463          	blt	s4,a3,af84 <.L2668+0xc>
    af80:	c59f806f          	j	3bd8 <.L2220>
    af84:	e78fa06f          	j	55fc <.L2219>

0000af88 <.L2815>:
    af88:	00a15c03          	lhu	s8,10(sp)
    af8c:	003c0c13          	addi	s8,s8,3
    af90:	010c1c13          	slli	s8,s8,0x10
    af94:	410c5c13          	srai	s8,s8,0x10
    af98:	addf706f          	j	2a74 <.L1793>

0000af9c <.L2915>:
    af9c:	00e15c03          	lhu	s8,14(sp)
    afa0:	009c0c13          	addi	s8,s8,9
    afa4:	01811723          	sh	s8,14(sp)
    afa8:	868f606f          	j	1010 <.L846>

0000afac <.L69>:
    afac:	00c15e03          	lhu	t3,12(sp)
    afb0:	ffbe0e13          	addi	t3,t3,-5
    afb4:	010e1e13          	slli	t3,t3,0x10
    afb8:	410e5e13          	srai	t3,t3,0x10
    afbc:	a18f506f          	j	1d4 <.L65>

0000afc0 <.L1947>:
    afc0:	00a15c03          	lhu	s8,10(sp)
    afc4:	03c00c93          	li	s9,60
    afc8:	003c0c13          	addi	s8,s8,3
    afcc:	01811523          	sh	s8,10(sp)
    afd0:	00fcc463          	blt	s9,a5,afd8 <.L1947+0x18>
    afd4:	b21f906f          	j	4af4 <.L1963>
    afd8:	daa00c13          	li	s8,-598
    afdc:	018ac463          	blt	s5,s8,afe4 <.L1952>
    afe0:	80cfc06f          	j	6fec <.L1953>

0000afe4 <.L1952>:
    afe4:	05800c13          	li	s8,88
    afe8:	009c4463          	blt	s8,s1,aff0 <.L1952+0xc>
    afec:	a68fd06f          	j	8254 <.L1982>
    aff0:	d71f706f          	j	2d60 <.L1984>

0000aff4 <.L2204>:
    aff4:	00a15503          	lhu	a0,10(sp)
    aff8:	00250513          	addi	a0,a0,2
    affc:	00a11523          	sh	a0,10(sp)
    b000:	b71f806f          	j	3b70 <.L2205>

0000b004 <.L1805>:
    b004:	00c15c03          	lhu	s8,12(sp)
    b008:	002c0c13          	addi	s8,s8,2
    b00c:	01811623          	sh	s8,12(sp)
    b010:	a99f706f          	j	2aa8 <.L1808>

0000b014 <.L1942>:
    b014:	00815c03          	lhu	s8,8(sp)
    b018:	ffbc0c13          	addi	s8,s8,-5
    b01c:	01811423          	sh	s8,8(sp)
    b020:	ccdf706f          	j	2cec <.L1941>

0000b024 <.L350>:
    b024:	00a15c03          	lhu	s8,10(sp)
    b028:	17000c93          	li	s9,368
    b02c:	ff8c0c13          	addi	s8,s8,-8
    b030:	01811523          	sh	s8,10(sp)
    b034:	00dcc463          	blt	s9,a3,b03c <.L350+0x18>
    b038:	eadfb06f          	j	6ee4 <.L351>
    b03c:	f98fc06f          	j	77d4 <.L359>

0000b040 <.L968>:
    b040:	00a15c03          	lhu	s8,10(sp)
    b044:	ffec0c13          	addi	s8,s8,-2
    b048:	01811523          	sh	s8,10(sp)
    b04c:	e29fb06f          	j	6e74 <.L970>

0000b050 <.L2206>:
    b050:	00c15503          	lhu	a0,12(sp)
    b054:	00350513          	addi	a0,a0,3
    b058:	01051513          	slli	a0,a0,0x10
    b05c:	41055513          	srai	a0,a0,0x10
    b060:	8fcf806f          	j	315c <.L2207>

0000b064 <.L1498>:
    b064:	00e15c03          	lhu	s8,14(sp)
    b068:	001c0c13          	addi	s8,s8,1
    b06c:	01811723          	sh	s8,14(sp)
    b070:	858f906f          	j	40c8 <.L1497>

0000b074 <.L1493>:
    b074:	00e15c03          	lhu	s8,14(sp)
    b078:	005c0c13          	addi	s8,s8,5
    b07c:	01811723          	sh	s8,14(sp)
    b080:	848f906f          	j	40c8 <.L1497>

0000b084 <.L1348>:
    b084:	00a15c03          	lhu	s8,10(sp)
    b088:	fffc0c13          	addi	s8,s8,-1
    b08c:	010c1c13          	slli	s8,s8,0x10
    b090:	010c5c13          	srli	s8,s8,0x10
    b094:	cecfc06f          	j	7580 <.L1349>

0000b098 <.L345>:
    b098:	00815c03          	lhu	s8,8(sp)
    b09c:	ff7c0c13          	addi	s8,s8,-9
    b0a0:	01811423          	sh	s8,8(sp)
    b0a4:	f5cf506f          	j	800 <.L344>

0000b0a8 <.L799>:
    b0a8:	00a15c03          	lhu	s8,10(sp)
    b0ac:	ffec0c13          	addi	s8,s8,-2
    b0b0:	010c1c13          	slli	s8,s8,0x10
    b0b4:	410c5c13          	srai	s8,s8,0x10
    b0b8:	d89f906f          	j	4e40 <.L800>

0000b0bc <.L1459>:
    b0bc:	00815c03          	lhu	s8,8(sp)
    b0c0:	f8b00c93          	li	s9,-117
    b0c4:	ffec0c13          	addi	s8,s8,-2
    b0c8:	01811423          	sh	s8,8(sp)
    b0cc:	0195c463          	blt	a1,s9,b0d4 <.L1459+0x18>
    b0d0:	f91f806f          	j	4060 <.L1464>
    b0d4:	cacf706f          	j	2580 <.L2737>

0000b0d8 <.L1834>:
    b0d8:	00815c03          	lhu	s8,8(sp)
    b0dc:	007c0c13          	addi	s8,s8,7
    b0e0:	010c1c13          	slli	s8,s8,0x10
    b0e4:	410c5c13          	srai	s8,s8,0x10
    b0e8:	badf906f          	j	4c94 <.L1835>

0000b0ec <.L1957>:
    b0ec:	00a15c03          	lhu	s8,10(sp)
    b0f0:	ffcc0c13          	addi	s8,s8,-4
    b0f4:	010c1c13          	slli	s8,s8,0x10
    b0f8:	410c5c13          	srai	s8,s8,0x10
    b0fc:	c25f706f          	j	2d20 <.L1948>

0000b100 <.L1439>:
    b100:	00c15c03          	lhu	s8,12(sp)
    b104:	ffac0c13          	addi	s8,s8,-6
    b108:	01811623          	sh	s8,12(sp)
    b10c:	c20f706f          	j	252c <.L1435>

0000b110 <.L1384>:
    b110:	03900c13          	li	s8,57
    b114:	006c4463          	blt	s8,t1,b11c <.L1384+0xc>
    b118:	ed8f906f          	j	47f0 <.L1372>
    b11c:	e21f806f          	j	3f3c <.L2620>

0000b120 <.L2130>:
    b120:	00c15b03          	lhu	s6,12(sp)
    b124:	ff7b0b13          	addi	s6,s6,-9
    b128:	01611623          	sh	s6,12(sp)
    b12c:	ebdf706f          	j	2fe8 <.L2124>

0000b130 <.L1869>:
    b130:	00e15c03          	lhu	s8,14(sp)
    b134:	ff6c0c13          	addi	s8,s8,-10
    b138:	010c1c13          	slli	s8,s8,0x10
    b13c:	010c5c13          	srli	s8,s8,0x10
    b140:	f40fc06f          	j	7880 <.L1870>

0000b144 <.L2721>:
    b144:	00a00693          	li	a3,10
    b148:	5f36c663          	blt	a3,s3,b734 <.L2174>
    b14c:	00c15683          	lhu	a3,12(sp)
    b150:	ff868693          	addi	a3,a3,-8
    b154:	00d11623          	sh	a3,12(sp)
    b158:	e24fa06f          	j	577c <.L2170>

0000b15c <.L2167>:
    b15c:	fdb00b13          	li	s6,-37
    b160:	ff6742e3          	blt	a4,s6,b144 <.L2721>
    b164:	02600b13          	li	s6,38
    b168:	00eb5463          	bge	s6,a4,b170 <.L2167+0x14>
    b16c:	d38fc06f          	j	76a4 <.L2181>
    b170:	03c00b13          	li	s6,60
    b174:	00db4463          	blt	s6,a3,b17c <.L2167+0x20>
    b178:	e04fa06f          	j	577c <.L2170>
    b17c:	f25f706f          	j	30a0 <.L2171>

0000b180 <.L1272>:
    b180:	00815c03          	lhu	s8,8(sp)
    b184:	001c0c13          	addi	s8,s8,1
    b188:	010c1c13          	slli	s8,s8,0x10
    b18c:	410c5c13          	srai	s8,s8,0x10
    b190:	c84f906f          	j	4614 <.L1253>

0000b194 <.L1335>:
    b194:	00a15c03          	lhu	s8,10(sp)
    b198:	02a00c93          	li	s9,42
    b19c:	ff7c0c13          	addi	s8,s8,-9
    b1a0:	01811523          	sh	s8,10(sp)
    b1a4:	00dcc463          	blt	s9,a3,b1ac <.L1335+0x18>
    b1a8:	be8fc06f          	j	7590 <.L1345>
    b1ac:	02700c13          	li	s8,39
    b1b0:	00ec5463          	bge	s8,a4,b1b8 <.L1335+0x24>
    b1b4:	d1df806f          	j	3ed0 <.L1346>
    b1b8:	d0df806f          	j	3ec4 <.L2698>

0000b1bc <.L1473>:
    b1bc:	00815c03          	lhu	s8,8(sp)
    b1c0:	002c0c13          	addi	s8,s8,2
    b1c4:	010c1c13          	slli	s8,s8,0x10
    b1c8:	010c5c13          	srli	s8,s8,0x10
    b1cc:	a29fa06f          	j	5bf4 <.L1474>

0000b1d0 <.L791>:
    b1d0:	00815c03          	lhu	s8,8(sp)
    b1d4:	03300c93          	li	s9,51
    b1d8:	ff9c0c13          	addi	s8,s8,-7
    b1dc:	01811423          	sh	s8,8(sp)
    b1e0:	01fcc463          	blt	s9,t6,b1e8 <.L791+0x18>
    b1e4:	9a1f606f          	j	1b84 <.L788>
    b1e8:	c3df906f          	j	4e24 <.L789>

0000b1ec <.L569>:
    b1ec:	00a15c03          	lhu	s8,10(sp)
    b1f0:	17000c93          	li	s9,368
    b1f4:	006c0c13          	addi	s8,s8,6
    b1f8:	01811523          	sh	s8,10(sp)
    b1fc:	00dcc463          	blt	s9,a3,b204 <.L569+0x18>
    b200:	9e9f506f          	j	be8 <.L563>
    b204:	af1fd06f          	j	8cf4 <.L2288>

0000b208 <.L2820>:
    b208:	00e15c03          	lhu	s8,14(sp)
    b20c:	001c0c13          	addi	s8,s8,1
    b210:	010c1c13          	slli	s8,s8,0x10
    b214:	410c5c13          	srai	s8,s8,0x10
    b218:	cb1f706f          	j	2ec8 <.L2058>

0000b21c <.L1824>:
    b21c:	00e15c03          	lhu	s8,14(sp)
    b220:	ffdc0c13          	addi	s8,s8,-3
    b224:	010c1c13          	slli	s8,s8,0x10
    b228:	010c5c13          	srli	s8,s8,0x10
    b22c:	01811723          	sh	s8,14(sp)
    b230:	a35f906f          	j	4c64 <.L1822>

0000b234 <.L2932>:
    b234:	00c15c03          	lhu	s8,12(sp)
    b238:	00300c93          	li	s9,3
    b23c:	004c0c13          	addi	s8,s8,4
    b240:	01811623          	sh	s8,12(sp)
    b244:	01ccc463          	blt	s9,t3,b24c <.L2932+0x18>
    b248:	b91f806f          	j	3dd8 <.L1621>
    b24c:	e4a00c13          	li	s8,-438
    b250:	0182c463          	blt	t0,s8,b258 <.L2932+0x24>
    b254:	fd4fa06f          	j	5a28 <.L1627>
    b258:	d4dfd06f          	j	8fa4 <.L1622>

0000b25c <.L766>:
    b25c:	00c15c03          	lhu	s8,12(sp)
    b260:	03e00c93          	li	s9,62
    b264:	ffcc0c13          	addi	s8,s8,-4
    b268:	01811623          	sh	s8,12(sp)
    b26c:	00fcd463          	bge	s9,a5,b274 <.L766+0x18>
    b270:	c35f906f          	j	4ea4 <.L752>
    b274:	cf1fd06f          	j	8f64 <.L764>

0000b278 <.L761>:
    b278:	00c15c03          	lhu	s8,12(sp)
    b27c:	fffc0c13          	addi	s8,s8,-1
    b280:	010c1c13          	slli	s8,s8,0x10
    b284:	010c5c13          	srli	s8,s8,0x10
    b288:	f21f906f          	j	51a8 <.L762>

0000b28c <.L2938>:
    b28c:	00e15c03          	lhu	s8,14(sp)
    b290:	003c0c13          	addi	s8,s8,3
    b294:	01811723          	sh	s8,14(sp)
    b298:	ed9f506f          	j	1170 <.L940>

0000b29c <.L734>:
    b29c:	00815c03          	lhu	s8,8(sp)
    b2a0:	003c0c13          	addi	s8,s8,3
    b2a4:	01811423          	sh	s8,8(sp)
    b2a8:	80df606f          	j	1ab4 <.L718>

0000b2ac <.L2886>:
    b2ac:	007c0c13          	addi	s8,s8,7
    b2b0:	010c1c13          	slli	s8,s8,0x10
    b2b4:	410c5c13          	srai	s8,s8,0x10
    b2b8:	c51f506f          	j	f08 <.L778>

0000b2bc <.L2922>:
    b2bc:	ffdc0c13          	addi	s8,s8,-3
    b2c0:	01811623          	sh	s8,12(sp)
    b2c4:	84cfa06f          	j	5310 <.L928>

0000b2c8 <.L2760>:
    b2c8:	00a15c03          	lhu	s8,10(sp)
    b2cc:	08900c93          	li	s9,137
    b2d0:	ff7c0c13          	addi	s8,s8,-9
    b2d4:	01811523          	sh	s8,10(sp)
    b2d8:	00dcc463          	blt	s9,a3,b2e0 <.L2760+0x18>
    b2dc:	9bdf506f          	j	c98 <.L621>
    b2e0:	f4cfc06f          	j	7a2c <.L2582>

0000b2e4 <.L1851>:
    b2e4:	00e15c03          	lhu	s8,14(sp)
    b2e8:	01f00c93          	li	s9,31
    b2ec:	007c0c13          	addi	s8,s8,7
    b2f0:	01811723          	sh	s8,14(sp)
    b2f4:	013cd463          	bge	s9,s3,b2fc <.L1851+0x18>
    b2f8:	895f706f          	j	2b8c <.L1860>
    b2fc:	89df706f          	j	2b98 <.L1874>

0000b300 <.L1141>:
    b300:	00c15c03          	lhu	s8,12(sp)
    b304:	ff7c0c13          	addi	s8,s8,-9
    b308:	010c1c13          	slli	s8,s8,0x10
    b30c:	410c5c13          	srai	s8,s8,0x10
    b310:	988f606f          	j	1498 <.L1140>

0000b314 <.L2931>:
    b314:	00a15c03          	lhu	s8,10(sp)
    b318:	ff7c0c13          	addi	s8,s8,-9
    b31c:	010c1c13          	slli	s8,s8,0x10
    b320:	410c5c13          	srai	s8,s8,0x10
    b324:	cb0f706f          	j	27d4 <.L1612>

0000b328 <.L2764>:
    b328:	00a15c03          	lhu	s8,10(sp)
    b32c:	002c0c13          	addi	s8,s8,2
    b330:	010c1c13          	slli	s8,s8,0x10
    b334:	410c5c13          	srai	s8,s8,0x10
    b338:	c8df506f          	j	fc4 <.L829>

0000b33c <.L2784>:
    b33c:	00c15c03          	lhu	s8,12(sp)
    b340:	ffdc0c13          	addi	s8,s8,-3
    b344:	010c1c13          	slli	s8,s8,0x10
    b348:	410c5c13          	srai	s8,s8,0x10
    b34c:	88df606f          	j	1bd8 <.L810>

0000b350 <.L2803>:
    b350:	00815c03          	lhu	s8,8(sp)
    b354:	03900c93          	li	s9,57
    b358:	006c0c13          	addi	s8,s8,6
    b35c:	01811423          	sh	s8,8(sp)
    b360:	006cc463          	blt	s9,t1,b368 <.L2803+0x18>
    b364:	c8cf906f          	j	47f0 <.L1372>
    b368:	ff800c13          	li	s8,-8
    b36c:	01865463          	bge	a2,s8,b374 <.L2803+0x24>
    b370:	8b8f706f          	j	2428 <.L1373>
    b374:	ea900c13          	li	s8,-343
    b378:	0182d463          	bge	t0,s8,b380 <.L2803+0x30>
    b37c:	ca5fa06f          	j	6020 <.L1374>
    b380:	cb9fa06f          	j	6038 <.L1375>

0000b384 <.L1018>:
    b384:	00c15c03          	lhu	s8,12(sp)
    b388:	ff7c0c13          	addi	s8,s8,-9
    b38c:	010c1c13          	slli	s8,s8,0x10
    b390:	410c5c13          	srai	s8,s8,0x10
    b394:	ef9f506f          	j	128c <.L1019>

0000b398 <.L684>:
    b398:	00815c03          	lhu	s8,8(sp)
    b39c:	07200c93          	li	s9,114
    b3a0:	014c0c13          	addi	s8,s8,20
    b3a4:	01811423          	sh	s8,8(sp)
    b3a8:	00ecc463          	blt	s9,a4,b3b0 <.L684+0x18>
    b3ac:	a11f506f          	j	dbc <.L685>
    b3b0:	e58f606f          	j	1a08 <.L690>

0000b3b4 <.L691>:
    b3b4:	00815c03          	lhu	s8,8(sp)
    b3b8:	ff8c0c13          	addi	s8,s8,-8
    b3bc:	010c1c13          	slli	s8,s8,0x10
    b3c0:	410c5c13          	srai	s8,s8,0x10
    b3c4:	9e9f506f          	j	dac <.L692>

0000b3c8 <.L2908>:
    b3c8:	00388893          	addi	a7,a7,3
    b3cc:	01089893          	slli	a7,a7,0x10
    b3d0:	4108d893          	srai	a7,a7,0x10
    b3d4:	d95f406f          	j	168 <.L47>

0000b3d8 <.L2855>:
    b3d8:	004c0c13          	addi	s8,s8,4
    b3dc:	01811423          	sh	s8,8(sp)
    b3e0:	006cc463          	blt	s9,t1,b3e8 <.L2855+0x10>
    b3e4:	d19f806f          	j	40fc <.L1504>
    b3e8:	e75f906f          	j	525c <.L1520>

0000b3ec <.L862>:
    b3ec:	00815c03          	lhu	s8,8(sp)
    b3f0:	ff3c0c13          	addi	s8,s8,-13
    b3f4:	010c1c13          	slli	s8,s8,0x10
    b3f8:	010c5c13          	srli	s8,s8,0x10
    b3fc:	814fb06f          	j	6410 <.L863>

0000b400 <.L2761>:
    b400:	ff9c0c13          	addi	s8,s8,-7
    b404:	01811723          	sh	s8,14(sp)
    b408:	01ecc463          	blt	s9,t5,b410 <.L2761+0x10>
    b40c:	d1cf606f          	j	1928 <.L648>
    b410:	8d1f506f          	j	ce0 <.L652>

0000b414 <.L2905>:
    b414:	003c0c13          	addi	s8,s8,3
    b418:	010c1c13          	slli	s8,s8,0x10
    b41c:	410c5c13          	srai	s8,s8,0x10
    b420:	e18f506f          	j	a38 <.L459>

0000b424 <.L1990>:
    b424:	00e15c03          	lhu	s8,14(sp)
    b428:	ffcc0c13          	addi	s8,s8,-4
    b42c:	01811723          	sh	s8,14(sp)
    b430:	f00f906f          	j	4b30 <.L1995>

0000b434 <.L2068>:
    b434:	00e15c03          	lhu	s8,14(sp)
    b438:	004c0c13          	addi	s8,s8,4
    b43c:	010c1c13          	slli	s8,s8,0x10
    b440:	410c5c13          	srai	s8,s8,0x10
    b444:	a85f706f          	j	2ec8 <.L2058>

0000b448 <.L637>:
    b448:	00c15c03          	lhu	s8,12(sp)
    b44c:	03a00c93          	li	s9,58
    b450:	003c0c13          	addi	s8,s8,3
    b454:	01811623          	sh	s8,12(sp)
    b458:	00fcc463          	blt	s9,a5,b460 <.L638>
    b45c:	855f506f          	j	cb0 <.L636>

0000b460 <.L638>:
    b460:	e4a00c13          	li	s8,-438
    b464:	6d82c463          	blt	t0,s8,bb2c <.L2953>
    b468:	01f00c13          	li	s8,31
    b46c:	010c4463          	blt	s8,a6,b474 <.L638+0x14>
    b470:	e09fe06f          	j	a278 <.L2271>
    b474:	00e15c03          	lhu	s8,14(sp)
    b478:	009c0c13          	addi	s8,s8,9
    b47c:	01811723          	sh	s8,14(sp)
    b480:	a3cfb06f          	j	66bc <.L2270>

0000b484 <.L1773>:
    b484:	00c15c03          	lhu	s8,12(sp)
    b488:	001c0c13          	addi	s8,s8,1
    b48c:	01811623          	sh	s8,12(sp)
    b490:	d68f706f          	j	29f8 <.L1770>

0000b494 <.L124>:
    b494:	00c15e03          	lhu	t3,12(sp)
    b498:	ff6e0e13          	addi	t3,t3,-10
    b49c:	010e1e13          	slli	t3,t3,0x10
    b4a0:	410e5e13          	srai	t3,t3,0x10
    b4a4:	fcdf406f          	j	470 <.L120>

0000b4a8 <.L2937>:
    b4a8:	00a15c03          	lhu	s8,10(sp)
    b4ac:	ff6c0c13          	addi	s8,s8,-10
    b4b0:	010c1c13          	slli	s8,s8,0x10
    b4b4:	410c5c13          	srai	s8,s8,0x10
    b4b8:	815fa06f          	j	5ccc <.L288>

0000b4bc <.L2921>:
    b4bc:	23200c13          	li	s8,562
    b4c0:	51ec4263          	blt	s8,t5,b9c4 <.L1484>
    b4c4:	00a15c03          	lhu	s8,10(sp)
    b4c8:	ff7c0c13          	addi	s8,s8,-9
    b4cc:	010c1c13          	slli	s8,s8,0x10
    b4d0:	410c5c13          	srai	s8,s8,0x10
    b4d4:	f4cfa06f          	j	5c20 <.L1472>

0000b4d8 <.L2906>:
    b4d8:	00c15c03          	lhu	s8,12(sp)
    b4dc:	007c0c13          	addi	s8,s8,7
    b4e0:	01811623          	sh	s8,12(sp)
    b4e4:	f75fa06f          	j	6458 <.L870>

0000b4e8 <.L1179>:
    b4e8:	00a15c03          	lhu	s8,10(sp)
    b4ec:	004c0c13          	addi	s8,s8,4
    b4f0:	010c1c13          	slli	s8,s8,0x10
    b4f4:	410c5c13          	srai	s8,s8,0x10
    b4f8:	d5cf806f          	j	3a54 <.L1169>

0000b4fc <.L1182>:
    b4fc:	00a15c03          	lhu	s8,10(sp)
    b500:	03c00c93          	li	s9,60
    b504:	ff6c0c13          	addi	s8,s8,-10
    b508:	01811523          	sh	s8,10(sp)
    b50c:	00fcd463          	bge	s9,a5,b514 <.L1182+0x18>
    b510:	d15fd06f          	j	9224 <.L2603>
    b514:	d50f806f          	j	3a64 <.L1167>

0000b518 <.L2774>:
    b518:	00c15c03          	lhu	s8,12(sp)
    b51c:	00ac0c13          	addi	s8,s8,10
    b520:	01811623          	sh	s8,12(sp)
    b524:	e95f606f          	j	23b8 <.L1360>

0000b528 <.L169>:
    b528:	d6700e13          	li	t3,-665
    b52c:	01ca4463          	blt	s4,t3,b534 <.L169+0xc>
    b530:	88dfb06f          	j	6dbc <.L181>
    b534:	00c15e03          	lhu	t3,12(sp)
    b538:	00be0e13          	addi	t3,t3,11
    b53c:	010e1e13          	slli	t3,t3,0x10
    b540:	410e5e13          	srai	t3,t3,0x10
    b544:	c00f806f          	j	3944 <.L175>

0000b548 <.L551>:
    b548:	00815c03          	lhu	s8,8(sp)
    b54c:	013c0c13          	addi	s8,s8,19
    b550:	010c1c13          	slli	s8,s8,0x10
    b554:	410c5c13          	srai	s8,s8,0x10
    b558:	e58f506f          	j	bb0 <.L552>

0000b55c <.L1686>:
    b55c:	00a15c03          	lhu	s8,10(sp)
    b560:	00100c93          	li	s9,1
    b564:	fffc0c13          	addi	s8,s8,-1
    b568:	01811523          	sh	s8,10(sp)
    b56c:	01ccd463          	bge	s9,t3,b574 <.L1686+0x18>
    b570:	b10f706f          	j	2880 <.L1659>
    b574:	e09fd06f          	j	937c <.L1670>

0000b578 <.L1865>:
    b578:	00e15c03          	lhu	s8,14(sp)
    b57c:	01f00c93          	li	s9,31
    b580:	009c0c13          	addi	s8,s8,9
    b584:	01811723          	sh	s8,14(sp)
    b588:	013cc463          	blt	s9,s3,b590 <.L1865+0x18>
    b58c:	f55f906f          	j	54e0 <.L1866>
    b590:	f85f906f          	j	5514 <.L1867>

0000b594 <.L1428>:
    b594:	00a15c03          	lhu	s8,10(sp)
    b598:	fffc0c13          	addi	s8,s8,-1
    b59c:	01811523          	sh	s8,10(sp)
    b5a0:	f61f606f          	j	2500 <.L1429>

0000b5a4 <.L1701>:
    b5a4:	00e15c03          	lhu	s8,14(sp)
    b5a8:	00fc0c13          	addi	s8,s8,15
    b5ac:	01811723          	sh	s8,14(sp)
    b5b0:	b14f706f          	j	28c4 <.L1699>

0000b5b4 <.L1842>:
    b5b4:	00a15c03          	lhu	s8,10(sp)
    b5b8:	fffc0c13          	addi	s8,s8,-1
    b5bc:	010c1c13          	slli	s8,s8,0x10
    b5c0:	410c5c13          	srai	s8,s8,0x10
    b5c4:	01811523          	sh	s8,10(sp)
    b5c8:	b5cf906f          	j	4924 <.L2884>

0000b5cc <.L2747>:
    b5cc:	00a51683          	lh	a3,10(a0)
    b5d0:	01051b03          	lh	s6,16(a0)
    b5d4:	02851e83          	lh	t4,40(a0)
    b5d8:	a40fd06f          	j	8818 <.L20>

0000b5dc <.L2943>:
    b5dc:	00c15c03          	lhu	s8,12(sp)
    b5e0:	005c0c13          	addi	s8,s8,5
    b5e4:	01811623          	sh	s8,12(sp)
    b5e8:	bc5fd06f          	j	91ac <.L485>

0000b5ec <.L2895>:
    b5ec:	00c15c03          	lhu	s8,12(sp)
    b5f0:	00bc0c13          	addi	s8,s8,11
    b5f4:	01811623          	sh	s8,12(sp)
    b5f8:	bb5fd06f          	j	91ac <.L485>

0000b5fc <.L481>:
    b5fc:	00c15c03          	lhu	s8,12(sp)
    b600:	e0800c93          	li	s9,-504
    b604:	006c0c13          	addi	s8,s8,6
    b608:	01811623          	sh	s8,12(sp)
    b60c:	01945463          	bge	s0,s9,b614 <.L481+0x18>
    b610:	ca0f506f          	j	ab0 <.L482>
    b614:	b14fb06f          	j	6928 <.L2289>

0000b618 <.L2817>:
    b618:	03300c13          	li	s8,51
    b61c:	011c4463          	blt	s8,a7,b624 <.L2817+0xc>
    b620:	d78f706f          	j	2b98 <.L1874>
    b624:	00815c03          	lhu	s8,8(sp)
    b628:	006c0c13          	addi	s8,s8,6
    b62c:	01811423          	sh	s8,8(sp)
    b630:	d68f706f          	j	2b98 <.L1874>

0000b634 <.L268>:
    b634:	00c15e03          	lhu	t3,12(sp)
    b638:	03d00c13          	li	s8,61
    b63c:	008e0e13          	addi	t3,t3,8
    b640:	01c11623          	sh	t3,12(sp)
    b644:	01878463          	beq	a5,s8,b64c <.L270>
    b648:	bc4f806f          	j	3a0c <.L269>

0000b64c <.L270>:
    b64c:	03d00793          	li	a5,61
    b650:	8d4f806f          	j	3724 <.L259>

0000b654 <.L2097>:
    b654:	0a400b13          	li	s6,164
    b658:	01eb4463          	blt	s6,t5,b660 <.L2097+0xc>
    b65c:	d21f806f          	j	437c <.L2103>
    b660:	00815b03          	lhu	s6,8(sp)
    b664:	02e00c13          	li	s8,46
    b668:	ff9b0b13          	addi	s6,s6,-7
    b66c:	01611423          	sh	s6,8(sp)
    b670:	01dc4463          	blt	s8,t4,b678 <.L2097+0x24>
    b674:	d11f806f          	j	4384 <.L2099>
    b678:	8d1f906f          	j	4f48 <.L2100>

0000b67c <.L1893>:
    b67c:	00e15c03          	lhu	s8,14(sp)
    b680:	07300c93          	li	s9,115
    b684:	010c0c13          	addi	s8,s8,16
    b688:	01811723          	sh	s8,14(sp)
    b68c:	012cc463          	blt	s9,s2,b694 <.L1893+0x18>
    b690:	b68f906f          	j	49f8 <.L1894>
    b694:	911fb06f          	j	6fa4 <.L1895>

0000b698 <.L24>:
    b698:	01851603          	lh	a2,24(a0)
    b69c:	01251483          	lh	s1,18(a0)
    b6a0:	01051b03          	lh	s6,16(a0)
    b6a4:	00f65463          	bge	a2,a5,b6ac <.L24+0x14>
    b6a8:	a55f406f          	j	fc <.L21>
    b6ac:	c51f406f          	j	2fc <.L22>

0000b6b0 <.L716>:
    b6b0:	01c51c83          	lh	s9,28(a0)
    b6b4:	03400c13          	li	s8,52
    b6b8:	019c5463          	bge	s8,s9,b6c0 <.L716+0x10>
    b6bc:	fa0f506f          	j	e5c <.L729>
    b6c0:	00815c03          	lhu	s8,8(sp)
    b6c4:	ff8c0c13          	addi	s8,s8,-8
    b6c8:	01811423          	sh	s8,8(sp)
    b6cc:	f9cf506f          	j	e68 <.L715>

0000b6d0 <.L1726>:
    b6d0:	e6b00c13          	li	s8,-405
    b6d4:	5182de63          	bge	t0,s8,bbf0 <.L1734>
    b6d8:	03300c13          	li	s8,51
    b6dc:	01dc4463          	blt	s8,t4,b6e4 <.L1726+0x14>
    b6e0:	925f906f          	j	5004 <.L1735>
    b6e4:	eb8f906f          	j	4d9c <.L1728>

0000b6e8 <.L2178>:
    b6e8:	08600b13          	li	s6,134
    b6ec:	00db4463          	blt	s6,a3,b6f4 <.L2178+0xc>
    b6f0:	fb5fb06f          	j	76a4 <.L2181>
    b6f4:	bf8f806f          	j	3aec <.L2161>

0000b6f8 <.L2177>:
    b6f8:	00c15683          	lhu	a3,12(sp)
    b6fc:	ffe68693          	addi	a3,a3,-2
    b700:	00d11623          	sh	a3,12(sp)
    b704:	be8f806f          	j	3aec <.L2161>

0000b708 <.L1163>:
    b708:	00815c03          	lhu	s8,8(sp)
    b70c:	1b900c93          	li	s9,441
    b710:	004c0c13          	addi	s8,s8,4
    b714:	01811423          	sh	s8,8(sp)
    b718:	01ecc463          	blt	s9,t5,b720 <.L1163+0x18>
    b71c:	984f906f          	j	48a0 <.L1164>
    b720:	a61f606f          	j	2180 <.L1162>

0000b724 <.L260>:
    b724:	00c15e03          	lhu	t3,12(sp)
    b728:	018e0e13          	addi	t3,t3,24
    b72c:	01c11623          	sh	t3,12(sp)
    b730:	ff5f706f          	j	3724 <.L259>

0000b734 <.L2174>:
    b734:	00c15683          	lhu	a3,12(sp)
    b738:	ffe68693          	addi	a3,a3,-2
    b73c:	00d11623          	sh	a3,12(sp)
    b740:	83cfa06f          	j	577c <.L2170>

0000b744 <.L2314>:
    b744:	00a51683          	lh	a3,10(a0)
    b748:	01051b03          	lh	s6,16(a0)
    b74c:	02851e83          	lh	t4,40(a0)
    b750:	01451283          	lh	t0,20(a0)
    b754:	bc1f406f          	j	314 <.L26>

0000b758 <.L879>:
    b758:	f5b00c13          	li	s8,-165
    b75c:	4582c263          	blt	t0,s8,bba0 <.L882>
    b760:	0ed00c13          	li	s8,237
    b764:	08dc58e3          	bge	s8,a3,bff4 <.L893>
    b768:	00c15c03          	lhu	s8,12(sp)
    b76c:	02f00c93          	li	s9,47
    b770:	003c0c13          	addi	s8,s8,3
    b774:	01811623          	sh	s8,12(sp)
    b778:	010cc463          	blt	s9,a6,b780 <.L879+0x28>
    b77c:	cf1fa06f          	j	646c <.L881>
    b780:	da4f606f          	j	1d24 <.L889>

0000b784 <.L2945>:
    b784:	00a15c03          	lhu	s8,10(sp)
    b788:	00100c93          	li	s9,1
    b78c:	ff6c0c13          	addi	s8,s8,-10
    b790:	01811523          	sh	s8,10(sp)
    b794:	01ccd463          	bge	s9,t3,b79c <.L2945+0x18>
    b798:	b44fa06f          	j	5adc <.L1692>
    b79c:	c38fd06f          	j	8bd4 <.L1694>

0000b7a0 <.L2038>:
    b7a0:	00a15c03          	lhu	s8,10(sp)
    b7a4:	01500c93          	li	s9,21
    b7a8:	004c0c13          	addi	s8,s8,4
    b7ac:	01811523          	sh	s8,10(sp)
    b7b0:	010cc463          	blt	s9,a6,b7b8 <.L2038+0x18>
    b7b4:	ec4f706f          	j	2e78 <.L2035>
    b7b8:	c79f906f          	j	5430 <.L2039>

0000b7bc <.L1653>:
    b7bc:	00a15c03          	lhu	s8,10(sp)
    b7c0:	00100c93          	li	s9,1
    b7c4:	004c0c13          	addi	s8,s8,4
    b7c8:	01811523          	sh	s8,10(sp)
    b7cc:	01ccd463          	bge	s9,t3,b7d4 <.L1653+0x18>
    b7d0:	b70fb06f          	j	6b40 <.L1655>
    b7d4:	b98fb06f          	j	6b6c <.L1654>

0000b7d8 <.L1810>:
    b7d8:	e4a00c13          	li	s8,-438
    b7dc:	3f82d063          	bge	t0,s8,bbbc <.L1813>
    b7e0:	de700c13          	li	s8,-537
    b7e4:	4785c463          	blt	a1,s8,bc4c <.L1812>
    b7e8:	00e15c03          	lhu	s8,14(sp)
    b7ec:	ff8c0c13          	addi	s8,s8,-8
    b7f0:	01811723          	sh	s8,14(sp)
    b7f4:	c7cf906f          	j	4c70 <.L1827>

0000b7f8 <.L1964>:
    b7f8:	03600c13          	li	s8,54
    b7fc:	3cfc4c63          	blt	s8,a5,bbd4 <.L2954>
    b800:	00e15c03          	lhu	s8,14(sp)
    b804:	01500c93          	li	s9,21
    b808:	ff9c0c13          	addi	s8,s8,-7
    b80c:	01811723          	sh	s8,14(sp)
    b810:	007cc463          	blt	s9,t2,b818 <.L1964+0x20>
    b814:	d70f706f          	j	2d84 <.L1966>
    b818:	aa1fc06f          	j	82b8 <.L1969>

0000b81c <.L254>:
    b81c:	19c00e13          	li	t3,412
    b820:	68ee4a63          	blt	t3,a4,beb4 <.L2955>
    b824:	00e15e03          	lhu	t3,14(sp)
    b828:	00fe0e13          	addi	t3,t3,15
    b82c:	01c11723          	sh	t3,14(sp)
    b830:	f2df706f          	j	375c <.L280>

0000b834 <.L2748>:
    b834:	e4e00e13          	li	t3,-434
    b838:	33cad063          	bge	s5,t3,bb58 <.L2956>
    b83c:	6c100e13          	li	t3,1729
    b840:	0aee52e3          	bge	t3,a4,c0e4 <.L2957>
    b844:	00c15e03          	lhu	t3,12(sp)
    b848:	fffe0e13          	addi	t3,t3,-1
    b84c:	01c11623          	sh	t3,12(sp)
    b850:	c31f406f          	j	480 <.L121>

0000b854 <.L932>:
    b854:	e4a00c93          	li	s9,-438
    b858:	2792d063          	bge	t0,s9,bab8 <.L936>
    b85c:	03d00c13          	li	s8,61
    b860:	70fc4263          	blt	s8,a5,bf64 <.L937>
    b864:	00e15c03          	lhu	s8,14(sp)
    b868:	ff8c0c13          	addi	s8,s8,-8
    b86c:	01811723          	sh	s8,14(sp)
    b870:	d8cf606f          	j	1dfc <.L935>

0000b874 <.L802>:
    b874:	00a15c03          	lhu	s8,10(sp)
    b878:	004c0c13          	addi	s8,s8,4
    b87c:	010c1c13          	slli	s8,s8,0x10
    b880:	410c5c13          	srai	s8,s8,0x10
    b884:	dbcf906f          	j	4e40 <.L800>

0000b888 <.L1634>:
    b888:	00e15c03          	lhu	s8,14(sp)
    b88c:	00400c93          	li	s9,4
    b890:	5409c463          	bltz	s3,bdd8 <.L2958>
    b894:	003c0c13          	addi	s8,s8,3
    b898:	01811723          	sh	s8,14(sp)
    b89c:	011cc463          	blt	s9,a7,b8a4 <.L1634+0x1c>
    b8a0:	9e8fa06f          	j	5a88 <.L1643>
    b8a4:	d64f806f          	j	3e08 <.L1645>

0000b8a8 <.L307>:
    b8a8:	00a15c03          	lhu	s8,10(sp)
    b8ac:	ffcc0c13          	addi	s8,s8,-4
    b8b0:	010c1c13          	slli	s8,s8,0x10
    b8b4:	410c5c13          	srai	s8,s8,0x10
    b8b8:	c14fa06f          	j	5ccc <.L288>

0000b8bc <.L2223>:
    b8bc:	06b00513          	li	a0,107
    b8c0:	00954463          	blt	a0,s1,b8c8 <.L2223+0xc>
    b8c4:	ae0f806f          	j	3ba4 <.L2213>
    b8c8:	ea4ff06f          	j	af6c <.L2527>

0000b8cc <.L477>:
    b8cc:	e4e00c13          	li	s8,-434
    b8d0:	218ad063          	bge	s5,s8,bad0 <.L487>
    b8d4:	00001c37          	lui	s8,0x1
    b8d8:	cbbc0c13          	addi	s8,s8,-837 # cbb <.L2778+0x3>
    b8dc:	00ec4463          	blt	s8,a4,b8e4 <.L477+0x18>
    b8e0:	cadf706f          	j	358c <.L2572>
    b8e4:	00c15c03          	lhu	s8,12(sp)
    b8e8:	ffac0c13          	addi	s8,s8,-6
    b8ec:	01811623          	sh	s8,12(sp)
    b8f0:	d6df906f          	j	565c <.L491>

0000b8f4 <.L262>:
    b8f4:	00c15e03          	lhu	t3,12(sp)
    b8f8:	018e0e13          	addi	t3,t3,24
    b8fc:	010e1e13          	slli	t3,t3,0x10
    b900:	410e5e13          	srai	t3,t3,0x10
    b904:	dddf406f          	j	6e0 <.L263>

0000b908 <.L264>:
    b908:	00c15e03          	lhu	t3,12(sp)
    b90c:	008e0e13          	addi	t3,t3,8
    b910:	01c11623          	sh	t3,12(sp)
    b914:	e11f706f          	j	3724 <.L259>

0000b918 <.L2927>:
    b918:	02a00c13          	li	s8,42
    b91c:	011c4463          	blt	s8,a7,b924 <.L2927+0xc>
    b920:	c70fc06f          	j	7d90 <.L2615>
    b924:	00e15c03          	lhu	s8,14(sp)
    b928:	002c0c13          	addi	s8,s8,2
    b92c:	01811723          	sh	s8,14(sp)
    b930:	d81f806f          	j	46b0 <.L1301>

0000b934 <.L2946>:
    b934:	00c15e03          	lhu	t3,12(sp)
    b938:	ff5e0e13          	addi	t3,t3,-11
    b93c:	01c11623          	sh	t3,12(sp)
    b940:	d01f406f          	j	640 <.L174>

0000b944 <.L2898>:
    b944:	ffcc0c13          	addi	s8,s8,-4
    b948:	01811723          	sh	s8,14(sp)
    b94c:	ca4f806f          	j	3df0 <.L1628>

0000b950 <.L2951>:
    b950:	00e15c03          	lhu	s8,14(sp)
    b954:	ffac0c13          	addi	s8,s8,-6
    b958:	01811723          	sh	s8,14(sp)
    b95c:	971f806f          	j	42cc <.L2056>

0000b960 <.L1388>:
    b960:	00c15c03          	lhu	s8,12(sp)
    b964:	03c00c93          	li	s9,60
    b968:	ff7c0c13          	addi	s8,s8,-9
    b96c:	01811623          	sh	s8,12(sp)
    b970:	00fcd463          	bge	s9,a5,b978 <.L2627>
    b974:	ecdf806f          	j	4840 <.L1390>

0000b978 <.L2627>:
    b978:	e4f00c13          	li	s8,-433
    b97c:	018ad463          	bge	s5,s8,b984 <.L2627+0xc>
    b980:	b15f606f          	j	2494 <.L1391>
    b984:	dfcf806f          	j	3f80 <.L1392>

0000b988 <.L1852>:
    b988:	f8b00c13          	li	s8,-117
    b98c:	0185c463          	blt	a1,s8,b994 <.L1852+0xc>
    b990:	fe9f806f          	j	4978 <.L1855>
    b994:	a04f706f          	j	2b98 <.L1874>

0000b998 <.L2279>:
    b998:	00c15c03          	lhu	s8,12(sp)
    b99c:	ffbc0c13          	addi	s8,s8,-5
    b9a0:	01811623          	sh	s8,12(sp)
    b9a4:	f85fa06f          	j	6928 <.L2289>

0000b9a8 <.L1478>:
    b9a8:	00a15c03          	lhu	s8,10(sp)
    b9ac:	04900c93          	li	s9,73
    b9b0:	007c0c13          	addi	s8,s8,7
    b9b4:	01811523          	sh	s8,10(sp)
    b9b8:	011cd463          	bge	s9,a7,b9c0 <.L1478+0x18>
    b9bc:	a74fa06f          	j	5c30 <.L1483>
    b9c0:	ec4f806f          	j	4084 <.L1477>

0000b9c4 <.L1484>:
    b9c4:	00a15c03          	lhu	s8,10(sp)
    b9c8:	04900c93          	li	s9,73
    b9cc:	002c0c13          	addi	s8,s8,2
    b9d0:	01811523          	sh	s8,10(sp)
    b9d4:	011cd463          	bge	s9,a7,b9dc <.L1484+0x18>
    b9d8:	a58fa06f          	j	5c30 <.L1483>
    b9dc:	838ff06f          	j	aa14 <.L1485>

0000b9e0 <.L2933>:
    b9e0:	ff300c13          	li	s8,-13
    b9e4:	01865463          	bge	a2,s8,b9ec <.L2654>
    b9e8:	b60f706f          	j	2d48 <.L1981>

0000b9ec <.L2654>:
    b9ec:	05800c13          	li	s8,88
    b9f0:	009c4463          	blt	s8,s1,b9f8 <.L2654+0xc>
    b9f4:	861fc06f          	j	8254 <.L1982>
    b9f8:	b74f706f          	j	2d6c <.L1983>

0000b9fc <.L2900>:
    b9fc:	00100c13          	li	s8,1
    ba00:	01cc5463          	bge	s8,t3,ba08 <.L2900+0xc>
    ba04:	93cfb06f          	j	6b40 <.L1655>
    ba08:	964fb06f          	j	6b6c <.L1654>

0000ba0c <.L2063>:
    ba0c:	ed600c13          	li	s8,-298
    ba10:	5982d863          	bge	t0,s8,bfa0 <.L2067>
    ba14:	00e15c03          	lhu	s8,14(sp)
    ba18:	ffdc0c13          	addi	s8,s8,-3
    ba1c:	01811723          	sh	s8,14(sp)
    ba20:	8adf806f          	j	42cc <.L2056>

0000ba24 <.L2059>:
    ba24:	00e15c03          	lhu	s8,14(sp)
    ba28:	0a900c93          	li	s9,169
    ba2c:	004c0c13          	addi	s8,s8,4
    ba30:	01811723          	sh	s8,14(sp)
    ba34:	01ecc463          	blt	s9,t5,ba3c <.L2059+0x18>
    ba38:	ca0f706f          	j	2ed8 <.L2050>
    ba3c:	e85f906f          	j	58c0 <.L2046>

0000ba40 <.L2534>:
    ba40:	e4300c13          	li	s8,-445
    ba44:	4f845063          	bge	s0,s8,bf24 <.L733>
    ba48:	00815c03          	lhu	s8,8(sp)
    ba4c:	ff7c0c13          	addi	s8,s8,-9
    ba50:	01811423          	sh	s8,8(sp)
    ba54:	c14f506f          	j	e68 <.L715>

0000ba58 <.L1313>:
    ba58:	00e15c03          	lhu	s8,14(sp)
    ba5c:	005c0c13          	addi	s8,s8,5
    ba60:	01811723          	sh	s8,14(sp)
    ba64:	c4df806f          	j	46b0 <.L1301>

0000ba68 <.L2573>:
    ba68:	00c15c03          	lhu	s8,12(sp)
    ba6c:	005c0c13          	addi	s8,s8,5
    ba70:	01811623          	sh	s8,12(sp)
    ba74:	f44fd06f          	j	91b8 <.L498>

0000ba78 <.L2749>:
    ba78:	00c15e03          	lhu	t3,12(sp)
    ba7c:	ff6e0e13          	addi	t3,t3,-10
    ba80:	01c11623          	sh	t3,12(sp)
    ba84:	9fdf406f          	j	480 <.L121>

0000ba88 <.L2273>:
    ba88:	00c15c03          	lhu	s8,12(sp)
    ba8c:	003c0c13          	addi	s8,s8,3
    ba90:	01811623          	sh	s8,12(sp)
    ba94:	9cdff06f          	j	b460 <.L638>

0000ba98 <.L1965>:
    ba98:	01500c13          	li	s8,21
    ba9c:	007c4463          	blt	s8,t2,baa4 <.L1965+0xc>
    baa0:	ae4f706f          	j	2d84 <.L1966>
    baa4:	941fb06f          	j	73e4 <.L1967>

0000baa8 <.L2944>:
    baa8:	00a15c03          	lhu	s8,10(sp)
    baac:	007c0c13          	addi	s8,s8,7
    bab0:	01811523          	sh	s8,10(sp)
    bab4:	fb1f706f          	j	3a64 <.L1167>

0000bab8 <.L936>:
    bab8:	010c4463          	blt	s8,a6,bac0 <.L936+0x8>
    babc:	b40f606f          	j	1dfc <.L935>
    bac0:	00e15c03          	lhu	s8,14(sp)
    bac4:	008c0c13          	addi	s8,s8,8
    bac8:	01811723          	sh	s8,14(sp)
    bacc:	b30f606f          	j	1dfc <.L935>

0000bad0 <.L487>:
    bad0:	30200c13          	li	s8,770
    bad4:	f8ec5ae3          	bge	s8,a4,ba68 <.L2573>
    bad8:	00c15c03          	lhu	s8,12(sp)
    badc:	ff7c0c13          	addi	s8,s8,-9
    bae0:	01811623          	sh	s8,12(sp)
    bae4:	b79f906f          	j	565c <.L491>

0000bae8 <.L757>:
    bae8:	03d00c13          	li	s8,61
    baec:	00fc4463          	blt	s8,a5,baf4 <.L757+0xc>
    baf0:	db0fe06f          	j	a0a0 <.L753>
    baf4:	00c15c03          	lhu	s8,12(sp)
    baf8:	03e00c93          	li	s9,62
    bafc:	ffcc0c13          	addi	s8,s8,-4
    bb00:	01811623          	sh	s8,12(sp)
    bb04:	01979463          	bne	a5,s9,bb0c <.L757+0x24>
    bb08:	814f606f          	j	1b1c <.L754>
    bb0c:	ba4f906f          	j	4eb0 <.L755>

0000bb10 <.L2935>:
    bb10:	0c600c13          	li	s8,198
    bb14:	009c4463          	blt	s8,s1,bb1c <.L2935+0xc>
    bb18:	ed5f606f          	j	29ec <.L1772>
    bb1c:	02700c13          	li	s8,39
    bb20:	007c4463          	blt	s8,t2,bb28 <.L2935+0x18>
    bb24:	909fc06f          	j	842c <.L1762>
    bb28:	9c4f906f          	j	4cec <.L1763>

0000bb2c <.L2953>:
    bb2c:	de700c13          	li	s8,-537
    bb30:	0185d463          	bge	a1,s8,bb38 <.L2953+0xc>
    bb34:	b89fa06f          	j	66bc <.L2270>
    bb38:	b6dfa06f          	j	66a4 <.L656>

0000bb3c <.L2947>:
    bb3c:	00a15e03          	lhu	t3,10(sp)
    bb40:	2df00c13          	li	s8,735
    bb44:	ff7e0e13          	addi	t3,t3,-9
    bb48:	01c11523          	sh	t3,10(sp)
    bb4c:	00ec5463          	bge	s8,a4,bb54 <.L2947+0x18>
    bb50:	df4fa06f          	j	6144 <.L2540>
    bb54:	b71f406f          	j	6c4 <.L236>

0000bb58 <.L2956>:
    bb58:	00c15e03          	lhu	t3,12(sp)
    bb5c:	ff7e0e13          	addi	t3,t3,-9
    bb60:	010e1e13          	slli	t3,t3,0x10
    bb64:	410e5e13          	srai	t3,t3,0x10
    bb68:	01c11623          	sh	t3,12(sp)
    bb6c:	915f406f          	j	480 <.L121>

0000bb70 <.L2936>:
    bb70:	27200c13          	li	s8,626
    bb74:	5aec5a63          	bge	s8,a4,c128 <.L642>
    bb78:	00c15c03          	lhu	s8,12(sp)
    bb7c:	fffc0c13          	addi	s8,s8,-1
    bb80:	01811623          	sh	s8,12(sp)
    bb84:	b0dfa06f          	j	6690 <.L643>

0000bb88 <.L744>:
    bb88:	ddb00c13          	li	s8,-549
    bb8c:	4d8acc63          	blt	s5,s8,c064 <.L2959>
    bb90:	00c15c03          	lhu	s8,12(sp)
    bb94:	ff7c0c13          	addi	s8,s8,-9
    bb98:	01811623          	sh	s8,12(sp)
    bb9c:	f8df506f          	j	1b28 <.L751>

0000bba0 <.L882>:
    bba0:	00c15c03          	lhu	s8,12(sp)
    bba4:	02f00c93          	li	s9,47
    bba8:	007c0c13          	addi	s8,s8,7
    bbac:	01811623          	sh	s8,12(sp)
    bbb0:	010cd463          	bge	s9,a6,bbb8 <.L882+0x18>
    bbb4:	970f606f          	j	1d24 <.L889>
    bbb8:	8b5fa06f          	j	646c <.L881>

0000bbbc <.L1813>:
    bbbc:	16c00c13          	li	s8,364
    bbc0:	40dc4063          	blt	s8,a3,bfc0 <.L1823>
    bbc4:	00e15c03          	lhu	s8,14(sp)
    bbc8:	003c0c13          	addi	s8,s8,3
    bbcc:	01811723          	sh	s8,14(sp)
    bbd0:	8a0f906f          	j	4c70 <.L1827>

0000bbd4 <.L2954>:
    bbd4:	00e15c03          	lhu	s8,14(sp)
    bbd8:	01500c93          	li	s9,21
    bbdc:	001c0c13          	addi	s8,s8,1
    bbe0:	01811723          	sh	s8,14(sp)
    bbe4:	007cc463          	blt	s9,t2,bbec <.L2954+0x18>
    bbe8:	99cf706f          	j	2d84 <.L1966>
    bbec:	ff8fb06f          	j	73e4 <.L1967>

0000bbf0 <.L1734>:
    bbf0:	e9800c13          	li	s8,-360
    bbf4:	0185d463          	bge	a1,s8,bbfc <.L1734+0xc>
    bbf8:	9d8fd06f          	j	8dd0 <.L1736>
    bbfc:	9a0f906f          	j	4d9c <.L1728>

0000bc00 <.L1177>:
    bc00:	00a15c03          	lhu	s8,10(sp)
    bc04:	004c0c13          	addi	s8,s8,4
    bc08:	01811523          	sh	s8,10(sp)
    bc0c:	e59f706f          	j	3a64 <.L1167>

0000bc10 <.L2766>:
    bc10:	00e15c03          	lhu	s8,14(sp)
    bc14:	008c0c13          	addi	s8,s8,8
    bc18:	01811723          	sh	s8,14(sp)
    bc1c:	f44f506f          	j	1360 <.L1062>

0000bc20 <.L316>:
    bc20:	00c15e03          	lhu	t3,12(sp)
    bc24:	d2500c13          	li	s8,-731
    bc28:	ff7e0e13          	addi	t3,t3,-9
    bc2c:	01c11623          	sh	t3,12(sp)
    bc30:	02051e03          	lh	t3,32(a0)
    bc34:	0185d463          	bge	a1,s8,bc3c <.L316+0x1c>
    bc38:	dc1fa06f          	j	69f8 <.L320>
    bc3c:	8c8fa06f          	j	5d04 <.L321>

0000bc40 <.L2881>:
    bc40:	00e15c03          	lhu	s8,14(sp)
    bc44:	ff8c0c13          	addi	s8,s8,-8
    bc48:	01811723          	sh	s8,14(sp)

0000bc4c <.L1812>:
    bc4c:	01700c13          	li	s8,23
    bc50:	01dc5463          	bge	s8,t4,bc58 <.L1812+0xc>
    bc54:	824f906f          	j	4c78 <.L1836>
    bc58:	00815c03          	lhu	s8,8(sp)
    bc5c:	03300c93          	li	s9,51
    bc60:	fffc0c13          	addi	s8,s8,-1
    bc64:	01811423          	sh	s8,8(sp)
    bc68:	01fcc463          	blt	s9,t6,bc70 <.L1812+0x24>
    bc6c:	c8df806f          	j	48f8 <.L1832>
    bc70:	83cf906f          	j	4cac <.L1846>

0000bc74 <.L1340>:
    bc74:	00c15c03          	lhu	s8,12(sp)
    bc78:	03600c93          	li	s9,54
    bc7c:	00ac0c13          	addi	s8,s8,10
    bc80:	01811623          	sh	s8,12(sp)
    bc84:	00fcc463          	blt	s9,a5,bc8c <.L1340+0x18>
    bc88:	921f906f          	j	55a8 <.L1341>
    bc8c:	a5cf806f          	j	3ee8 <.L1342>

0000bc90 <.L2809>:
    bc90:	00e15c03          	lhu	s8,14(sp)
    bc94:	00400c93          	li	s9,4
    bc98:	007c0c13          	addi	s8,s8,7
    bc9c:	01811723          	sh	s8,14(sp)
    bca0:	011cc463          	blt	s9,a7,bca8 <.L2809+0x18>
    bca4:	de5f906f          	j	5a88 <.L1643>
    bca8:	b9df606f          	j	2844 <.L1646>

0000bcac <.L2807>:
    bcac:	00815c03          	lhu	s8,8(sp)
    bcb0:	00c00c93          	li	s9,12
    bcb4:	ffbc0c13          	addi	s8,s8,-5
    bcb8:	01811423          	sh	s8,8(sp)
    bcbc:	01ccd463          	bge	s9,t3,bcc4 <.L2807+0x18>
    bcc0:	975f606f          	j	2634 <.L1505>
    bcc4:	8c5f806f          	j	4588 <.L1508>

0000bcc8 <.L2812>:
    bcc8:	01100c13          	li	s8,17
    bccc:	011c4463          	blt	s8,a7,bcd4 <.L2812+0xc>
    bcd0:	e9dfa06f          	j	6b6c <.L1654>
    bcd4:	ea8fd06f          	j	937c <.L1670>

0000bcd8 <.L1339>:
    bcd8:	00c15c03          	lhu	s8,12(sp)
    bcdc:	03600c93          	li	s9,54
    bce0:	001c0c13          	addi	s8,s8,1
    bce4:	01811623          	sh	s8,12(sp)
    bce8:	00fcc463          	blt	s9,a5,bcf0 <.L1339+0x18>
    bcec:	8bdf906f          	j	55a8 <.L1341>
    bcf0:	a04f806f          	j	3ef4 <.L1364>

0000bcf4 <.L2925>:
    bcf4:	00a15c03          	lhu	s8,10(sp)
    bcf8:	03300c93          	li	s9,51
    bcfc:	007c0c13          	addi	s8,s8,7
    bd00:	01811523          	sh	s8,10(sp)
    bd04:	00fcc463          	blt	s9,a5,bd0c <.L2925+0x18>
    bd08:	955f806f          	j	465c <.L2734>
    bd0c:	9a5f506f          	j	16b0 <.L1266>

0000bd10 <.L2919>:
    bd10:	00e15c03          	lhu	s8,14(sp)
    bd14:	00ec0c13          	addi	s8,s8,14
    bd18:	01811723          	sh	s8,14(sp)
    bd1c:	ebcfb06f          	j	73d8 <.L1975>

0000bd20 <.L2914>:
    bd20:	00815c03          	lhu	s8,8(sp)
    bd24:	008c0c13          	addi	s8,s8,8
    bd28:	01811423          	sh	s8,8(sp)
    bd2c:	93cf506f          	j	e68 <.L715>

0000bd30 <.L739>:
    bd30:	f5c00c13          	li	s8,-164
    bd34:	27845e63          	bge	s0,s8,bfb0 <.L763>
    bd38:	00c15c03          	lhu	s8,12(sp)
    bd3c:	009c0c13          	addi	s8,s8,9
    bd40:	01811623          	sh	s8,12(sp)
    bd44:	a20fd06f          	j	8f64 <.L764>

0000bd48 <.L1039>:
    bd48:	03100c13          	li	s8,49
    bd4c:	01fc4463          	blt	s8,t6,bd54 <.L1039+0xc>
    bd50:	cdcfa06f          	j	622c <.L1044>
    bd54:	a20f606f          	j	1f74 <.L1054>

0000bd58 <.L1071>:
    bd58:	00300c13          	li	s8,3
    bd5c:	00dc4463          	blt	s8,a3,bd64 <.L1071+0xc>
    bd60:	d65fc06f          	j	8ac4 <.L1072>
    bd64:	b3dfe06f          	j	a8a0 <.L1073>

0000bd68 <.L2912>:
    bd68:	00f00c13          	li	s8,15
    bd6c:	01dc4463          	blt	s8,t4,bd74 <.L2912+0xc>
    bd70:	c48fd06f          	j	91b8 <.L498>
    bd74:	00c15c03          	lhu	s8,12(sp)
    bd78:	ff8c0c13          	addi	s8,s8,-8
    bd7c:	01811623          	sh	s8,12(sp)
    bd80:	c38fd06f          	j	91b8 <.L498>

0000bd84 <.L2804>:
    bd84:	ea900c13          	li	s8,-343
    bd88:	0182d463          	bge	t0,s8,bd90 <.L2804+0xc>
    bd8c:	a94fa06f          	j	6020 <.L1374>
    bd90:	9b8f806f          	j	3f48 <.L1385>

0000bd94 <.L2866>:
    bd94:	ff968693          	addi	a3,a3,-7
    bd98:	00d11723          	sh	a3,14(sp)
    bd9c:	f7a00693          	li	a3,-134
    bda0:	00da4463          	blt	s4,a3,bda8 <.L2866+0x14>
    bda4:	bdcf706f          	j	3180 <.L2218>
    bda8:	9d0ff06f          	j	af78 <.L2668>

0000bdac <.L2865>:
    bdac:	00815b03          	lhu	s6,8(sp)
    bdb0:	008b0b13          	addi	s6,s6,8
    bdb4:	01611423          	sh	s6,8(sp)
    bdb8:	cf1f706f          	j	3aa8 <.L2146>

0000bdbc <.L1065>:
    bdbc:	00e15c03          	lhu	s8,14(sp)
    bdc0:	ffe00c93          	li	s9,-2
    bdc4:	ff9c0c13          	addi	s8,s8,-7
    bdc8:	01811723          	sh	s8,14(sp)
    bdcc:	01985463          	bge	a6,s9,bdd4 <.L1065+0x18>
    bdd0:	b50fd06f          	j	9120 <.L1061>
    bdd4:	acdfe06f          	j	a8a0 <.L1073>

0000bdd8 <.L2958>:
    bdd8:	ffcc0c13          	addi	s8,s8,-4
    bddc:	01811723          	sh	s8,14(sp)
    bde0:	011cc463          	blt	s9,a7,bde8 <.L2958+0x10>
    bde4:	ca5f906f          	j	5a88 <.L1643>
    bde8:	820f806f          	j	3e08 <.L1645>

0000bdec <.L555>:
    bdec:	ff400c13          	li	s8,-12
    bdf0:	23865063          	bge	a2,s8,c010 <.L2960>
    bdf4:	00a15c03          	lhu	s8,10(sp)
    bdf8:	ff6c0c13          	addi	s8,s8,-10
    bdfc:	01811523          	sh	s8,10(sp)
    be00:	ef5fc06f          	j	8cf4 <.L2288>

0000be04 <.L2098>:
    be04:	00815b03          	lhu	s6,8(sp)
    be08:	02e00c13          	li	s8,46
    be0c:	004b0b13          	addi	s6,s6,4
    be10:	01611423          	sh	s6,8(sp)
    be14:	01dc4463          	blt	s8,t4,be1c <.L2098+0x18>
    be18:	d6cf806f          	j	4384 <.L2099>
    be1c:	92cf906f          	j	4f48 <.L2100>

0000be20 <.L1407>:
    be20:	00e15c03          	lhu	s8,14(sp)
    be24:	01f00c93          	li	s9,31
    be28:	008c0c13          	addi	s8,s8,8
    be2c:	01811723          	sh	s8,14(sp)
    be30:	013cc463          	blt	s9,s3,be38 <.L1407+0x18>
    be34:	e84f606f          	j	24b8 <.L1408>
    be38:	eb9fb06f          	j	7cf0 <.L1409>

0000be3c <.L2776>:
    be3c:	1aa00c13          	li	s8,426
    be40:	016c4463          	blt	s8,s6,be48 <.L2776+0xc>
    be44:	9c1f506f          	j	1804 <.L547>
    be48:	00815c03          	lhu	s8,8(sp)
    be4c:	013c0c13          	addi	s8,s8,19
    be50:	01811423          	sh	s8,8(sp)
    be54:	9bdf506f          	j	1810 <.L549>

0000be58 <.L2899>:
    be58:	ffcc0c13          	addi	s8,s8,-4
    be5c:	01811723          	sh	s8,14(sp)
    be60:	011cc463          	blt	s9,a7,be68 <.L2899+0x10>
    be64:	c25f906f          	j	5a88 <.L1643>
    be68:	9ddf606f          	j	2844 <.L1646>

0000be6c <.L2872>:
    be6c:	03c00c13          	li	s8,60
    be70:	00fc5463          	bge	s8,a5,be78 <.L2872+0xc>
    be74:	9cdf806f          	j	4840 <.L1390>
    be78:	b01ff06f          	j	b978 <.L2627>

0000be7c <.L1084>:
    be7c:	00815c03          	lhu	s8,8(sp)
    be80:	30000c93          	li	s9,768
    be84:	009c0c13          	addi	s8,s8,9
    be88:	01811423          	sh	s8,8(sp)
    be8c:	01ecc463          	blt	s9,t5,be94 <.L1084+0x18>
    be90:	cf8f506f          	j	1388 <.L1085>
    be94:	f58f706f          	j	35ec <.L1086>

0000be98 <.L2296>:
    be98:	01251483          	lh	s1,18(a0)
    be9c:	00a51683          	lh	a3,10(a0)
    bea0:	01051b03          	lh	s6,16(a0)
    bea4:	02851e83          	lh	t4,40(a0)
    bea8:	01451283          	lh	t0,20(a0)
    beac:	ff700593          	li	a1,-9
    beb0:	981fc06f          	j	8830 <.L28>

0000beb4 <.L2955>:
    beb4:	00e15e03          	lhu	t3,14(sp)
    beb8:	ffae0e13          	addi	t3,t3,-6
    bebc:	01c11723          	sh	t3,14(sp)
    bec0:	89df706f          	j	375c <.L280>

0000bec4 <.L1687>:
    bec4:	00a15c03          	lhu	s8,10(sp)
    bec8:	00100c93          	li	s9,1
    becc:	fffc0c13          	addi	s8,s8,-1
    bed0:	01811523          	sh	s8,10(sp)
    bed4:	01ccd463          	bge	s9,t3,bedc <.L1688>
    bed8:	f81f706f          	j	3e58 <.L1689>

0000bedc <.L1688>:
    bedc:	01000c13          	li	s8,16
    bee0:	01dc4463          	blt	s8,t4,bee8 <.L1688+0xc>
    bee4:	c98fd06f          	j	937c <.L1670>
    bee8:	cf9fc06f          	j	8be0 <.L1693>

0000beec <.L1679>:
    beec:	00c15c03          	lhu	s8,12(sp)
    bef0:	ff600c93          	li	s9,-10
    bef4:	ff8c0c13          	addi	s8,s8,-8
    bef8:	01811623          	sh	s8,12(sp)
    befc:	01965463          	bge	a2,s9,bf04 <.L1679+0x18>
    bf00:	9a5f606f          	j	28a4 <.L1682>
    bf04:	9dcf906f          	j	50e0 <.L1683>

0000bf08 <.L2060>:
    bf08:	00e15c03          	lhu	s8,14(sp)
    bf0c:	0a900c93          	li	s9,169
    bf10:	001c0c13          	addi	s8,s8,1
    bf14:	01811723          	sh	s8,14(sp)
    bf18:	01ecc463          	blt	s9,t5,bf20 <.L2060+0x18>
    bf1c:	fbdf606f          	j	2ed8 <.L2050>
    bf20:	9a1f906f          	j	58c0 <.L2046>

0000bf24 <.L733>:
    bf24:	00815c03          	lhu	s8,8(sp)
    bf28:	003c0c13          	addi	s8,s8,3
    bf2c:	01811423          	sh	s8,8(sp)
    bf30:	f39f406f          	j	e68 <.L715>

0000bf34 <.L2064>:
    bf34:	00e15c03          	lhu	s8,14(sp)
    bf38:	001c0c13          	addi	s8,s8,1
    bf3c:	01811723          	sh	s8,14(sp)
    bf40:	b8cf806f          	j	42cc <.L2056>

0000bf44 <.L740>:
    bf44:	00c15c03          	lhu	s8,12(sp)
    bf48:	fffc0c13          	addi	s8,s8,-1
    bf4c:	01811623          	sh	s8,12(sp)
    bf50:	a64f906f          	j	51b4 <.L741>

0000bf54 <.L2882>:
    bf54:	00e15c83          	lhu	s9,14(sp)
    bf58:	00815c03          	lhu	s8,8(sp)
    bf5c:	002c8c93          	addi	s9,s9,2
    bf60:	cb5f806f          	j	4c14 <.L2650>

0000bf64 <.L937>:
    bf64:	00e15c03          	lhu	s8,14(sp)
    bf68:	003c0c13          	addi	s8,s8,3
    bf6c:	01811723          	sh	s8,14(sp)
    bf70:	e8df506f          	j	1dfc <.L935>

0000bf74 <.L1600>:
    bf74:	00c15c03          	lhu	s8,12(sp)
    bf78:	00300c93          	li	s9,3
    bf7c:	004c0c13          	addi	s8,s8,4
    bf80:	01811623          	sh	s8,12(sp)
    bf84:	01ccc463          	blt	s9,t3,bf8c <.L1600+0x18>
    bf88:	e51f706f          	j	3dd8 <.L1621>
    bf8c:	818fd06f          	j	8fa4 <.L1622>

0000bf90 <.L2948>:
    bf90:	00a15e03          	lhu	t3,10(sp)
    bf94:	ffae0e13          	addi	t3,t3,-6
    bf98:	01c11523          	sh	t3,10(sp)
    bf9c:	a41f706f          	j	39dc <.L225>

0000bfa0 <.L2067>:
    bfa0:	00e15c03          	lhu	s8,14(sp)
    bfa4:	004c0c13          	addi	s8,s8,4
    bfa8:	01811723          	sh	s8,14(sp)
    bfac:	b20f806f          	j	42cc <.L2056>

0000bfb0 <.L763>:
    bfb0:	00c15c03          	lhu	s8,12(sp)
    bfb4:	ffcc0c13          	addi	s8,s8,-4
    bfb8:	01811623          	sh	s8,12(sp)
    bfbc:	fa9fc06f          	j	8f64 <.L764>

0000bfc0 <.L1823>:
    bfc0:	00e15c03          	lhu	s8,14(sp)
    bfc4:	ffdc0c13          	addi	s8,s8,-3
    bfc8:	01811723          	sh	s8,14(sp)
    bfcc:	ca5f806f          	j	4c70 <.L1827>

0000bfd0 <.L1617>:
    bfd0:	ec100c13          	li	s8,-319
    bfd4:	13845c63          	bge	s0,s8,c10c <.L2961>
    bfd8:	00c15c03          	lhu	s8,12(sp)
    bfdc:	00300c93          	li	s9,3
    bfe0:	ffec0c13          	addi	s8,s8,-2
    bfe4:	01811623          	sh	s8,12(sp)
    bfe8:	01ccc463          	blt	s9,t3,bff0 <.L1617+0x20>
    bfec:	c95fe06f          	j	ac80 <.L1632>
    bff0:	a2df906f          	j	5a1c <.L1620>

0000bff4 <.L893>:
    bff4:	00c15c03          	lhu	s8,12(sp)
    bff8:	02f00c93          	li	s9,47
    bffc:	ff8c0c13          	addi	s8,s8,-8
    c000:	01811623          	sh	s8,12(sp)
    c004:	010cd463          	bge	s9,a6,c00c <.L893+0x18>
    c008:	d1df506f          	j	1d24 <.L889>
    c00c:	c60fa06f          	j	646c <.L881>

0000c010 <.L2960>:
    c010:	00a15c03          	lhu	s8,10(sp)
    c014:	006c0c13          	addi	s8,s8,6
    c018:	01811523          	sh	s8,10(sp)
    c01c:	cd9fc06f          	j	8cf4 <.L2288>

0000c020 <.L2847>:
    c020:	01200c13          	li	s8,18
    c024:	11dc5a63          	bge	s8,t4,c138 <.L2962>
    c028:	00a15c03          	lhu	s8,10(sp)
    c02c:	00100c93          	li	s9,1
    c030:	002c0c13          	addi	s8,s8,2
    c034:	01811523          	sh	s8,10(sp)
    c038:	01ccd463          	bge	s9,t3,c040 <.L2847+0x20>
    c03c:	b7dfb06f          	j	7bb8 <.L1680>
    c040:	01100c13          	li	s8,17
    c044:	eb1c54e3          	bge	s8,a7,beec <.L1679>
    c048:	00c15c03          	lhu	s8,12(sp)
    c04c:	ff600c93          	li	s9,-10
    c050:	ffac0c13          	addi	s8,s8,-6
    c054:	01811623          	sh	s8,12(sp)
    c058:	01965463          	bge	a2,s9,c060 <.L2847+0x40>
    c05c:	849f606f          	j	28a4 <.L1682>
    c060:	880f906f          	j	50e0 <.L1683>

0000c064 <.L2959>:
    c064:	00c15c03          	lhu	s8,12(sp)
    c068:	c3900c93          	li	s9,-967
    c06c:	004c0c13          	addi	s8,s8,4
    c070:	01811623          	sh	s8,12(sp)
    c074:	0195c463          	blt	a1,s9,c07c <.L2959+0x18>
    c078:	ef9fc06f          	j	8f70 <.L767>
    c07c:	00e15c03          	lhu	s8,14(sp)
    c080:	ffe00c93          	li	s9,-2
    c084:	008c0c13          	addi	s8,s8,8
    c088:	01811723          	sh	s8,14(sp)
    c08c:	01985463          	bge	a6,s9,c094 <.L2959+0x30>
    c090:	b7dfc06f          	j	8c0c <.L776>
    c094:	ac1f506f          	j	1b54 <.L786>

0000c098 <.L221>:
    c098:	00815e03          	lhu	t3,8(sp)
    c09c:	08000c13          	li	s8,128
    c0a0:	ff8e0e13          	addi	t3,t3,-8
    c0a4:	01c11423          	sh	t3,8(sp)
    c0a8:	00ec4463          	blt	s8,a4,c0b0 <.L221+0x18>
    c0ac:	de8f406f          	j	694 <.L215>
    c0b0:	b5cfd06f          	j	940c <.L211>

0000c0b4 <.L2907>:
    c0b4:	00a51683          	lh	a3,10(a0)
    c0b8:	01051b03          	lh	s6,16(a0)
    c0bc:	02851e83          	lh	t4,40(a0)
    c0c0:	a3cf406f          	j	2fc <.L22>

0000c0c4 <.L2834>:
    c0c4:	00a15e03          	lhu	t3,10(sp)
    c0c8:	08f00c13          	li	s8,143
    c0cc:	00be0e13          	addi	t3,t3,11
    c0d0:	01c11523          	sh	t3,10(sp)
    c0d4:	02051e03          	lh	t3,32(a0)
    c0d8:	00dc4463          	blt	s8,a3,c0e0 <.L2834+0x1c>
    c0dc:	c01f906f          	j	5cdc <.L291>
    c0e0:	8e9fa06f          	j	69c8 <.L315>

0000c0e4 <.L2957>:
    c0e4:	00c15e03          	lhu	t3,12(sp)
    c0e8:	015e0e13          	addi	t3,t3,21
    c0ec:	01c11623          	sh	t3,12(sp)
    c0f0:	b90f406f          	j	480 <.L121>

0000c0f4 <.L1992>:
    c0f4:	1a500c13          	li	s8,421
    c0f8:	b27c4663          	blt	s8,t2,b424 <.L1990>
    c0fc:	00e15c03          	lhu	s8,14(sp)
    c100:	001c0c13          	addi	s8,s8,1
    c104:	01811723          	sh	s8,14(sp)
    c108:	ad0fb06f          	j	73d8 <.L1975>

0000c10c <.L2961>:
    c10c:	00c15c03          	lhu	s8,12(sp)
    c110:	00300c93          	li	s9,3
    c114:	006c0c13          	addi	s8,s8,6
    c118:	01811623          	sh	s8,12(sp)
    c11c:	01ccc463          	blt	s9,t3,c124 <.L2961+0x18>
    c120:	d78fc06f          	j	8698 <.L1595>
    c124:	8f9f906f          	j	5a1c <.L1620>

0000c128 <.L642>:
    c128:	00c15c03          	lhu	s8,12(sp)
    c12c:	008c0c13          	addi	s8,s8,8
    c130:	01811623          	sh	s8,12(sp)
    c134:	d5cfa06f          	j	6690 <.L643>

0000c138 <.L2962>:
    c138:	00a15c03          	lhu	s8,10(sp)
    c13c:	00100c93          	li	s9,1
    c140:	ffec0c13          	addi	s8,s8,-2
    c144:	01811523          	sh	s8,10(sp)
    c148:	01ccd463          	bge	s9,t3,c150 <.L2962+0x18>
    c14c:	f34f606f          	j	2880 <.L1659>
    c150:	01100c13          	li	s8,17
    c154:	011c4463          	blt	s8,a7,c15c <.L2962+0x24>
    c158:	a15fa06f          	j	6b6c <.L1654>
    c15c:	d81ff06f          	j	bedc <.L1688>

0000c160 <argmax>:
    c160:	00100713          	li	a4,1
    c164:	02b75e63          	bge	a4,a1,c1a0 <.L2967>
    c168:	00250693          	addi	a3,a0,2
    c16c:	00000813          	li	a6,0

0000c170 <.L2966>:
    c170:	00181793          	slli	a5,a6,0x1
    c174:	00f507b3          	add	a5,a0,a5
    c178:	00069603          	lh	a2,0(a3)
    c17c:	00079783          	lh	a5,0(a5)
    c180:	00268693          	addi	a3,a3,2
    c184:	00c7d663          	bge	a5,a2,c190 <.L2965>
    c188:	01071813          	slli	a6,a4,0x10
    c18c:	41085813          	srai	a6,a6,0x10

0000c190 <.L2965>:
    c190:	00170713          	addi	a4,a4,1
    c194:	fce59ee3          	bne	a1,a4,c170 <.L2966>
    c198:	00080513          	mv	a0,a6
    c19c:	00008067          	ret

0000c1a0 <.L2967>:
    c1a0:	00000513          	li	a0,0
    c1a4:	00008067          	ret
