
header_editado.o:     formato de ficheiro elf32-littleriscv


Desmontagem da secção .text:

00000000 <get_num_target>:
       0:	00100513          	li	a0,1
       4:	00008067          	ret

00000008 <get_num_class>:
       8:	00400793          	li	a5,4
       c:	00f52023          	sw	a5,0(a0)
      10:	00008067          	ret

00000014 <get_num_feature>:
      14:	01600513          	li	a0,22
      18:	00008067          	ret

0000001c <get_threshold_type>:
      1c:	00000517          	auipc	a0,0x0
      20:	00050513          	mv	a0,a0
      24:	00008067          	ret

00000028 <get_leaf_output_type>:
      28:	00000517          	auipc	a0,0x0
      2c:	00050513          	mv	a0,a0
      30:	00008067          	ret

00000034 <predict>:
      34:	00451303          	lh	t1,4(a0) # 2c <get_leaf_output_type+0x4>
      38:	fc010113          	addi	sp,sp,-64
      3c:	03712023          	sw	s7,32(sp)
      40:	02812e23          	sw	s0,60(sp)
      44:	02912c23          	sw	s1,56(sp)
      48:	03212a23          	sw	s2,52(sp)
      4c:	03312823          	sw	s3,48(sp)
      50:	03412623          	sw	s4,44(sp)
      54:	03512423          	sw	s5,40(sp)
      58:	03612223          	sw	s6,36(sp)
      5c:	01812e23          	sw	s8,28(sp)
      60:	01912c23          	sw	s9,24(sp)
      64:	01a12a23          	sw	s10,20(sp)
      68:	04600793          	li	a5,70
      6c:	00c10b93          	addi	s7,sp,12
      70:	2067c463          	blt	a5,t1,278 <.L8>
      74:	02451983          	lh	s3,36(a0)
      78:	01900793          	li	a5,25
      7c:	4d37c063          	blt	a5,s3,53c <.L9>
      80:	01651a03          	lh	s4,22(a0)
      84:	efc00793          	li	a5,-260
      88:	4cfa4a63          	blt	s4,a5,55c <.L2291>
      8c:	02251f03          	lh	t5,34(a0)
      90:	00e51f83          	lh	t6,14(a0)
      94:	01a51403          	lh	s0,26(a0)
      98:	02400793          	li	a5,36

0000009c <.L10>:
      9c:	00251703          	lh	a4,2(a0)
      a0:	00f11423          	sh	a5,8(sp)
      a4:	2df00793          	li	a5,735
      a8:	20e7c463          	blt	a5,a4,2b0 <.L12>

000000ac <.L2751>:
      ac:	01851603          	lh	a2,24(a0)
      b0:	ffd00793          	li	a5,-3
      b4:	00f64463          	blt	a2,a5,bc <.L2751+0x10>
      b8:	4fc0606f          	j	65b4 <.L13>
      bc:	01251483          	lh	s1,18(a0)
      c0:	19100693          	li	a3,401
      c4:	ff600793          	li	a5,-10
      c8:	0096d463          	bge	a3,s1,d0 <.L14>
      cc:	00200793          	li	a5,2

000000d0 <.L14>:
      d0:	00651a83          	lh	s5,6(a0)
      d4:	00f11523          	sh	a5,10(sp)
      d8:	d5c00793          	li	a5,-676
      dc:	00fac463          	blt	s5,a5,e4 <.L14+0x14>
      e0:	4ec0b06f          	j	b5cc <.L2747>
      e4:	ff400793          	li	a5,-12
      e8:	00f64463          	blt	a2,a5,f0 <.L14+0x20>
      ec:	4f00606f          	j	65dc <.L16>
      f0:	00a51683          	lh	a3,10(a0)
      f4:	01051b03          	lh	s6,16(a0)
      f8:	02851e83          	lh	t4,40(a0)

000000fc <.L21>:
      fc:	06300793          	li	a5,99
     100:	01d7d463          	bge	a5,t4,108 <.L21+0xc>
     104:	46d0a06f          	j	ad70 <.L25>
     108:	00051783          	lh	a5,0(a0)
     10c:	02500593          	li	a1,37
     110:	00b11623          	sh	a1,12(sp)
     114:	03e00593          	li	a1,62
     118:	01451283          	lh	t0,20(a0)
     11c:	1ef5dc63          	bge	a1,a5,314 <.L26>

00000120 <.L27>:
     120:	ff600593          	li	a1,-10
     124:	00b11723          	sh	a1,14(sp)
     128:	05700593          	li	a1,87
     12c:	0065c463          	blt	a1,t1,134 <.L27+0x14>
     130:	2e50906f          	j	9c14 <.L2341>
     134:	01e51583          	lh	a1,30(a0)
     138:	00c51903          	lh	s2,12(a0)

0000013c <.L33>:
     13c:	0ac00813          	li	a6,172
     140:	01685463          	bge	a6,s6,148 <.L33+0xc>
     144:	4d00606f          	j	6614 <.L45>
     148:	03a00813          	li	a6,58
     14c:	00815883          	lhu	a7,8(sp)
     150:	01f85463          	bge	a6,t6,158 <.L33+0x1c>
     154:	3e10a06f          	j	ad34 <.L46>
     158:	01588893          	addi	a7,a7,21
     15c:	00851803          	lh	a6,8(a0)
     160:	01089893          	slli	a7,a7,0x10
     164:	4108d893          	srai	a7,a7,0x10

00000168 <.L47>:
     168:	01111423          	sh	a7,8(sp)
     16c:	1b500893          	li	a7,437
     170:	00e8d463          	bge	a7,a4,178 <.L47+0x10>
     174:	7140306f          	j	3888 <.L44>
     178:	02a51883          	lh	a7,42(a0)
     17c:	00800e13          	li	t3,8
     180:	011e4463          	blt	t3,a7,188 <.L47+0x20>
     184:	01c0806f          	j	81a0 <.L42>
     188:	0f200e13          	li	t3,242
     18c:	1e6e5e63          	bge	t3,t1,388 <.L41>
     190:	00a15e03          	lhu	t3,10(sp)
     194:	fffe0e13          	addi	t3,t3,-1
     198:	010e1e13          	slli	t3,t3,0x10
     19c:	410e5e13          	srai	t3,t3,0x10

000001a0 <.L51>:
     1a0:	01c11523          	sh	t3,10(sp)
     1a4:	df700e13          	li	t3,-521
     1a8:	1fca5e63          	bge	s4,t3,3a4 <.L57>

000001ac <.L52>:
     1ac:	ff400e13          	li	t3,-12
     1b0:	01c65463          	bge	a2,t3,1b8 <.L52+0xc>
     1b4:	0c00806f          	j	8274 <.L58>
     1b8:	03b00e13          	li	t3,59
     1bc:	00ee5463          	bge	t3,a4,1c4 <.L52+0x18>
     1c0:	7080306f          	j	38c8 <.L59>
     1c4:	00c15e03          	lhu	t3,12(sp)
     1c8:	012e0e13          	addi	t3,t3,18
     1cc:	010e1e13          	slli	t3,t3,0x10
     1d0:	410e5e13          	srai	t3,t3,0x10

000001d4 <.L65>:
     1d4:	01c11623          	sh	t3,12(sp)
     1d8:	03d00e13          	li	t3,61
     1dc:	1efe5663          	bge	t3,a5,3c8 <.L66>
     1e0:	dce00e13          	li	t3,-562
     1e4:	01cac463          	blt	s5,t3,1ec <.L65+0x18>
     1e8:	3a40606f          	j	658c <.L67>
     1ec:	00e15e03          	lhu	t3,14(sp)
     1f0:	0d900393          	li	t2,217
     1f4:	ff5e0e13          	addi	t3,t3,-11
     1f8:	01c11723          	sh	t3,14(sp)
     1fc:	21e3d263          	bge	t2,t5,400 <.L76>

00000200 <.L2344>:
     200:	05700e13          	li	t3,87
     204:	006e4463          	blt	t3,t1,20c <.L82>
     208:	5190806f          	j	8f20 <.L83>

0000020c <.L82>:
     20c:	00815e03          	lhu	t3,8(sp)
     210:	02651383          	lh	t2,38(a0)
     214:	ff7e0e13          	addi	t3,t3,-9

00000218 <.L2549>:
     218:	01c11423          	sh	t3,8(sp)

0000021c <.L85>:
     21c:	1de00e13          	li	t3,478
     220:	20ee5263          	bge	t3,a4,424 <.L90>

00000224 <.L93>:
     224:	4ae00e13          	li	t3,1198
     228:	00de5463          	bge	t3,a3,230 <.L93+0xc>
     22c:	5440806f          	j	8770 <.L92>
     230:	03e00e13          	li	t3,62
     234:	00fe4463          	blt	t3,a5,23c <.L93+0x18>
     238:	6310806f          	j	9068 <.L91>
     23c:	00a15e03          	lhu	t3,10(sp)
     240:	31a00c13          	li	s8,794
     244:	ff5e0e13          	addi	t3,t3,-11
     248:	01c11523          	sh	t3,10(sp)
     24c:	00dc5463          	bge	s8,a3,254 <.L93+0x30>
     250:	5e40b06f          	j	b834 <.L2748>
     254:	ea700e13          	li	t3,-345
     258:	01ca4463          	blt	s4,t3,260 <.L93+0x3c>
     25c:	01d0b06f          	j	ba78 <.L2749>
     260:	00c15e03          	lhu	t3,12(sp)
     264:	ff6e0e13          	addi	t3,t3,-10
     268:	010e1e13          	slli	t3,t3,0x10
     26c:	410e5e13          	srai	t3,t3,0x10
     270:	01c11623          	sh	t3,12(sp)
     274:	20c0006f          	j	480 <.L121>

00000278 <.L8>:
     278:	02251f03          	lh	t5,34(a0)
     27c:	0d900793          	li	a5,217
     280:	29e7ce63          	blt	a5,t5,51c <.L11>
     284:	00e51f83          	lh	t6,14(a0)
     288:	03c00793          	li	a5,60
     28c:	2ff7ce63          	blt	a5,t6,588 <.L2750>
     290:	00251703          	lh	a4,2(a0)
     294:	01c00793          	li	a5,28
     298:	00f11423          	sh	a5,8(sp)
     29c:	2df00793          	li	a5,735
     2a0:	02451983          	lh	s3,36(a0)
     2a4:	01651a03          	lh	s4,22(a0)
     2a8:	01a51403          	lh	s0,26(a0)
     2ac:	e0e7d0e3          	bge	a5,a4,ac <.L2751>

000002b0 <.L12>:
     2b0:	00a51683          	lh	a3,10(a0)
     2b4:	7e700793          	li	a5,2023
     2b8:	00d7d463          	bge	a5,a3,2c0 <.L12+0x10>
     2bc:	5280806f          	j	87e4 <.L18>
     2c0:	01051b03          	lh	s6,16(a0)
     2c4:	10100793          	li	a5,257
     2c8:	00651a83          	lh	s5,6(a0)
     2cc:	0167d463          	bge	a5,s6,2d4 <.L12+0x24>
     2d0:	1e40a06f          	j	a4b4 <.L19>
     2d4:	ffe00793          	li	a5,-2
     2d8:	00f11523          	sh	a5,10(sp)
     2dc:	d5c00793          	li	a5,-676
     2e0:	01851603          	lh	a2,24(a0)
     2e4:	00fac463          	blt	s5,a5,2ec <.L2337>
     2e8:	1e40a06f          	j	a4cc <.L2543>

000002ec <.L2337>:
     2ec:	ff400793          	li	a5,-12
     2f0:	01251483          	lh	s1,18(a0)
     2f4:	02851e83          	lh	t4,40(a0)
     2f8:	e0f642e3          	blt	a2,a5,fc <.L21>

000002fc <.L22>:
     2fc:	00051783          	lh	a5,0(a0)
     300:	ff500593          	li	a1,-11
     304:	00b11623          	sh	a1,12(sp)
     308:	03e00593          	li	a1,62
     30c:	01451283          	lh	t0,20(a0)
     310:	e0f5c8e3          	blt	a1,a5,120 <.L27>

00000314 <.L26>:
     314:	01e51583          	lh	a1,30(a0)
     318:	d8200813          	li	a6,-638
     31c:	0105c463          	blt	a1,a6,324 <.L26+0x10>
     320:	11c0806f          	j	843c <.L31>
     324:	27300813          	li	a6,627
     328:	01e84463          	blt	a6,t5,330 <.L26+0x1c>
     32c:	4a90906f          	j	9fd4 <.L2299>
     330:	00c51903          	lh	s2,12(a0)
     334:	ff900813          	li	a6,-7

00000338 <.L32>:
     338:	01011723          	sh	a6,14(sp)
     33c:	05700813          	li	a6,87
     340:	de684ee3          	blt	a6,t1,13c <.L33>
     344:	00851803          	lh	a6,8(a0)
     348:	02200893          	li	a7,34
     34c:	0108c463          	blt	a7,a6,354 <.L32+0x1c>
     350:	5200306f          	j	3870 <.L34>
     354:	fba00893          	li	a7,-70
     358:	011ad463          	bge	s5,a7,360 <.L32+0x28>
     35c:	0d10906f          	j	9c2c <.L35>
     360:	00815883          	lhu	a7,8(sp)
     364:	1b500e13          	li	t3,437
     368:	00188893          	addi	a7,a7,1
     36c:	01111423          	sh	a7,8(sp)
     370:	00ee5463          	bge	t3,a4,378 <.L2544>
     374:	5140306f          	j	3888 <.L44>

00000378 <.L2544>:
     378:	02a51883          	lh	a7,42(a0)
     37c:	00800e13          	li	t3,8
     380:	011e4463          	blt	t3,a7,388 <.L41>
     384:	61d0706f          	j	81a0 <.L42>

00000388 <.L41>:
     388:	00a15e03          	lhu	t3,10(sp)
     38c:	ff6e0e13          	addi	t3,t3,-10
     390:	010e1e13          	slli	t3,t3,0x10
     394:	410e5e13          	srai	t3,t3,0x10
     398:	01c11523          	sh	t3,10(sp)
     39c:	df700e13          	li	t3,-521
     3a0:	e1ca46e3          	blt	s4,t3,1ac <.L52>

000003a4 <.L57>:
     3a4:	eef00e13          	li	t3,-273
     3a8:	01c2c463          	blt	t0,t3,3b0 <.L2910>
     3ac:	4400606f          	j	67ec <.L68>

000003b0 <.L2910>:
     3b0:	03300e13          	li	t3,51
     3b4:	00fe5463          	bge	t3,a5,3bc <.L2910+0xc>
     3b8:	3f50a06f          	j	afac <.L69>
     3bc:	00c15e03          	lhu	t3,12(sp)
     3c0:	010e0e13          	addi	t3,t3,16
     3c4:	01c11623          	sh	t3,12(sp)

000003c8 <.L66>:
     3c8:	d8200e13          	li	t3,-638
     3cc:	01c5c463          	blt	a1,t3,3d4 <.L66+0xc>
     3d0:	3840606f          	j	6754 <.L71>
     3d4:	27300e13          	li	t3,627
     3d8:	01ee5463          	bge	t3,t5,3e0 <.L66+0x18>
     3dc:	1190a06f          	j	acf4 <.L72>
     3e0:	00e15e03          	lhu	t3,14(sp)
     3e4:	017e0e13          	addi	t3,t3,23
     3e8:	010e1e13          	slli	t3,t3,0x10
     3ec:	410e5e13          	srai	t3,t3,0x10

000003f0 <.L73>:
     3f0:	01c11723          	sh	t3,14(sp)
     3f4:	0d900e13          	li	t3,217
     3f8:	01ee5463          	bge	t3,t5,400 <.L76>
     3fc:	3840606f          	j	6780 <.L74>

00000400 <.L76>:
     400:	01a00e13          	li	t3,26
     404:	010e5463          	bge	t3,a6,40c <.L76+0xc>
     408:	3000706f          	j	7708 <.L80>
     40c:	0da00e13          	li	t3,218
     410:	012e4463          	blt	t3,s2,418 <.L76+0x18>
     414:	14c0a06f          	j	a560 <.L84>
     418:	1de00e13          	li	t3,478
     41c:	02651383          	lh	t2,38(a0)
     420:	e0ee42e3          	blt	t3,a4,224 <.L93>

00000424 <.L90>:
     424:	ffd00e13          	li	t3,-3
     428:	01c64463          	blt	a2,t3,430 <.L90+0xc>
     42c:	2ec0806f          	j	8718 <.L94>
     430:	1b300e13          	li	t3,435
     434:	009e5463          	bge	t3,s1,43c <.L90+0x18>
     438:	40d0906f          	j	a044 <.L95>
     43c:	00a15e03          	lhu	t3,10(sp)
     440:	31a00c13          	li	s8,794
     444:	ff7e0e13          	addi	t3,t3,-9
     448:	01c11523          	sh	t3,10(sp)
     44c:	00dc4463          	blt	s8,a3,454 <.L2349>
     450:	2ec0806f          	j	873c <.L96>

00000454 <.L2349>:
     454:	e4e00e13          	li	t3,-434
     458:	01cac463          	blt	s5,t3,460 <.L119>
     45c:	3b90906f          	j	a014 <.L101>

00000460 <.L119>:
     460:	00c15e03          	lhu	t3,12(sp)
     464:	015e0e13          	addi	t3,t3,21
     468:	010e1e13          	slli	t3,t3,0x10
     46c:	410e5e13          	srai	t3,t3,0x10

00000470 <.L120>:
     470:	01c11623          	sh	t3,12(sp)
     474:	03d00e13          	li	t3,61
     478:	00fe4463          	blt	t3,a5,480 <.L121>
     47c:	7e80506f          	j	5c64 <.L125>

00000480 <.L121>:
     480:	1f800e13          	li	t3,504
     484:	13ee4663          	blt	t3,t5,5b0 <.L131>
     488:	03a00e13          	li	t3,58
     48c:	01fe5463          	bge	t3,t6,494 <.L121+0x14>
     490:	1c00a06f          	j	a650 <.L132>
     494:	00e15e03          	lhu	t3,14(sp)
     498:	ff8e0e13          	addi	t3,t3,-8
     49c:	010e1e13          	slli	t3,t3,0x10
     4a0:	410e5e13          	srai	t3,t3,0x10

000004a4 <.L129>:
     4a4:	01c11723          	sh	t3,14(sp)
     4a8:	0d900e13          	li	t3,217
     4ac:	13ee4263          	blt	t3,t5,5d0 <.L135>
     4b0:	01a00e13          	li	t3,26
     4b4:	010e5463          	bge	t3,a6,4bc <.L129+0x18>
     4b8:	4240306f          	j	38dc <.L136>
     4bc:	11800e13          	li	t3,280
     4c0:	012e5463          	bge	t3,s2,4c8 <.L129+0x24>
     4c4:	1540a06f          	j	a618 <.L137>
     4c8:	00815e03          	lhu	t3,8(sp)
     4cc:	0a600c13          	li	s8,166
     4d0:	00ee0e13          	addi	t3,t3,14
     4d4:	01c11423          	sh	t3,8(sp)
     4d8:	00ec4463          	blt	s8,a4,4e0 <.L2552>
     4dc:	4280306f          	j	3904 <.L143>

000004e0 <.L2552>:
     4e0:	03d00e13          	li	t3,61
     4e4:	00fe4463          	blt	t3,a5,4ec <.L164>
     4e8:	3790506f          	j	6060 <.L144>

000004ec <.L164>:
     4ec:	00a15e03          	lhu	t3,10(sp)
     4f0:	10b00c13          	li	s8,267
     4f4:	ff5e0e13          	addi	t3,t3,-11
     4f8:	01c11523          	sh	t3,10(sp)
     4fc:	00dc5463          	bge	s8,a3,504 <.L164+0x18>
     500:	16c0906f          	j	966c <.L2354>
     504:	d6700e13          	li	t3,-665
     508:	13ca5663          	bge	s4,t3,634 <.L173>
     50c:	00c15e03          	lhu	t3,12(sp)
     510:	00be0e13          	addi	t3,t3,11
     514:	01c11623          	sh	t3,12(sp)
     518:	1280006f          	j	640 <.L174>

0000051c <.L11>:
     51c:	01a51403          	lh	s0,26(a0)
     520:	f2900793          	li	a5,-215
     524:	06f45c63          	bge	s0,a5,59c <.L2752>
     528:	02451983          	lh	s3,36(a0)
     52c:	01651a03          	lh	s4,22(a0)
     530:	00e51f83          	lh	t6,14(a0)
     534:	ff500793          	li	a5,-11
     538:	b65ff06f          	j	9c <.L10>

0000053c <.L9>:
     53c:	01f00793          	li	a5,31
     540:	0337c863          	blt	a5,s3,570 <.L2753>
     544:	01651a03          	lh	s4,22(a0)
     548:	02251f03          	lh	t5,34(a0)
     54c:	00e51f83          	lh	t6,14(a0)
     550:	01a51403          	lh	s0,26(a0)
     554:	00900793          	li	a5,9
     558:	b45ff06f          	j	9c <.L10>

0000055c <.L2291>:
     55c:	02251f03          	lh	t5,34(a0)
     560:	00e51f83          	lh	t6,14(a0)
     564:	01a51403          	lh	s0,26(a0)
     568:	01300793          	li	a5,19
     56c:	b31ff06f          	j	9c <.L10>

00000570 <.L2753>:
     570:	01651a03          	lh	s4,22(a0)
     574:	02251f03          	lh	t5,34(a0)
     578:	00e51f83          	lh	t6,14(a0)
     57c:	01a51403          	lh	s0,26(a0)
     580:	ff500793          	li	a5,-11
     584:	b19ff06f          	j	9c <.L10>

00000588 <.L2750>:
     588:	02451983          	lh	s3,36(a0)
     58c:	01651a03          	lh	s4,22(a0)
     590:	01a51403          	lh	s0,26(a0)
     594:	ff500793          	li	a5,-11
     598:	b05ff06f          	j	9c <.L10>

0000059c <.L2752>:
     59c:	02451983          	lh	s3,36(a0)
     5a0:	01651a03          	lh	s4,22(a0)
     5a4:	00e51f83          	lh	t6,14(a0)
     5a8:	ffc00793          	li	a5,-4
     5ac:	af1ff06f          	j	9c <.L10>

000005b0 <.L131>:
     5b0:	b6f00e13          	li	t3,-1169
     5b4:	01c44463          	blt	s0,t3,5bc <.L131+0xc>
     5b8:	0e40a06f          	j	a69c <.L133>
     5bc:	00e15e03          	lhu	t3,14(sp)
     5c0:	00ce0e13          	addi	t3,t3,12
     5c4:	010e1e13          	slli	t3,t3,0x10
     5c8:	010e5e13          	srli	t3,t3,0x10
     5cc:	01c11723          	sh	t3,14(sp)

000005d0 <.L135>:
     5d0:	03e00e13          	li	t3,62
     5d4:	006e5463          	bge	t3,t1,5dc <.L135+0xc>
     5d8:	69d0706f          	j	8474 <.L145>
     5dc:	02000e13          	li	t3,32
     5e0:	010e5463          	bge	t3,a6,5e8 <.L135+0x18>
     5e4:	1710606f          	j	6f54 <.L146>
     5e8:	00815e03          	lhu	t3,8(sp)
     5ec:	009e0e13          	addi	t3,t3,9
     5f0:	010e1e13          	slli	t3,t3,0x10
     5f4:	410e5e13          	srai	t3,t3,0x10

000005f8 <.L147>:
     5f8:	01c11423          	sh	t3,8(sp)
     5fc:	0a600e13          	li	t3,166
     600:	00ee4463          	blt	t3,a4,608 <.L147+0x10>
     604:	3000306f          	j	3904 <.L143>
     608:	03d00e13          	li	t3,61
     60c:	00fe4463          	blt	t3,a5,614 <.L147+0x1c>
     610:	2510506f          	j	6060 <.L144>
     614:	21a00e13          	li	t3,538
     618:	edee5ae3          	bge	t3,t5,4ec <.L164>
     61c:	10b00e13          	li	t3,267
     620:	00de5463          	bge	t3,a3,628 <.L147+0x30>
     624:	0480906f          	j	966c <.L2354>
     628:	d6700e13          	li	t3,-665
     62c:	01ca5463          	bge	s4,t3,634 <.L173>
     630:	2890506f          	j	60b8 <.L2754>

00000634 <.L173>:
     634:	00c15e03          	lhu	t3,12(sp)
     638:	ff6e0e13          	addi	t3,t3,-10
     63c:	01c11623          	sh	t3,12(sp)

00000640 <.L174>:
     640:	1e500e13          	li	t3,485
     644:	01ee5463          	bge	t3,t5,64c <.L174+0xc>
     648:	27d0506f          	j	60c4 <.L172>
     64c:	ec100e13          	li	t3,-319
     650:	01c44463          	blt	s0,t3,658 <.L174+0x18>
     654:	0540306f          	j	36a8 <.L192>
     658:	00e15e03          	lhu	t3,14(sp)
     65c:	0d900c13          	li	s8,217
     660:	00ee0e13          	addi	t3,t3,14
     664:	01c11723          	sh	t3,14(sp)
     668:	01ec4463          	blt	s8,t5,670 <.L2356>
     66c:	0540306f          	j	36c0 <.L194>

00000670 <.L2356>:
     670:	07a00e13          	li	t3,122
     674:	006e4463          	blt	t3,t1,67c <.L2356+0xc>
     678:	3100706f          	j	7988 <.L196>
     67c:	00815e03          	lhu	t3,8(sp)
     680:	08000c13          	li	s8,128
     684:	ff8e0e13          	addi	t3,t3,-8
     688:	01c11423          	sh	t3,8(sp)
     68c:	00ec5463          	bge	s8,a4,694 <.L215>
     690:	56d0806f          	j	93fc <.L2755>

00000694 <.L215>:
     694:	ffd00e13          	li	t3,-3
     698:	01c64463          	blt	a2,t3,6a0 <.L215+0xc>
     69c:	7680506f          	j	5e04 <.L231>
     6a0:	36800e13          	li	t3,872
     6a4:	016e5463          	bge	t3,s6,6ac <.L215+0x18>
     6a8:	2f00a06f          	j	a998 <.L232>
     6ac:	00a15e03          	lhu	t3,10(sp)
     6b0:	08c00c13          	li	s8,140
     6b4:	ff7e0e13          	addi	t3,t3,-9
     6b8:	01c11523          	sh	t3,10(sp)
     6bc:	00dc4463          	blt	s8,a3,6c4 <.L236>
     6c0:	7680506f          	j	5e28 <.L239>

000006c4 <.L236>:
     6c4:	eef00e13          	li	t3,-273
     6c8:	01c2c463          	blt	t0,t3,6d0 <.L236+0xc>
     6cc:	0e40a06f          	j	a7b0 <.L267>
     6d0:	00c15e03          	lhu	t3,12(sp)
     6d4:	00de0e13          	addi	t3,t3,13
     6d8:	010e1e13          	slli	t3,t3,0x10
     6dc:	410e5e13          	srai	t3,t3,0x10

000006e0 <.L263>:
     6e0:	01c11623          	sh	t3,12(sp)
     6e4:	03c00e13          	li	t3,60
     6e8:	00fe5463          	bge	t3,a5,6f0 <.L263+0x10>
     6ec:	0380306f          	j	3724 <.L259>
     6f0:	ce400e13          	li	t3,-796
     6f4:	01c5c463          	blt	a1,t3,6fc <.L252>
     6f8:	1c10806f          	j	90b8 <.L273>

000006fc <.L252>:
     6fc:	19c00e13          	li	t3,412
     700:	00ee5463          	bge	t3,a4,708 <.L252+0xc>
     704:	3140306f          	j	3a18 <.L276>
     708:	00e15e03          	lhu	t3,14(sp)
     70c:	00fe0e13          	addi	t3,t3,15
     710:	010e1e13          	slli	t3,t3,0x10
     714:	410e5e13          	srai	t3,t3,0x10

00000718 <.L275>:
     718:	01c11723          	sh	t3,14(sp)
     71c:	efb00e13          	li	t3,-261
     720:	01ca4463          	blt	s4,t3,728 <.L2833>
     724:	0380306f          	j	375c <.L280>

00000728 <.L2833>:
     728:	08700e13          	li	t3,135
     72c:	006e5463          	bge	t3,t1,734 <.L2833+0xc>
     730:	38c0606f          	j	6abc <.L281>
     734:	02200e13          	li	t3,34
     738:	010e5463          	bge	t3,a6,740 <.L2833+0x18>
     73c:	3040606f          	j	6a40 <.L282>
     740:	00815e03          	lhu	t3,8(sp)
     744:	2df00c13          	li	s8,735
     748:	002e0e13          	addi	t3,t3,2
     74c:	01c11423          	sh	t3,8(sp)
     750:	00ec5463          	bge	s8,a4,758 <.L2684>
     754:	3040606f          	j	6a58 <.L297>

00000758 <.L2684>:
     758:	02051e03          	lh	t3,32(a0)
     75c:	00400c13          	li	s8,4
     760:	01cc5463          	bge	s8,t3,768 <.L2684+0x10>
     764:	5f40806f          	j	8d58 <.L299>
     768:	00a15c03          	lhu	s8,10(sp)
     76c:	08f00c93          	li	s9,143
     770:	ffcc0c13          	addi	s8,s8,-4
     774:	01811523          	sh	s8,10(sp)
     778:	00dcc463          	blt	s9,a3,780 <.L317>
     77c:	3800606f          	j	6afc <.L2560>

00000780 <.L317>:
     780:	2b200c13          	li	s8,690
     784:	00ec5463          	bge	s8,a4,78c <.L317+0xc>
     788:	2400606f          	j	69c8 <.L315>
     78c:	ef500c13          	li	s8,-267
     790:	0182c463          	blt	t0,s8,798 <.L317+0x18>
     794:	2780606f          	j	6a0c <.L324>
     798:	00c15c03          	lhu	s8,12(sp)
     79c:	03c00c93          	li	s9,60
     7a0:	00bc0c13          	addi	s8,s8,11
     7a4:	01811623          	sh	s8,12(sp)
     7a8:	00fcd463          	bge	s9,a5,7b0 <.L2563>
     7ac:	05c0306f          	j	3808 <.L325>

000007b0 <.L2563>:
     7b0:	d2500c13          	li	s8,-731
     7b4:	0185d463          	bge	a1,s8,7bc <.L327>
     7b8:	2e80606f          	j	6aa0 <.L337>

000007bc <.L327>:
     7bc:	00e15c03          	lhu	s8,14(sp)
     7c0:	ff6c0c13          	addi	s8,s8,-10
     7c4:	010c1c13          	slli	s8,s8,0x10
     7c8:	410c5c13          	srai	s8,s8,0x10

000007cc <.L338>:
     7cc:	01811723          	sh	s8,14(sp)
     7d0:	efb00c13          	li	s8,-261
     7d4:	018a4463          	blt	s4,s8,7dc <.L2835>
     7d8:	0680306f          	j	3840 <.L341>

000007dc <.L2835>:
     7dc:	00d00c13          	li	s8,13
     7e0:	013c5463          	bge	s8,s3,7e8 <.L2835+0xc>
     7e4:	0d50606f          	j	70b8 <.L342>
     7e8:	0f400c13          	li	s8,244
     7ec:	006c5463          	bge	s8,t1,7f4 <.L2835+0x18>
     7f0:	6b80906f          	j	9ea8 <.L343>
     7f4:	00815c03          	lhu	s8,8(sp)
     7f8:	003c0c13          	addi	s8,s8,3
     7fc:	01811423          	sh	s8,8(sp)

00000800 <.L344>:
     800:	07600c13          	li	s8,118
     804:	00ec5463          	bge	s8,a4,80c <.L344+0xc>
     808:	2e90206f          	j	32f0 <.L348>
     80c:	ffe00c13          	li	s8,-2
     810:	01864463          	blt	a2,s8,818 <.L344+0x18>
     814:	7a10606f          	j	77b4 <.L349>
     818:	e2c00c13          	li	s8,-468
     81c:	0182c463          	blt	t0,s8,824 <.L344+0x24>
     820:	0050a06f          	j	b024 <.L350>
     824:	00a15c03          	lhu	s8,10(sp)
     828:	17000c93          	li	s9,368
     82c:	001c0c13          	addi	s8,s8,1
     830:	01811523          	sh	s8,10(sp)
     834:	00dcc463          	blt	s9,a3,83c <.L355>
     838:	6ac0606f          	j	6ee4 <.L351>

0000083c <.L355>:
     83c:	00c15c03          	lhu	s8,12(sp)
     840:	00cc0c13          	addi	s8,s8,12
     844:	010c1c13          	slli	s8,s8,0x10
     848:	410c5c13          	srai	s8,s8,0x10

0000084c <.L352>:
     84c:	01811623          	sh	s8,12(sp)
     850:	e9900c13          	li	s8,-359
     854:	0185d463          	bge	a1,s8,85c <.L372>
     858:	2f50206f          	j	334c <.L368>

0000085c <.L372>:
     85c:	03d00c13          	li	s8,61
     860:	00fc5463          	bge	s8,a5,868 <.L372+0xc>
     864:	6b00606f          	j	6f14 <.L371>
     868:	03800c13          	li	s8,56
     86c:	00ec5463          	bge	s8,a4,874 <.L372+0x18>
     870:	5c40606f          	j	6e34 <.L370>
     874:	00e15c03          	lhu	s8,14(sp)
     878:	ffac0c13          	addi	s8,s8,-6
     87c:	010c1c13          	slli	s8,s8,0x10
     880:	410c5c13          	srai	s8,s8,0x10

00000884 <.L375>:
     884:	01811723          	sh	s8,14(sp)
     888:	0a900c13          	li	s8,169
     88c:	01ec5463          	bge	s8,t5,894 <.L2827>
     890:	2f50206f          	j	3384 <.L378>

00000894 <.L2827>:
     894:	01d00c13          	li	s8,29
     898:	010c5463          	bge	s8,a6,8a0 <.L2827+0xc>
     89c:	7710506f          	j	680c <.L379>
     8a0:	11800c13          	li	s8,280
     8a4:	012c5463          	bge	s8,s2,8ac <.L2827+0x18>
     8a8:	1e10906f          	j	a288 <.L380>
     8ac:	00815c03          	lhu	s8,8(sp)
     8b0:	0b500c93          	li	s9,181
     8b4:	00bc0c13          	addi	s8,s8,11
     8b8:	01811423          	sh	s8,8(sp)
     8bc:	006cd463          	bge	s9,t1,8c4 <.L2566>
     8c0:	7750506f          	j	6834 <.L381>

000008c4 <.L2566>:
     8c4:	00a00c13          	li	s8,10
     8c8:	011c4463          	blt	s8,a7,8d0 <.L388>
     8cc:	7850506f          	j	6850 <.L382>

000008d0 <.L388>:
     8d0:	00a15c03          	lhu	s8,10(sp)
     8d4:	ff7c0c13          	addi	s8,s8,-9
     8d8:	010c1c13          	slli	s8,s8,0x10
     8dc:	410c5c13          	srai	s8,s8,0x10

000008e0 <.L383>:
     8e0:	01811523          	sh	s8,10(sp)
     8e4:	06300c13          	li	s8,99
     8e8:	00dc5463          	bge	s8,a3,8f0 <.L2828>
     8ec:	3090206f          	j	33f4 <.L400>

000008f0 <.L2828>:
     8f0:	f2100c13          	li	s8,-223
     8f4:	0185c463          	blt	a1,s8,8fc <.L2828+0xc>
     8f8:	7b50506f          	j	68ac <.L401>
     8fc:	21800c13          	li	s8,536
     900:	016c5463          	bge	s8,s6,908 <.L2828+0x18>
     904:	1c90906f          	j	a2cc <.L402>
     908:	00c15c03          	lhu	s8,12(sp)
     90c:	ff6c0c13          	addi	s8,s8,-10
     910:	010c1c13          	slli	s8,s8,0x10
     914:	410c5c13          	srai	s8,s8,0x10

00000918 <.L403>:
     918:	01811623          	sh	s8,12(sp)
     91c:	03b00c13          	li	s8,59
     920:	00fc5463          	bge	s8,a5,928 <.L2829>
     924:	3090206f          	j	342c <.L411>

00000928 <.L2829>:
     928:	cd800c13          	li	s8,-808
     92c:	0185c463          	blt	a1,s8,934 <.L2829+0xc>
     930:	4250706f          	j	8554 <.L405>
     934:	00e15c03          	lhu	s8,14(sp)
     938:	008c0c13          	addi	s8,s8,8
     93c:	010c1c13          	slli	s8,s8,0x10
     940:	410c5c13          	srai	s8,s8,0x10

00000944 <.L412>:
     944:	01811723          	sh	s8,14(sp)
     948:	0a900c13          	li	s8,169
     94c:	01ec5463          	bge	s8,t5,954 <.L2830>
     950:	3150206f          	j	3464 <.L415>

00000954 <.L2830>:
     954:	01d00c13          	li	s8,29
     958:	010c4463          	blt	s8,a6,960 <.L2830+0xc>
     95c:	0180606f          	j	6974 <.L418>
     960:	01c51c83          	lh	s9,28(a0)
     964:	03800c13          	li	s8,56
     968:	019c5463          	bge	s8,s9,970 <.L2830+0x1c>
     96c:	3480a06f          	j	acb4 <.L421>
     970:	00815c03          	lhu	s8,8(sp)
     974:	ff8c0c13          	addi	s8,s8,-8
     978:	010c1c13          	slli	s8,s8,0x10
     97c:	410c5c13          	srai	s8,s8,0x10

00000980 <.L420>:
     980:	01811423          	sh	s8,8(sp)
     984:	03900c13          	li	s8,57
     988:	00ec5463          	bge	s8,a4,990 <.L2831>
     98c:	3110206f          	j	349c <.L424>

00000990 <.L2831>:
     990:	00700c13          	li	s8,7
     994:	011c5463          	bge	s8,a7,99c <.L2831+0xc>
     998:	48d0206f          	j	3624 <.L425>
     99c:	00a00c13          	li	s8,10
     9a0:	01dc5463          	bge	s8,t4,9a8 <.L2831+0x18>
     9a4:	6d90806f          	j	987c <.L426>
     9a8:	00a15c03          	lhu	s8,10(sp)
     9ac:	06300c93          	li	s9,99
     9b0:	ffcc0c13          	addi	s8,s8,-4
     9b4:	01811523          	sh	s8,10(sp)
     9b8:	00dcc463          	blt	s9,a3,9c0 <.L427>
     9bc:	48d0206f          	j	3648 <.L432>

000009c0 <.L427>:
     9c0:	ed000c13          	li	s8,-304
     9c4:	018ac463          	blt	s5,s8,9cc <.L433>
     9c8:	0b10506f          	j	6278 <.L430>

000009cc <.L433>:
     9cc:	00c15c03          	lhu	s8,12(sp)
     9d0:	008c0c13          	addi	s8,s8,8
     9d4:	010c1c13          	slli	s8,s8,0x10
     9d8:	410c5c13          	srai	s8,s8,0x10

000009dc <.L431>:
     9dc:	01811623          	sh	s8,12(sp)
     9e0:	e2500c13          	li	s8,-475
     9e4:	01844463          	blt	s0,s8,9ec <.L446>
     9e8:	4990206f          	j	3680 <.L443>

000009ec <.L446>:
     9ec:	25500c13          	li	s8,597
     9f0:	009c4463          	blt	s8,s1,9f8 <.L446+0xc>
     9f4:	17d0506f          	j	6370 <.L444>
     9f8:	c2600c13          	li	s8,-986
     9fc:	0185c463          	blt	a1,s8,a04 <.L446+0x18>
     a00:	1050506f          	j	6304 <.L445>
     a04:	00e15c03          	lhu	s8,14(sp)
     a08:	008c0c13          	addi	s8,s8,8

00000a0c <.L2571>:
     a0c:	01811723          	sh	s8,14(sp)

00000a10 <.L451>:
     a10:	02200c13          	li	s8,34
     a14:	010c5463          	bge	s8,a6,a1c <.L2904>
     a18:	1050506f          	j	631c <.L457>

00000a1c <.L2904>:
     a1c:	0f600c13          	li	s8,246
     a20:	006c5463          	bge	s8,t1,a28 <.L2904+0xc>
     a24:	6050806f          	j	9828 <.L458>
     a28:	00815c03          	lhu	s8,8(sp)
     a2c:	002c0c13          	addi	s8,s8,2
     a30:	010c1c13          	slli	s8,s8,0x10
     a34:	410c5c13          	srai	s8,s8,0x10

00000a38 <.L459>:
     a38:	01811423          	sh	s8,8(sp)
     a3c:	0b500c13          	li	s8,181
     a40:	006c5463          	bge	s8,t1,a48 <.L465>
     a44:	1010506f          	j	6344 <.L460>

00000a48 <.L465>:
     a48:	00200c13          	li	s8,2
     a4c:	01cc5463          	bge	s8,t3,a54 <.L465+0xc>
     a50:	0690506f          	j	62b8 <.L468>
     a54:	00b00c13          	li	s8,11
     a58:	013c5463          	bge	s8,s3,a60 <.L465+0x18>
     a5c:	5a50806f          	j	9800 <.L469>
     a60:	00a15c03          	lhu	s8,10(sp)
     a64:	ff9c0c13          	addi	s8,s8,-7
     a68:	010c1c13          	slli	s8,s8,0x10
     a6c:	410c5c13          	srai	s8,s8,0x10

00000a70 <.L470>:
     a70:	01811523          	sh	s8,10(sp)
     a74:	2be00c13          	li	s8,702
     a78:	00dc5463          	bge	s8,a3,a80 <.L470+0x10>
     a7c:	3ad0406f          	j	5628 <.L479>
     a80:	0a300c13          	li	s8,163
     a84:	00ec5463          	bge	s8,a4,a8c <.L470+0x1c>
     a88:	7100806f          	j	9198 <.L480>
     a8c:	04d00c13          	li	s8,77
     a90:	00dc5463          	bge	s8,a3,a98 <.L470+0x28>
     a94:	3690a06f          	j	b5fc <.L481>
     a98:	00c15c03          	lhu	s8,12(sp)
     a9c:	e0800c93          	li	s9,-504
     aa0:	ffbc0c13          	addi	s8,s8,-5
     aa4:	01811623          	sh	s8,12(sp)
     aa8:	01944463          	blt	s0,s9,ab0 <.L482>
     aac:	67d0506f          	j	6928 <.L2289>

00000ab0 <.L482>:
     ab0:	25500c13          	li	s8,597
     ab4:	009c5463          	bge	s8,s1,abc <.L482+0xc>
     ab8:	4c50606f          	j	777c <.L499>
     abc:	df100c13          	li	s8,-527
     ac0:	018a4463          	blt	s4,s8,ac8 <.L482+0x18>
     ac4:	2290906f          	j	a4ec <.L500>
     ac8:	00e15c03          	lhu	s8,14(sp)
     acc:	0a900c93          	li	s9,169
     ad0:	ff9c0c13          	addi	s8,s8,-7
     ad4:	01811723          	sh	s8,14(sp)
     ad8:	01ecc463          	blt	s9,t5,ae0 <.L482+0x30>
     adc:	19d0306f          	j	4478 <.L501>
     ae0:	01e00c13          	li	s8,30
     ae4:	013c5463          	bge	s8,s3,aec <.L502>
     ae8:	1350306f          	j	441c <.L2756>

00000aec <.L502>:
     aec:	00815c03          	lhu	s8,8(sp)
     af0:	34b00c93          	li	s9,843
     af4:	ffcc0c13          	addi	s8,s8,-4
     af8:	01811423          	sh	s8,8(sp)
     afc:	00ecc463          	blt	s9,a4,b04 <.L2575>
     b00:	1350306f          	j	4434 <.L516>

00000b04 <.L2575>:
     b04:	00001c37          	lui	s8,0x1
     b08:	a9dc0c13          	addi	s8,s8,-1379 # a9d <.L470+0x2d>
     b0c:	48dc52e3          	bge	s8,a3,1790 <.L517>

00000b10 <.L518>:
     b10:	00b00c13          	li	s8,11
     b14:	01cc5463          	bge	s8,t3,b1c <.L518+0xc>
     b18:	3680a06f          	j	ae80 <.L534>
     b1c:	00a15c03          	lhu	s8,10(sp)
     b20:	fffc0c13          	addi	s8,s8,-1
     b24:	010c1c13          	slli	s8,s8,0x10
     b28:	010c5c13          	srli	s8,s8,0x10

00000b2c <.L535>:
     b2c:	01811523          	sh	s8,10(sp)
     b30:	3fa00c13          	li	s8,1018
     b34:	00ec4463          	blt	s8,a4,b3c <.L535+0x10>
     b38:	6400806f          	j	9178 <.L526>
     b3c:	00001c37          	lui	s8,0x1
     b40:	b13c0c13          	addi	s8,s8,-1261 # b13 <.L518+0x3>
     b44:	00dc4463          	blt	s8,a3,b4c <.L535+0x20>
     b48:	1a50306f          	j	44ec <.L532>
     b4c:	00c15c03          	lhu	s8,12(sp)
     b50:	009c0c13          	addi	s8,s8,9
     b54:	010c1c13          	slli	s8,s8,0x10
     b58:	410c5c13          	srai	s8,s8,0x10

00000b5c <.L538>:
     b5c:	01811623          	sh	s8,12(sp)
     b60:	e9900c13          	li	s8,-359
     b64:	4785d6e3          	bge	a1,s8,17d0 <.L541>

00000b68 <.L2775>:
     b68:	20200c13          	li	s8,514
     b6c:	016c5463          	bge	s8,s6,b74 <.L2775+0xc>
     b70:	0c80606f          	j	6c38 <.L542>
     b74:	14600c13          	li	s8,326
     b78:	007c4863          	blt	s8,t2,b88 <.L543>
     b7c:	00e15c03          	lhu	s8,14(sp)
     b80:	009c0c13          	addi	s8,s8,9
     b84:	01811723          	sh	s8,14(sp)

00000b88 <.L543>:
     b88:	3c084ee3          	bltz	a6,1764 <.L2757>

00000b8c <.L546>:
     b8c:	00095463          	bgez	s2,b94 <.L546+0x8>
     b90:	0a40806f          	j	8c34 <.L2758>
     b94:	02200c13          	li	s8,34
     b98:	010c4463          	blt	s8,a6,ba0 <.L546+0x14>
     b9c:	35c0506f          	j	5ef8 <.L2577>
     ba0:	00815c03          	lhu	s8,8(sp)
     ba4:	ff7c0c13          	addi	s8,s8,-9
     ba8:	010c1c13          	slli	s8,s8,0x10
     bac:	410c5c13          	srai	s8,s8,0x10

00000bb0 <.L552>:
     bb0:	01811423          	sh	s8,8(sp)
     bb4:	0f000c13          	li	s8,240
     bb8:	446c5ce3          	bge	s8,t1,1810 <.L549>
     bbc:	d6c00c13          	li	s8,-660
     bc0:	018ad463          	bge	s5,s8,bc8 <.L552+0x18>
     bc4:	10c0806f          	j	8cd0 <.L2759>
     bc8:	18000c13          	li	s8,384
     bcc:	009c5863          	bge	s8,s1,bdc <.L567>
     bd0:	00a15c03          	lhu	s8,10(sp)
     bd4:	007c0c13          	addi	s8,s8,7

00000bd8 <.L2578>:
     bd8:	01811523          	sh	s8,10(sp)

00000bdc <.L567>:
     bdc:	17000c13          	li	s8,368
     be0:	00dc5463          	bge	s8,a3,be8 <.L563>
     be4:	4090406f          	j	57ec <.L575>

00000be8 <.L563>:
     be8:	f5200c13          	li	s8,-174
     bec:	0185c463          	blt	a1,s8,bf4 <.L563+0xc>
     bf0:	73c0606f          	j	732c <.L576>
     bf4:	03200c13          	li	s8,50
     bf8:	00fc5463          	bge	s8,a5,c00 <.L563+0x18>
     bfc:	5fc0906f          	j	a1f8 <.L577>
     c00:	00c15c03          	lhu	s8,12(sp)
     c04:	002c0c13          	addi	s8,s8,2
     c08:	010c1c13          	slli	s8,s8,0x10
     c0c:	010c5c13          	srli	s8,s8,0x10

00000c10 <.L578>:
     c10:	01811623          	sh	s8,12(sp)
     c14:	e0800c13          	li	s8,-504
     c18:	01845463          	bge	s0,s8,c20 <.L581>
     c1c:	4010406f          	j	581c <.L584>

00000c20 <.L581>:
     c20:	0de00c13          	li	s8,222
     c24:	012c5463          	bge	s8,s2,c2c <.L581+0xc>
     c28:	1fd0706f          	j	8624 <.L586>
     c2c:	02600c13          	li	s8,38
     c30:	42dc4ee3          	blt	s8,a3,186c <.L585>

00000c34 <.L607>:
     c34:	0a900c13          	li	s8,169
     c38:	45ec54e3          	bge	s8,t5,1880 <.L600>

00000c3c <.L610>:
     c3c:	10700c13          	li	s8,263
     c40:	007c4463          	blt	s8,t2,c48 <.L610+0xc>
     c44:	29d0506f          	j	66e0 <.L603>
     c48:	e4300c13          	li	s8,-445
     c4c:	01845463          	bge	s0,s8,c54 <.L617>
     c50:	4010406f          	j	5850 <.L602>

00000c54 <.L617>:
     c54:	00815c03          	lhu	s8,8(sp)
     c58:	004c0c13          	addi	s8,s8,4
     c5c:	01811423          	sh	s8,8(sp)

00000c60 <.L614>:
     c60:	03900c13          	li	s8,57
     c64:	44ec42e3          	blt	s8,a4,18a8 <.L618>

00000c68 <.L2777>:
     c68:	00900c13          	li	s8,9
     c6c:	011c5463          	bge	s8,a7,c74 <.L2777+0xc>
     c70:	1c50506f          	j	6634 <.L619>
     c74:	fff00c13          	li	s8,-1
     c78:	01875463          	bge	a4,s8,c80 <.L2777+0x18>
     c7c:	64c0a06f          	j	b2c8 <.L2760>
     c80:	00a15c03          	lhu	s8,10(sp)
     c84:	08900c93          	li	s9,137
     c88:	006c0c13          	addi	s8,s8,6
     c8c:	01811523          	sh	s8,10(sp)
     c90:	00dcd463          	bge	s9,a3,c98 <.L621>
     c94:	5990606f          	j	7a2c <.L2582>

00000c98 <.L621>:
     c98:	03700c13          	li	s8,55
     c9c:	00fc5463          	bge	s8,a5,ca4 <.L2274>
     ca0:	1c50506f          	j	6664 <.L634>

00000ca4 <.L2274>:
     ca4:	00c15c03          	lhu	s8,12(sp)
     ca8:	ff7c0c13          	addi	s8,s8,-9
     cac:	01811623          	sh	s8,12(sp)

00000cb0 <.L636>:
     cb0:	03000c13          	li	s8,48
     cb4:	45fc4ae3          	blt	s8,t6,1908 <.L646>

00000cb8 <.L2778>:
     cb8:	00e15c03          	lhu	s8,14(sp)
     cbc:	0a900c93          	li	s9,169
     cc0:	0009d463          	bgez	s3,cc8 <.L2586>
     cc4:	73c0a06f          	j	b400 <.L2761>

00000cc8 <.L2586>:
     cc8:	009c0c13          	addi	s8,s8,9
     ccc:	01811723          	sh	s8,14(sp)
     cd0:	45ecdce3          	bge	s9,t5,1928 <.L648>

00000cd4 <.L2584>:
     cd4:	01e00c13          	li	s8,30
     cd8:	013c5463          	bge	s8,s3,ce0 <.L652>
     cdc:	4e00506f          	j	61bc <.L653>

00000ce0 <.L652>:
     ce0:	00815c03          	lhu	s8,8(sp)
     ce4:	fffc0c13          	addi	s8,s8,-1
     ce8:	01811423          	sh	s8,8(sp)

00000cec <.L649>:
     cec:	0b500c13          	li	s8,181
     cf0:	466c40e3          	blt	s8,t1,1950 <.L659>

00000cf4 <.L2779>:
     cf4:	00b00c13          	li	s8,11
     cf8:	011c5463          	bge	s8,a7,d00 <.L2779+0xc>
     cfc:	3e80606f          	j	70e4 <.L660>
     d00:	f8700c13          	li	s8,-121
     d04:	01844463          	blt	s0,s8,d0c <.L2779+0x18>
     d08:	2bd0906f          	j	a7c4 <.L661>
     d0c:	00a15c03          	lhu	s8,10(sp)
     d10:	006c0c13          	addi	s8,s8,6
     d14:	010c1c13          	slli	s8,s8,0x10
     d18:	410c5c13          	srai	s8,s8,0x10

00000d1c <.L662>:
     d1c:	01811523          	sh	s8,10(sp)
     d20:	27a00c13          	li	s8,634
     d24:	46dc40e3          	blt	s8,a3,1984 <.L667>

00000d28 <.L2780>:
     d28:	02200c13          	li	s8,34
     d2c:	01dc5463          	bge	s8,t4,d34 <.L2780+0xc>
     d30:	7280706f          	j	8458 <.L668>
     d34:	ff400c13          	li	s8,-12
     d38:	01864463          	blt	a2,s8,d40 <.L2780+0x18>
     d3c:	70d0806f          	j	9c48 <.L669>
     d40:	00c15c03          	lhu	s8,12(sp)
     d44:	007c0c13          	addi	s8,s8,7
     d48:	01811623          	sh	s8,12(sp)

00000d4c <.L670>:
     d4c:	d8200c13          	li	s8,-638
     d50:	4585dee3          	bge	a1,s8,19ac <.L673>

00000d54 <.L2781>:
     d54:	25500c13          	li	s8,597
     d58:	009c5463          	bge	s8,s1,d60 <.L2781+0xc>
     d5c:	4900506f          	j	61ec <.L674>
     d60:	47700c13          	li	s8,1143
     d64:	007c5463          	bge	s8,t2,d6c <.L2781+0x18>
     d68:	3f10806f          	j	9958 <.L675>
     d6c:	00e15c03          	lhu	s8,14(sp)
     d70:	00ac0c13          	addi	s8,s8,10
     d74:	010c1c13          	slli	s8,s8,0x10
     d78:	410c5c13          	srai	s8,s8,0x10

00000d7c <.L676>:
     d7c:	01811723          	sh	s8,14(sp)
     d80:	44084ee3          	bltz	a6,19dc <.L2269>

00000d84 <.L682>:
     d84:	00a00c13          	li	s8,10
     d88:	012c5463          	bge	s8,s2,d90 <.L682+0xc>
     d8c:	1a80506f          	j	5f34 <.L693>
     d90:	02e00c13          	li	s8,46
     d94:	01dc5463          	bge	s8,t4,d9c <.L682+0x18>
     d98:	7000806f          	j	9498 <.L694>
     d9c:	00815c03          	lhu	s8,8(sp)
     da0:	006c0c13          	addi	s8,s8,6
     da4:	010c1c13          	slli	s8,s8,0x10
     da8:	410c5c13          	srai	s8,s8,0x10

00000dac <.L692>:
     dac:	01811423          	sh	s8,8(sp)
     db0:	07200c13          	li	s8,114
     db4:	00ec5463          	bge	s8,a4,dbc <.L685>
     db8:	6e00406f          	j	5498 <.L696>

00000dbc <.L685>:
     dbc:	ffa00c13          	li	s8,-6
     dc0:	01865463          	bge	a2,s8,dc8 <.L685+0xc>
     dc4:	0500706f          	j	7e14 <.L688>
     dc8:	ed100c13          	li	s8,-303
     dcc:	018ac463          	blt	s5,s8,dd4 <.L685+0x18>
     dd0:	09c0a06f          	j	ae6c <.L698>
     dd4:	00a15c03          	lhu	s8,10(sp)
     dd8:	00ac0c13          	addi	s8,s8,10
     ddc:	010c1c13          	slli	s8,s8,0x10
     de0:	010c5c13          	srli	s8,s8,0x10

00000de4 <.L699>:
     de4:	01811523          	sh	s8,10(sp)

00000de8 <.L703>:
     de8:	01c51c83          	lh	s9,28(a0)
     dec:	03c00c13          	li	s8,60
     df0:	019c5463          	bge	s8,s9,df8 <.L703+0x10>
     df4:	2a90706f          	j	889c <.L708>
     df8:	03600c13          	li	s8,54
     dfc:	01fc5463          	bge	s8,t6,e04 <.L703+0x1c>
     e00:	7100906f          	j	a510 <.L709>
     e04:	00c15c03          	lhu	s8,12(sp)
     e08:	ffec0c13          	addi	s8,s8,-2
     e0c:	010c1c13          	slli	s8,s8,0x10
     e10:	410c5c13          	srai	s8,s8,0x10

00000e14 <.L706>:
     e14:	01811623          	sh	s8,12(sp)
     e18:	03900c13          	li	s8,57
     e1c:	44fc44e3          	blt	s8,a5,1a64 <.L710>

00000e20 <.L2783>:
     e20:	feb00c13          	li	s8,-21
     e24:	01834463          	blt	t1,s8,e2c <.L2783+0xc>
     e28:	2890706f          	j	88b0 <.L711>
     e2c:	07700c13          	li	s8,119
     e30:	007c5463          	bge	s8,t2,e38 <.L2783+0x18>
     e34:	4880206f          	j	32bc <.L712>
     e38:	00e15c03          	lhu	s8,14(sp)
     e3c:	0a900c93          	li	s9,169
     e40:	ffac0c13          	addi	s8,s8,-6
     e44:	01811723          	sh	s8,14(sp)
     e48:	01ecc463          	blt	s9,t5,e50 <.L2783+0x30>
     e4c:	5ad0506f          	j	6bf8 <.L2730>
     e50:	02400c13          	li	s8,36
     e54:	007c5463          	bge	s8,t2,e5c <.L729>
     e58:	4880206f          	j	32e0 <.L714>

00000e5c <.L729>:
     e5c:	00815c03          	lhu	s8,8(sp)
     e60:	004c0c13          	addi	s8,s8,4
     e64:	01811423          	sh	s8,8(sp)

00000e68 <.L715>:
     e68:	00200c13          	li	s8,2
     e6c:	01cc5463          	bge	s8,t3,e74 <.L715+0xc>
     e70:	5ad0506f          	j	6c1c <.L736>
     e74:	03b00c13          	li	s8,59
     e78:	00fc4463          	blt	s8,a5,e80 <.L715+0x18>
     e7c:	4a80906f          	j	a324 <.L2265>
     e80:	00a15c03          	lhu	s8,10(sp)
     e84:	ff9c0c13          	addi	s8,s8,-7
     e88:	010c1c13          	slli	s8,s8,0x10
     e8c:	410c5c13          	srai	s8,s8,0x10

00000e90 <.L745>:
     e90:	01811523          	sh	s8,10(sp)
     e94:	0dd00c13          	li	s8,221
     e98:	00dc4463          	blt	s8,a3,ea0 <.L745+0x10>
     e9c:	2e40406f          	j	5180 <.L749>
     ea0:	25b00c13          	li	s8,603
     ea4:	44ec5ae3          	bge	s8,a4,1af8 <.L750>
     ea8:	ddb00c13          	li	s8,-549
     eac:	018ad463          	bge	s5,s8,eb4 <.L745+0x24>
     eb0:	7dd0306f          	j	4e8c <.L772>
     eb4:	00c15c03          	lhu	s8,12(sp)
     eb8:	03e00c93          	li	s9,62
     ebc:	ff7c0c13          	addi	s8,s8,-9
     ec0:	01811623          	sh	s8,12(sp)
     ec4:	46fcd2e3          	bge	s9,a5,1b28 <.L751>
     ec8:	fec00c13          	li	s8,-20
     ecc:	01864463          	blt	a2,s8,ed4 <.L780>
     ed0:	5250706f          	j	8bf4 <.L2762>

00000ed4 <.L780>:
     ed4:	08900c13          	li	s8,137
     ed8:	012c5463          	bge	s8,s2,ee0 <.L780+0xc>
     edc:	1d40906f          	j	a0b0 <.L782>
     ee0:	00e15c03          	lhu	s8,14(sp)
     ee4:	ffe00c93          	li	s9,-2
     ee8:	ff9c0c13          	addi	s8,s8,-7
     eec:	01811723          	sh	s8,14(sp)
     ef0:	01985463          	bge	a6,s9,ef8 <.L784>
     ef4:	7010306f          	j	4df4 <.L783>

00000ef8 <.L784>:
     ef8:	00815c03          	lhu	s8,8(sp)
     efc:	002c0c13          	addi	s8,s8,2
     f00:	010c1c13          	slli	s8,s8,0x10
     f04:	410c5c13          	srai	s8,s8,0x10

00000f08 <.L778>:
     f08:	01811423          	sh	s8,8(sp)
     f0c:	03300c13          	li	s8,51
     f10:	47fc5ae3          	bge	s8,t6,1b84 <.L788>

00000f14 <.L794>:
     f14:	01400c13          	li	s8,20
     f18:	010c4463          	blt	s8,a6,f20 <.L794+0xc>
     f1c:	7090306f          	j	4e24 <.L789>
     f20:	00b00c13          	li	s8,11
     f24:	011c5463          	bge	s8,a7,f2c <.L794+0x18>
     f28:	7800806f          	j	96a8 <.L804>
     f2c:	00a15c03          	lhu	s8,10(sp)
     f30:	ffc00c93          	li	s9,-4
     f34:	005c0c13          	addi	s8,s8,5
     f38:	01811523          	sh	s8,10(sp)
     f3c:	47964ae3          	blt	a2,s9,1bb0 <.L797>

00000f40 <.L812>:
     f40:	00c15c03          	lhu	s8,12(sp)
     f44:	03e00c93          	li	s9,62
     f48:	ff7c0c13          	addi	s8,s8,-9
     f4c:	01811623          	sh	s8,12(sp)
     f50:	00fcc463          	blt	s9,a5,f58 <.L817>
     f54:	2040406f          	j	5158 <.L816>

00000f58 <.L817>:
     f58:	00e15c03          	lhu	s8,14(sp)
     f5c:	009c0c13          	addi	s8,s8,9
     f60:	010c1c13          	slli	s8,s8,0x10
     f64:	410c5c13          	srai	s8,s8,0x10

00000f68 <.L820>:
     f68:	01811723          	sh	s8,14(sp)
     f6c:	01f00c13          	li	s8,31
     f70:	493c4ee3          	blt	s8,s3,1c0c <.L822>

00000f74 <.L2785>:
     f74:	01c04463          	bgtz	t3,f7c <.L2785+0x8>
     f78:	0b80806f          	j	9030 <.L2763>
     f7c:	00300c13          	li	s8,3
     f80:	01cc4463          	blt	s8,t3,f88 <.L2785+0x14>
     f84:	1500606f          	j	70d4 <.L824>
     f88:	00815c03          	lhu	s8,8(sp)
     f8c:	001c0c13          	addi	s8,s8,1
     f90:	01811423          	sh	s8,8(sp)

00000f94 <.L825>:
     f94:	1ac00c13          	li	s8,428
     f98:	496c48e3          	blt	s8,s6,1c28 <.L826>

00000f9c <.L2786>:
     f9c:	ff900c13          	li	s8,-7
     fa0:	01864463          	blt	a2,s8,fa8 <.L2786+0xc>
     fa4:	4cd0506f          	j	6c70 <.L827>
     fa8:	00100c13          	li	s8,1
     fac:	01cc4463          	blt	s8,t3,fb4 <.L2786+0x18>
     fb0:	3780a06f          	j	b328 <.L2764>
     fb4:	00a15c03          	lhu	s8,10(sp)
     fb8:	ff8c0c13          	addi	s8,s8,-8
     fbc:	010c1c13          	slli	s8,s8,0x10
     fc0:	410c5c13          	srai	s8,s8,0x10

00000fc4 <.L829>:
     fc4:	01811523          	sh	s8,10(sp)
     fc8:	27a00c13          	li	s8,634
     fcc:	48dc48e3          	blt	s8,a3,1c5c <.L837>

00000fd0 <.L2787>:
     fd0:	02200c13          	li	s8,34
     fd4:	01dc5463          	bge	s8,t4,fdc <.L2787+0xc>
     fd8:	4c90506f          	j	6ca0 <.L833>
     fdc:	ff000c13          	li	s8,-16
     fe0:	01865863          	bge	a2,s8,ff0 <.L838>
     fe4:	00c15c03          	lhu	s8,12(sp)
     fe8:	00ac0c13          	addi	s8,s8,10
     fec:	01811623          	sh	s8,12(sp)

00000ff0 <.L838>:
     ff0:	d2a00c13          	li	s8,-726
     ff4:	0185d463          	bge	a1,s8,ffc <.L840>
     ff8:	19d0406f          	j	5994 <.L850>

00000ffc <.L840>:
     ffc:	eea00c13          	li	s8,-278
    1000:	018a4463          	blt	s4,s8,1008 <.L840+0xc>
    1004:	4dd0506f          	j	6ce0 <.L845>
    1008:	02700c13          	li	s8,39
    100c:	48dc46e3          	blt	s8,a3,1c98 <.L852>

00001010 <.L846>:
    1010:	0a900c13          	li	s8,169
    1014:	49ec5ce3          	bge	s8,t5,1cac <.L860>

00001018 <.L2788>:
    1018:	01e00c13          	li	s8,30
    101c:	013c5463          	bge	s8,s3,1024 <.L2788+0xc>
    1020:	4ed0506f          	j	6d0c <.L858>
    1024:	03c00c13          	li	s8,60
    1028:	00fc4463          	blt	s8,a5,1030 <.L2788+0x18>
    102c:	5480706f          	j	8574 <.L864>
    1030:	00815c03          	lhu	s8,8(sp)
    1034:	005c0c13          	addi	s8,s8,5
    1038:	01811423          	sh	s8,8(sp)

0000103c <.L859>:
    103c:	0b500c13          	li	s8,181
    1040:	486c4ae3          	blt	s8,t1,1cd4 <.L865>

00001044 <.L2790>:
    1044:	00300c13          	li	s8,3
    1048:	01cc4463          	blt	s8,t3,1050 <.L2790+0xc>
    104c:	3d40506f          	j	6420 <.L2261>
    1050:	47000c13          	li	s8,1136
    1054:	007c5463          	bge	s8,t2,105c <.L2790+0x18>
    1058:	4710906f          	j	acc8 <.L875>
    105c:	00a15c03          	lhu	s8,10(sp)
    1060:	ff8c0c13          	addi	s8,s8,-8
    1064:	01811523          	sh	s8,10(sp)

00001068 <.L874>:
    1068:	f6a00c13          	li	s8,-150
    106c:	4985c6e3          	blt	a1,s8,1cf8 <.L878>
    1070:	f5b00c13          	li	s8,-165
    1074:	0182d463          	bge	t0,s8,107c <.L874+0x14>
    1078:	4140506f          	j	648c <.L871>
    107c:	0ed00c13          	li	s8,237
    1080:	00dc4463          	blt	s8,a3,1088 <.L874+0x20>
    1084:	3c80506f          	j	644c <.L894>
    1088:	00c15c03          	lhu	s8,12(sp)
    108c:	02f00c93          	li	s9,47
    1090:	003c0c13          	addi	s8,s8,3
    1094:	01811623          	sh	s8,12(sp)
    1098:	490cc6e3          	blt	s9,a6,1d24 <.L889>

0000109c <.L888>:
    109c:	03800c13          	li	s8,56
    10a0:	01fc5463          	bge	s8,t6,10a8 <.L890>
    10a4:	3c80506f          	j	646c <.L881>

000010a8 <.L890>:
    10a8:	00e15c03          	lhu	s8,14(sp)
    10ac:	ff8c0c13          	addi	s8,s8,-8
    10b0:	010c1c13          	slli	s8,s8,0x10
    10b4:	410c5c13          	srai	s8,s8,0x10

000010b8 <.L896>:
    10b8:	01811723          	sh	s8,14(sp)
    10bc:	ec600c13          	li	s8,-314
    10c0:	498446e3          	blt	s0,s8,1d4c <.L904>

000010c4 <.L2791>:
    10c4:	ebf00c13          	li	s8,-321
    10c8:	0185c463          	blt	a1,s8,10d0 <.L2791+0xc>
    10cc:	5f10706f          	j	8ebc <.L908>
    10d0:	03c00c13          	li	s8,60
    10d4:	00fc5463          	bge	s8,a5,10dc <.L2595>
    10d8:	6840806f          	j	975c <.L901>

000010dc <.L2595>:
    10dc:	00815c03          	lhu	s8,8(sp)
    10e0:	006c0c13          	addi	s8,s8,6
    10e4:	01811423          	sh	s8,8(sp)

000010e8 <.L906>:
    10e8:	03400c13          	li	s8,52
    10ec:	49dc46e3          	blt	s8,t4,1d78 <.L909>

000010f0 <.L2793>:
    10f0:	ff800c13          	li	s8,-8
    10f4:	01864463          	blt	a2,s8,10fc <.L2793+0xc>
    10f8:	6340606f          	j	772c <.L910>
    10fc:	01e00c13          	li	s8,30
    1100:	011c5463          	bge	s8,a7,1108 <.L2793+0x18>
    1104:	6480606f          	j	774c <.L911>
    1108:	00a15c03          	lhu	s8,10(sp)
    110c:	ffdc0c13          	addi	s8,s8,-3
    1110:	010c1c13          	slli	s8,s8,0x10
    1114:	410c5c13          	srai	s8,s8,0x10

00001118 <.L912>:
    1118:	01811523          	sh	s8,10(sp)
    111c:	03300c13          	li	s8,51
    1120:	00fc4463          	blt	s8,a5,1128 <.L914>
    1124:	1d40406f          	j	52f8 <.L923>

00001128 <.L914>:
    1128:	d7800c13          	li	s8,-648
    112c:	018a5463          	bge	s4,s8,1134 <.L914+0xc>
    1130:	0210606f          	j	7950 <.L927>
    1134:	01500c93          	li	s9,21
    1138:	47dccee3          	blt	s9,t4,1db4 <.L920>
    113c:	00c15c03          	lhu	s8,12(sp)
    1140:	03900d13          	li	s10,57
    1144:	001c0c13          	addi	s8,s8,1
    1148:	01811623          	sh	s8,12(sp)
    114c:	48fd44e3          	blt	s10,a5,1dd4 <.L941>
    1150:	006cc463          	blt	s9,t1,1158 <.L933>
    1154:	1580206f          	j	32ac <.L934>

00001158 <.L933>:
    1158:	27700c13          	li	s8,631
    115c:	012c5463          	bge	s8,s2,1164 <.L933+0xc>
    1160:	5380806f          	j	9698 <.L942>
    1164:	00e15c03          	lhu	s8,14(sp)
    1168:	ff7c0c13          	addi	s8,s8,-9
    116c:	01811723          	sh	s8,14(sp)

00001170 <.L940>:
    1170:	00c00c13          	li	s8,12
    1174:	493c44e3          	blt	s8,s3,1dfc <.L935>

00001178 <.L2794>:
    1178:	1b000c13          	li	s8,432
    117c:	009c5463          	bge	s8,s1,1184 <.L2794+0xc>
    1180:	5340706f          	j	86b4 <.L946>
    1184:	10600c13          	li	s8,262
    1188:	00ec4463          	blt	s8,a4,1190 <.L2794+0x18>
    118c:	51d0506f          	j	6ea8 <.L952>
    1190:	00815c03          	lhu	s8,8(sp)
    1194:	03300c93          	li	s9,51
    1198:	008c0c13          	addi	s8,s8,8
    119c:	01811423          	sh	s8,8(sp)
    11a0:	01fcc463          	blt	s9,t6,11a8 <.L949>
    11a4:	52c0306f          	j	46d0 <.L956>

000011a8 <.L949>:
    11a8:	03b00c13          	li	s8,59
    11ac:	00fc5463          	bge	s8,a5,11b4 <.L949+0xc>
    11b0:	7c00906f          	j	a970 <.L973>
    11b4:	00a15c03          	lhu	s8,10(sp)
    11b8:	005c0c13          	addi	s8,s8,5
    11bc:	010c1c13          	slli	s8,s8,0x10
    11c0:	410c5c13          	srai	s8,s8,0x10

000011c4 <.L969>:
    11c4:	01811523          	sh	s8,10(sp)
    11c8:	03900c13          	li	s8,57
    11cc:	00dc5463          	bge	s8,a3,11d4 <.L960>
    11d0:	4a50506f          	j	6e74 <.L970>

000011d4 <.L960>:
    11d4:	01300c13          	li	s8,19
    11d8:	491c44e3          	blt	s8,a7,1e60 <.L974>

000011dc <.L2795>:
    11dc:	20f00c13          	li	s8,527
    11e0:	009c5463          	bge	s8,s1,11e8 <.L2795+0xc>
    11e4:	7640906f          	j	a948 <.L975>
    11e8:	00c15c03          	lhu	s8,12(sp)
    11ec:	cf000c93          	li	s9,-784
    11f0:	ffec0c13          	addi	s8,s8,-2
    11f4:	01811623          	sh	s8,12(sp)
    11f8:	4995dae3          	bge	a1,s9,1e8c <.L976>

000011fc <.L982>:
    11fc:	e2c00c13          	li	s8,-468
    1200:	0182c463          	blt	t0,s8,1208 <.L982+0xc>
    1204:	7140906f          	j	a918 <.L2765>
    1208:	00e15c03          	lhu	s8,14(sp)
    120c:	ffec0c13          	addi	s8,s8,-2
    1210:	01811723          	sh	s8,14(sp)

00001214 <.L989>:
    1214:	00400c13          	li	s8,4
    1218:	011c4863          	blt	s8,a7,1228 <.L1002>
    121c:	00815c03          	lhu	s8,8(sp)
    1220:	00cc0c13          	addi	s8,s8,12
    1224:	01811423          	sh	s8,8(sp)

00001228 <.L1002>:
    1228:	1ac00c13          	li	s8,428
    122c:	4b6c42e3          	blt	s8,s6,1ed0 <.L1004>

00001230 <.L2796>:
    1230:	00400c13          	li	s8,4
    1234:	01cc5463          	bge	s8,t3,123c <.L2796+0xc>
    1238:	4350406f          	j	5e6c <.L1005>
    123c:	16a00c13          	li	s8,362
    1240:	007c5463          	bge	s8,t2,1248 <.L2796+0x18>
    1244:	4510906f          	j	ae94 <.L1006>
    1248:	00a15c03          	lhu	s8,10(sp)
    124c:	003c0c13          	addi	s8,s8,3
    1250:	010c1c13          	slli	s8,s8,0x10
    1254:	410c5c13          	srai	s8,s8,0x10

00001258 <.L1007>:
    1258:	01811523          	sh	s8,10(sp)
    125c:	03d00c13          	li	s8,61
    1260:	4afc42e3          	blt	s8,a5,1f04 <.L1017>

00001264 <.L1013>:
    1264:	00100c13          	li	s8,1
    1268:	01cc5463          	bge	s8,t3,1270 <.L1013+0xc>
    126c:	42d0406f          	j	5e98 <.L1016>
    1270:	e4e00c13          	li	s8,-434
    1274:	0185c463          	blt	a1,s8,127c <.L1013+0x18>
    1278:	10c0a06f          	j	b384 <.L1018>
    127c:	00c15c03          	lhu	s8,12(sp)
    1280:	004c0c13          	addi	s8,s8,4
    1284:	010c1c13          	slli	s8,s8,0x10
    1288:	410c5c13          	srai	s8,s8,0x10

0000128c <.L1019>:
    128c:	01811623          	sh	s8,12(sp)
    1290:	03900c13          	li	s8,57
    1294:	48fc4ae3          	blt	s8,a5,1f28 <.L1014>
    1298:	03200c13          	li	s8,50
    129c:	01dc4463          	blt	s8,t4,12a4 <.L1019+0x18>
    12a0:	41d0406f          	j	5ebc <.L1026>
    12a4:	ebb00c13          	li	s8,-325
    12a8:	0182c463          	blt	t0,s8,12b0 <.L1019+0x24>
    12ac:	3410906f          	j	adec <.L1029>
    12b0:	00e15c03          	lhu	s8,14(sp)
    12b4:	ffbc0c13          	addi	s8,s8,-5
    12b8:	010c1c13          	slli	s8,s8,0x10
    12bc:	410c5c13          	srai	s8,s8,0x10

000012c0 <.L1028>:
    12c0:	01811723          	sh	s8,14(sp)
    12c4:	01f00c13          	li	s8,31
    12c8:	013c4463          	blt	s8,s3,12d0 <.L1037>
    12cc:	7b50306f          	j	5280 <.L1038>

000012d0 <.L1037>:
    12d0:	00600c13          	li	s8,6
    12d4:	011c5863          	bge	s8,a7,12e4 <.L1043>

000012d8 <.L1046>:
    12d8:	00815c03          	lhu	s8,8(sp)
    12dc:	ff7c0c13          	addi	s8,s8,-9
    12e0:	01811423          	sh	s8,8(sp)

000012e4 <.L1043>:
    12e4:	03100c13          	li	s8,49
    12e8:	01fc5463          	bge	s8,t6,12f0 <.L2893>
    12ec:	7bd0306f          	j	52a8 <.L1051>

000012f0 <.L2893>:
    12f0:	1f500c13          	li	s8,501
    12f4:	00ec5463          	bge	s8,a4,12fc <.L1052>
    12f8:	7410406f          	j	6238 <.L1042>

000012fc <.L1052>:
    12fc:	ff900c13          	li	s8,-7
    1300:	01884463          	blt	a6,s8,1308 <.L1052+0xc>
    1304:	0280806f          	j	932c <.L1041>
    1308:	00a15c03          	lhu	s8,10(sp)
    130c:	ffec0c13          	addi	s8,s8,-2
    1310:	010c1c13          	slli	s8,s8,0x10
    1314:	410c5c13          	srai	s8,s8,0x10

00001318 <.L1045>:
    1318:	01811523          	sh	s8,10(sp)
    131c:	0c100c13          	li	s8,193
    1320:	469c48e3          	blt	s8,s1,1f90 <.L1056>

00001324 <.L2797>:
    1324:	03800c13          	li	s8,56
    1328:	00fc5463          	bge	s8,a5,1330 <.L2797+0xc>
    132c:	2a50506f          	j	6dd0 <.L1057>
    1330:	ff900c93          	li	s9,-7
    1334:	01964463          	blt	a2,s9,133c <.L2797+0x18>
    1338:	7500706f          	j	8a88 <.L1058>
    133c:	00c15c83          	lhu	s9,12(sp)
    1340:	02f00d13          	li	s10,47
    1344:	005c8c93          	addi	s9,s9,5
    1348:	01911623          	sh	s9,12(sp)
    134c:	010d4463          	blt	s10,a6,1354 <.L2797+0x30>
    1350:	24c0206f          	j	359c <.L2731>
    1354:	e1900c13          	li	s8,-487
    1358:	018a4463          	blt	s4,s8,1360 <.L1062>
    135c:	0b50a06f          	j	bc10 <.L2766>

00001360 <.L1062>:
    1360:	00300c13          	li	s8,3
    1364:	00dc5463          	bge	s8,a3,136c <.L1062+0xc>
    1368:	5380906f          	j	a8a0 <.L1073>
    136c:	00815c03          	lhu	s8,8(sp)
    1370:	003c0c13          	addi	s8,s8,3
    1374:	010c1c13          	slli	s8,s8,0x10
    1378:	410c5c13          	srai	s8,s8,0x10

0000137c <.L1092>:
    137c:	01811423          	sh	s8,8(sp)
    1380:	30000c13          	li	s8,768
    1384:	4bec44e3          	blt	s8,t5,202c <.L1095>

00001388 <.L1085>:
    1388:	ff800c13          	li	s8,-8
    138c:	01864463          	blt	a2,s8,1394 <.L1085+0xc>
    1390:	74c0706f          	j	8adc <.L1096>
    1394:	1dc00c13          	li	s8,476
    1398:	016c4863          	blt	s8,s6,13a8 <.L1097>
    139c:	00a15c03          	lhu	s8,10(sp)
    13a0:	ff9c0c13          	addi	s8,s8,-7
    13a4:	01811523          	sh	s8,10(sp)

000013a8 <.L1097>:
    13a8:	04900c13          	li	s8,73
    13ac:	011c5463          	bge	s8,a7,13b4 <.L1097+0xc>
    13b0:	7f90306f          	j	53a8 <.L1105>
    13b4:	02000c13          	li	s8,32
    13b8:	01dc5463          	bge	s8,t4,13c0 <.L1097+0x18>
    13bc:	2b90606f          	j	7e74 <.L1103>
    13c0:	16300c13          	li	s8,355
    13c4:	4bec42e3          	blt	s8,t5,2068 <.L1102>
    13c8:	00c15c03          	lhu	s8,12(sp)
    13cc:	fffc0c13          	addi	s8,s8,-1
    13d0:	01811623          	sh	s8,12(sp)

000013d4 <.L1108>:
    13d4:	e4a00c13          	li	s8,-438
    13d8:	4b82d2e3          	bge	t0,s8,207c <.L1112>

000013dc <.L2798>:
    13dc:	03d00c13          	li	s8,61
    13e0:	00fc4463          	blt	s8,a5,13e8 <.L2798+0xc>
    13e4:	0180606f          	j	73fc <.L1113>
    13e8:	01100c13          	li	s8,17
    13ec:	011c5463          	bge	s8,a7,13f4 <.L2798+0x18>
    13f0:	7f50306f          	j	53e4 <.L1114>
    13f4:	00e15c03          	lhu	s8,14(sp)
    13f8:	01500c93          	li	s9,21
    13fc:	008c0c13          	addi	s8,s8,8
    1400:	01811723          	sh	s8,14(sp)
    1404:	4a7cd2e3          	bge	s9,t2,20a8 <.L1118>

00001408 <.L2602>:
    1408:	0fd00c13          	li	s8,253
    140c:	007c4463          	blt	s8,t2,1414 <.L1120>
    1410:	1600406f          	j	5570 <.L1119>

00001414 <.L1120>:
    1414:	e4300c13          	li	s8,-445
    1418:	01844463          	blt	s0,s8,1420 <.L1120+0xc>
    141c:	4f00806f          	j	990c <.L1131>
    1420:	00815c03          	lhu	s8,8(sp)
    1424:	ff7c0c13          	addi	s8,s8,-9
    1428:	010c1c13          	slli	s8,s8,0x10
    142c:	410c5c13          	srai	s8,s8,0x10

00001430 <.L1127>:
    1430:	01811423          	sh	s8,8(sp)
    1434:	03300c13          	li	s8,51
    1438:	4bfc42e3          	blt	s8,t6,20dc <.L1129>

0000143c <.L2799>:
    143c:	fe200c13          	li	s8,-30
    1440:	01864463          	blt	a2,s8,1448 <.L2799+0xc>
    1444:	6200606f          	j	7a64 <.L1128>
    1448:	e3d00c13          	li	s8,-451
    144c:	01844463          	blt	s0,s8,1454 <.L2799+0x18>
    1450:	4e00806f          	j	9930 <.L1132>
    1454:	00a15c03          	lhu	s8,10(sp)
    1458:	ffac0c13          	addi	s8,s8,-6
    145c:	010c1c13          	slli	s8,s8,0x10
    1460:	410c5c13          	srai	s8,s8,0x10

00001464 <.L1133>:
    1464:	01811523          	sh	s8,10(sp)
    1468:	00100c13          	li	s8,1
    146c:	4bcc52e3          	bge	s8,t3,2110 <.L2767>

00001470 <.L1138>:
    1470:	01500c13          	li	s8,21
    1474:	01dc5463          	bge	s8,t4,147c <.L1138+0xc>
    1478:	2650406f          	j	5edc <.L1142>
    147c:	20f00c13          	li	s8,527
    1480:	016c4463          	blt	s8,s6,1488 <.L1138+0x18>
    1484:	2cd0406f          	j	5f50 <.L1144>
    1488:	00c15c03          	lhu	s8,12(sp)
    148c:	00ac0c13          	addi	s8,s8,10
    1490:	010c1c13          	slli	s8,s8,0x10
    1494:	410c5c13          	srai	s8,s8,0x10

00001498 <.L1140>:
    1498:	01811623          	sh	s8,12(sp)
    149c:	03e00c13          	li	s8,62
    14a0:	48fc4ce3          	blt	s8,a5,2138 <.L1145>

000014a4 <.L2800>:
    14a4:	03800c13          	li	s8,56
    14a8:	01fc5463          	bge	s8,t6,14b0 <.L2800+0xc>
    14ac:	2bd0606f          	j	7f68 <.L1146>
    14b0:	f5400c13          	li	s8,-172
    14b4:	01844463          	blt	s0,s8,14bc <.L2800+0x18>
    14b8:	6040806f          	j	9abc <.L1147>
    14bc:	00e15c03          	lhu	s8,14(sp)
    14c0:	005c0c13          	addi	s8,s8,5
    14c4:	010c1c13          	slli	s8,s8,0x10
    14c8:	410c5c13          	srai	s8,s8,0x10

000014cc <.L1148>:
    14cc:	01811723          	sh	s8,14(sp)
    14d0:	01f00c13          	li	s8,31
    14d4:	013c5463          	bge	s8,s3,14dc <.L1148+0x10>
    14d8:	3900306f          	j	4868 <.L1152>
    14dc:	03b00c13          	li	s8,59
    14e0:	00fc5463          	bge	s8,a5,14e8 <.L1148+0x1c>
    14e4:	6880706f          	j	8b6c <.L1153>
    14e8:	1ed00c13          	li	s8,493
    14ec:	009c5463          	bge	s8,s1,14f4 <.L1148+0x28>
    14f0:	0690506f          	j	6d58 <.L1154>
    14f4:	00815c03          	lhu	s8,8(sp)
    14f8:	1b900c93          	li	s9,441
    14fc:	ffec0c13          	addi	s8,s8,-2
    1500:	01811423          	sh	s8,8(sp)
    1504:	01ecc463          	blt	s9,t5,150c <.L1155>
    1508:	0690506f          	j	6d70 <.L1158>

0000150c <.L1155>:
    150c:	03200c13          	li	s8,50
    1510:	01dc5463          	bge	s8,t4,1518 <.L1155+0xc>
    1514:	73d0706f          	j	9450 <.L1176>
    1518:	ff200c13          	li	s8,-14
    151c:	01864463          	blt	a2,s8,1524 <.L1155+0x18>
    1520:	6e00a06f          	j	bc00 <.L1177>
    1524:	00a15c03          	lhu	s8,10(sp)
    1528:	ff7c0c13          	addi	s8,s8,-9
    152c:	01811523          	sh	s8,10(sp)

00001530 <.L1174>:
    1530:	00f00c13          	li	s8,15
    1534:	010c5463          	bge	s8,a6,153c <.L1188>
    1538:	5400206f          	j	3a78 <.L1196>

0000153c <.L1188>:
    153c:	f6300c13          	li	s8,-157
    1540:	0185c463          	blt	a1,s8,1548 <.L1188+0xc>
    1544:	7a50606f          	j	84e8 <.L2768>
    1548:	00c15c03          	lhu	s8,12(sp)
    154c:	ffcc0c13          	addi	s8,s8,-4
    1550:	010c1c13          	slli	s8,s8,0x10
    1554:	410c5c13          	srai	s8,s8,0x10
    1558:	01811623          	sh	s8,12(sp)
    155c:	0d800c13          	li	s8,216
    1560:	492c50e3          	bge	s8,s2,21e0 <.L2769>

00001564 <.L1195>:
    1564:	38f00c13          	li	s8,911
    1568:	006c5463          	bge	s8,t1,1570 <.L1195+0xc>
    156c:	5180606f          	j	7a84 <.L1203>
    1570:	1ca00c13          	li	s8,458
    1574:	01ec5463          	bge	s8,t5,157c <.L1195+0x18>
    1578:	4150206f          	j	418c <.L1204>
    157c:	00e15c03          	lhu	s8,14(sp)
    1580:	00400c93          	li	s9,4
    1584:	007c0c13          	addi	s8,s8,7
    1588:	01811723          	sh	s8,14(sp)
    158c:	011cc463          	blt	s9,a7,1594 <.L1195+0x30>
    1590:	1750306f          	j	4f04 <.L1209>
    1594:	00e00c13          	li	s8,14
    1598:	01dc4463          	blt	s8,t4,15a0 <.L1195+0x3c>
    159c:	4110206f          	j	41ac <.L1218>
    15a0:	0ac00c13          	li	s8,172
    15a4:	01ec4463          	blt	s8,t5,15ac <.L1195+0x48>
    15a8:	50c0606f          	j	7ab4 <.L1219>
    15ac:	03500c13          	li	s8,53
    15b0:	00ec5463          	bge	s8,a4,15b8 <.L1215>
    15b4:	5180606f          	j	7acc <.L2607>

000015b8 <.L1215>:
    15b8:	01900c13          	li	s8,25
    15bc:	00dc5463          	bge	s8,a3,15c4 <.L1215+0xc>
    15c0:	6200606f          	j	7be0 <.L1225>
    15c4:	00c00c13          	li	s8,12
    15c8:	49cc48e3          	blt	s8,t3,2258 <.L2693>
    15cc:	00a15c03          	lhu	s8,10(sp)
    15d0:	0c100c93          	li	s9,193
    15d4:	001c0c13          	addi	s8,s8,1
    15d8:	01811523          	sh	s8,10(sp)
    15dc:	489cc8e3          	blt	s9,s1,226c <.L2608>

000015e0 <.L1228>:
    15e0:	fae00c13          	li	s8,-82
    15e4:	0185c463          	blt	a1,s8,15ec <.L1228+0xc>
    15e8:	0d10606f          	j	7eb8 <.L1238>
    15ec:	ea900c13          	li	s8,-343
    15f0:	018a4463          	blt	s4,s8,15f8 <.L1228+0x18>
    15f4:	5440906f          	j	ab38 <.L1239>
    15f8:	00c15c03          	lhu	s8,12(sp)
    15fc:	002c0c13          	addi	s8,s8,2
    1600:	010c1c13          	slli	s8,s8,0x10
    1604:	410c5c13          	srai	s8,s8,0x10
    1608:	01811623          	sh	s8,12(sp)
    160c:	03600c13          	li	s8,54
    1610:	48fc52e3          	bge	s8,a5,2294 <.L2770>

00001614 <.L1244>:
    1614:	e4a00c13          	li	s8,-438
    1618:	0182c463          	blt	t0,s8,1620 <.L1244+0xc>
    161c:	3ad0506f          	j	71c8 <.L1257>
    1620:	03d00c13          	li	s8,61
    1624:	00fc5463          	bge	s8,a5,162c <.L1244+0x18>
    1628:	4750706f          	j	929c <.L1258>
    162c:	00e15c03          	lhu	s8,14(sp)
    1630:	ff8c0c13          	addi	s8,s8,-8
    1634:	010c1c13          	slli	s8,s8,0x10
    1638:	410c5c13          	srai	s8,s8,0x10

0000163c <.L1259>:
    163c:	01811723          	sh	s8,14(sp)
    1640:	01500c13          	li	s8,21
    1644:	007c4463          	blt	s8,t2,164c <.L1259+0x10>
    1648:	7b10206f          	j	45f8 <.L1254>
    164c:	11d00c13          	li	s8,285
    1650:	007c5463          	bge	s8,t2,1658 <.L1259+0x1c>
    1654:	46d0706f          	j	92c0 <.L1256>
    1658:	03b00c13          	li	s8,59
    165c:	00fc4463          	blt	s8,a5,1664 <.L1260>
    1660:	4b80706f          	j	8b18 <.L1255>

00001664 <.L1260>:
    1664:	00815c03          	lhu	s8,8(sp)
    1668:	08c00c93          	li	s9,140
    166c:	001c0c13          	addi	s8,s8,1
    1670:	01811423          	sh	s8,8(sp)
    1674:	466cd4e3          	bge	s9,t1,22dc <.L1250>
    1678:	00c00c13          	li	s8,12
    167c:	01cc5463          	bge	s8,t3,1684 <.L1260+0x20>
    1680:	7b10206f          	j	4630 <.L1275>
    1684:	01700c13          	li	s8,23
    1688:	49dc50e3          	bge	s8,t4,2308 <.L1279>

0000168c <.L1268>:
    168c:	00a15c03          	lhu	s8,10(sp)
    1690:	03300c93          	li	s9,51
    1694:	007c0c13          	addi	s8,s8,7
    1698:	01811523          	sh	s8,10(sp)
    169c:	00fcc463          	blt	s9,a5,16a4 <.L1268+0x18>
    16a0:	7bd0206f          	j	465c <.L2734>
    16a4:	04700c13          	li	s8,71
    16a8:	007c5463          	bge	s8,t2,16b0 <.L1266>
    16ac:	6a80406f          	j	5d54 <.L1295>

000016b0 <.L1266>:
    16b0:	2bd00c13          	li	s8,701
    16b4:	009c5463          	bge	s8,s1,16bc <.L1266+0xc>
    16b8:	52d0806f          	j	a3e4 <.L2771>
    16bc:	00c15c03          	lhu	s8,12(sp)
    16c0:	03c00c93          	li	s9,60
    16c4:	ff7c0c13          	addi	s8,s8,-9
    16c8:	01811623          	sh	s8,12(sp)
    16cc:	00fcc463          	blt	s9,a5,16d4 <.L2612>
    16d0:	7b10206f          	j	4680 <.L1292>

000016d4 <.L2612>:
    16d4:	0d400c13          	li	s8,212
    16d8:	00ec5463          	bge	s8,a4,16e0 <.L1310>
    16dc:	7680706f          	j	8e44 <.L1307>

000016e0 <.L1310>:
    16e0:	00e15c03          	lhu	s8,14(sp)
    16e4:	ffe00c93          	li	s9,-2
    16e8:	008c0c13          	addi	s8,s8,8
    16ec:	01811723          	sh	s8,14(sp)
    16f0:	45985ee3          	bge	a6,s9,234c <.L1321>

000016f4 <.L1300>:
    16f4:	0ce00c13          	li	s8,206
    16f8:	00dc5463          	bge	s8,a3,1700 <.L1300+0xc>
    16fc:	76c0206f          	j	3e68 <.L2772>
    1700:	01c51c83          	lh	s9,28(a0)
    1704:	03500c13          	li	s8,53
    1708:	019c4463          	blt	s8,s9,1710 <.L1300+0x1c>
    170c:	0250906f          	j	af30 <.L1322>
    1710:	03400c13          	li	s8,52
    1714:	01dc4463          	blt	s8,t4,171c <.L1323>
    1718:	7700206f          	j	3e88 <.L1329>

0000171c <.L1323>:
    171c:	1db00c13          	li	s8,475
    1720:	016c5463          	bge	s8,s6,1728 <.L1330>
    1724:	6ac0606f          	j	7dd0 <.L1326>

00001728 <.L1330>:
    1728:	00a15c03          	lhu	s8,10(sp)
    172c:	02a00c93          	li	s9,42
    1730:	005c0c13          	addi	s8,s8,5
    1734:	01811523          	sh	s8,10(sp)
    1738:	46dcd4e3          	bge	s9,a3,23a0 <.L1327>

0000173c <.L1328>:
    173c:	02700c13          	li	s8,39
    1740:	00ec5463          	bge	s8,a4,1748 <.L1328+0xc>
    1744:	6410306f          	j	5584 <.L2773>
    1748:	00900c13          	li	s8,9
    174c:	012c5463          	bge	s8,s2,1754 <.L1328+0x18>
    1750:	5c90906f          	j	b518 <.L2774>
    1754:	00c15c03          	lhu	s8,12(sp)
    1758:	001c0c13          	addi	s8,s8,1
    175c:	01811623          	sh	s8,12(sp)
    1760:	4590006f          	j	23b8 <.L1360>

00001764 <.L2757>:
    1764:	18f00c13          	li	s8,399
    1768:	00dc5463          	bge	s8,a3,1770 <.L2757+0xc>
    176c:	03c0406f          	j	57a8 <.L550>
    1770:	1aa00c13          	li	s8,426
    1774:	016c5463          	bge	s8,s6,177c <.L2757+0x18>
    1778:	5d10906f          	j	b548 <.L551>
    177c:	00815c03          	lhu	s8,8(sp)
    1780:	007c0c13          	addi	s8,s8,7
    1784:	010c1c13          	slli	s8,s8,0x10
    1788:	410c5c13          	srai	s8,s8,0x10
    178c:	c24ff06f          	j	bb0 <.L552>

00001790 <.L517>:
    1790:	00a15c03          	lhu	s8,10(sp)
    1794:	17000c93          	li	s9,368
    1798:	009c0c13          	addi	s8,s8,9
    179c:	01811523          	sh	s8,10(sp)
    17a0:	00dcd463          	bge	s9,a3,17a8 <.L2576>
    17a4:	53d0206f          	j	44e0 <.L533>

000017a8 <.L2576>:
    17a8:	02200c13          	li	s8,34
    17ac:	01dc4463          	blt	s8,t4,17b4 <.L531>
    17b0:	2950706f          	j	9244 <.L530>

000017b4 <.L531>:
    17b4:	00c15c03          	lhu	s8,12(sp)
    17b8:	ff6c0c13          	addi	s8,s8,-10
    17bc:	010c1c13          	slli	s8,s8,0x10
    17c0:	410c5c13          	srai	s8,s8,0x10
    17c4:	01811623          	sh	s8,12(sp)
    17c8:	e9900c13          	li	s8,-359
    17cc:	b985ce63          	blt	a1,s8,b68 <.L2775>

000017d0 <.L541>:
    17d0:	ee600c13          	li	s8,-282
    17d4:	018ac463          	blt	s5,s8,17dc <.L541+0xc>
    17d8:	3fc0506f          	j	6bd4 <.L545>
    17dc:	ffc00c13          	li	s8,-4
    17e0:	01834463          	blt	t1,s8,17e8 <.L541+0x18>
    17e4:	1d80406f          	j	59bc <.L544>
    17e8:	00e15c03          	lhu	s8,14(sp)
    17ec:	002c0c13          	addi	s8,s8,2
    17f0:	01811723          	sh	s8,14(sp)
    17f4:	b8085c63          	bgez	a6,b8c <.L546>
    17f8:	18f00c13          	li	s8,399
    17fc:	00dc4463          	blt	s8,a3,1804 <.L547>
    1800:	63c0a06f          	j	be3c <.L2776>

00001804 <.L547>:
    1804:	00815c03          	lhu	s8,8(sp)
    1808:	007c0c13          	addi	s8,s8,7
    180c:	01811423          	sh	s8,8(sp)

00001810 <.L549>:
    1810:	00400c13          	li	s8,4
    1814:	01cc5463          	bge	s8,t3,181c <.L549+0xc>
    1818:	2410406f          	j	6258 <.L561>
    181c:	12e00c13          	li	s8,302
    1820:	00ec5463          	bge	s8,a4,1828 <.L549+0x18>
    1824:	4580806f          	j	9c7c <.L562>
    1828:	00a15c03          	lhu	s8,10(sp)
    182c:	17000c93          	li	s9,368
    1830:	ffec0c13          	addi	s8,s8,-2
    1834:	01811523          	sh	s8,10(sp)
    1838:	badcd863          	bge	s9,a3,be8 <.L563>

0000183c <.L564>:
    183c:	ea700c13          	li	s8,-345
    1840:	018ad463          	bge	s5,s8,1848 <.L564+0xc>
    1844:	4bc0706f          	j	8d00 <.L571>
    1848:	00c15c03          	lhu	s8,12(sp)
    184c:	e0800c93          	li	s9,-504
    1850:	ffdc0c13          	addi	s8,s8,-3
    1854:	01811623          	sh	s8,12(sp)
    1858:	01945463          	bge	s0,s9,1860 <.L2375>
    185c:	7c10306f          	j	581c <.L584>

00001860 <.L2375>:
    1860:	0de00c13          	li	s8,222
    1864:	012c5463          	bge	s8,s2,186c <.L585>
    1868:	5bd0606f          	j	8624 <.L586>

0000186c <.L585>:
    186c:	00e15c03          	lhu	s8,14(sp)
    1870:	ff8c0c13          	addi	s8,s8,-8
    1874:	01811723          	sh	s8,14(sp)
    1878:	0a900c13          	li	s8,169
    187c:	bdec4063          	blt	s8,t5,c3c <.L610>

00001880 <.L600>:
    1880:	01a00c13          	li	s8,26
    1884:	010c5463          	bge	s8,a6,188c <.L600+0xc>
    1888:	07d0506f          	j	7104 <.L611>
    188c:	11800c13          	li	s8,280
    1890:	bd2c4863          	blt	s8,s2,c60 <.L614>
    1894:	00815c03          	lhu	s8,8(sp)
    1898:	009c0c13          	addi	s8,s8,9
    189c:	01811423          	sh	s8,8(sp)
    18a0:	03900c13          	li	s8,57
    18a4:	bcec5263          	bge	s8,a4,c68 <.L2777>

000018a8 <.L618>:
    18a8:	ff900c13          	li	s8,-7
    18ac:	01864463          	blt	a2,s8,18b4 <.L618+0xc>
    18b0:	64d0406f          	j	66fc <.L627>
    18b4:	1d700c13          	li	s8,471
    18b8:	016c5463          	bge	s8,s6,18c0 <.L618+0x18>
    18bc:	4e80906f          	j	ada4 <.L628>
    18c0:	00a15c03          	lhu	s8,10(sp)
    18c4:	ff9c0c13          	addi	s8,s8,-7
    18c8:	010c1c13          	slli	s8,s8,0x10
    18cc:	410c5c13          	srai	s8,s8,0x10

000018d0 <.L629>:
    18d0:	01811523          	sh	s8,10(sp)
    18d4:	08900c13          	li	s8,137
    18d8:	00dc5463          	bge	s8,a3,18e0 <.L2909>
    18dc:	64d0406f          	j	6728 <.L633>

000018e0 <.L2909>:
    18e0:	03700c13          	li	s8,55
    18e4:	00fc5463          	bge	s8,a5,18ec <.L2909+0xc>
    18e8:	57d0406f          	j	6664 <.L634>
    18ec:	00900c13          	li	s8,9
    18f0:	bb1c5a63          	bge	s8,a7,ca4 <.L2274>

000018f4 <.L635>:
    18f4:	00c15c03          	lhu	s8,12(sp)
    18f8:	002c0c13          	addi	s8,s8,2
    18fc:	01811623          	sh	s8,12(sp)
    1900:	03000c13          	li	s8,48
    1904:	bbfc5a63          	bge	s8,t6,cb8 <.L2778>

00001908 <.L646>:
    1908:	faf00c13          	li	s8,-81
    190c:	018a4463          	blt	s4,s8,1914 <.L646+0xc>
    1910:	6250806f          	j	a734 <.L654>
    1914:	00e15c03          	lhu	s8,14(sp)
    1918:	0a900c93          	li	s9,169
    191c:	ff6c0c13          	addi	s8,s8,-10
    1920:	01811723          	sh	s8,14(sp)
    1924:	bbecc863          	blt	s9,t5,cd4 <.L2584>

00001928 <.L648>:
    1928:	01a00c13          	li	s8,26
    192c:	010c5463          	bge	s8,a6,1934 <.L648+0xc>
    1930:	7ad0506f          	j	78dc <.L651>
    1934:	11800c13          	li	s8,280
    1938:	bb2c4a63          	blt	s8,s2,cec <.L649>
    193c:	00815c03          	lhu	s8,8(sp)
    1940:	008c0c13          	addi	s8,s8,8
    1944:	01811423          	sh	s8,8(sp)
    1948:	0b500c13          	li	s8,181
    194c:	ba6c5463          	bge	s8,t1,cf4 <.L2779>

00001950 <.L659>:
    1950:	00400c13          	li	s8,4
    1954:	01cc5463          	bge	s8,t3,195c <.L659+0xc>
    1958:	0090406f          	j	6160 <.L664>
    195c:	0bb00c13          	li	s8,187
    1960:	016c5463          	bge	s8,s6,1968 <.L659+0x18>
    1964:	5890706f          	j	96ec <.L665>
    1968:	00a15c03          	lhu	s8,10(sp)
    196c:	ff7c0c13          	addi	s8,s8,-9
    1970:	010c1c13          	slli	s8,s8,0x10
    1974:	410c5c13          	srai	s8,s8,0x10
    1978:	01811523          	sh	s8,10(sp)
    197c:	27a00c13          	li	s8,634
    1980:	badc5463          	bge	s8,a3,d28 <.L2780>

00001984 <.L667>:
    1984:	ed100c13          	li	s8,-303
    1988:	018ac463          	blt	s5,s8,1990 <.L667+0xc>
    198c:	01c0506f          	j	69a8 <.L672>
    1990:	3fa00c13          	li	s8,1018
    1994:	baec4c63          	blt	s8,a4,d4c <.L670>
    1998:	00c15c03          	lhu	s8,12(sp)
    199c:	00ac0c13          	addi	s8,s8,10
    19a0:	01811623          	sh	s8,12(sp)
    19a4:	d8200c13          	li	s8,-638
    19a8:	bb85c663          	blt	a1,s8,d54 <.L2781>

000019ac <.L673>:
    19ac:	0de00c13          	li	s8,222
    19b0:	012c5463          	bge	s8,s2,19b8 <.L673+0xc>
    19b4:	5580406f          	j	5f0c <.L678>
    19b8:	03e00c13          	li	s8,62
    19bc:	00fc5463          	bge	s8,a5,19c4 <.L673+0x18>
    19c0:	2980806f          	j	9c58 <.L679>
    19c4:	00e15c03          	lhu	s8,14(sp)
    19c8:	ffbc0c13          	addi	s8,s8,-5
    19cc:	010c1c13          	slli	s8,s8,0x10
    19d0:	410c5c13          	srai	s8,s8,0x10
    19d4:	01811723          	sh	s8,14(sp)
    19d8:	ba085663          	bgez	a6,d84 <.L682>

000019dc <.L2269>:
    19dc:	0cd00c13          	li	s8,205
    19e0:	00dc5463          	bge	s8,a3,19e8 <.L2269+0xc>
    19e4:	61c0706f          	j	9000 <.L683>
    19e8:	1aa00c13          	li	s8,426
    19ec:	016c5463          	bge	s8,s6,19f4 <.L2269+0x18>
    19f0:	1a90906f          	j	b398 <.L684>
    19f4:	00815c03          	lhu	s8,8(sp)
    19f8:	07200c93          	li	s9,114
    19fc:	006c0c13          	addi	s8,s8,6
    1a00:	01811423          	sh	s8,8(sp)
    1a04:	baecdc63          	bge	s9,a4,dbc <.L685>

00001a08 <.L690>:
    1a08:	03300c13          	li	s8,51
    1a0c:	01fc5463          	bge	s8,t6,1a14 <.L690+0xc>
    1a10:	3380806f          	j	9d48 <.L2782>
    1a14:	00a15c03          	lhu	s8,10(sp)
    1a18:	ffac0c13          	addi	s8,s8,-6
    1a1c:	010c1c13          	slli	s8,s8,0x10
    1a20:	410c5c13          	srai	s8,s8,0x10

00001a24 <.L701>:
    1a24:	01811523          	sh	s8,10(sp)
    1a28:	ffa00c13          	li	s8,-6
    1a2c:	bb865e63          	bge	a2,s8,de8 <.L703>

00001a30 <.L2268>:
    1a30:	01000c13          	li	s8,16
    1a34:	01dc5463          	bge	s8,t4,1a3c <.L2928>
    1a38:	4000606f          	j	7e38 <.L704>

00001a3c <.L2928>:
    1a3c:	00c00c13          	li	s8,12
    1a40:	011c5463          	bge	s8,a7,1a48 <.L2928+0xc>
    1a44:	7290706f          	j	996c <.L705>
    1a48:	00c15c03          	lhu	s8,12(sp)
    1a4c:	001c0c13          	addi	s8,s8,1
    1a50:	010c1c13          	slli	s8,s8,0x10
    1a54:	410c5c13          	srai	s8,s8,0x10
    1a58:	01811623          	sh	s8,12(sp)
    1a5c:	03900c13          	li	s8,57
    1a60:	bcfc5063          	bge	s8,a5,e20 <.L2783>

00001a64 <.L710>:
    1a64:	e4a00c13          	li	s8,-438
    1a68:	0182c463          	blt	t0,s8,1a70 <.L710+0xc>
    1a6c:	14c0506f          	j	6bb8 <.L723>
    1a70:	03d00c13          	li	s8,61
    1a74:	00fc5463          	bge	s8,a5,1a7c <.L710+0x18>
    1a78:	18c0806f          	j	9c04 <.L724>
    1a7c:	00e15c03          	lhu	s8,14(sp)
    1a80:	ff8c0c13          	addi	s8,s8,-8
    1a84:	01811723          	sh	s8,14(sp)

00001a88 <.L722>:
    1a88:	0a900c13          	li	s8,169
    1a8c:	01ec5463          	bge	s8,t5,1a94 <.L722+0xc>
    1a90:	64d0306f          	j	58dc <.L725>
    1a94:	01a00c13          	li	s8,26
    1a98:	010c5463          	bge	s8,a6,1aa0 <.L722+0x18>
    1a9c:	0650706f          	j	9300 <.L726>
    1aa0:	11800c13          	li	s8,280
    1aa4:	012c4863          	blt	s8,s2,1ab4 <.L718>
    1aa8:	00815c03          	lhu	s8,8(sp)
    1aac:	008c0c13          	addi	s8,s8,8
    1ab0:	01811423          	sh	s8,8(sp)

00001ab4 <.L718>:
    1ab4:	0f000c13          	li	s8,240
    1ab8:	ba6c5863          	bge	s8,t1,e68 <.L715>
    1abc:	d6c00c13          	li	s8,-660
    1ac0:	018ac463          	blt	s5,s8,1ac8 <.L718+0x14>
    1ac4:	4d50506f          	j	7798 <.L747>
    1ac8:	ff400c13          	li	s8,-12
    1acc:	01864463          	blt	a2,s8,1ad4 <.L718+0x20>
    1ad0:	6500506f          	j	7120 <.L748>
    1ad4:	00a15c03          	lhu	s8,10(sp)
    1ad8:	0dd00c93          	li	s9,221
    1adc:	ff7c0c13          	addi	s8,s8,-9
    1ae0:	01811523          	sh	s8,10(sp)
    1ae4:	00dcc463          	blt	s9,a3,1aec <.L718+0x38>
    1ae8:	6980306f          	j	5180 <.L749>
    1aec:	25b00c13          	li	s8,603
    1af0:	00ec5463          	bge	s8,a4,1af8 <.L750>
    1af4:	3980306f          	j	4e8c <.L772>

00001af8 <.L750>:
    1af8:	03d00c13          	li	s8,61
    1afc:	00fc4463          	blt	s8,a5,1b04 <.L750+0xc>
    1b00:	5a00806f          	j	a0a0 <.L753>
    1b04:	00c15c03          	lhu	s8,12(sp)
    1b08:	03e00c93          	li	s9,62
    1b0c:	ffcc0c13          	addi	s8,s8,-4
    1b10:	01811623          	sh	s8,12(sp)
    1b14:	01978463          	beq	a5,s9,1b1c <.L754>
    1b18:	38c0306f          	j	4ea4 <.L752>

00001b1c <.L754>:
    1b1c:	03800c13          	li	s8,56
    1b20:	00ec4463          	blt	s8,a4,1b28 <.L751>
    1b24:	2b00306f          	j	4dd4 <.L769>

00001b28 <.L751>:
    1b28:	c3900c13          	li	s8,-967
    1b2c:	0185c463          	blt	a1,s8,1b34 <.L751+0xc>
    1b30:	4400706f          	j	8f70 <.L767>
    1b34:	00e15c03          	lhu	s8,14(sp)
    1b38:	008c0c13          	addi	s8,s8,8
    1b3c:	010c1c13          	slli	s8,s8,0x10
    1b40:	410c5c13          	srai	s8,s8,0x10

00001b44 <.L779>:
    1b44:	01811723          	sh	s8,14(sp)
    1b48:	ffe00c13          	li	s8,-2
    1b4c:	01885463          	bge	a6,s8,1b54 <.L786>
    1b50:	2a40306f          	j	4df4 <.L783>

00001b54 <.L786>:
    1b54:	0ba00c13          	li	s8,186
    1b58:	012c5463          	bge	s8,s2,1b60 <.L786+0xc>
    1b5c:	3740306f          	j	4ed0 <.L777>
    1b60:	03800c13          	li	s8,56
    1b64:	b8fc4a63          	blt	s8,a5,ef8 <.L784>

00001b68 <.L792>:
    1b68:	00815c03          	lhu	s8,8(sp)
    1b6c:	ffdc0c13          	addi	s8,s8,-3
    1b70:	010c1c13          	slli	s8,s8,0x10
    1b74:	410c5c13          	srai	s8,s8,0x10
    1b78:	01811423          	sh	s8,8(sp)
    1b7c:	03300c13          	li	s8,51
    1b80:	b9fc4a63          	blt	s8,t6,f14 <.L794>

00001b84 <.L788>:
    1b84:	fe200c13          	li	s8,-30
    1b88:	01864463          	blt	a2,s8,1b90 <.L788+0xc>
    1b8c:	6000506f          	j	718c <.L795>
    1b90:	e3d00c13          	li	s8,-451
    1b94:	01844463          	blt	s0,s8,1b9c <.L788+0x18>
    1b98:	4e40806f          	j	a07c <.L796>
    1b9c:	00a15c03          	lhu	s8,10(sp)
    1ba0:	ff8c0c13          	addi	s8,s8,-8
    1ba4:	010c1c13          	slli	s8,s8,0x10
    1ba8:	010c5c13          	srli	s8,s8,0x10
    1bac:	01811523          	sh	s8,10(sp)

00001bb0 <.L797>:
    1bb0:	01000c13          	li	s8,16
    1bb4:	01dc5463          	bge	s8,t4,1bbc <.L797+0xc>
    1bb8:	5690606f          	j	8920 <.L808>
    1bbc:	00100c13          	li	s8,1
    1bc0:	01cc4463          	blt	s8,t3,1bc8 <.L797+0x18>
    1bc4:	7780906f          	j	b33c <.L2784>
    1bc8:	00c15c03          	lhu	s8,12(sp)
    1bcc:	009c0c13          	addi	s8,s8,9
    1bd0:	010c1c13          	slli	s8,s8,0x10
    1bd4:	410c5c13          	srai	s8,s8,0x10

00001bd8 <.L810>:
    1bd8:	01811623          	sh	s8,12(sp)
    1bdc:	03e00c13          	li	s8,62
    1be0:	00fc4463          	blt	s8,a5,1be8 <.L810+0x10>
    1be4:	5740306f          	j	5158 <.L816>
    1be8:	fec00c13          	li	s8,-20
    1bec:	b7865663          	bge	a2,s8,f58 <.L817>
    1bf0:	00e15c03          	lhu	s8,14(sp)
    1bf4:	ffec0c13          	addi	s8,s8,-2
    1bf8:	010c1c13          	slli	s8,s8,0x10
    1bfc:	410c5c13          	srai	s8,s8,0x10
    1c00:	01811723          	sh	s8,14(sp)
    1c04:	01f00c13          	li	s8,31
    1c08:	b73c5663          	bge	s8,s3,f74 <.L2785>

00001c0c <.L822>:
    1c0c:	00500c13          	li	s8,5
    1c10:	b91c5263          	bge	s8,a7,f94 <.L825>
    1c14:	00815c03          	lhu	s8,8(sp)
    1c18:	ff7c0c13          	addi	s8,s8,-9
    1c1c:	01811423          	sh	s8,8(sp)
    1c20:	1ac00c13          	li	s8,428
    1c24:	b76c5c63          	bge	s8,s6,f9c <.L2786>

00001c28 <.L826>:
    1c28:	0a500c13          	li	s8,165
    1c2c:	00ec5463          	bge	s8,a4,1c34 <.L826+0xc>
    1c30:	56c0406f          	j	619c <.L834>
    1c34:	1ff00c13          	li	s8,511
    1c38:	009c5463          	bge	s8,s1,1c40 <.L826+0x18>
    1c3c:	23d0806f          	j	a678 <.L835>
    1c40:	00a15c03          	lhu	s8,10(sp)
    1c44:	006c0c13          	addi	s8,s8,6
    1c48:	010c1c13          	slli	s8,s8,0x10
    1c4c:	410c5c13          	srai	s8,s8,0x10
    1c50:	01811523          	sh	s8,10(sp)
    1c54:	27a00c13          	li	s8,634
    1c58:	b6dc5c63          	bge	s8,a3,fd0 <.L2787>

00001c5c <.L837>:
    1c5c:	ff700c13          	li	s8,-9
    1c60:	01864463          	blt	a2,s8,1c68 <.L837+0xc>
    1c64:	50d0306f          	j	5970 <.L831>
    1c68:	0e600c13          	li	s8,230
    1c6c:	009c5463          	bge	s8,s1,1c74 <.L837+0x18>
    1c70:	37d0806f          	j	a7ec <.L843>
    1c74:	00c15c03          	lhu	s8,12(sp)
    1c78:	d2a00c93          	li	s9,-726
    1c7c:	ffcc0c13          	addi	s8,s8,-4
    1c80:	01811623          	sh	s8,12(sp)
    1c84:	0195d463          	bge	a1,s9,1c8c <.L2593>
    1c88:	03c0506f          	j	6cc4 <.L844>

00001c8c <.L2593>:
    1c8c:	eea00c13          	li	s8,-278
    1c90:	018a4463          	blt	s4,s8,1c98 <.L852>
    1c94:	04c0506f          	j	6ce0 <.L845>

00001c98 <.L852>:
    1c98:	00e15c03          	lhu	s8,14(sp)
    1c9c:	ff8c0c13          	addi	s8,s8,-8
    1ca0:	01811723          	sh	s8,14(sp)
    1ca4:	0a900c13          	li	s8,169
    1ca8:	b7ec4863          	blt	s8,t5,1018 <.L2788>

00001cac <.L860>:
    1cac:	fff00c13          	li	s8,-1
    1cb0:	018e5463          	bge	t3,s8,1cb8 <.L860+0xc>
    1cb4:	7400406f          	j	63f4 <.L2789>
    1cb8:	09e00c13          	li	s8,158
    1cbc:	b92c4063          	blt	s8,s2,103c <.L859>
    1cc0:	00815c03          	lhu	s8,8(sp)
    1cc4:	008c0c13          	addi	s8,s8,8
    1cc8:	01811423          	sh	s8,8(sp)
    1ccc:	0b500c13          	li	s8,181
    1cd0:	b66c5a63          	bge	s8,t1,1044 <.L2790>

00001cd4 <.L865>:
    1cd4:	f5700c13          	li	s8,-169
    1cd8:	0185c463          	blt	a1,s8,1ce0 <.L865+0xc>
    1cdc:	7f40406f          	j	64d0 <.L876>
    1ce0:	ff100c13          	li	s8,-15
    1ce4:	01864463          	blt	a2,s8,1cec <.L865+0x18>
    1ce8:	2450706f          	j	972c <.L877>
    1cec:	00a15c03          	lhu	s8,10(sp)
    1cf0:	fffc0c13          	addi	s8,s8,-1
    1cf4:	01811523          	sh	s8,10(sp)

00001cf8 <.L878>:
    1cf8:	17000c13          	li	s8,368
    1cfc:	00dc4463          	blt	s8,a3,1d04 <.L880>
    1d00:	01c0706f          	j	8d1c <.L885>

00001d04 <.L880>:
    1d04:	2ba00c13          	li	s8,698
    1d08:	00ec5463          	bge	s8,a4,1d10 <.L880+0xc>
    1d0c:	7850706f          	j	9c90 <.L887>
    1d10:	00c15c03          	lhu	s8,12(sp)
    1d14:	02f00c93          	li	s9,47
    1d18:	006c0c13          	addi	s8,s8,6
    1d1c:	01811623          	sh	s8,12(sp)
    1d20:	b70cde63          	bge	s9,a6,109c <.L888>

00001d24 <.L889>:
    1d24:	e0400c13          	li	s8,-508
    1d28:	0182c463          	blt	t0,s8,1d30 <.L889+0xc>
    1d2c:	7ec0406f          	j	6518 <.L903>
    1d30:	00e15c03          	lhu	s8,14(sp)
    1d34:	ffdc0c13          	addi	s8,s8,-3
    1d38:	010c1c13          	slli	s8,s8,0x10
    1d3c:	410c5c13          	srai	s8,s8,0x10
    1d40:	01811723          	sh	s8,14(sp)
    1d44:	ec600c13          	li	s8,-314
    1d48:	b7845e63          	bge	s0,s8,10c4 <.L2791>

00001d4c <.L904>:
    1d4c:	01c51c83          	lh	s9,28(a0)
    1d50:	02600c13          	li	s8,38
    1d54:	019c5463          	bge	s8,s9,1d5c <.L904+0x10>
    1d58:	3140606f          	j	806c <.L2792>
    1d5c:	e9900c13          	li	s8,-359
    1d60:	b982d463          	bge	t0,s8,10e8 <.L906>

00001d64 <.L907>:
    1d64:	00815c03          	lhu	s8,8(sp)
    1d68:	ff7c0c13          	addi	s8,s8,-9
    1d6c:	01811423          	sh	s8,8(sp)
    1d70:	03400c13          	li	s8,52
    1d74:	b7dc5e63          	bge	s8,t4,10f0 <.L2793>

00001d78 <.L909>:
    1d78:	1db00c13          	li	s8,475
    1d7c:	016c5463          	bge	s8,s6,1d84 <.L909+0xc>
    1d80:	5540306f          	j	52d4 <.L916>
    1d84:	ff400c13          	li	s8,-12
    1d88:	01864463          	blt	a2,s8,1d90 <.L909+0x18>
    1d8c:	74d0806f          	j	acd8 <.L917>
    1d90:	00a15c03          	lhu	s8,10(sp)
    1d94:	03300c93          	li	s9,51
    1d98:	ffec0c13          	addi	s8,s8,-2
    1d9c:	01811523          	sh	s8,10(sp)
    1da0:	00fcc463          	blt	s9,a5,1da8 <.L918>
    1da4:	5540306f          	j	52f8 <.L923>

00001da8 <.L918>:
    1da8:	d7800c13          	li	s8,-648
    1dac:	018a5463          	bge	s4,s8,1db4 <.L920>
    1db0:	3a10506f          	j	7950 <.L927>

00001db4 <.L920>:
    1db4:	00c15c03          	lhu	s8,12(sp)
    1db8:	ffbc0c13          	addi	s8,s8,-5
    1dbc:	010c1c13          	slli	s8,s8,0x10
    1dc0:	410c5c13          	srai	s8,s8,0x10

00001dc4 <.L931>:
    1dc4:	01811623          	sh	s8,12(sp)
    1dc8:	03900c13          	li	s8,57
    1dcc:	00fc4463          	blt	s8,a5,1dd4 <.L941>
    1dd0:	5400306f          	j	5310 <.L928>

00001dd4 <.L941>:
    1dd4:	e4a00c13          	li	s8,-438
    1dd8:	0182d463          	bge	t0,s8,1de0 <.L941+0xc>
    1ddc:	79d0606f          	j	8d78 <.L943>
    1de0:	02200c13          	li	s8,34
    1de4:	b90c5663          	bge	s8,a6,1170 <.L940>
    1de8:	00e15c03          	lhu	s8,14(sp)
    1dec:	008c0c13          	addi	s8,s8,8
    1df0:	01811723          	sh	s8,14(sp)
    1df4:	00c00c13          	li	s8,12
    1df8:	b93c5063          	bge	s8,s3,1178 <.L2794>

00001dfc <.L935>:
    1dfc:	01c51c83          	lh	s9,28(a0)
    1e00:	03500c13          	li	s8,53
    1e04:	019c5463          	bge	s8,s9,1e0c <.L935+0x10>
    1e08:	12c0506f          	j	6f34 <.L953>
    1e0c:	ffa00c13          	li	s8,-6
    1e10:	01894463          	blt	s2,s8,1e18 <.L935+0x1c>
    1e14:	7ac0706f          	j	95c0 <.L954>
    1e18:	00815c03          	lhu	s8,8(sp)
    1e1c:	004c0c13          	addi	s8,s8,4
    1e20:	010c1c13          	slli	s8,s8,0x10
    1e24:	410c5c13          	srai	s8,s8,0x10

00001e28 <.L948>:
    1e28:	01811423          	sh	s8,8(sp)
    1e2c:	03300c13          	li	s8,51
    1e30:	01fc4463          	blt	s8,t6,1e38 <.L948+0x10>
    1e34:	09d0206f          	j	46d0 <.L956>
    1e38:	01b00c13          	li	s8,27
    1e3c:	b6ec4663          	blt	s8,a4,11a8 <.L949>
    1e40:	fcd00c13          	li	s8,-51
    1e44:	0186c463          	blt	a3,s8,1e4c <.L948+0x24>
    1e48:	0340706f          	j	8e7c <.L971>
    1e4c:	00a15c03          	lhu	s8,10(sp)
    1e50:	006c0c13          	addi	s8,s8,6
    1e54:	01811523          	sh	s8,10(sp)
    1e58:	01300c13          	li	s8,19
    1e5c:	b91c5063          	bge	s8,a7,11dc <.L2795>

00001e60 <.L974>:
    1e60:	d8400c13          	li	s8,-636
    1e64:	0182c463          	blt	t0,s8,1e6c <.L974+0xc>
    1e68:	29d0806f          	j	a904 <.L980>
    1e6c:	00c15c03          	lhu	s8,12(sp)
    1e70:	002c0c13          	addi	s8,s8,2
    1e74:	010c1c13          	slli	s8,s8,0x10
    1e78:	410c5c13          	srai	s8,s8,0x10

00001e7c <.L979>:
    1e7c:	01811623          	sh	s8,12(sp)
    1e80:	cf000c13          	li	s8,-784
    1e84:	0185d463          	bge	a1,s8,1e8c <.L976>
    1e88:	0910206f          	j	4718 <.L962>

00001e8c <.L976>:
    1e8c:	0de00c13          	li	s8,222
    1e90:	012c5463          	bge	s8,s2,1e98 <.L976+0xc>
    1e94:	6a90406f          	j	6d3c <.L984>
    1e98:	02600c13          	li	s8,38
    1e9c:	00dc5463          	bge	s8,a3,1ea4 <.L976+0x18>
    1ea0:	1090206f          	j	47a8 <.L988>
    1ea4:	fa300c13          	li	s8,-93
    1ea8:	0182d463          	bge	t0,s8,1eb0 <.L994>
    1eac:	73d0306f          	j	5de8 <.L985>

00001eb0 <.L994>:
    1eb0:	efb00c13          	li	s8,-261
    1eb4:	0185d463          	bge	a1,s8,1ebc <.L994+0xc>
    1eb8:	09d0206f          	j	4754 <.L990>
    1ebc:	00815c03          	lhu	s8,8(sp)
    1ec0:	00ac0c13          	addi	s8,s8,10
    1ec4:	01811423          	sh	s8,8(sp)
    1ec8:	1ac00c13          	li	s8,428
    1ecc:	b76c5263          	bge	s8,s6,1230 <.L2796>

00001ed0 <.L1004>:
    1ed0:	0a500c13          	li	s8,165
    1ed4:	00ec5463          	bge	s8,a4,1edc <.L1004+0xc>
    1ed8:	5cc0506f          	j	74a4 <.L1010>
    1edc:	1ff00c13          	li	s8,511
    1ee0:	009c4463          	blt	s8,s1,1ee8 <.L1004+0x18>
    1ee4:	16d0506f          	j	7850 <.L1012>
    1ee8:	00a15c03          	lhu	s8,10(sp)
    1eec:	ffac0c13          	addi	s8,s8,-6
    1ef0:	010c1c13          	slli	s8,s8,0x10
    1ef4:	410c5c13          	srai	s8,s8,0x10
    1ef8:	01811523          	sh	s8,10(sp)
    1efc:	03d00c13          	li	s8,61
    1f00:	b6fc5263          	bge	s8,a5,1264 <.L1013>

00001f04 <.L1017>:
    1f04:	d9500c13          	li	s8,-619
    1f08:	018ad463          	bge	s5,s8,1f10 <.L1017+0xc>
    1f0c:	5b80506f          	j	74c4 <.L1024>
    1f10:	55900c13          	li	s8,1369
    1f14:	00dc5463          	bge	s8,a3,1f1c <.L1017+0x18>
    1f18:	2180806f          	j	a130 <.L1025>
    1f1c:	00c15c03          	lhu	s8,12(sp)
    1f20:	ff7c0c13          	addi	s8,s8,-9
    1f24:	01811623          	sh	s8,12(sp)

00001f28 <.L1014>:
    1f28:	11a00c13          	li	s8,282
    1f2c:	007c5463          	bge	s8,t2,1f34 <.L1014+0xc>
    1f30:	4600406f          	j	6390 <.L1030>
    1f34:	0db00c13          	li	s8,219
    1f38:	00ec5463          	bge	s8,a4,1f40 <.L1014+0x18>
    1f3c:	1990706f          	j	98d4 <.L1031>
    1f40:	00e15c03          	lhu	s8,14(sp)
    1f44:	01f00c93          	li	s9,31
    1f48:	005c0c13          	addi	s8,s8,5
    1f4c:	01811723          	sh	s8,14(sp)
    1f50:	013cc463          	blt	s9,s3,1f58 <.L1014+0x30>
    1f54:	32c0306f          	j	5280 <.L1038>
    1f58:	00600c13          	li	s8,6
    1f5c:	b71c4e63          	blt	s8,a7,12d8 <.L1046>
    1f60:	03100c13          	li	s8,49
    1f64:	b9fc5c63          	bge	s8,t6,12fc <.L1052>
    1f68:	01400c13          	li	s8,20
    1f6c:	010c4463          	blt	s8,a6,1f74 <.L1054>
    1f70:	3440306f          	j	52b4 <.L2260>

00001f74 <.L1054>:
    1f74:	00a15c03          	lhu	s8,10(sp)
    1f78:	003c0c13          	addi	s8,s8,3
    1f7c:	010c1c13          	slli	s8,s8,0x10
    1f80:	410c5c13          	srai	s8,s8,0x10
    1f84:	01811523          	sh	s8,10(sp)
    1f88:	0c100c13          	li	s8,193
    1f8c:	b89c5c63          	bge	s8,s1,1324 <.L2797>

00001f90 <.L1056>:
    1f90:	f6900c13          	li	s8,-151
    1f94:	0185c463          	blt	a1,s8,1f9c <.L1056+0xc>
    1f98:	2340406f          	j	61cc <.L1075>
    1f9c:	11400c13          	li	s8,276
    1fa0:	00dc5463          	bge	s8,a3,1fa8 <.L1056+0x18>
    1fa4:	1340706f          	j	90d8 <.L1076>
    1fa8:	00c15c03          	lhu	s8,12(sp)
    1fac:	ffdc0c13          	addi	s8,s8,-3
    1fb0:	010c1c13          	slli	s8,s8,0x10
    1fb4:	410c5c13          	srai	s8,s8,0x10

00001fb8 <.L1074>:
    1fb8:	01811623          	sh	s8,12(sp)
    1fbc:	02f00c13          	li	s8,47
    1fc0:	010c5463          	bge	s8,a6,1fc8 <.L1074+0x10>
    1fc4:	09d0306f          	j	5860 <.L1082>
    1fc8:	03800c13          	li	s8,56
    1fcc:	01fc5463          	bge	s8,t6,1fd4 <.L1074+0x1c>
    1fd0:	12c0706f          	j	90fc <.L1078>
    1fd4:	08d00c13          	li	s8,141
    1fd8:	00dc5463          	bge	s8,a3,1fe0 <.L1074+0x28>
    1fdc:	0a10806f          	j	a87c <.L1067>
    1fe0:	00e15c03          	lhu	s8,14(sp)
    1fe4:	ffe00c93          	li	s9,-2
    1fe8:	004c0c13          	addi	s8,s8,4
    1fec:	01811723          	sh	s8,14(sp)
    1ff0:	01985463          	bge	a6,s9,1ff8 <.L1080>
    1ff4:	5d40106f          	j	35c8 <.L1064>

00001ff8 <.L1080>:
    1ff8:	03c00c13          	li	s8,60
    1ffc:	b6fc5263          	bge	s8,a5,1360 <.L1062>

00002000 <.L1089>:
    2000:	01c51c83          	lh	s9,28(a0)
    2004:	01e00c13          	li	s8,30
    2008:	019c5463          	bge	s8,s9,2010 <.L1089+0x10>
    200c:	0490706f          	j	9854 <.L1094>
    2010:	00815c03          	lhu	s8,8(sp)
    2014:	ff9c0c13          	addi	s8,s8,-7
    2018:	010c1c13          	slli	s8,s8,0x10
    201c:	410c5c13          	srai	s8,s8,0x10
    2020:	01811423          	sh	s8,8(sp)
    2024:	30000c13          	li	s8,768
    2028:	b7ec5063          	bge	s8,t5,1388 <.L1085>

0000202c <.L1095>:
    202c:	03d00c13          	li	s8,61
    2030:	01fc4463          	blt	s8,t6,2038 <.L1095+0xc>
    2034:	5b80106f          	j	35ec <.L1086>
    2038:	ff300c13          	li	s8,-13
    203c:	01864463          	blt	a2,s8,2044 <.L1095+0x18>
    2040:	5810706f          	j	9dc0 <.L1106>
    2044:	00a15c03          	lhu	s8,10(sp)
    2048:	04900c93          	li	s9,73
    204c:	ff5c0c13          	addi	s8,s8,-11
    2050:	01811523          	sh	s8,10(sp)
    2054:	011cd463          	bge	s9,a7,205c <.L1104>
    2058:	3500306f          	j	53a8 <.L1105>

0000205c <.L1104>:
    205c:	02000c13          	li	s8,32
    2060:	01dc5463          	bge	s8,t4,2068 <.L1102>
    2064:	6110506f          	j	7e74 <.L1103>

00002068 <.L1102>:
    2068:	00c15c03          	lhu	s8,12(sp)
    206c:	004c0c13          	addi	s8,s8,4
    2070:	01811623          	sh	s8,12(sp)
    2074:	e4a00c13          	li	s8,-438
    2078:	b782c263          	blt	t0,s8,13dc <.L2798>

0000207c <.L1112>:
    207c:	00300c13          	li	s8,3
    2080:	01cc5463          	bge	s8,t3,2088 <.L1112+0xc>
    2084:	4a00306f          	j	5524 <.L1121>
    2088:	f0e00c13          	li	s8,-242
    208c:	0182c463          	blt	t0,s8,2094 <.L1112+0x18>
    2090:	4ac0306f          	j	553c <.L1122>
    2094:	00e15c03          	lhu	s8,14(sp)
    2098:	01500c93          	li	s9,21
    209c:	ff6c0c13          	addi	s8,s8,-10
    20a0:	01811723          	sh	s8,14(sp)
    20a4:	b67cc263          	blt	s9,t2,1408 <.L2602>

000020a8 <.L1118>:
    20a8:	0ac00c13          	li	s8,172
    20ac:	006c5463          	bge	s8,t1,20b4 <.L1118+0xc>
    20b0:	4c00306f          	j	5570 <.L1119>
    20b4:	ffe00c13          	li	s8,-2
    20b8:	01864463          	blt	a2,s8,20c0 <.L1118+0x18>
    20bc:	1910506f          	j	7a4c <.L1126>
    20c0:	00815c03          	lhu	s8,8(sp)
    20c4:	009c0c13          	addi	s8,s8,9
    20c8:	010c1c13          	slli	s8,s8,0x10
    20cc:	410c5c13          	srai	s8,s8,0x10
    20d0:	01811423          	sh	s8,8(sp)
    20d4:	03300c13          	li	s8,51
    20d8:	b7fc5263          	bge	s8,t6,143c <.L2799>

000020dc <.L1129>:
    20dc:	01400c13          	li	s8,20
    20e0:	010c5463          	bge	s8,a6,20e8 <.L1129+0xc>
    20e4:	3c00606f          	j	84a4 <.L1135>
    20e8:	01300c13          	li	s8,19
    20ec:	00ec5463          	bge	s8,a4,20f4 <.L1129+0x18>
    20f0:	46d0706f          	j	9d5c <.L1136>
    20f4:	00a15c03          	lhu	s8,10(sp)
    20f8:	ffcc0c13          	addi	s8,s8,-4
    20fc:	010c1c13          	slli	s8,s8,0x10
    2100:	410c5c13          	srai	s8,s8,0x10
    2104:	01811523          	sh	s8,10(sp)
    2108:	00100c13          	li	s8,1
    210c:	b7cc4263          	blt	s8,t3,1470 <.L1138>

00002110 <.L2767>:
    2110:	e4e00c13          	li	s8,-434
    2114:	0185c463          	blt	a1,s8,211c <.L2767+0xc>
    2118:	6b90606f          	j	8fd0 <.L1139>
    211c:	00c15c03          	lhu	s8,12(sp)
    2120:	003c0c13          	addi	s8,s8,3
    2124:	010c1c13          	slli	s8,s8,0x10
    2128:	410c5c13          	srai	s8,s8,0x10
    212c:	01811623          	sh	s8,12(sp)
    2130:	03e00c13          	li	s8,62
    2134:	b6fc5863          	bge	s8,a5,14a4 <.L2800>

00002138 <.L1145>:
    2138:	fec00c13          	li	s8,-20
    213c:	01864463          	blt	a2,s8,2144 <.L1145+0xc>
    2140:	2150606f          	j	8b54 <.L1150>
    2144:	00e15c03          	lhu	s8,14(sp)
    2148:	01f00c93          	li	s9,31
    214c:	ffdc0c13          	addi	s8,s8,-3
    2150:	01811723          	sh	s8,14(sp)
    2154:	013cd463          	bge	s9,s3,215c <.L1145+0x24>
    2158:	7100206f          	j	4868 <.L1152>
    215c:	e2100c13          	li	s8,-479
    2160:	0182c463          	blt	t0,s8,2168 <.L1145+0x30>
    2164:	0c90106f          	j	3a2c <.L1160>
    2168:	00815c03          	lhu	s8,8(sp)
    216c:	1b900c93          	li	s9,441
    2170:	ff7c0c13          	addi	s8,s8,-9
    2174:	01811423          	sh	s8,8(sp)
    2178:	01ecc463          	blt	s9,t5,2180 <.L1162>
    217c:	0c90106f          	j	3a44 <.L1161>

00002180 <.L1162>:
    2180:	03200c13          	li	s8,50
    2184:	01dc5463          	bge	s8,t4,218c <.L1162+0xc>
    2188:	0780706f          	j	9200 <.L1178>
    218c:	ff200c13          	li	s8,-14
    2190:	01864463          	blt	a2,s8,2198 <.L1162+0x18>
    2194:	3540906f          	j	b4e8 <.L1179>
    2198:	00a15c03          	lhu	s8,10(sp)
    219c:	03c00c93          	li	s9,60
    21a0:	ff7c0c13          	addi	s8,s8,-9
    21a4:	01811523          	sh	s8,10(sp)
    21a8:	b8fcd463          	bge	s9,a5,1530 <.L1174>

000021ac <.L1171>:
    21ac:	daa00c13          	li	s8,-598
    21b0:	018ad463          	bge	s5,s8,21b8 <.L1171+0xc>
    21b4:	3200506f          	j	74d4 <.L1187>
    21b8:	00b00c13          	li	s8,11
    21bc:	01dc5463          	bge	s8,t4,21c4 <.L1171+0x18>
    21c0:	0700706f          	j	9230 <.L1184>
    21c4:	00c15c03          	lhu	s8,12(sp)
    21c8:	004c0c13          	addi	s8,s8,4
    21cc:	010c1c13          	slli	s8,s8,0x10
    21d0:	410c5c13          	srai	s8,s8,0x10

000021d4 <.L1189>:
    21d4:	01811623          	sh	s8,12(sp)
    21d8:	0d800c13          	li	s8,216
    21dc:	b92c4463          	blt	s8,s2,1564 <.L1195>

000021e0 <.L2769>:
    21e0:	cf000c13          	li	s8,-784
    21e4:	0185c463          	blt	a1,s8,21ec <.L2769+0xc>
    21e8:	3180606f          	j	8500 <.L1194>
    21ec:	e1800c13          	li	s8,-488
    21f0:	018a4463          	blt	s4,s8,21f8 <.L2769+0x18>
    21f4:	4010706f          	j	9df4 <.L1198>
    21f8:	00e15c03          	lhu	s8,14(sp)
    21fc:	fffc0c13          	addi	s8,s8,-1
    2200:	010c1c13          	slli	s8,s8,0x10
    2204:	010c5c13          	srli	s8,s8,0x10

00002208 <.L1199>:
    2208:	01811723          	sh	s8,14(sp)

0000220c <.L1201>:
    220c:	00400c13          	li	s8,4
    2210:	011c4463          	blt	s8,a7,2218 <.L1201+0xc>
    2214:	4f10206f          	j	4f04 <.L1209>
    2218:	00e00c13          	li	s8,14
    221c:	01dc5463          	bge	s8,t4,2224 <.L1201+0x18>
    2220:	0890506f          	j	7aa8 <.L1217>
    2224:	00094463          	bltz	s2,222c <.L1201+0x20>
    2228:	7850106f          	j	41ac <.L1218>
    222c:	00815c03          	lhu	s8,8(sp)
    2230:	008c0c13          	addi	s8,s8,8
    2234:	01811423          	sh	s8,8(sp)

00002238 <.L1210>:
    2238:	03500c13          	li	s8,53
    223c:	b6ec5e63          	bge	s8,a4,15b8 <.L1215>
    2240:	0e100c13          	li	s8,225
    2244:	00dc5463          	bge	s8,a3,224c <.L1220>
    2248:	56d0606f          	j	8fb4 <.L1223>

0000224c <.L1220>:
    224c:	03200c13          	li	s8,50
    2250:	01fc5463          	bge	s8,t6,2258 <.L2693>
    2254:	70c0606f          	j	8960 <.L1222>

00002258 <.L2693>:
    2258:	00a15c03          	lhu	s8,10(sp)
    225c:	0c100c93          	li	s9,193
    2260:	ff7c0c13          	addi	s8,s8,-9
    2264:	01811523          	sh	s8,10(sp)
    2268:	b69cdc63          	bge	s9,s1,15e0 <.L1228>

0000226c <.L2608>:
    226c:	f6900c13          	li	s8,-151
    2270:	0185c463          	blt	a1,s8,2278 <.L1230>
    2274:	7800506f          	j	79f4 <.L1235>

00002278 <.L1230>:
    2278:	00c15c03          	lhu	s8,12(sp)
    227c:	fffc0c13          	addi	s8,s8,-1
    2280:	010c1c13          	slli	s8,s8,0x10
    2284:	410c5c13          	srai	s8,s8,0x10

00002288 <.L1240>:
    2288:	01811623          	sh	s8,12(sp)
    228c:	03600c13          	li	s8,54
    2290:	b8fc4263          	blt	s8,a5,1614 <.L1244>

00002294 <.L2770>:
    2294:	04c00c13          	li	s8,76
    2298:	016c5463          	bge	s8,s6,22a0 <.L2770+0xc>
    229c:	05d0606f          	j	8af8 <.L1245>
    22a0:	00e15c03          	lhu	s8,14(sp)
    22a4:	01500c93          	li	s9,21
    22a8:	002c0c13          	addi	s8,s8,2
    22ac:	01811723          	sh	s8,14(sp)
    22b0:	007cc463          	blt	s9,t2,22b8 <.L2770+0x24>
    22b4:	3440206f          	j	45f8 <.L1254>
    22b8:	11d00c13          	li	s8,285
    22bc:	007c5463          	bge	s8,t2,22c4 <.L2770+0x30>
    22c0:	2410706f          	j	9d00 <.L1249>
    22c4:	00815c03          	lhu	s8,8(sp)
    22c8:	08c00c93          	li	s9,140
    22cc:	ffdc0c13          	addi	s8,s8,-3
    22d0:	01811423          	sh	s8,8(sp)
    22d4:	006cd463          	bge	s9,t1,22dc <.L1250>
    22d8:	4900806f          	j	a768 <.L2801>

000022dc <.L1250>:
    22dc:	00900c13          	li	s8,9
    22e0:	011c5463          	bge	s8,a7,22e8 <.L1250+0xc>
    22e4:	2590506f          	j	7d3c <.L2802>
    22e8:	01dc5463          	bge	s8,t4,22f0 <.L1250+0x14>
    22ec:	2390306f          	j	5d24 <.L1278>
    22f0:	00a15c03          	lhu	s8,10(sp)
    22f4:	03300c93          	li	s9,51
    22f8:	ffac0c13          	addi	s8,s8,-6
    22fc:	01811523          	sh	s8,10(sp)
    2300:	00fcc463          	blt	s9,a5,2308 <.L1279>
    2304:	1fd0506f          	j	7d00 <.L2611>

00002308 <.L1279>:
    2308:	04700c13          	li	s8,71
    230c:	ba7c5263          	bge	s8,t2,16b0 <.L1266>

00002310 <.L1289>:
    2310:	00c15c03          	lhu	s8,12(sp)
    2314:	003c0c13          	addi	s8,s8,3
    2318:	010c1c13          	slli	s8,s8,0x10
    231c:	410c5c13          	srai	s8,s8,0x10

00002320 <.L1281>:
    2320:	01811623          	sh	s8,12(sp)
    2324:	03c00c13          	li	s8,60
    2328:	00fc4463          	blt	s8,a5,2330 <.L1281+0x10>
    232c:	3540206f          	j	4680 <.L1292>
    2330:	0d400c13          	li	s8,212
    2334:	00ec5463          	bge	s8,a4,233c <.L1281+0x1c>
    2338:	30d0606f          	j	8e44 <.L1307>
    233c:	0a100c13          	li	s8,161
    2340:	ba7c5063          	bge	s8,t2,16e0 <.L1310>
    2344:	ffe00c13          	li	s8,-2
    2348:	bb884663          	blt	a6,s8,16f4 <.L1300>

0000234c <.L1321>:
    234c:	ec700c13          	li	s8,-313
    2350:	01844463          	blt	s0,s8,2358 <.L2940>
    2354:	3150606f          	j	8e68 <.L1333>

00002358 <.L2940>:
    2358:	00815c03          	lhu	s8,8(sp)
    235c:	fffc0c13          	addi	s8,s8,-1
    2360:	010c1c13          	slli	s8,s8,0x10
    2364:	410c5c13          	srai	s8,s8,0x10

00002368 <.L1332>:
    2368:	01811423          	sh	s8,8(sp)
    236c:	03400c13          	li	s8,52
    2370:	01dc4463          	blt	s8,t4,2378 <.L1332+0x10>
    2374:	3150106f          	j	3e88 <.L1329>
    2378:	1db00c13          	li	s8,475
    237c:	016c5463          	bge	s8,s6,2384 <.L1332+0x1c>
    2380:	2510506f          	j	7dd0 <.L1326>
    2384:	00800c13          	li	s8,8
    2388:	bb0c5063          	bge	s8,a6,1728 <.L1330>
    238c:	00a15c03          	lhu	s8,10(sp)
    2390:	02a00c93          	li	s9,42
    2394:	ff4c0c13          	addi	s8,s8,-12
    2398:	01811523          	sh	s8,10(sp)
    239c:	badcc063          	blt	s9,a3,173c <.L1328>

000023a0 <.L1327>:
    23a0:	fba00c13          	li	s8,-70
    23a4:	0185c463          	blt	a1,s8,23ac <.L1357>
    23a8:	6e50606f          	j	928c <.L1338>

000023ac <.L1357>:
    23ac:	00c15c03          	lhu	s8,12(sp)
    23b0:	ffbc0c13          	addi	s8,s8,-5
    23b4:	01811623          	sh	s8,12(sp)

000023b8 <.L1360>:
    23b8:	03600c13          	li	s8,54
    23bc:	00fc4463          	blt	s8,a5,23c4 <.L1356>
    23c0:	1e80306f          	j	55a8 <.L1341>

000023c4 <.L1356>:
    23c4:	ff600c13          	li	s8,-10
    23c8:	01865463          	bge	a2,s8,23d0 <.L1355>
    23cc:	31d0106f          	j	3ee8 <.L1342>

000023d0 <.L1355>:
    23d0:	eea00c13          	li	s8,-278
    23d4:	018a4463          	blt	s4,s8,23dc <.L1355+0xc>
    23d8:	3350806f          	j	af0c <.L1370>
    23dc:	00e15c03          	lhu	s8,14(sp)
    23e0:	ffdc0c13          	addi	s8,s8,-3
    23e4:	010c1c13          	slli	s8,s8,0x10
    23e8:	410c5c13          	srai	s8,s8,0x10

000023ec <.L1366>:
    23ec:	01811723          	sh	s8,14(sp)
    23f0:	fa300c13          	li	s8,-93
    23f4:	0182c463          	blt	t0,s8,23fc <.L2849>
    23f8:	31d0106f          	j	3f14 <.L1367>

000023fc <.L2849>:
    23fc:	fa100c13          	li	s8,-95
    2400:	0182c463          	blt	t0,s8,2408 <.L2849+0xc>
    2404:	28d0506f          	j	7e90 <.L1369>
    2408:	01c04463          	bgtz	t3,2410 <.L2849+0x14>
    240c:	7450806f          	j	b350 <.L2803>
    2410:	03900c13          	li	s8,57
    2414:	006c4463          	blt	s8,t1,241c <.L2849+0x20>
    2418:	3d80206f          	j	47f0 <.L1372>
    241c:	ff800c13          	li	s8,-8
    2420:	01864463          	blt	a2,s8,2428 <.L1373>
    2424:	1610906f          	j	bd84 <.L2804>

00002428 <.L1373>:
    2428:	01c51c83          	lh	s9,28(a0)
    242c:	01e00c13          	li	s8,30
    2430:	019c5463          	bge	s8,s9,2438 <.L1373+0x10>
    2434:	3680806f          	j	a79c <.L2805>
    2438:	00a15c03          	lhu	s8,10(sp)
    243c:	002c0c13          	addi	s8,s8,2
    2440:	010c1c13          	slli	s8,s8,0x10
    2444:	410c5c13          	srai	s8,s8,0x10

00002448 <.L1399>:
    2448:	01811523          	sh	s8,10(sp)
    244c:	00100c13          	li	s8,1
    2450:	01cc4463          	blt	s8,t3,2458 <.L1396>
    2454:	3e50306f          	j	6038 <.L1375>

00002458 <.L1396>:
    2458:	02000c13          	li	s8,32
    245c:	01dc4463          	blt	s8,t4,2464 <.L1402>
    2460:	09c0706f          	j	94fc <.L2806>

00002464 <.L1402>:
    2464:	34700c13          	li	s8,839
    2468:	00dc5463          	bge	s8,a3,2470 <.L1402+0xc>
    246c:	0540706f          	j	94c0 <.L1414>
    2470:	00c15c03          	lhu	s8,12(sp)
    2474:	03c00c93          	li	s9,60
    2478:	ff9c0c13          	addi	s8,s8,-7
    247c:	01811623          	sh	s8,12(sp)
    2480:	00fcd463          	bge	s9,a5,2488 <.L2626>
    2484:	3bc0206f          	j	4840 <.L1390>

00002488 <.L2626>:
    2488:	e4f00c13          	li	s8,-433
    248c:	018ac463          	blt	s5,s8,2494 <.L1391>
    2490:	0f40606f          	j	8584 <.L1416>

00002494 <.L1391>:
    2494:	c5a00c13          	li	s8,-934
    2498:	0185d463          	bge	a1,s8,24a0 <.L1391+0xc>
    249c:	0e80606f          	j	8584 <.L1416>
    24a0:	00e15c03          	lhu	s8,14(sp)
    24a4:	ff6c0c13          	addi	s8,s8,-10
    24a8:	01811723          	sh	s8,14(sp)

000024ac <.L1411>:
    24ac:	01f00c13          	li	s8,31
    24b0:	013c5463          	bge	s8,s3,24b8 <.L1408>
    24b4:	2e50106f          	j	3f98 <.L1422>

000024b8 <.L1408>:
    24b8:	03d00c13          	li	s8,61
    24bc:	01fc5463          	bge	s8,t6,24c4 <.L1408+0xc>
    24c0:	58d0406f          	j	724c <.L1423>
    24c4:	01c04863          	bgtz	t3,24d4 <.L1424>
    24c8:	00815c03          	lhu	s8,8(sp)
    24cc:	005c0c13          	addi	s8,s8,5
    24d0:	01811423          	sh	s8,8(sp)

000024d4 <.L1424>:
    24d4:	03300c13          	li	s8,51
    24d8:	01fc5463          	bge	s8,t6,24e0 <.L2850>
    24dc:	2e10106f          	j	3fbc <.L1426>

000024e0 <.L2850>:
    24e0:	1c600c93          	li	s9,454
    24e4:	00ecd463          	bge	s9,a4,24ec <.L2850+0xc>
    24e8:	5290406f          	j	7210 <.L1427>
    24ec:	018f9463          	bne	t6,s8,24f4 <.L2850+0x14>
    24f0:	0a40906f          	j	b594 <.L1428>
    24f4:	00a15c03          	lhu	s8,10(sp)
    24f8:	ff7c0c13          	addi	s8,s8,-9
    24fc:	01811523          	sh	s8,10(sp)

00002500 <.L1429>:
    2500:	f9800c13          	li	s8,-104
    2504:	01844463          	blt	s0,s8,250c <.L2851>
    2508:	2e50106f          	j	3fec <.L1433>

0000250c <.L2851>:
    250c:	0c700c13          	li	s8,199
    2510:	016c5463          	bge	s8,s6,2518 <.L2851+0xc>
    2514:	4e80606f          	j	89fc <.L1434>
    2518:	ea900c13          	li	s8,-343
    251c:	018a4863          	blt	s4,s8,252c <.L1435>
    2520:	00c15c03          	lhu	s8,12(sp)
    2524:	ff7c0c13          	addi	s8,s8,-9
    2528:	01811623          	sh	s8,12(sp)

0000252c <.L1435>:
    252c:	d2a00c13          	li	s8,-726
    2530:	0185c463          	blt	a1,s8,2538 <.L2852>
    2534:	2e90106f          	j	401c <.L1440>

00002538 <.L2852>:
    2538:	25d00c13          	li	s8,605
    253c:	009c5463          	bge	s8,s1,2544 <.L2852+0xc>
    2540:	62c0306f          	j	5b6c <.L1441>
    2544:	e2e00c13          	li	s8,-466
    2548:	0182d463          	bge	t0,s8,2550 <.L2852+0x18>
    254c:	3b00706f          	j	98fc <.L1442>
    2550:	00e15c03          	lhu	s8,14(sp)
    2554:	00400c93          	li	s9,4
    2558:	008c0c13          	addi	s8,s8,8
    255c:	01811723          	sh	s8,14(sp)
    2560:	011cd463          	bge	s9,a7,2568 <.L1445>
    2564:	6200306f          	j	5b84 <.L1444>

00002568 <.L1445>:
    2568:	03800c13          	li	s8,56
    256c:	01fc5463          	bge	s8,t6,2574 <.L1445+0xc>
    2570:	4790406f          	j	71e8 <.L1450>
    2574:	00815c03          	lhu	s8,8(sp)
    2578:	00bc0c13          	addi	s8,s8,11
    257c:	01811423          	sh	s8,8(sp)

00002580 <.L2737>:
    2580:	00c00c13          	li	s8,12
    2584:	01cc4463          	blt	s8,t3,258c <.L2737+0xc>
    2588:	6ad0606f          	j	9434 <.L1453>
    258c:	23200c13          	li	s8,562
    2590:	01ec5463          	bge	s8,t5,2598 <.L2737+0x18>
    2594:	4740806f          	j	aa08 <.L1454>
    2598:	00a15c03          	lhu	s8,10(sp)
    259c:	ff7c0c13          	addi	s8,s8,-9
    25a0:	01811523          	sh	s8,10(sp)

000025a4 <.L1455>:
    25a4:	02700c13          	li	s8,39
    25a8:	01dc5463          	bge	s8,t4,25b0 <.L1476>
    25ac:	2d90106f          	j	4084 <.L1477>

000025b0 <.L1476>:
    25b0:	15500c13          	li	s8,341
    25b4:	01ec5463          	bge	s8,t5,25bc <.L1476+0xc>
    25b8:	4680806f          	j	aa20 <.L1482>
    25bc:	00c15c03          	lhu	s8,12(sp)
    25c0:	ffec0c13          	addi	s8,s8,-2
    25c4:	01811623          	sh	s8,12(sp)

000025c8 <.L1487>:
    25c8:	0a000c13          	li	s8,160
    25cc:	009c5463          	bge	s8,s1,25d4 <.L2854>
    25d0:	2d90106f          	j	40a8 <.L1491>

000025d4 <.L2854>:
    25d4:	09b00c13          	li	s8,155
    25d8:	009c5463          	bge	s8,s1,25e0 <.L2854+0xc>
    25dc:	7f90406f          	j	75d4 <.L1492>
    25e0:	0a300c13          	li	s8,163
    25e4:	012c5463          	bge	s8,s2,25ec <.L2854+0x18>
    25e8:	28d0806f          	j	b074 <.L1493>
    25ec:	00e15c03          	lhu	s8,14(sp)
    25f0:	39000c93          	li	s9,912
    25f4:	ffcc0c13          	addi	s8,s8,-4
    25f8:	01811723          	sh	s8,14(sp)
    25fc:	006cc463          	blt	s9,t1,2604 <.L2854+0x30>
    2600:	75d0106f          	j	455c <.L1502>
    2604:	14e00c13          	li	s8,334
    2608:	00dc5463          	bge	s8,a3,2610 <.L1512>
    260c:	6a00906f          	j	bcac <.L2807>

00002610 <.L1512>:
    2610:	00900c13          	li	s8,9
    2614:	013c5463          	bge	s8,s3,261c <.L1512+0xc>
    2618:	01d0706f          	j	9e34 <.L1514>
    261c:	00815c03          	lhu	s8,8(sp)
    2620:	003c0c13          	addi	s8,s8,3
    2624:	01811423          	sh	s8,8(sp)

00002628 <.L1511>:
    2628:	00c00c13          	li	s8,12
    262c:	01cc4463          	blt	s8,t3,2634 <.L1505>
    2630:	42d0206f          	j	525c <.L1520>

00002634 <.L1505>:
    2634:	1dc00c13          	li	s8,476
    2638:	016c5463          	bge	s8,s6,2640 <.L1505+0xc>
    263c:	3780806f          	j	a9b4 <.L1525>
    2640:	00a15c03          	lhu	s8,10(sp)
    2644:	f9800c93          	li	s9,-104
    2648:	ff3c0c13          	addi	s8,s8,-13
    264c:	01811523          	sh	s8,10(sp)
    2650:	01944463          	blt	s0,s9,2658 <.L1506>
    2654:	74d0106f          	j	45a0 <.L1507>

00002658 <.L1506>:
    2658:	0c700c13          	li	s8,199
    265c:	016c4463          	blt	s8,s6,2664 <.L1521>
    2660:	7480606f          	j	8da8 <.L1528>

00002664 <.L1521>:
    2664:	00c15c03          	lhu	s8,12(sp)
    2668:	01800c93          	li	s9,24
    266c:	fffc0c13          	addi	s8,s8,-1
    2670:	01811623          	sh	s8,12(sp)
    2674:	010cc463          	blt	s9,a6,267c <.L1534>
    2678:	7590106f          	j	45d0 <.L1544>

0000267c <.L1534>:
    267c:	eee00c13          	li	s8,-274
    2680:	018ac463          	blt	s5,s8,2688 <.L1534+0xc>
    2684:	60c0106f          	j	3c90 <.L1549>
    2688:	01c51c83          	lh	s9,28(a0)
    268c:	02300c13          	li	s8,35
    2690:	019c5463          	bge	s8,s9,2698 <.L1540>
    2694:	2e90106f          	j	417c <.L2808>

00002698 <.L1540>:
    2698:	00e15c03          	lhu	s8,14(sp)
    269c:	005c0c13          	addi	s8,s8,5
    26a0:	01811723          	sh	s8,14(sp)

000026a4 <.L1539>:
    26a4:	0a900c13          	li	s8,169
    26a8:	01ec5463          	bge	s8,t5,26b0 <.L2842>
    26ac:	5fc0106f          	j	3ca8 <.L1550>

000026b0 <.L2842>:
    26b0:	01c00c13          	li	s8,28
    26b4:	00fc5463          	bge	s8,a5,26bc <.L2842+0xc>
    26b8:	5190506f          	j	83d0 <.L1551>
    26bc:	07300c13          	li	s8,115
    26c0:	01ec5463          	bge	s8,t5,26c8 <.L2842+0x18>
    26c4:	0fd0706f          	j	9fc0 <.L1552>
    26c8:	00815c03          	lhu	s8,8(sp)
    26cc:	006c0c13          	addi	s8,s8,6
    26d0:	010c1c13          	slli	s8,s8,0x10
    26d4:	410c5c13          	srai	s8,s8,0x10

000026d8 <.L1553>:
    26d8:	01811423          	sh	s8,8(sp)
    26dc:	03300c13          	li	s8,51
    26e0:	01fc5463          	bge	s8,t6,26e8 <.L2843>
    26e4:	5f00106f          	j	3cd4 <.L1557>

000026e8 <.L2843>:
    26e8:	00001c37          	lui	s8,0x1
    26ec:	cbbc0c13          	addi	s8,s8,-837 # cbb <.L2778+0x3>
    26f0:	00ec5463          	bge	s8,a4,26f8 <.L2843+0x10>
    26f4:	4ad0506f          	j	83a0 <.L1558>
    26f8:	dba00c13          	li	s8,-582
    26fc:	0185c863          	blt	a1,s8,270c <.L1559>
    2700:	00a15c03          	lhu	s8,10(sp)
    2704:	ff9c0c13          	addi	s8,s8,-7
    2708:	01811523          	sh	s8,10(sp)

0000270c <.L1559>:
    270c:	10b00c13          	li	s8,267
    2710:	00dc4463          	blt	s8,a3,2718 <.L1568>
    2714:	2dd0606f          	j	91f0 <.L1565>

00002718 <.L1568>:
    2718:	e8500c13          	li	s8,-379
    271c:	018ad463          	bge	s5,s8,2724 <.L1568+0xc>
    2720:	4d10506f          	j	83f0 <.L1572>
    2724:	18c00c13          	li	s8,396
    2728:	00ec5463          	bge	s8,a4,2730 <.L1568+0x18>
    272c:	4910506f          	j	83bc <.L1569>
    2730:	00c15c03          	lhu	s8,12(sp)
    2734:	001c0c13          	addi	s8,s8,1
    2738:	010c1c13          	slli	s8,s8,0x10
    273c:	410c5c13          	srai	s8,s8,0x10

00002740 <.L1574>:
    2740:	01811623          	sh	s8,12(sp)
    2744:	02700c93          	li	s9,39
    2748:	007cd463          	bge	s9,t2,2750 <.L2844>
    274c:	5d80106f          	j	3d24 <.L1577>

00002750 <.L2844>:
    2750:	03d00c93          	li	s9,61
    2754:	00fcd463          	bge	s9,a5,275c <.L2844+0xc>
    2758:	2950506f          	j	81ec <.L1578>
    275c:	02000c93          	li	s9,32
    2760:	010cd463          	bge	s9,a6,2768 <.L2844+0x18>
    2764:	2790506f          	j	81dc <.L1579>
    2768:	00e15c83          	lhu	s9,14(sp)
    276c:	ff7c8c93          	addi	s9,s9,-9
    2770:	01911723          	sh	s9,14(sp)

00002774 <.L1580>:
    2774:	01f00c93          	li	s9,31
    2778:	013cd463          	bge	s9,s3,2780 <.L2845>
    277c:	5d80106f          	j	3d54 <.L1582>

00002780 <.L2845>:
    2780:	03d00c93          	li	s9,61
    2784:	01fcd463          	bge	s9,t6,278c <.L2845+0xc>
    2788:	1890506f          	j	8110 <.L1583>
    278c:	f7800c93          	li	s9,-136
    2790:	019a4863          	blt	s4,s9,27a0 <.L1584>
    2794:	00815c83          	lhu	s9,8(sp)
    2798:	004c8c93          	addi	s9,s9,4
    279c:	01911423          	sh	s9,8(sp)

000027a0 <.L1584>:
    27a0:	e2c00c93          	li	s9,-468
    27a4:	0192d463          	bge	t0,s9,27ac <.L2846>
    27a8:	5d00106f          	j	3d78 <.L1590>

000027ac <.L2846>:
    27ac:	03c00c13          	li	s8,60
    27b0:	01fc5463          	bge	s8,t6,27b8 <.L2846+0xc>
    27b4:	17d0506f          	j	8130 <.L1586>
    27b8:	00900c93          	li	s9,9
    27bc:	01ccd463          	bge	s9,t3,27c4 <.L2846+0x18>
    27c0:	2800306f          	j	5a40 <.L1611>
    27c4:	00a15c03          	lhu	s8,10(sp)
    27c8:	001c0c13          	addi	s8,s8,1
    27cc:	010c1c13          	slli	s8,s8,0x10
    27d0:	410c5c13          	srai	s8,s8,0x10

000027d4 <.L1612>:
    27d4:	01811523          	sh	s8,10(sp)
    27d8:	03c00c13          	li	s8,60
    27dc:	00fc4463          	blt	s8,a5,27e4 <.L1615>
    27e0:	20c0306f          	j	59ec <.L1604>

000027e4 <.L1615>:
    27e4:	e6500c13          	li	s8,-411
    27e8:	0182d463          	bge	t0,s8,27f0 <.L1615+0xc>
    27ec:	7e40906f          	j	bfd0 <.L1617>
    27f0:	00e00c13          	li	s8,14
    27f4:	01dc5463          	bge	s8,t4,27fc <.L1615+0x18>
    27f8:	7000706f          	j	9ef8 <.L1619>
    27fc:	00300c13          	li	s8,3
    2800:	01cc5463          	bge	s8,t3,2808 <.L1615+0x24>
    2804:	2640306f          	j	5a68 <.L1618>
    2808:	0c100c13          	li	s8,193
    280c:	012c5463          	bge	s8,s2,2814 <.L1635>
    2810:	4800906f          	j	bc90 <.L2809>

00002814 <.L1635>:
    2814:	02f00c13          	li	s8,47
    2818:	01fc5463          	bge	s8,t6,2820 <.L1635+0xc>
    281c:	6cc0706f          	j	9ee8 <.L2810>
    2820:	00e15c03          	lhu	s8,14(sp)
    2824:	00400c93          	li	s9,4
    2828:	019c0c33          	add	s8,s8,s9
    282c:	01811723          	sh	s8,14(sp)
    2830:	011cc463          	blt	s9,a7,2838 <.L1635+0x24>
    2834:	2d40406f          	j	6b08 <.L1651>
    2838:	00e00c13          	li	s8,14
    283c:	01dc5463          	bge	s8,t4,2844 <.L1646>
    2840:	5010606f          	j	9540 <.L2811>

00002844 <.L1646>:
    2844:	f9c00c13          	li	s8,-100
    2848:	01844463          	blt	s0,s8,2850 <.L1644>
    284c:	2f50606f          	j	9340 <.L1668>

00002850 <.L1644>:
    2850:	00815c03          	lhu	s8,8(sp)
    2854:	01d00c93          	li	s9,29
    2858:	ffac0c13          	addi	s8,s8,-6
    285c:	01811423          	sh	s8,8(sp)
    2860:	011cd463          	bge	s9,a7,2868 <.L2717>
    2864:	2f50606f          	j	9358 <.L1669>

00002868 <.L2717>:
    2868:	00a15c03          	lhu	s8,10(sp)
    286c:	00100c93          	li	s9,1
    2870:	ffec0c13          	addi	s8,s8,-2
    2874:	01811523          	sh	s8,10(sp)
    2878:	01ccc463          	blt	s9,t3,2880 <.L1659>
    287c:	44c0906f          	j	bcc8 <.L2812>

00002880 <.L1659>:
    2880:	ff000c13          	li	s8,-16
    2884:	01864463          	blt	a2,s8,288c <.L1659+0xc>
    2888:	04d0206f          	j	50d4 <.L2813>
    288c:	00c15c03          	lhu	s8,12(sp)
    2890:	ff600c93          	li	s9,-10
    2894:	007c0c13          	addi	s8,s8,7
    2898:	01811623          	sh	s8,12(sp)
    289c:	01964463          	blt	a2,s9,28a4 <.L1682>
    28a0:	0410206f          	j	50e0 <.L1683>

000028a4 <.L1682>:
    28a4:	0da00c13          	li	s8,218
    28a8:	012c5463          	bge	s8,s2,28b0 <.L1682+0xc>
    28ac:	4f10606f          	j	959c <.L1696>
    28b0:	00e15c03          	lhu	s8,14(sp)
    28b4:	ff9c0c13          	addi	s8,s8,-7
    28b8:	010c1c13          	slli	s8,s8,0x10
    28bc:	010c5c13          	srli	s8,s8,0x10

000028c0 <.L1697>:
    28c0:	01811723          	sh	s8,14(sp)

000028c4 <.L1699>:
    28c4:	e4300c13          	li	s8,-445
    28c8:	01844463          	blt	s0,s8,28d0 <.L1699+0xc>
    28cc:	6bc0206f          	j	4f88 <.L1703>
    28d0:	0d400c13          	li	s8,212
    28d4:	007c5463          	bge	s8,t2,28dc <.L1699+0x18>
    28d8:	6580506f          	j	7f30 <.L1706>
    28dc:	0d100c13          	li	s8,209
    28e0:	007c4463          	blt	s8,t2,28e8 <.L1699+0x24>
    28e4:	2b50606f          	j	9398 <.L1702>
    28e8:	00815c03          	lhu	s8,8(sp)
    28ec:	03b00c93          	li	s9,59
    28f0:	008c0c13          	addi	s8,s8,8
    28f4:	01811423          	sh	s8,8(sp)
    28f8:	00fcd463          	bge	s9,a5,2900 <.L2644>
    28fc:	64c0506f          	j	7f48 <.L1708>

00002900 <.L2644>:
    2900:	03500c13          	li	s8,53
    2904:	00ec4463          	blt	s8,a4,290c <.L1710>
    2908:	0f50506f          	j	81fc <.L1709>

0000290c <.L1710>:
    290c:	00a15c03          	lhu	s8,10(sp)
    2910:	005c0c13          	addi	s8,s8,5
    2914:	010c1c13          	slli	s8,s8,0x10
    2918:	410c5c13          	srai	s8,s8,0x10

0000291c <.L1721>:
    291c:	01811523          	sh	s8,10(sp)
    2920:	02200c13          	li	s8,34
    2924:	011c5463          	bge	s8,a7,292c <.L2888>
    2928:	6c40206f          	j	4fec <.L1730>

0000292c <.L2888>:
    292c:	01700c13          	li	s8,23
    2930:	01dc5463          	bge	s8,t4,2938 <.L2888+0xc>
    2934:	3910506f          	j	84c4 <.L1727>
    2938:	1dc00c13          	li	s8,476
    293c:	01ec5863          	bge	s8,t5,294c <.L1731>

00002940 <.L1729>:
    2940:	00c15c03          	lhu	s8,12(sp)
    2944:	008c0c13          	addi	s8,s8,8
    2948:	01811623          	sh	s8,12(sp)

0000294c <.L1731>:
    294c:	02600c13          	li	s8,38
    2950:	00dc5463          	bge	s8,a3,2958 <.L1731+0xc>
    2954:	4480206f          	j	4d9c <.L1728>
    2958:	00f00c13          	li	s8,15
    295c:	00dc5463          	bge	s8,a3,2964 <.L1731+0x18>
    2960:	76d0506f          	j	88cc <.L1738>
    2964:	08c00c13          	li	s8,140
    2968:	007c5463          	bge	s8,t2,2970 <.L1731+0x24>
    296c:	4f00806f          	j	ae5c <.L1739>
    2970:	00e15c03          	lhu	s8,14(sp)
    2974:	01500c93          	li	s9,21
    2978:	003c0c13          	addi	s8,s8,3
    297c:	01811723          	sh	s8,14(sp)
    2980:	007cc463          	blt	s9,t2,2988 <.L1741>
    2984:	27d0206f          	j	5400 <.L1740>

00002988 <.L1741>:
    2988:	ff700c13          	li	s8,-9
    298c:	01864863          	blt	a2,s8,299c <.L1749>
    2990:	00815c03          	lhu	s8,8(sp)
    2994:	ffcc0c13          	addi	s8,s8,-4
    2998:	01811423          	sh	s8,8(sp)

0000299c <.L1749>:
    299c:	0f000c13          	li	s8,240
    29a0:	006c5463          	bge	s8,t1,29a8 <.L1749+0xc>
    29a4:	3700206f          	j	4d14 <.L1753>
    29a8:	00200c13          	li	s8,2
    29ac:	01cc5463          	bge	s8,t3,29b4 <.L1749+0x18>
    29b0:	0300606f          	j	89e0 <.L1754>
    29b4:	03500c13          	li	s8,53
    29b8:	00fc5463          	bge	s8,a5,29c0 <.L1749+0x24>
    29bc:	3ed0706f          	j	a5a8 <.L1755>
    29c0:	00a15c03          	lhu	s8,10(sp)
    29c4:	007c0c13          	addi	s8,s8,7
    29c8:	01811523          	sh	s8,10(sp)

000029cc <.L1756>:
    29cc:	f9800c13          	li	s8,-104
    29d0:	01844463          	blt	s0,s8,29d8 <.L1768>
    29d4:	3700206f          	j	4d44 <.L2814>

000029d8 <.L1768>:
    29d8:	f6600c13          	li	s8,-154
    29dc:	01844463          	blt	s0,s8,29e4 <.L1768+0xc>
    29e0:	7e50506f          	j	89c4 <.L1760>
    29e4:	0c600c13          	li	s8,198
    29e8:	009c4863          	blt	s8,s1,29f8 <.L1770>

000029ec <.L1772>:
    29ec:	00c15c03          	lhu	s8,12(sp)
    29f0:	ffbc0c13          	addi	s8,s8,-5
    29f4:	01811623          	sh	s8,12(sp)

000029f8 <.L1770>:
    29f8:	02700c13          	li	s8,39
    29fc:	007c5463          	bge	s8,t2,2a04 <.L1770+0xc>
    2a00:	2ec0206f          	j	4cec <.L1763>
    2a04:	0e400c13          	li	s8,228
    2a08:	006c5463          	bge	s8,t1,2a10 <.L1770+0x18>
    2a0c:	2210506f          	j	842c <.L1762>
    2a10:	01b00c13          	li	s8,27
    2a14:	010c5463          	bge	s8,a6,2a1c <.L1770+0x24>
    2a18:	1700706f          	j	9b88 <.L1774>
    2a1c:	00e15c03          	lhu	s8,14(sp)
    2a20:	ff8c0c13          	addi	s8,s8,-8
    2a24:	01811723          	sh	s8,14(sp)

00002a28 <.L1775>:
    2a28:	00400c13          	li	s8,4
    2a2c:	011c5463          	bge	s8,a7,2a34 <.L1775+0xc>
    2a30:	14c0206f          	j	4b7c <.L1778>
    2a34:	03a00c13          	li	s8,58
    2a38:	01fc5463          	bge	s8,t6,2a40 <.L1775+0x18>
    2a3c:	4790206f          	j	56b4 <.L1779>
    2a40:	00815c03          	lhu	s8,8(sp)
    2a44:	02e00c93          	li	s9,46
    2a48:	009c0c13          	addi	s8,s8,9
    2a4c:	01811423          	sh	s8,8(sp)
    2a50:	01dcd463          	bge	s9,t4,2a58 <.L1783>
    2a54:	6c50206f          	j	5918 <.L1780>

00002a58 <.L1783>:
    2a58:	01200c13          	li	s8,18
    2a5c:	01dc5463          	bge	s8,t4,2a64 <.L1783+0xc>
    2a60:	5280806f          	j	af88 <.L2815>
    2a64:	00a15c03          	lhu	s8,10(sp)
    2a68:	ffec0c13          	addi	s8,s8,-2
    2a6c:	010c1c13          	slli	s8,s8,0x10
    2a70:	410c5c13          	srai	s8,s8,0x10

00002a74 <.L1793>:
    2a74:	01811523          	sh	s8,10(sp)
    2a78:	01500c13          	li	s8,21
    2a7c:	010c4463          	blt	s8,a6,2a84 <.L1793+0x10>
    2a80:	4610206f          	j	56e0 <.L1787>
    2a84:	03b00c13          	li	s8,59
    2a88:	00fc5463          	bge	s8,a5,2a90 <.L1793+0x1c>
    2a8c:	1400206f          	j	4bcc <.L1796>
    2a90:	ffb00c13          	li	s8,-5
    2a94:	01865463          	bge	a2,s8,2a9c <.L2647>
    2a98:	1940206f          	j	4c2c <.L1795>

00002a9c <.L2647>:
    2a9c:	00c15c03          	lhu	s8,12(sp)
    2aa0:	ffac0c13          	addi	s8,s8,-6
    2aa4:	01811623          	sh	s8,12(sp)

00002aa8 <.L1808>:
    2aa8:	00300c13          	li	s8,3
    2aac:	01cc5463          	bge	s8,t3,2ab4 <.L2883>
    2ab0:	1940206f          	j	4c44 <.L1801>

00002ab4 <.L2883>:
    2ab4:	01300c13          	li	s8,19
    2ab8:	01dc5463          	bge	s8,t4,2ac0 <.L2883+0xc>
    2abc:	19c0206f          	j	4c58 <.L2648>
    2ac0:	02e00c13          	li	s8,46
    2ac4:	012c5463          	bge	s8,s2,2acc <.L2883+0x18>
    2ac8:	0780306f          	j	5b40 <.L1815>
    2acc:	00e15c03          	lhu	s8,14(sp)
    2ad0:	0a900c93          	li	s9,169
    2ad4:	ff9c0c13          	addi	s8,s8,-7
    2ad8:	01811723          	sh	s8,14(sp)
    2adc:	01ecd463          	bge	s9,t5,2ae4 <.L1818>
    2ae0:	0780306f          	j	5b58 <.L2649>

00002ae4 <.L1818>:
    2ae4:	01c00c13          	li	s8,28
    2ae8:	00fc5463          	bge	s8,a5,2af0 <.L1818+0xc>
    2aec:	7400406f          	j	722c <.L1828>
    2af0:	06700c13          	li	s8,103
    2af4:	016c5463          	bge	s8,s6,2afc <.L1818+0x18>
    2af8:	5e90106f          	j	48e0 <.L1829>
    2afc:	00815c03          	lhu	s8,8(sp)
    2b00:	03300c93          	li	s9,51
    2b04:	005c0c13          	addi	s8,s8,5
    2b08:	01811423          	sh	s8,8(sp)
    2b0c:	01fcc463          	blt	s9,t6,2b14 <.L1831>
    2b10:	5e90106f          	j	48f8 <.L1832>

00002b14 <.L1831>:
    2b14:	08000c13          	li	s8,128
    2b18:	00ec5863          	bge	s8,a4,2b28 <.L1845>
    2b1c:	00a15c03          	lhu	s8,10(sp)
    2b20:	005c0c13          	addi	s8,s8,5
    2b24:	01811523          	sh	s8,10(sp)

00002b28 <.L1845>:
    2b28:	00100c13          	li	s8,1
    2b2c:	01cc4463          	blt	s8,t3,2b34 <.L1849>
    2b30:	6010106f          	j	4930 <.L2816>

00002b34 <.L1849>:
    2b34:	02700c13          	li	s8,39
    2b38:	006c5463          	bge	s8,t1,2b40 <.L1849+0xc>
    2b3c:	4280306f          	j	5f64 <.L1857>
    2b40:	ff800c13          	li	s8,-8
    2b44:	01864463          	blt	a2,s8,2b4c <.L1849+0x18>
    2b48:	1a50606f          	j	94ec <.L1858>
    2b4c:	00c15c03          	lhu	s8,12(sp)
    2b50:	ffcc0c13          	addi	s8,s8,-4
    2b54:	01811623          	sh	s8,12(sp)

00002b58 <.L1856>:
    2b58:	c0000c13          	li	s8,-1024
    2b5c:	0185c463          	blt	a1,s8,2b64 <.L1856+0xc>
    2b60:	1650206f          	j	54c4 <.L1859>
    2b64:	00e15c03          	lhu	s8,14(sp)
    2b68:	01f00c93          	li	s9,31
    2b6c:	007c0c13          	addi	s8,s8,7
    2b70:	01811723          	sh	s8,14(sp)
    2b74:	013ccc63          	blt	s9,s3,2b8c <.L1860>
    2b78:	04600c13          	li	s8,70
    2b7c:	011c4463          	blt	s8,a7,2b84 <.L1856+0x2c>
    2b80:	2990806f          	j	b618 <.L2817>
    2b84:	03b00c13          	li	s8,59
    2b88:	006c5863          	bge	s8,t1,2b98 <.L1874>

00002b8c <.L1860>:
    2b8c:	00815c03          	lhu	s8,8(sp)
    2b90:	ff9c0c13          	addi	s8,s8,-7
    2b94:	01811423          	sh	s8,8(sp)

00002b98 <.L1874>:
    2b98:	ff900c13          	li	s8,-7
    2b9c:	01864463          	blt	a2,s8,2ba4 <.L1874+0xc>
    2ba0:	50c0506f          	j	80ac <.L1876>
    2ba4:	1d800c13          	li	s8,472
    2ba8:	016c5463          	bge	s8,s6,2bb0 <.L1874+0x18>
    2bac:	5090706f          	j	a8b4 <.L1877>
    2bb0:	00a15c03          	lhu	s8,10(sp)
    2bb4:	ffdc0c13          	addi	s8,s8,-3
    2bb8:	01811523          	sh	s8,10(sp)

00002bbc <.L1880>:
    2bbc:	fdb00c13          	li	s8,-37
    2bc0:	01874463          	blt	a4,s8,2bc8 <.L2874>
    2bc4:	5d50106f          	j	4998 <.L1882>

00002bc8 <.L2874>:
    2bc8:	01200c13          	li	s8,18
    2bcc:	010c5463          	bge	s8,a6,2bd4 <.L2874+0xc>
    2bd0:	3980406f          	j	6f68 <.L1883>
    2bd4:	00c15c03          	lhu	s8,12(sp)
    2bd8:	05800c93          	li	s9,88
    2bdc:	ff8c0c13          	addi	s8,s8,-8
    2be0:	01811623          	sh	s8,12(sp)
    2be4:	009cd463          	bge	s9,s1,2bec <.L2874+0x24>
    2be8:	5380206f          	j	5120 <.L1884>
    2bec:	f5300c13          	li	s8,-173
    2bf0:	01845463          	bge	s0,s8,2bf8 <.L1886>
    2bf4:	7980506f          	j	838c <.L1885>

00002bf8 <.L1886>:
    2bf8:	00e15c03          	lhu	s8,14(sp)
    2bfc:	003c0c13          	addi	s8,s8,3
    2c00:	010c1c13          	slli	s8,s8,0x10
    2c04:	410c5c13          	srai	s8,s8,0x10

00002c08 <.L1897>:
    2c08:	01811723          	sh	s8,14(sp)
    2c0c:	07300c13          	li	s8,115
    2c10:	012c4463          	blt	s8,s2,2c18 <.L1900>
    2c14:	5e50106f          	j	49f8 <.L1894>

00002c18 <.L1900>:
    2c18:	00600c13          	li	s8,6
    2c1c:	010c5463          	bge	s8,a6,2c24 <.L1900+0xc>
    2c20:	3840406f          	j	6fa4 <.L1895>
    2c24:	ffe00c13          	li	s8,-2
    2c28:	01884863          	blt	a6,s8,2c38 <.L1909>
    2c2c:	00815c03          	lhu	s8,8(sp)
    2c30:	ff7c0c13          	addi	s8,s8,-9
    2c34:	01811423          	sh	s8,8(sp)

00002c38 <.L1909>:
    2c38:	01e00c13          	li	s8,30
    2c3c:	013c4463          	blt	s8,s3,2c44 <.L1909+0xc>
    2c40:	5d90106f          	j	4a18 <.L1912>
    2c44:	efa00c13          	li	s8,-262
    2c48:	01845863          	bge	s0,s8,2c58 <.L1914>
    2c4c:	00a15c03          	lhu	s8,10(sp)
    2c50:	009c0c13          	addi	s8,s8,9
    2c54:	01811523          	sh	s8,10(sp)

00002c58 <.L1914>:
    2c58:	00100c13          	li	s8,1
    2c5c:	01cc4463          	blt	s8,t3,2c64 <.L2495>
    2c60:	5dd0106f          	j	4a3c <.L1916>

00002c64 <.L2495>:
    2c64:	01f00c13          	li	s8,31
    2c68:	01dc4463          	blt	s8,t4,2c70 <.L2495+0xc>
    2c6c:	42c0206f          	j	5098 <.L1923>
    2c70:	11500c13          	li	s8,277
    2c74:	00dc4463          	blt	s8,a3,2c7c <.L2495+0x18>
    2c78:	6b50206f          	j	5b2c <.L2652>
    2c7c:	00c15c03          	lhu	s8,12(sp)
    2c80:	001c0c13          	addi	s8,s8,1
    2c84:	010c1c13          	slli	s8,s8,0x10
    2c88:	410c5c13          	srai	s8,s8,0x10

00002c8c <.L1922>:
    2c8c:	01811623          	sh	s8,12(sp)
    2c90:	ff600c13          	li	s8,-10
    2c94:	01864463          	blt	a2,s8,2c9c <.L2875>
    2c98:	5d10106f          	j	4a68 <.L1930>

00002c9c <.L2875>:
    2c9c:	02800c13          	li	s8,40
    2ca0:	01dc4463          	blt	s8,t4,2ca8 <.L2875+0xc>
    2ca4:	4140206f          	j	50b8 <.L1931>
    2ca8:	03900c13          	li	s8,57
    2cac:	01fc4463          	blt	s8,t6,2cb4 <.L2875+0x18>
    2cb0:	2d00306f          	j	5f80 <.L2653>
    2cb4:	00e15c03          	lhu	s8,14(sp)
    2cb8:	ffbc0c13          	addi	s8,s8,-5
    2cbc:	01811723          	sh	s8,14(sp)

00002cc0 <.L1934>:
    2cc0:	39000c13          	li	s8,912
    2cc4:	006c5463          	bge	s8,t1,2ccc <.L2877>
    2cc8:	5d10106f          	j	4a98 <.L1939>

00002ccc <.L2877>:
    2ccc:	0ba00c13          	li	s8,186
    2cd0:	012c5463          	bge	s8,s2,2cd8 <.L2877+0xc>
    2cd4:	6450406f          	j	7b18 <.L1940>
    2cd8:	0b700c13          	li	s8,183
    2cdc:	012c5863          	bge	s8,s2,2cec <.L1941>
    2ce0:	00815c03          	lhu	s8,8(sp)
    2ce4:	008c0c13          	addi	s8,s8,8
    2ce8:	01811423          	sh	s8,8(sp)

00002cec <.L1941>:
    2cec:	e2400c13          	li	s8,-476
    2cf0:	0182c463          	blt	t0,s8,2cf8 <.L2878>
    2cf4:	5c90106f          	j	4abc <.L1945>

00002cf8 <.L2878>:
    2cf8:	e0200c13          	li	s8,-510
    2cfc:	018ac463          	blt	s5,s8,2d04 <.L2878+0xc>
    2d00:	2c00406f          	j	6fc0 <.L1946>
    2d04:	ff400c13          	li	s8,-12
    2d08:	01864463          	blt	a2,s8,2d10 <.L2878+0x18>
    2d0c:	2b40806f          	j	afc0 <.L1947>
    2d10:	00a15c03          	lhu	s8,10(sp)
    2d14:	ffbc0c13          	addi	s8,s8,-5
    2d18:	010c1c13          	slli	s8,s8,0x10
    2d1c:	410c5c13          	srai	s8,s8,0x10

00002d20 <.L1948>:
    2d20:	01811523          	sh	s8,10(sp)
    2d24:	03c00c13          	li	s8,60
    2d28:	00fc4463          	blt	s8,a5,2d30 <.L1959>
    2d2c:	5c90106f          	j	4af4 <.L1963>

00002d30 <.L1959>:
    2d30:	daa00c13          	li	s8,-598
    2d34:	018ac463          	blt	s5,s8,2d3c <.L1959+0xc>
    2d38:	2b40406f          	j	6fec <.L1953>
    2d3c:	ff300c13          	li	s8,-13
    2d40:	01864463          	blt	a2,s8,2d48 <.L1981>
    2d44:	2a00806f          	j	afe4 <.L1952>

00002d48 <.L1981>:
    2d48:	00c15c03          	lhu	s8,12(sp)
    2d4c:	05800c93          	li	s9,88
    2d50:	006c0c13          	addi	s8,s8,6
    2d54:	01811623          	sh	s8,12(sp)
    2d58:	009cc463          	blt	s9,s1,2d60 <.L1984>
    2d5c:	4f80506f          	j	8254 <.L1982>

00002d60 <.L1984>:
    2d60:	1a500c13          	li	s8,421
    2d64:	007c5463          	bge	s8,t2,2d6c <.L1983>
    2d68:	6bc0806f          	j	b424 <.L1990>

00002d6c <.L1983>:
    2d6c:	00e15c03          	lhu	s8,14(sp)
    2d70:	001c0c13          	addi	s8,s8,1
    2d74:	01811723          	sh	s8,14(sp)

00002d78 <.L1968>:
    2d78:	01500c13          	li	s8,21
    2d7c:	007c5463          	bge	s8,t2,2d84 <.L1966>
    2d80:	6580406f          	j	73d8 <.L1975>

00002d84 <.L1966>:
    2d84:	07000c13          	li	s8,112
    2d88:	012c4863          	blt	s8,s2,2d98 <.L1972>
    2d8c:	00815c03          	lhu	s8,8(sp)
    2d90:	007c0c13          	addi	s8,s8,7
    2d94:	01811423          	sh	s8,8(sp)

00002d98 <.L1972>:
    2d98:	02e00c13          	li	s8,46
    2d9c:	01dc4463          	blt	s8,t4,2da4 <.L2879>
    2da0:	5b50106f          	j	4b54 <.L1993>

00002da4 <.L2879>:
    2da4:	03900c13          	li	s8,57
    2da8:	01fc4463          	blt	s8,t6,2db0 <.L2879+0xc>
    2dac:	5300506f          	j	82dc <.L1998>
    2db0:	03d00c13          	li	s8,61
    2db4:	00fc4463          	blt	s8,a5,2dbc <.L1999>
    2db8:	4790606f          	j	9a30 <.L2006>

00002dbc <.L1999>:
    2dbc:	25b00c13          	li	s8,603
    2dc0:	00ec5463          	bge	s8,a4,2dc8 <.L1999+0xc>
    2dc4:	3f80106f          	j	41bc <.L2004>
    2dc8:	0fe00c13          	li	s8,254
    2dcc:	00dc5463          	bge	s8,a3,2dd4 <.L1999+0x18>
    2dd0:	3390506f          	j	8908 <.L2008>
    2dd4:	f5600c13          	li	s8,-170
    2dd8:	018a4463          	blt	s4,s8,2de0 <.L1999+0x24>
    2ddc:	2c00506f          	j	809c <.L2009>
    2de0:	00c15c03          	lhu	s8,12(sp)
    2de4:	fffc0c13          	addi	s8,s8,-1
    2de8:	01811623          	sh	s8,12(sp)

00002dec <.L2010>:
    2dec:	02700c13          	li	s8,39
    2df0:	007c5463          	bge	s8,t2,2df8 <.L2856>
    2df4:	3f80106f          	j	41ec <.L2013>

00002df8 <.L2856>:
    2df8:	03d00c13          	li	s8,61
    2dfc:	00fc5463          	bge	s8,a5,2e04 <.L2856+0xc>
    2e00:	1d00506f          	j	7fd0 <.L2014>
    2e04:	00e15c03          	lhu	s8,14(sp)
    2e08:	ff9c0c13          	addi	s8,s8,-7
    2e0c:	010c1c13          	slli	s8,s8,0x10
    2e10:	410c5c13          	srai	s8,s8,0x10

00002e14 <.L2015>:
    2e14:	01811723          	sh	s8,14(sp)
    2e18:	00400c13          	li	s8,4
    2e1c:	011c5463          	bge	s8,a7,2e24 <.L2857>
    2e20:	4040106f          	j	4224 <.L2019>

00002e24 <.L2857>:
    2e24:	03800c13          	li	s8,56
    2e28:	01fc5463          	bge	s8,t6,2e30 <.L2857+0xc>
    2e2c:	1b80506f          	j	7fe4 <.L2020>
    2e30:	00815c03          	lhu	s8,8(sp)
    2e34:	008c0c13          	addi	s8,s8,8
    2e38:	01811423          	sh	s8,8(sp)

00002e3c <.L2021>:
    2e3c:	0f000c13          	li	s8,240
    2e40:	006c4463          	blt	s8,t1,2e48 <.L2858>
    2e44:	4100106f          	j	4254 <.L2029>

00002e48 <.L2858>:
    2e48:	f5200c13          	li	s8,-174
    2e4c:	0185c463          	blt	a1,s8,2e54 <.L2858+0xc>
    2e50:	2000506f          	j	8050 <.L2026>
    2e54:	03700c13          	li	s8,55
    2e58:	01fc5463          	bge	s8,t6,2e60 <.L2858+0x18>
    2e5c:	1450806f          	j	b7a0 <.L2038>
    2e60:	00a15c03          	lhu	s8,10(sp)
    2e64:	01500c93          	li	s9,21
    2e68:	ffec0c13          	addi	s8,s8,-2
    2e6c:	01811523          	sh	s8,10(sp)
    2e70:	010cd463          	bge	s9,a6,2e78 <.L2035>
    2e74:	5bc0206f          	j	5430 <.L2039>

00002e78 <.L2035>:
    2e78:	02200c13          	li	s8,34
    2e7c:	011c4463          	blt	s8,a7,2e84 <.L2035+0xc>
    2e80:	19c0506f          	j	801c <.L2040>
    2e84:	00c15c03          	lhu	s8,12(sp)
    2e88:	001c0c13          	addi	s8,s8,1
    2e8c:	010c1c13          	slli	s8,s8,0x10
    2e90:	410c5c13          	srai	s8,s8,0x10

00002e94 <.L2043>:
    2e94:	01811623          	sh	s8,12(sp)
    2e98:	01c04463          	bgtz	t3,2ea0 <.L2045>
    2e9c:	4100106f          	j	42ac <.L2818>

00002ea0 <.L2045>:
    2ea0:	ff600c13          	li	s8,-10
    2ea4:	01864463          	blt	a2,s8,2eac <.L2045+0xc>
    2ea8:	6910506f          	j	8d38 <.L2819>
    2eac:	02900c13          	li	s8,41
    2eb0:	01dc5463          	bge	s8,t4,2eb8 <.L2045+0x18>
    2eb4:	3540806f          	j	b208 <.L2820>
    2eb8:	00e15c03          	lhu	s8,14(sp)
    2ebc:	ffbc0c13          	addi	s8,s8,-5
    2ec0:	010c1c13          	slli	s8,s8,0x10
    2ec4:	410c5c13          	srai	s8,s8,0x10

00002ec8 <.L2058>:
    2ec8:	01811723          	sh	s8,14(sp)
    2ecc:	0a900c13          	li	s8,169
    2ed0:	01ec5463          	bge	s8,t5,2ed8 <.L2050>
    2ed4:	3f80106f          	j	42cc <.L2056>

00002ed8 <.L2050>:
    2ed8:	01c00b13          	li	s6,28
    2edc:	00fb5463          	bge	s6,a5,2ee4 <.L2050+0xc>
    2ee0:	5940206f          	j	5474 <.L2048>
    2ee4:	07300b13          	li	s6,115
    2ee8:	01eb5463          	bge	s6,t5,2ef0 <.L2050+0x18>
    2eec:	6e10706f          	j	adcc <.L2069>
    2ef0:	00815b03          	lhu	s6,8(sp)
    2ef4:	005b0b13          	addi	s6,s6,5
    2ef8:	01611423          	sh	s6,8(sp)

00002efc <.L2070>:
    2efc:	08300b13          	li	s6,131
    2f00:	009b5463          	bge	s6,s1,2f08 <.L2070+0xc>
    2f04:	1100206f          	j	5014 <.L2073>
    2f08:	01900b13          	li	s6,25
    2f0c:	013b4463          	blt	s6,s3,2f14 <.L2070+0x18>
    2f10:	3e80106f          	j	42f8 <.L2076>
    2f14:	00a15b03          	lhu	s6,10(sp)
    2f18:	02700c13          	li	s8,39
    2f1c:	fffb0b13          	addi	s6,s6,-1
    2f20:	01611523          	sh	s6,10(sp)
    2f24:	006c5463          	bge	s8,t1,2f2c <.L2074>
    2f28:	3e80106f          	j	4310 <.L2075>

00002f2c <.L2074>:
    2f2c:	ff800b13          	li	s6,-8
    2f30:	01665463          	bge	a2,s6,2f38 <.L2092>
    2f34:	1500406f          	j	7084 <.L2089>

00002f38 <.L2092>:
    2f38:	00c15b03          	lhu	s6,12(sp)
    2f3c:	ffeb0b13          	addi	s6,s6,-2
    2f40:	010b1b13          	slli	s6,s6,0x10
    2f44:	410b5b13          	srai	s6,s6,0x10

00002f48 <.L2082>:
    2f48:	01611623          	sh	s6,12(sp)
    2f4c:	c5700b13          	li	s6,-937
    2f50:	0165c463          	blt	a1,s6,2f58 <.L2860>
    2f54:	3f00106f          	j	4344 <.L2094>

00002f58 <.L2860>:
    2f58:	00e15b03          	lhu	s6,14(sp)
    2f5c:	006b0b13          	addi	s6,s6,6
    2f60:	01611723          	sh	s6,14(sp)

00002f64 <.L2095>:
    2f64:	01e00b13          	li	s6,30
    2f68:	013b5463          	bge	s6,s3,2f70 <.L2095+0xc>
    2f6c:	7b50106f          	j	4f20 <.L2108>
    2f70:	03d00b13          	li	s6,61
    2f74:	01fb4463          	blt	s6,t6,2f7c <.L2095+0x18>
    2f78:	1280606f          	j	90a0 <.L2821>
    2f7c:	07100b13          	li	s6,113
    2f80:	012b5463          	bge	s6,s2,2f88 <.L2095+0x24>
    2f84:	1480706f          	j	a0cc <.L2111>
    2f88:	00815b03          	lhu	s6,8(sp)
    2f8c:	02e00c13          	li	s8,46
    2f90:	009b0b13          	addi	s6,s6,9
    2f94:	01611423          	sh	s6,8(sp)
    2f98:	01dc4463          	blt	s8,t4,2fa0 <.L2112>
    2f9c:	3e80106f          	j	4384 <.L2099>

00002fa0 <.L2112>:
    2fa0:	02b00b13          	li	s6,43
    2fa4:	011b5463          	bge	s6,a7,2fac <.L2112+0xc>
    2fa8:	6400606f          	j	95e8 <.L2121>
    2fac:	00a15b03          	lhu	s6,10(sp)
    2fb0:	008b0b13          	addi	s6,s6,8
    2fb4:	01611523          	sh	s6,10(sp)

00002fb8 <.L2115>:
    2fb8:	25b00b13          	li	s6,603
    2fbc:	00eb4463          	blt	s6,a4,2fc4 <.L2862>
    2fc0:	3f40106f          	j	43b4 <.L2120>

00002fc4 <.L2862>:
    2fc4:	fe900b13          	li	s6,-23
    2fc8:	01664463          	blt	a2,s6,2fd0 <.L2862+0xc>
    2fcc:	0690406f          	j	7834 <.L2117>
    2fd0:	dde00b13          	li	s6,-546
    2fd4:	016a4463          	blt	s4,s6,2fdc <.L2862+0x18>
    2fd8:	4450706f          	j	ac1c <.L2129>
    2fdc:	00c15b03          	lhu	s6,12(sp)
    2fe0:	005b0b13          	addi	s6,s6,5
    2fe4:	01611623          	sh	s6,12(sp)

00002fe8 <.L2124>:
    2fe8:	02600b13          	li	s6,38
    2fec:	00db5463          	bge	s6,a3,2ff4 <.L2864>
    2ff0:	3f40106f          	j	43e4 <.L2128>

00002ff4 <.L2864>:
    2ff4:	01300b13          	li	s6,19
    2ff8:	00db5463          	bge	s6,a3,3000 <.L2864+0xc>
    2ffc:	6dc0506f          	j	86d8 <.L2127>
    3000:	08400b13          	li	s6,132
    3004:	007b5463          	bge	s6,t2,300c <.L2864+0x18>
    3008:	6ec0406f          	j	76f4 <.L2662>
    300c:	00e15b03          	lhu	s6,14(sp)
    3010:	00400c13          	li	s8,4
    3014:	003b0b13          	addi	s6,s6,3
    3018:	01611723          	sh	s6,14(sp)
    301c:	011c4463          	blt	s8,a7,3024 <.L2864+0x30>
    3020:	6e80206f          	j	5708 <.L2148>
    3024:	ff800b13          	li	s6,-8
    3028:	276652e3          	bge	a2,s6,3a8c <.L2154>

0000302c <.L2134>:
    302c:	01f00b13          	li	s6,31
    3030:	011b5463          	bge	s6,a7,3038 <.L2134+0xc>
    3034:	6280406f          	j	765c <.L2822>
    3038:	00815b03          	lhu	s6,8(sp)
    303c:	002b0b13          	addi	s6,s6,2
    3040:	010b1b13          	slli	s6,s6,0x10
    3044:	410b5b13          	srai	s6,s6,0x10

00003048 <.L2135>:
    3048:	01611423          	sh	s6,8(sp)
    304c:	03b00b13          	li	s6,59
    3050:	24fb4ce3          	blt	s6,a5,3aa8 <.L2146>

00003054 <.L2836>:
    3054:	33f00b13          	li	s6,831
    3058:	00eb5463          	bge	s6,a4,3060 <.L2836+0xc>
    305c:	6240406f          	j	7680 <.L2149>
    3060:	01400b13          	li	s6,20
    3064:	011b4463          	blt	s6,a7,306c <.L2153>
    3068:	6d00206f          	j	5738 <.L2151>

0000306c <.L2153>:
    306c:	00a15b03          	lhu	s6,10(sp)
    3070:	ffcb0b13          	addi	s6,s6,-4
    3074:	010b1b13          	slli	s6,s6,0x10
    3078:	410b5b13          	srai	s6,s6,0x10
    307c:	01611523          	sh	s6,10(sp)
    3080:	fdb00b13          	li	s6,-37
    3084:	01675463          	bge	a4,s6,308c <.L2179>
    3088:	6d00206f          	j	5758 <.L2823>

0000308c <.L2179>:
    308c:	02600b13          	li	s6,38
    3090:	00eb5463          	bge	s6,a4,3098 <.L2179+0xc>
    3094:	6040406f          	j	7698 <.L2156>
    3098:	03c00b13          	li	s6,60
    309c:	00db5863          	bge	s6,a3,30ac <.L2164>

000030a0 <.L2171>:
    30a0:	00c15683          	lhu	a3,12(sp)
    30a4:	00668693          	addi	a3,a3,6
    30a8:	00d11623          	sh	a3,12(sp)

000030ac <.L2164>:
    30ac:	03100693          	li	a3,49
    30b0:	00f6d463          	bge	a3,a5,30b8 <.L2896>
    30b4:	6c80206f          	j	577c <.L2170>

000030b8 <.L2896>:
    30b8:	00e15683          	lhu	a3,14(sp)
    30bc:	ffa68693          	addi	a3,a3,-6
    30c0:	01069693          	slli	a3,a3,0x10
    30c4:	4106d693          	srai	a3,a3,0x10

000030c8 <.L2183>:
    30c8:	00d11723          	sh	a3,14(sp)
    30cc:	0a900b13          	li	s6,169
    30d0:	25eb42e3          	blt	s6,t5,3b14 <.L2187>

000030d4 <.L2837>:
    30d4:	000e5463          	bgez	t3,30dc <.L2837+0x8>
    30d8:	7490506f          	j	9020 <.L2824>
    30dc:	02d00f13          	li	t5,45
    30e0:	01ff5463          	bge	t5,t6,30e8 <.L2837+0x14>
    30e4:	3a40606f          	j	9488 <.L2190>
    30e8:	00815f03          	lhu	t5,8(sp)
    30ec:	ffef0f13          	addi	t5,t5,-2
    30f0:	01e11423          	sh	t5,8(sp)

000030f4 <.L2189>:
    30f4:	ef600f13          	li	t5,-266
    30f8:	25ead2e3          	bge	s5,t5,3b3c <.L2193>

000030fc <.L2838>:
    30fc:	ff800f13          	li	t5,-8
    3100:	01e64463          	blt	a2,t5,3108 <.L2838+0xc>
    3104:	7290306f          	j	702c <.L2194>
    3108:	01c51e83          	lh	t4,28(a0)
    310c:	01e00513          	li	a0,30
    3110:	01d55463          	bge	a0,t4,3118 <.L2838+0x1c>
    3114:	3c40706f          	j	a4d8 <.L2195>
    3118:	00a15503          	lhu	a0,10(sp)
    311c:	00250513          	addi	a0,a0,2
    3120:	01051513          	slli	a0,a0,0x10
    3124:	41055513          	srai	a0,a0,0x10

00003128 <.L2196>:
    3128:	00a11523          	sh	a0,10(sp)
    312c:	25b00513          	li	a0,603
    3130:	24e540e3          	blt	a0,a4,3b70 <.L2205>

00003134 <.L2201>:
    3134:	00e00513          	li	a0,14
    3138:	01055463          	bge	a0,a6,3140 <.L2201+0xc>
    313c:	4b40406f          	j	75f0 <.L2825>
    3140:	f6300513          	li	a0,-157
    3144:	00a5c463          	blt	a1,a0,314c <.L2201+0x18>
    3148:	7090706f          	j	b050 <.L2206>
    314c:	00c15503          	lhu	a0,12(sp)
    3150:	ffc50513          	addi	a0,a0,-4
    3154:	01051513          	slli	a0,a0,0x10
    3158:	41055513          	srai	a0,a0,0x10

0000315c <.L2207>:
    315c:	00a11623          	sh	a0,12(sp)
    3160:	02800513          	li	a0,40
    3164:	00755463          	bge	a0,t2,316c <.L2207+0x10>
    3168:	4600206f          	j	55c8 <.L2209>
    316c:	03c00513          	li	a0,60
    3170:	00f54463          	blt	a0,a5,3178 <.L2210>
    3174:	49c0406f          	j	7610 <.L2224>

00003178 <.L2210>:
    3178:	f7a00693          	li	a3,-134
    317c:	24da42e3          	blt	s4,a3,3bc0 <.L2826>

00003180 <.L2218>:
    3180:	00b00693          	li	a3,11
    3184:	0136d463          	bge	a3,s3,318c <.L2218+0xc>
    3188:	3950306f          	j	6d1c <.L2234>
    318c:	19f00693          	li	a3,415
    3190:	0126d463          	bge	a3,s2,3198 <.L2218+0x18>
    3194:	3900706f          	j	a524 <.L2235>
    3198:	00815683          	lhu	a3,8(sp)
    319c:	00868693          	addi	a3,a3,8
    31a0:	01069693          	slli	a3,a3,0x10
    31a4:	4106d693          	srai	a3,a3,0x10

000031a8 <.L2236>:
    31a8:	00d11423          	sh	a3,8(sp)

000031ac <.L2233>:
    31ac:	03300693          	li	a3,51
    31b0:	23f6cee3          	blt	a3,t6,3bec <.L2238>

000031b4 <.L2840>:
    31b4:	11700693          	li	a3,279
    31b8:	00e6d463          	bge	a3,a4,31c0 <.L2840+0xc>
    31bc:	35c0106f          	j	4518 <.L2214>
    31c0:	ffe00713          	li	a4,-2
    31c4:	00e84463          	blt	a6,a4,31cc <.L2840+0x18>
    31c8:	70c0706f          	j	a8d4 <.L2239>
    31cc:	00a15703          	lhu	a4,10(sp)
    31d0:	f5b00693          	li	a3,-165
    31d4:	fff70713          	addi	a4,a4,-1
    31d8:	00e11523          	sh	a4,10(sp)
    31dc:	00d2c463          	blt	t0,a3,31e4 <.L2670>
    31e0:	35c0106f          	j	453c <.L2240>

000031e4 <.L2670>:
    31e4:	f5600793          	li	a5,-170
    31e8:	00fa4463          	blt	s4,a5,31f0 <.L2243>
    31ec:	2a40406f          	j	7490 <.L2241>

000031f0 <.L2243>:
    31f0:	00c15783          	lhu	a5,12(sp)
    31f4:	ffe78793          	addi	a5,a5,-2
    31f8:	01079793          	slli	a5,a5,0x10
    31fc:	4107d793          	srai	a5,a5,0x10

00003200 <.L2242>:
    3200:	00f11623          	sh	a5,12(sp)
    3204:	c0000793          	li	a5,-1024
    3208:	24f5d4e3          	bge	a1,a5,3c50 <.L2249>

0000320c <.L2841>:
    320c:	00e15783          	lhu	a5,14(sp)
    3210:	00678793          	addi	a5,a5,6
    3214:	00f11723          	sh	a5,14(sp)

00003218 <.L2250>:
    3218:	cc817057          	vsetivli	zero,2,e16,m1,ta,ma
    321c:	00810593          	addi	a1,sp,8
    3220:	0205d107          	vle16.v	v2,(a1)
    3224:	020bd087          	vle16.v	v1,(s7)
    3228:	02000793          	li	a5,32
    322c:	5e07c1d7          	vmv.v.x	v3,a5
    3230:	00058693          	mv	a3,a1
    3234:	00000513          	li	a0,0
    3238:	02218157          	vadd.vv	v2,v2,v3
    323c:	021180d7          	vadd.vv	v1,v1,v3
    3240:	00100713          	li	a4,1
    3244:	0205d127          	vse16.v	v2,(a1)
    3248:	020bd0a7          	vse16.v	v1,(s7)
    324c:	00400813          	li	a6,4

00003250 <.L2253>:
    3250:	00151793          	slli	a5,a0,0x1
    3254:	00f587b3          	add	a5,a1,a5
    3258:	00079603          	lh	a2,0(a5)
    325c:	00269783          	lh	a5,2(a3)
    3260:	00268693          	addi	a3,a3,2
    3264:	00f65663          	bge	a2,a5,3270 <.L2252>
    3268:	01071513          	slli	a0,a4,0x10
    326c:	41055513          	srai	a0,a0,0x10

00003270 <.L2252>:
    3270:	00170713          	addi	a4,a4,1
    3274:	fd071ee3          	bne	a4,a6,3250 <.L2253>
    3278:	03c12403          	lw	s0,60(sp)
    327c:	03812483          	lw	s1,56(sp)
    3280:	03412903          	lw	s2,52(sp)
    3284:	03012983          	lw	s3,48(sp)
    3288:	02c12a03          	lw	s4,44(sp)
    328c:	02812a83          	lw	s5,40(sp)
    3290:	02412b03          	lw	s6,36(sp)
    3294:	02012b83          	lw	s7,32(sp)
    3298:	01c12c03          	lw	s8,28(sp)
    329c:	01812c83          	lw	s9,24(sp)
    32a0:	01412d03          	lw	s10,20(sp)
    32a4:	04010113          	addi	sp,sp,64
    32a8:	00008067          	ret

000032ac <.L934>:
    32ac:	00e15c03          	lhu	s8,14(sp)
    32b0:	ffac0c13          	addi	s8,s8,-6
    32b4:	01811723          	sh	s8,14(sp)
    32b8:	eb9fd06f          	j	1170 <.L940>

000032bc <.L712>:
    32bc:	00e15c03          	lhu	s8,14(sp)
    32c0:	0a900c93          	li	s9,169
    32c4:	00cc0c13          	addi	s8,s8,12
    32c8:	01811723          	sh	s8,14(sp)
    32cc:	01ecc463          	blt	s9,t5,32d4 <.L712+0x18>
    32d0:	1290306f          	j	6bf8 <.L2730>
    32d4:	10700c13          	li	s8,263
    32d8:	007c5463          	bge	s8,t2,32e0 <.L714>
    32dc:	7640806f          	j	ba40 <.L2534>

000032e0 <.L714>:
    32e0:	00815c03          	lhu	s8,8(sp)
    32e4:	ffcc0c13          	addi	s8,s8,-4
    32e8:	01811423          	sh	s8,8(sp)
    32ec:	b7dfd06f          	j	e68 <.L715>

000032f0 <.L348>:
    32f0:	ff700c13          	li	s8,-9
    32f4:	01864463          	blt	a2,s8,32fc <.L348+0xc>
    32f8:	3c50306f          	j	6ebc <.L360>
    32fc:	03100c13          	li	s8,49
    3300:	01dc5463          	bge	s8,t4,3308 <.L348+0x18>
    3304:	2e10306f          	j	6de4 <.L361>
    3308:	00a15c03          	lhu	s8,10(sp)
    330c:	17000c93          	li	s9,368
    3310:	ffac0c13          	addi	s8,s8,-6
    3314:	01811523          	sh	s8,10(sp)
    3318:	00dcd463          	bge	s9,a3,3320 <.L353>
    331c:	2e10306f          	j	6dfc <.L362>

00003320 <.L353>:
    3320:	01200c13          	li	s8,18
    3324:	01dc5463          	bge	s8,t4,332c <.L353+0xc>
    3328:	4180706f          	j	a740 <.L363>
    332c:	00c15c03          	lhu	s8,12(sp)
    3330:	006c0c13          	addi	s8,s8,6
    3334:	010c1c13          	slli	s8,s8,0x10
    3338:	410c5c13          	srai	s8,s8,0x10
    333c:	01811623          	sh	s8,12(sp)
    3340:	e9900c13          	li	s8,-359
    3344:	0185c463          	blt	a1,s8,334c <.L368>
    3348:	d14fd06f          	j	85c <.L372>

0000334c <.L368>:
    334c:	20200c13          	li	s8,514
    3350:	016c5463          	bge	s8,s6,3358 <.L368+0xc>
    3354:	1c80506f          	j	851c <.L373>
    3358:	df000c13          	li	s8,-528
    335c:	0182c463          	blt	t0,s8,3364 <.L368+0x18>
    3360:	24d0606f          	j	9dac <.L374>
    3364:	00e15c03          	lhu	s8,14(sp)
    3368:	ff7c0c13          	addi	s8,s8,-9
    336c:	010c1c13          	slli	s8,s8,0x10
    3370:	410c5c13          	srai	s8,s8,0x10
    3374:	01811723          	sh	s8,14(sp)
    3378:	0a900c13          	li	s8,169
    337c:	01ec4463          	blt	s8,t5,3384 <.L378>
    3380:	d14fd06f          	j	894 <.L2827>

00003384 <.L378>:
    3384:	ea900c13          	li	s8,-343
    3388:	018a4463          	blt	s4,s8,3390 <.L378+0xc>
    338c:	34d0406f          	j	7ed8 <.L393>
    3390:	00d00c13          	li	s8,13
    3394:	013c5463          	bge	s8,s3,339c <.L378+0x18>
    3398:	6e80606f          	j	9a80 <.L394>
    339c:	00815c03          	lhu	s8,8(sp)
    33a0:	ffdc0c13          	addi	s8,s8,-3
    33a4:	010c1c13          	slli	s8,s8,0x10
    33a8:	410c5c13          	srai	s8,s8,0x10

000033ac <.L395>:
    33ac:	01811423          	sh	s8,8(sp)
    33b0:	0b500c13          	li	s8,181
    33b4:	006c5463          	bge	s8,t1,33bc <.L2929>
    33b8:	34d0406f          	j	7f04 <.L397>

000033bc <.L2929>:
    33bc:	00a00c13          	li	s8,10
    33c0:	011c4463          	blt	s8,a7,33c8 <.L2929+0xc>
    33c4:	48c0306f          	j	6850 <.L382>
    33c8:	18f00c13          	li	s8,399
    33cc:	01ec4463          	blt	s8,t5,33d4 <.L2929+0x18>
    33d0:	d00fd06f          	j	8d0 <.L388>
    33d4:	00a15c03          	lhu	s8,10(sp)
    33d8:	ffdc0c13          	addi	s8,s8,-3
    33dc:	010c1c13          	slli	s8,s8,0x10
    33e0:	410c5c13          	srai	s8,s8,0x10
    33e4:	01811523          	sh	s8,10(sp)
    33e8:	06300c13          	li	s8,99
    33ec:	00dc4463          	blt	s8,a3,33f4 <.L400>
    33f0:	d00fd06f          	j	8f0 <.L2828>

000033f4 <.L400>:
    33f4:	ff700c13          	li	s8,-9
    33f8:	01864463          	blt	a2,s8,3400 <.L400+0xc>
    33fc:	1b90406f          	j	7db4 <.L408>
    3400:	03300c13          	li	s8,51
    3404:	01dc4463          	blt	s8,t4,340c <.L400+0x18>
    3408:	1990406f          	j	7da0 <.L410>
    340c:	00c15c03          	lhu	s8,12(sp)
    3410:	ffdc0c13          	addi	s8,s8,-3
    3414:	010c1c13          	slli	s8,s8,0x10
    3418:	410c5c13          	srai	s8,s8,0x10
    341c:	01811623          	sh	s8,12(sp)
    3420:	03b00c13          	li	s8,59
    3424:	00fc4463          	blt	s8,a5,342c <.L411>
    3428:	d00fd06f          	j	928 <.L2829>

0000342c <.L411>:
    342c:	e4700c13          	li	s8,-441
    3430:	0182c463          	blt	t0,s8,3438 <.L411+0xc>
    3434:	51c0306f          	j	6950 <.L407>
    3438:	bf300c13          	li	s8,-1037
    343c:	0185c463          	blt	a1,s8,3444 <.L411+0x18>
    3440:	4980306f          	j	68d8 <.L406>
    3444:	00e15c03          	lhu	s8,14(sp)
    3448:	00ac0c13          	addi	s8,s8,10
    344c:	010c1c13          	slli	s8,s8,0x10
    3450:	410c5c13          	srai	s8,s8,0x10
    3454:	01811723          	sh	s8,14(sp)
    3458:	0a900c13          	li	s8,169
    345c:	01ec4463          	blt	s8,t5,3464 <.L415>
    3460:	cf4fd06f          	j	954 <.L2830>

00003464 <.L415>:
    3464:	01e00c13          	li	s8,30
    3468:	013c5463          	bge	s8,s3,3470 <.L415+0xc>
    346c:	1280506f          	j	8594 <.L422>
    3470:	ea900c13          	li	s8,-343
    3474:	018a4463          	blt	s4,s8,347c <.L415+0x18>
    3478:	24c0606f          	j	96c4 <.L423>
    347c:	00815c03          	lhu	s8,8(sp)
    3480:	ffbc0c13          	addi	s8,s8,-5
    3484:	010c1c13          	slli	s8,s8,0x10
    3488:	410c5c13          	srai	s8,s8,0x10
    348c:	01811423          	sh	s8,8(sp)
    3490:	03900c13          	li	s8,57
    3494:	00ec4463          	blt	s8,a4,349c <.L424>
    3498:	cf8fd06f          	j	990 <.L2831>

0000349c <.L424>:
    349c:	08c00c13          	li	s8,140
    34a0:	006c5463          	bge	s8,t1,34a8 <.L424+0xc>
    34a4:	0b00306f          	j	6554 <.L435>
    34a8:	00a00c13          	li	s8,10
    34ac:	011c5463          	bge	s8,a7,34b4 <.L424+0x18>
    34b0:	2e00606f          	j	9790 <.L436>
    34b4:	00a15c03          	lhu	s8,10(sp)
    34b8:	008c0c13          	addi	s8,s8,8
    34bc:	010c1c13          	slli	s8,s8,0x10
    34c0:	410c5c13          	srai	s8,s8,0x10

000034c4 <.L437>:
    34c4:	01811523          	sh	s8,10(sp)
    34c8:	06300c13          	li	s8,99
    34cc:	16dc5e63          	bge	s8,a3,3648 <.L432>
    34d0:	ed000c13          	li	s8,-304
    34d4:	018ac463          	blt	s5,s8,34dc <.L437+0x18>
    34d8:	5a10206f          	j	6278 <.L430>
    34dc:	25b00c13          	li	s8,603
    34e0:	00ec4463          	blt	s8,a4,34e8 <.L437+0x24>
    34e4:	ce8fd06f          	j	9cc <.L433>
    34e8:	00c15c03          	lhu	s8,12(sp)
    34ec:	e2500c93          	li	s9,-475
    34f0:	ffec0c13          	addi	s8,s8,-2
    34f4:	01811623          	sh	s8,12(sp)
    34f8:	01945463          	bge	s0,s9,3500 <.L447>
    34fc:	cf0fd06f          	j	9ec <.L446>

00003500 <.L447>:
    3500:	03d00c13          	li	s8,61
    3504:	01fc5463          	bge	s8,t6,350c <.L447+0xc>
    3508:	0890706f          	j	ad90 <.L455>
    350c:	00e15c03          	lhu	s8,14(sp)
    3510:	ff8c0c13          	addi	s8,s8,-8
    3514:	010c1c13          	slli	s8,s8,0x10
    3518:	410c5c13          	srai	s8,s8,0x10

0000351c <.L454>:
    351c:	01811723          	sh	s8,14(sp)
    3520:	f5c00c13          	li	s8,-164
    3524:	01845463          	bge	s0,s8,352c <.L454+0x10>
    3528:	ce8fd06f          	j	a10 <.L451>
    352c:	0bb00c13          	li	s8,187
    3530:	012c5463          	bge	s8,s2,3538 <.L454+0x1c>
    3534:	7f90206f          	j	652c <.L462>
    3538:	18500c13          	li	s8,389
    353c:	009c5463          	bge	s8,s1,3544 <.L454+0x28>
    3540:	1d00606f          	j	9710 <.L463>
    3544:	00815c03          	lhu	s8,8(sp)
    3548:	0b500c93          	li	s9,181
    354c:	009c0c13          	addi	s8,s8,9
    3550:	01811423          	sh	s8,8(sp)
    3554:	006cc463          	blt	s9,t1,355c <.L472>
    3558:	cf0fd06f          	j	a48 <.L465>

0000355c <.L472>:
    355c:	01300c13          	li	s8,19
    3560:	00ec5463          	bge	s8,a4,3568 <.L472+0xc>
    3564:	3880306f          	j	68ec <.L474>
    3568:	00a15c03          	lhu	s8,10(sp)
    356c:	2be00c93          	li	s9,702
    3570:	ffac0c13          	addi	s8,s8,-6
    3574:	01811523          	sh	s8,10(sp)
    3578:	00dcc463          	blt	s9,a3,3580 <.L472+0x24>
    357c:	3940306f          	j	6910 <.L475>
    3580:	e4e00c13          	li	s8,-434
    3584:	018ac463          	blt	s5,s8,358c <.L2572>
    3588:	4e00806f          	j	ba68 <.L2573>

0000358c <.L2572>:
    358c:	00c15c03          	lhu	s8,12(sp)
    3590:	00bc0c13          	addi	s8,s8,11
    3594:	01811623          	sh	s8,12(sp)
    3598:	4210506f          	j	91b8 <.L498>

0000359c <.L2731>:
    359c:	01fc5463          	bge	s8,t6,35a4 <.L2731+0x8>
    35a0:	3d50606f          	j	a174 <.L1070>
    35a4:	08d00c13          	li	s8,141
    35a8:	00dc5463          	bge	s8,a3,35b0 <.L2731+0x14>
    35ac:	0110806f          	j	bdbc <.L1065>
    35b0:	00e15c03          	lhu	s8,14(sp)
    35b4:	ffe00c93          	li	s9,-2
    35b8:	004c0c13          	addi	s8,s8,4
    35bc:	01811723          	sh	s8,14(sp)
    35c0:	01984463          	blt	a6,s9,35c8 <.L1064>
    35c4:	d9dfd06f          	j	1360 <.L1062>

000035c8 <.L1064>:
    35c8:	de600c13          	li	s8,-538
    35cc:	018a4463          	blt	s4,s8,35d4 <.L1064+0xc>
    35d0:	0ad0806f          	j	be7c <.L1084>
    35d4:	00815c03          	lhu	s8,8(sp)
    35d8:	30000c93          	li	s9,768
    35dc:	ffac0c13          	addi	s8,s8,-6
    35e0:	01811423          	sh	s8,8(sp)
    35e4:	01ecc463          	blt	s9,t5,35ec <.L1086>
    35e8:	da1fd06f          	j	1388 <.L1085>

000035ec <.L1086>:
    35ec:	01c51c83          	lh	s9,28(a0)
    35f0:	fdf00c13          	li	s8,-33
    35f4:	018cc463          	blt	s9,s8,35fc <.L1086+0x10>
    35f8:	5990106f          	j	5390 <.L1100>
    35fc:	04900c13          	li	s8,73
    3600:	011c4463          	blt	s8,a7,3608 <.L1086+0x1c>
    3604:	a59fe06f          	j	205c <.L1104>
    3608:	08600c13          	li	s8,134
    360c:	01dc5463          	bge	s8,t4,3614 <.L2258>
    3610:	0490406f          	j	7e58 <.L1110>

00003614 <.L2258>:
    3614:	e4a00c13          	li	s8,-438
    3618:	0182c463          	blt	t0,s8,3620 <.L2258+0xc>
    361c:	a61fe06f          	j	207c <.L1112>
    3620:	5b90106f          	j	53d8 <.L1115>

00003624 <.L425>:
    3624:	42700c13          	li	s8,1063
    3628:	007c5463          	bge	s8,t2,3630 <.L425+0xc>
    362c:	20c0606f          	j	9838 <.L434>
    3630:	00a15c03          	lhu	s8,10(sp)
    3634:	06300c93          	li	s9,99
    3638:	ff7c0c13          	addi	s8,s8,-9
    363c:	01811523          	sh	s8,10(sp)
    3640:	00dcd463          	bge	s9,a3,3648 <.L432>
    3644:	b7cfd06f          	j	9c0 <.L427>

00003648 <.L432>:
    3648:	f2100c13          	li	s8,-223
    364c:	0185c463          	blt	a1,s8,3654 <.L432+0xc>
    3650:	4890206f          	j	62d8 <.L2832>
    3654:	23000c13          	li	s8,560
    3658:	01ec5463          	bge	s8,t5,3660 <.L432+0x18>
    365c:	2500606f          	j	98ac <.L440>
    3660:	00c15c03          	lhu	s8,12(sp)
    3664:	ff7c0c13          	addi	s8,s8,-9
    3668:	010c1c13          	slli	s8,s8,0x10
    366c:	410c5c13          	srai	s8,s8,0x10
    3670:	01811623          	sh	s8,12(sp)
    3674:	e2500c13          	li	s8,-475
    3678:	01845463          	bge	s0,s8,3680 <.L443>
    367c:	b70fd06f          	j	9ec <.L446>

00003680 <.L443>:
    3680:	03800c13          	li	s8,56
    3684:	e6ec4ee3          	blt	s8,a4,3500 <.L447>
    3688:	03a00c13          	li	s8,58
    368c:	00fc5463          	bge	s8,a5,3694 <.L443+0x14>
    3690:	4e50606f          	j	a374 <.L453>
    3694:	00e15c03          	lhu	s8,14(sp)
    3698:	ff9c0c13          	addi	s8,s8,-7
    369c:	010c1c13          	slli	s8,s8,0x10
    36a0:	410c5c13          	srai	s8,s8,0x10
    36a4:	e79ff06f          	j	351c <.L454>

000036a8 <.L192>:
    36a8:	00e15e03          	lhu	t3,14(sp)
    36ac:	0d900c13          	li	s8,217
    36b0:	002e0e13          	addi	t3,t3,2
    36b4:	01c11723          	sh	t3,14(sp)
    36b8:	01ec5463          	bge	s8,t5,36c0 <.L194>
    36bc:	fb5fc06f          	j	670 <.L2356>

000036c0 <.L194>:
    36c0:	01a00e13          	li	t3,26
    36c4:	010e5463          	bge	t3,a6,36cc <.L194+0xc>
    36c8:	4310406f          	j	82f8 <.L206>
    36cc:	0da00e13          	li	t3,218
    36d0:	012e4463          	blt	t3,s2,36d8 <.L194+0x18>
    36d4:	0790606f          	j	9f4c <.L207>
    36d8:	08000e13          	li	t3,128
    36dc:	00ee4463          	blt	t3,a4,36e4 <.L2557>
    36e0:	fb5fc06f          	j	694 <.L215>

000036e4 <.L2557>:
    36e4:	03d00e13          	li	t3,61
    36e8:	00fe4463          	blt	t3,a5,36f0 <.L213>
    36ec:	5210506f          	j	940c <.L211>

000036f0 <.L213>:
    36f0:	00a15e03          	lhu	t3,10(sp)
    36f4:	08c00c13          	li	s8,140
    36f8:	ff7e0e13          	addi	t3,t3,-9
    36fc:	01c11523          	sh	t3,10(sp)
    3700:	00dc5463          	bge	s8,a3,3708 <.L249>
    3704:	2350206f          	j	6138 <.L2727>

00003708 <.L249>:
    3708:	01c51c03          	lh	s8,28(a0)
    370c:	03b00e13          	li	t3,59
    3710:	018e5463          	bge	t3,s8,3718 <.L249+0x10>
    3714:	0100806f          	j	b724 <.L260>
    3718:	00c15e03          	lhu	t3,12(sp)
    371c:	ff7e0e13          	addi	t3,t3,-9
    3720:	01c11623          	sh	t3,12(sp)

00003724 <.L259>:
    3724:	1e500e13          	li	t3,485
    3728:	01ee5463          	bge	t3,t5,3730 <.L259+0xc>
    372c:	3f50406f          	j	8320 <.L277>
    3730:	ec100e13          	li	t3,-319
    3734:	01c44463          	blt	s0,t3,373c <.L259+0x18>
    3738:	5740606f          	j	9cac <.L278>
    373c:	00e15e03          	lhu	t3,14(sp)
    3740:	00ce0e13          	addi	t3,t3,12
    3744:	010e1e13          	slli	t3,t3,0x10
    3748:	410e5e13          	srai	t3,t3,0x10
    374c:	01c11723          	sh	t3,14(sp)
    3750:	efb00e13          	li	t3,-261
    3754:	01ca5463          	bge	s4,t3,375c <.L280>
    3758:	fd1fc06f          	j	728 <.L2833>

0000375c <.L280>:
    375c:	01f00e13          	li	t3,31
    3760:	013e5463          	bge	t3,s3,3768 <.L280+0xc>
    3764:	1410306f          	j	70a4 <.L302>
    3768:	0d800e13          	li	t3,216
    376c:	012e5463          	bge	t3,s2,3774 <.L280+0x18>
    3770:	3500706f          	j	aac0 <.L303>
    3774:	00815e03          	lhu	t3,8(sp)
    3778:	00be0e13          	addi	t3,t3,11
    377c:	010e1e13          	slli	t3,t3,0x10
    3780:	410e5e13          	srai	t3,t3,0x10

00003784 <.L304>:
    3784:	01c11423          	sh	t3,8(sp)
    3788:	2df00e13          	li	t3,735
    378c:	00ee4463          	blt	t3,a4,3794 <.L304+0x10>
    3790:	5100206f          	j	5ca0 <.L305>
    3794:	00001e37          	lui	t3,0x1
    3798:	bace0e13          	addi	t3,t3,-1108 # bac <.L546+0x20>
    379c:	00de5463          	bge	t3,a3,37a4 <.L304+0x20>
    37a0:	2180306f          	j	69b8 <.L309>
    37a4:	f5100e13          	li	t3,-175
    37a8:	01ca5463          	bge	s4,t3,37b0 <.L304+0x2c>
    37ac:	1190806f          	j	c0c4 <.L2834>
    37b0:	00a15e03          	lhu	t3,10(sp)
    37b4:	08f00c13          	li	s8,143
    37b8:	ff8e0e13          	addi	t3,t3,-8
    37bc:	01c11523          	sh	t3,10(sp)
    37c0:	00dc5463          	bge	s8,a3,37c8 <.L304+0x44>
    37c4:	6800606f          	j	9e44 <.L2564>
    37c8:	03300e13          	li	t3,51
    37cc:	00fe4463          	blt	t3,a5,37d4 <.L2562>
    37d0:	4500806f          	j	bc20 <.L316>

000037d4 <.L2562>:
    37d4:	02051e03          	lh	t3,32(a0)

000037d8 <.L313>:
    37d8:	01c51c83          	lh	s9,28(a0)
    37dc:	03b00c13          	li	s8,59
    37e0:	019c5463          	bge	s8,s9,37e8 <.L313+0x10>
    37e4:	3200606f          	j	9b04 <.L322>
    37e8:	00c15c03          	lhu	s8,12(sp)
    37ec:	ff8c0c13          	addi	s8,s8,-8
    37f0:	010c1c13          	slli	s8,s8,0x10
    37f4:	010c5c13          	srli	s8,s8,0x10

000037f8 <.L323>:
    37f8:	01811623          	sh	s8,12(sp)
    37fc:	03c00c13          	li	s8,60
    3800:	00fc4463          	blt	s8,a5,3808 <.L325>
    3804:	4f80206f          	j	5cfc <.L319>

00003808 <.L325>:
    3808:	e2d00c13          	li	s8,-467
    380c:	0182c463          	blt	t0,s8,3814 <.L325+0xc>
    3810:	2140306f          	j	6a24 <.L330>
    3814:	03e00c13          	li	s8,62
    3818:	00fc5463          	bge	s8,a5,3820 <.L325+0x18>
    381c:	6b80606f          	j	9ed4 <.L339>
    3820:	00e15c03          	lhu	s8,14(sp)
    3824:	ff7c0c13          	addi	s8,s8,-9
    3828:	010c1c13          	slli	s8,s8,0x10
    382c:	410c5c13          	srai	s8,s8,0x10
    3830:	01811723          	sh	s8,14(sp)
    3834:	efb00c13          	li	s8,-261
    3838:	018a5463          	bge	s4,s8,3840 <.L341>
    383c:	fa1fc06f          	j	7dc <.L2835>

00003840 <.L341>:
    3840:	01900c13          	li	s8,25
    3844:	013c5463          	bge	s8,s3,384c <.L341+0xc>
    3848:	1390206f          	j	6180 <.L346>
    384c:	0be00c13          	li	s8,190
    3850:	012c5463          	bge	s8,s2,3858 <.L341+0x18>
    3854:	fadfc06f          	j	800 <.L344>
    3858:	00815c03          	lhu	s8,8(sp)
    385c:	00ac0c13          	addi	s8,s8,10
    3860:	01811423          	sh	s8,8(sp)
    3864:	f9dfc06f          	j	800 <.L344>

00003868 <.L2317>:
    3868:	01e51583          	lh	a1,30(a0)
    386c:	00c51903          	lh	s2,12(a0)

00003870 <.L34>:
    3870:	0b400893          	li	a7,180
    3874:	0128c463          	blt	a7,s2,387c <.L34+0xc>
    3878:	7680606f          	j	9fe0 <.L37>
    387c:	1b500893          	li	a7,437
    3880:	00e8c463          	blt	a7,a4,3888 <.L44>
    3884:	af5fc06f          	j	378 <.L2544>

00003888 <.L44>:
    3888:	40a00893          	li	a7,1034
    388c:	00d8d463          	bge	a7,a3,3894 <.L44+0xc>
    3890:	7290206f          	j	67b8 <.L55>
    3894:	10f00893          	li	a7,271
    3898:	0098d463          	bge	a7,s1,38a0 <.L44+0x18>
    389c:	19d0606f          	j	a238 <.L56>
    38a0:	00a15883          	lhu	a7,10(sp)
    38a4:	df700e13          	li	t3,-521
    38a8:	ffe88893          	addi	a7,a7,-2
    38ac:	01111523          	sh	a7,10(sp)
    38b0:	01ca4463          	blt	s4,t3,38b8 <.L60>
    38b4:	7290206f          	j	67dc <.L2548>

000038b8 <.L60>:
    38b8:	ff400893          	li	a7,-12
    38bc:	01165463          	bge	a2,a7,38c4 <.L60+0xc>
    38c0:	1b10406f          	j	8270 <.L2323>
    38c4:	02a51883          	lh	a7,42(a0)

000038c8 <.L59>:
    38c8:	00c15e03          	lhu	t3,12(sp)
    38cc:	ff6e0e13          	addi	t3,t3,-10
    38d0:	010e1e13          	slli	t3,t3,0x10
    38d4:	410e5e13          	srai	t3,t3,0x10
    38d8:	8fdfc06f          	j	1d4 <.L65>

000038dc <.L136>:
    38dc:	01c51c03          	lh	s8,28(a0)
    38e0:	03500e13          	li	t3,53
    38e4:	018e5463          	bge	t3,s8,38ec <.L136+0x10>
    38e8:	1ec0706f          	j	aad4 <.L141>
    38ec:	00815e03          	lhu	t3,8(sp)
    38f0:	0a600c13          	li	s8,166
    38f4:	ff7e0e13          	addi	t3,t3,-9
    38f8:	01c11423          	sh	t3,8(sp)
    38fc:	00ec5463          	bge	s8,a4,3904 <.L143>
    3900:	be1fc06f          	j	4e0 <.L2552>

00003904 <.L143>:
    3904:	ffe00e13          	li	t3,-2
    3908:	01c64463          	blt	a2,t3,3910 <.L143+0xc>
    390c:	4800306f          	j	6d8c <.L149>
    3910:	e2c00e13          	li	t3,-468
    3914:	01c2c463          	blt	t0,t3,391c <.L143+0x18>
    3918:	4500206f          	j	5d68 <.L150>
    391c:	00a15e03          	lhu	t3,10(sp)
    3920:	10b00c13          	li	s8,267
    3924:	001e0e13          	addi	t3,t3,1
    3928:	01c11523          	sh	t3,10(sp)
    392c:	00dc4463          	blt	s8,a3,3934 <.L152>
    3930:	4500206f          	j	5d80 <.L161>

00003934 <.L152>:
    3934:	00c15e03          	lhu	t3,12(sp)
    3938:	012e0e13          	addi	t3,t3,18
    393c:	010e1e13          	slli	t3,t3,0x10
    3940:	410e5e13          	srai	t3,t3,0x10

00003944 <.L175>:
    3944:	01c11623          	sh	t3,12(sp)
    3948:	03c00e13          	li	t3,60
    394c:	00fe5463          	bge	t3,a5,3954 <.L170>
    3950:	cf1fc06f          	j	640 <.L174>

00003954 <.L170>:
    3954:	ce400e13          	li	t3,-796
    3958:	01c5c463          	blt	a1,t3,3960 <.L2901>
    395c:	4540206f          	j	5db0 <.L188>

00003960 <.L2901>:
    3960:	19c00e13          	li	t3,412
    3964:	00ee5463          	bge	t3,a4,396c <.L2901+0xc>
    3968:	73c0206f          	j	60a4 <.L189>
    396c:	00e15e03          	lhu	t3,14(sp)
    3970:	012e0e13          	addi	t3,t3,18
    3974:	010e1e13          	slli	t3,t3,0x10
    3978:	410e5e13          	srai	t3,t3,0x10

0000397c <.L190>:
    397c:	01c11723          	sh	t3,14(sp)
    3980:	0d900e13          	li	t3,217
    3984:	d3ee5ee3          	bge	t3,t5,36c0 <.L194>
    3988:	07a00e13          	li	t3,122
    398c:	006e4463          	blt	t3,t1,3994 <.L190+0x18>
    3990:	7f90306f          	j	7988 <.L196>
    3994:	02700e13          	li	t3,39
    3998:	00fe5463          	bge	t3,a5,39a0 <.L190+0x24>
    399c:	6fc0806f          	j	c098 <.L221>
    39a0:	00815e03          	lhu	t3,8(sp)
    39a4:	08000c13          	li	s8,128
    39a8:	004e0e13          	addi	t3,t3,4
    39ac:	01c11423          	sh	t3,8(sp)
    39b0:	00ec4463          	blt	s8,a4,39b8 <.L190+0x3c>
    39b4:	ce1fc06f          	j	694 <.L215>
    39b8:	f2000e13          	li	t3,-224
    39bc:	01ca4463          	blt	s4,t3,39c4 <.L190+0x48>
    39c0:	0840706f          	j	aa44 <.L223>
    39c4:	00a15e03          	lhu	t3,10(sp)
    39c8:	08c00c13          	li	s8,140
    39cc:	009e0e13          	addi	t3,t3,9
    39d0:	01c11523          	sh	t3,10(sp)
    39d4:	00dc4463          	blt	s8,a3,39dc <.L225>
    39d8:	45c0206f          	j	5e34 <.L224>

000039dc <.L225>:
    39dc:	2df00e13          	li	t3,735
    39e0:	00ee4463          	blt	t3,a4,39e8 <.L225+0xc>
    39e4:	ce1fc06f          	j	6c4 <.L236>
    39e8:	7e700e13          	li	t3,2023
    39ec:	00de5463          	bge	t3,a3,39f4 <.L225+0x18>
    39f0:	4450706f          	j	b634 <.L268>
    39f4:	00c15e03          	lhu	t3,12(sp)
    39f8:	03d00c13          	li	s8,61
    39fc:	ff6e0e13          	addi	t3,t3,-10
    3a00:	01c11623          	sh	t3,12(sp)
    3a04:	01879463          	bne	a5,s8,3a0c <.L269>
    3a08:	4450706f          	j	b64c <.L270>

00003a0c <.L269>:
    3a0c:	ce400e13          	li	t3,-796
    3a10:	01c5c463          	blt	a1,t3,3a18 <.L276>
    3a14:	6a40506f          	j	90b8 <.L273>

00003a18 <.L276>:
    3a18:	00e15e03          	lhu	t3,14(sp)
    3a1c:	ffae0e13          	addi	t3,t3,-6
    3a20:	010e1e13          	slli	t3,t3,0x10
    3a24:	410e5e13          	srai	t3,t3,0x10
    3a28:	cf1fc06f          	j	718 <.L275>

00003a2c <.L1160>:
    3a2c:	00815c03          	lhu	s8,8(sp)
    3a30:	1b900c93          	li	s9,441
    3a34:	004c0c13          	addi	s8,s8,4
    3a38:	01811423          	sh	s8,8(sp)
    3a3c:	01ecd463          	bge	s9,t5,3a44 <.L1161>
    3a40:	f40fe06f          	j	2180 <.L1162>

00003a44 <.L1161>:
    3a44:	00a15c03          	lhu	s8,10(sp)
    3a48:	ff8c0c13          	addi	s8,s8,-8
    3a4c:	010c1c13          	slli	s8,s8,0x10
    3a50:	410c5c13          	srai	s8,s8,0x10

00003a54 <.L1169>:
    3a54:	01811523          	sh	s8,10(sp)
    3a58:	03c00c13          	li	s8,60
    3a5c:	00fc5463          	bge	s8,a5,3a64 <.L1167>
    3a60:	f4cfe06f          	j	21ac <.L1171>

00003a64 <.L1167>:
    3a64:	00f00c13          	li	s8,15
    3a68:	010c4463          	blt	s8,a6,3a70 <.L1167+0xc>
    3a6c:	ad1fd06f          	j	153c <.L1188>
    3a70:	ffc00c13          	li	s8,-4
    3a74:	65865ce3          	bge	a2,s8,48cc <.L1192>

00003a78 <.L1196>:
    3a78:	00c15c03          	lhu	s8,12(sp)
    3a7c:	005c0c13          	addi	s8,s8,5
    3a80:	010c1c13          	slli	s8,s8,0x10
    3a84:	410c5c13          	srai	s8,s8,0x10
    3a88:	f4cfe06f          	j	21d4 <.L1189>

00003a8c <.L2154>:
    3a8c:	00815b03          	lhu	s6,8(sp)
    3a90:	ffcb0b13          	addi	s6,s6,-4
    3a94:	010b1b13          	slli	s6,s6,0x10
    3a98:	410b5b13          	srai	s6,s6,0x10
    3a9c:	01611423          	sh	s6,8(sp)
    3aa0:	03b00b13          	li	s6,59
    3aa4:	dafb5863          	bge	s6,a5,3054 <.L2836>

00003aa8 <.L2146>:
    3aa8:	ec100b13          	li	s6,-319
    3aac:	01644463          	blt	s0,s6,3ab4 <.L2146+0xc>
    3ab0:	2790306f          	j	7528 <.L2157>
    3ab4:	ef600b13          	li	s6,-266
    3ab8:	016ac463          	blt	s5,s6,3ac0 <.L2146+0x18>
    3abc:	1910606f          	j	a44c <.L2158>
    3ac0:	00a15b03          	lhu	s6,10(sp)
    3ac4:	fdb00c13          	li	s8,-37
    3ac8:	002b0b13          	addi	s6,s6,2
    3acc:	01611523          	sh	s6,10(sp)
    3ad0:	01875463          	bge	a4,s8,3ad8 <.L2159>
    3ad4:	1910606f          	j	a464 <.L2165>

00003ad8 <.L2159>:
    3ad8:	02600b13          	li	s6,38
    3adc:	00eb5463          	bge	s6,a4,3ae4 <.L2159+0xc>
    3ae0:	4090706f          	j	b6e8 <.L2178>
    3ae4:	03c00b13          	li	s6,60
    3ae8:	dadb4c63          	blt	s6,a3,30a0 <.L2171>

00003aec <.L2161>:
    3aec:	05800693          	li	a3,88
    3af0:	0096d463          	bge	a3,s1,3af8 <.L2254>
    3af4:	6c50306f          	j	79b8 <.L2184>

00003af8 <.L2254>:
    3af8:	00e15683          	lhu	a3,14(sp)
    3afc:	0a900b13          	li	s6,169
    3b00:	00c68693          	addi	a3,a3,12
    3b04:	01069693          	slli	a3,a3,0x10
    3b08:	4106d693          	srai	a3,a3,0x10
    3b0c:	00d11723          	sh	a3,14(sp)
    3b10:	ddeb5263          	bge	s6,t5,30d4 <.L2837>

00003b14 <.L2187>:
    3b14:	0ba00f13          	li	t5,186
    3b18:	012f5463          	bge	t5,s2,3b20 <.L2187+0xc>
    3b1c:	5550206f          	j	6870 <.L2191>
    3b20:	0ac00f13          	li	t5,172
    3b24:	dd2f5863          	bge	t5,s2,30f4 <.L2189>
    3b28:	00815f03          	lhu	t5,8(sp)
    3b2c:	007f0f13          	addi	t5,t5,7
    3b30:	01e11423          	sh	t5,8(sp)
    3b34:	ef600f13          	li	t5,-266
    3b38:	ddeac263          	blt	s5,t5,30fc <.L2838>

00003b3c <.L2193>:
    3b3c:	00c00513          	li	a0,12
    3b40:	01155463          	bge	a0,a7,3b48 <.L2193+0xc>
    3b44:	3710306f          	j	76b4 <.L2202>
    3b48:	00b00513          	li	a0,11
    3b4c:	01d55463          	bge	a0,t4,3b54 <.L2193+0x18>
    3b50:	1fd0606f          	j	a54c <.L2203>
    3b54:	00a15503          	lhu	a0,10(sp)
    3b58:	ffb50513          	addi	a0,a0,-5
    3b5c:	01051513          	slli	a0,a0,0x10
    3b60:	41055513          	srai	a0,a0,0x10
    3b64:	00a11523          	sh	a0,10(sp)
    3b68:	25b00513          	li	a0,603
    3b6c:	dce55463          	bge	a0,a4,3134 <.L2201>

00003b70 <.L2205>:
    3b70:	fe900513          	li	a0,-23
    3b74:	00a64463          	blt	a2,a0,3b7c <.L2205+0xc>
    3b78:	4cc0306f          	j	7044 <.L2198>
    3b7c:	dde00513          	li	a0,-546
    3b80:	00aa4463          	blt	s4,a0,3b88 <.L2205+0x18>
    3b84:	3c80706f          	j	af4c <.L2211>
    3b88:	00c15503          	lhu	a0,12(sp)
    3b8c:	02800e93          	li	t4,40
    3b90:	00450513          	addi	a0,a0,4
    3b94:	00a11623          	sh	a0,12(sp)
    3b98:	167ed4e3          	bge	t4,t2,4500 <.L2212>
    3b9c:	06b00513          	li	a0,107
    3ba0:	169546e3          	blt	a0,s1,450c <.L2217>

00003ba4 <.L2213>:
    3ba4:	f9500513          	li	a0,-107
    3ba8:	00a44463          	blt	s0,a0,3bb0 <.L2213+0xc>
    3bac:	32c0706f          	j	aed8 <.L2839>
    3bb0:	00968693          	addi	a3,a3,9
    3bb4:	00d11723          	sh	a3,14(sp)
    3bb8:	f7a00693          	li	a3,-134
    3bbc:	dcda5263          	bge	s4,a3,3180 <.L2218>

00003bc0 <.L2826>:
    3bc0:	f4000693          	li	a3,-192
    3bc4:	00da5463          	bge	s4,a3,3bcc <.L2826+0xc>
    3bc8:	2350106f          	j	55fc <.L2219>
    3bcc:	ff700693          	li	a3,-9
    3bd0:	00d64463          	blt	a2,a3,3bd8 <.L2220>
    3bd4:	2450106f          	j	5618 <.L2230>

00003bd8 <.L2220>:
    3bd8:	00815683          	lhu	a3,8(sp)
    3bdc:	00768693          	addi	a3,a3,7
    3be0:	00d11423          	sh	a3,8(sp)
    3be4:	03300693          	li	a3,51
    3be8:	ddf6d663          	bge	a3,t6,31b4 <.L2840>

00003bec <.L2238>:
    3bec:	02b00693          	li	a3,43
    3bf0:	0106d463          	bge	a3,a6,3bf8 <.L2215>
    3bf4:	0600506f          	j	8c54 <.L2245>

00003bf8 <.L2215>:
    3bf8:	00c00713          	li	a4,12
    3bfc:	01c75463          	bge	a4,t3,3c04 <.L2215+0xc>
    3c00:	6f40606f          	j	a2f4 <.L2246>
    3c04:	00a15703          	lhu	a4,10(sp)
    3c08:	00170713          	addi	a4,a4,1
    3c0c:	01071713          	slli	a4,a4,0x10
    3c10:	41075713          	srai	a4,a4,0x10

00003c14 <.L2247>:
    3c14:	00e11523          	sh	a4,10(sp)
    3c18:	f5b00713          	li	a4,-165
    3c1c:	12e2d0e3          	bge	t0,a4,453c <.L2240>
    3c20:	f5600793          	li	a5,-170
    3c24:	00fa4463          	blt	s4,a5,3c2c <.L2247+0x18>
    3c28:	0690306f          	j	7490 <.L2241>
    3c2c:	03a00793          	li	a5,58
    3c30:	ddf7d063          	bge	a5,t6,31f0 <.L2243>
    3c34:	00c15783          	lhu	a5,12(sp)
    3c38:	00278793          	addi	a5,a5,2
    3c3c:	01079793          	slli	a5,a5,0x10
    3c40:	4107d793          	srai	a5,a5,0x10
    3c44:	00f11623          	sh	a5,12(sp)
    3c48:	c0000793          	li	a5,-1024
    3c4c:	dcf5c063          	blt	a1,a5,320c <.L2841>

00003c50 <.L2249>:
    3c50:	02c00793          	li	a5,44
    3c54:	0117d463          	bge	a5,a7,3c5c <.L2249+0xc>
    3c58:	5680406f          	j	81c0 <.L2251>
    3c5c:	daf89e63          	bne	a7,a5,3218 <.L2250>
    3c60:	00e15783          	lhu	a5,14(sp)
    3c64:	00878793          	addi	a5,a5,8
    3c68:	00f11723          	sh	a5,14(sp)
    3c6c:	dacff06f          	j	3218 <.L2250>

00003c70 <.L1543>:
    3c70:	00c15c03          	lhu	s8,12(sp)
    3c74:	01800c93          	li	s9,24
    3c78:	016c0c13          	addi	s8,s8,22
    3c7c:	01811623          	sh	s8,12(sp)
    3c80:	150cd8e3          	bge	s9,a6,45d0 <.L1544>

00003c84 <.L1545>:
    3c84:	02600c13          	li	s8,38
    3c88:	006c4463          	blt	s8,t1,3c90 <.L1549>
    3c8c:	a19fe06f          	j	26a4 <.L1539>

00003c90 <.L1549>:
    3c90:	00e15c03          	lhu	s8,14(sp)
    3c94:	00bc0c13          	addi	s8,s8,11
    3c98:	01811723          	sh	s8,14(sp)
    3c9c:	0a900c13          	li	s8,169
    3ca0:	01ec4463          	blt	s8,t5,3ca8 <.L1550>
    3ca4:	a0dfe06f          	j	26b0 <.L2842>

00003ca8 <.L1550>:
    3ca8:	01700c13          	li	s8,23
    3cac:	01dc5463          	bge	s8,t4,3cb4 <.L1550+0xc>
    3cb0:	0450306f          	j	74f4 <.L1555>
    3cb4:	00815c03          	lhu	s8,8(sp)
    3cb8:	fffc0c13          	addi	s8,s8,-1
    3cbc:	010c1c13          	slli	s8,s8,0x10
    3cc0:	410c5c13          	srai	s8,s8,0x10
    3cc4:	01811423          	sh	s8,8(sp)
    3cc8:	03300c13          	li	s8,51
    3ccc:	01fc4463          	blt	s8,t6,3cd4 <.L1557>
    3cd0:	a19fe06f          	j	26e8 <.L2843>

00003cd4 <.L1557>:
    3cd4:	06f00c13          	li	s8,111
    3cd8:	00dc5463          	bge	s8,a3,3ce0 <.L1557+0xc>
    3cdc:	6590306f          	j	7b34 <.L1562>
    3ce0:	01b00c13          	li	s8,27
    3ce4:	00ec5463          	bge	s8,a4,3cec <.L1557+0x18>
    3ce8:	4fc0506f          	j	91e4 <.L1563>
    3cec:	00a15c03          	lhu	s8,10(sp)
    3cf0:	fffc0c13          	addi	s8,s8,-1
    3cf4:	01811523          	sh	s8,10(sp)

00003cf8 <.L1564>:
    3cf8:	02a00c13          	li	s8,42
    3cfc:	00dc5463          	bge	s8,a3,3d04 <.L1564+0xc>
    3d00:	6810306f          	j	7b80 <.L1573>
    3d04:	00c15c03          	lhu	s8,12(sp)
    3d08:	02700c93          	li	s9,39
    3d0c:	ffec0c13          	addi	s8,s8,-2
    3d10:	010c1c13          	slli	s8,s8,0x10
    3d14:	410c5c13          	srai	s8,s8,0x10
    3d18:	01811623          	sh	s8,12(sp)
    3d1c:	007cc463          	blt	s9,t2,3d24 <.L1577>
    3d20:	a31fe06f          	j	2750 <.L2844>

00003d24 <.L1577>:
    3d24:	05800c93          	li	s9,88
    3d28:	009cd463          	bge	s9,s1,3d30 <.L1577+0xc>
    3d2c:	6140406f          	j	8340 <.L1581>
    3d30:	f9500c93          	li	s9,-107
    3d34:	01944463          	blt	s0,s9,3d3c <.L1577+0x18>
    3d38:	4a40406f          	j	81dc <.L1579>
    3d3c:	00e15c83          	lhu	s9,14(sp)
    3d40:	010c8c93          	addi	s9,s9,16
    3d44:	01911723          	sh	s9,14(sp)
    3d48:	01f00c93          	li	s9,31
    3d4c:	013cc463          	blt	s9,s3,3d54 <.L1582>
    3d50:	a31fe06f          	j	2780 <.L2845>

00003d54 <.L1582>:
    3d54:	e1800c93          	li	s9,-488
    3d58:	019a4463          	blt	s4,s9,3d60 <.L1582+0xc>
    3d5c:	3880406f          	j	80e4 <.L1589>
    3d60:	00815c83          	lhu	s9,8(sp)
    3d64:	ffec8c93          	addi	s9,s9,-2
    3d68:	01911423          	sh	s9,8(sp)
    3d6c:	e2c00c93          	li	s9,-468
    3d70:	0192c463          	blt	t0,s9,3d78 <.L1590>
    3d74:	a39fe06f          	j	27ac <.L2846>

00003d78 <.L1590>:
    3d78:	e0200c93          	li	s9,-510
    3d7c:	019ac463          	blt	s5,s9,3d84 <.L1590+0xc>
    3d80:	0d90406f          	j	8658 <.L1588>
    3d84:	fef00c93          	li	s9,-17
    3d88:	01964463          	blt	a2,s9,3d90 <.L1590+0x18>
    3d8c:	4490106f          	j	59d4 <.L1592>
    3d90:	00a15c83          	lhu	s9,10(sp)
    3d94:	03c00d13          	li	s10,60
    3d98:	ffac8c93          	addi	s9,s9,-6
    3d9c:	01911523          	sh	s9,10(sp)
    3da0:	00fd5463          	bge	s10,a5,3da8 <.L1590+0x30>
    3da4:	0d50406f          	j	8678 <.L2712>
    3da8:	00f00c93          	li	s9,15
    3dac:	010cd463          	bge	s9,a6,3db4 <.L1590+0x3c>
    3db0:	1d40506f          	j	8f84 <.L1599>
    3db4:	f6300c13          	li	s8,-157
    3db8:	0185c463          	blt	a1,s8,3dc0 <.L1590+0x48>
    3dbc:	1b80806f          	j	bf74 <.L1600>
    3dc0:	00c15c03          	lhu	s8,12(sp)
    3dc4:	00300c93          	li	s9,3
    3dc8:	ffcc0c13          	addi	s8,s8,-4
    3dcc:	01811623          	sh	s8,12(sp)
    3dd0:	01ccd463          	bge	s9,t3,3dd8 <.L1621>
    3dd4:	1c40506f          	j	8f98 <.L1596>

00003dd8 <.L1621>:
    3dd8:	0c100c13          	li	s8,193
    3ddc:	012c4463          	blt	s8,s2,3de4 <.L1621+0xc>
    3de0:	a35fe06f          	j	2814 <.L1635>
    3de4:	00e15c03          	lhu	s8,14(sp)
    3de8:	ffdc0c13          	addi	s8,s8,-3
    3dec:	01811723          	sh	s8,14(sp)

00003df0 <.L1628>:
    3df0:	00400c13          	li	s8,4
    3df4:	011c4463          	blt	s8,a7,3dfc <.L1628+0xc>
    3df8:	4910106f          	j	5a88 <.L1643>
    3dfc:	00e00c13          	li	s8,14
    3e00:	01dc4463          	blt	s8,t4,3e08 <.L1645>
    3e04:	a41fe06f          	j	2844 <.L1646>

00003e08 <.L1645>:
    3e08:	ffc00c13          	li	s8,-4
    3e0c:	01864863          	blt	a2,s8,3e1c <.L1673>

00003e10 <.L1665>:
    3e10:	00815c03          	lhu	s8,8(sp)
    3e14:	006c0c13          	addi	s8,s8,6
    3e18:	01811423          	sh	s8,8(sp)

00003e1c <.L1673>:
    3e1c:	02e00c13          	li	s8,46
    3e20:	01dc5463          	bge	s8,t4,3e28 <.L1666>
    3e24:	5910406f          	j	8bb4 <.L1674>

00003e28 <.L1666>:
    3e28:	01d00c13          	li	s8,29
    3e2c:	011c4463          	blt	s8,a7,3e34 <.L1666+0xc>
    3e30:	1f00806f          	j	c020 <.L2847>
    3e34:	3b500c13          	li	s8,949
    3e38:	00ec5463          	bge	s8,a4,3e40 <.L1666+0x18>
    3e3c:	0880806f          	j	bec4 <.L1687>
    3e40:	00a15c03          	lhu	s8,10(sp)
    3e44:	00100c93          	li	s9,1
    3e48:	ff7c0c13          	addi	s8,s8,-9
    3e4c:	01811523          	sh	s8,10(sp)
    3e50:	01ccc463          	blt	s9,t3,3e58 <.L1689>
    3e54:	0880806f          	j	bedc <.L1688>

00003e58 <.L1689>:
    3e58:	02000c13          	li	s8,32
    3e5c:	01dc4463          	blt	s8,t4,3e64 <.L1689+0xc>
    3e60:	a21fe06f          	j	2880 <.L1659>
    3e64:	4790106f          	j	5adc <.L1692>

00003e68 <.L2772>:
    3e68:	02c00c13          	li	s8,44
    3e6c:	01dc5e63          	bge	s8,t4,3e88 <.L1329>
    3e70:	00815c03          	lhu	s8,8(sp)
    3e74:	03400c93          	li	s9,52
    3e78:	ffac0c13          	addi	s8,s8,-6
    3e7c:	01811423          	sh	s8,8(sp)
    3e80:	01dcd463          	bge	s9,t4,3e88 <.L1329>
    3e84:	899fd06f          	j	171c <.L1323>

00003e88 <.L1329>:
    3e88:	ff100c13          	li	s8,-15
    3e8c:	01864463          	blt	a2,s8,3e94 <.L1329+0xc>
    3e90:	6d40306f          	j	7564 <.L2848>
    3e94:	00200c13          	li	s8,2
    3e98:	01cc5463          	bge	s8,t3,3ea0 <.L1329+0x18>
    3e9c:	2f80706f          	j	b194 <.L1335>
    3ea0:	00a15c03          	lhu	s8,10(sp)
    3ea4:	02a00c93          	li	s9,42
    3ea8:	006c0c13          	addi	s8,s8,6
    3eac:	01811523          	sh	s8,10(sp)
    3eb0:	00dcc463          	blt	s9,a3,3eb8 <.L1329+0x30>
    3eb4:	6dc0306f          	j	7590 <.L1345>
    3eb8:	02700c13          	li	s8,39
    3ebc:	00ec5463          	bge	s8,a4,3ec4 <.L2698>
    3ec0:	6190706f          	j	bcd8 <.L1339>

00003ec4 <.L2698>:
    3ec4:	00900c13          	li	s8,9
    3ec8:	012c5463          	bge	s8,s2,3ed0 <.L1346>
    3ecc:	5a90706f          	j	bc74 <.L1340>

00003ed0 <.L1346>:
    3ed0:	00c15c03          	lhu	s8,12(sp)
    3ed4:	03600c93          	li	s9,54
    3ed8:	001c0c13          	addi	s8,s8,1
    3edc:	01811623          	sh	s8,12(sp)
    3ee0:	00fcc463          	blt	s9,a5,3ee8 <.L1342>
    3ee4:	6c40106f          	j	55a8 <.L1341>

00003ee8 <.L1342>:
    3ee8:	00c00c13          	li	s8,12
    3eec:	01cc5463          	bge	s8,t3,3ef4 <.L1364>
    3ef0:	0e80206f          	j	5fd8 <.L1354>

00003ef4 <.L1364>:
    3ef4:	00e15c03          	lhu	s8,14(sp)
    3ef8:	ffac0c13          	addi	s8,s8,-6
    3efc:	010c1c13          	slli	s8,s8,0x10
    3f00:	410c5c13          	srai	s8,s8,0x10
    3f04:	01811723          	sh	s8,14(sp)
    3f08:	fa300c13          	li	s8,-93
    3f0c:	0182d463          	bge	t0,s8,3f14 <.L1367>
    3f10:	cecfe06f          	j	23fc <.L2849>

00003f14 <.L1367>:
    3f14:	01f00c13          	li	s8,31
    3f18:	0d0c42e3          	blt	s8,a6,47dc <.L1376>
    3f1c:	1a000c13          	li	s8,416
    3f20:	012c5463          	bge	s8,s2,3f28 <.L1367+0x14>
    3f24:	1ec0706f          	j	b110 <.L1384>
    3f28:	00815c03          	lhu	s8,8(sp)
    3f2c:	03900c93          	li	s9,57
    3f30:	009c0c13          	addi	s8,s8,9
    3f34:	01811423          	sh	s8,8(sp)
    3f38:	0a6cdce3          	bge	s9,t1,47f0 <.L1372>

00003f3c <.L2620>:
    3f3c:	ff800c13          	li	s8,-8
    3f40:	01865463          	bge	a2,s8,3f48 <.L1385>
    3f44:	ce4fe06f          	j	2428 <.L1373>

00003f48 <.L1385>:
    3f48:	00100c13          	li	s8,1
    3f4c:	01cc4463          	blt	s8,t3,3f54 <.L2625>
    3f50:	0e80206f          	j	6038 <.L1375>

00003f54 <.L2625>:
    3f54:	02000c13          	li	s8,32
    3f58:	01dc5463          	bge	s8,t4,3f60 <.L1394>
    3f5c:	d08fe06f          	j	2464 <.L1402>

00003f60 <.L1394>:
    3f60:	03c00c13          	li	s8,60
    3f64:	0cfc4ee3          	blt	s8,a5,4840 <.L1390>

00003f68 <.L1403>:
    3f68:	e4f00c13          	li	s8,-433
    3f6c:	018ad463          	bge	s5,s8,3f74 <.L1403+0xc>
    3f70:	d24fe06f          	j	2494 <.L1391>
    3f74:	01700c13          	li	s8,23
    3f78:	01dc5463          	bge	s8,t4,3f80 <.L1392>
    3f7c:	6080406f          	j	8584 <.L1416>

00003f80 <.L1392>:
    3f80:	00e15c03          	lhu	s8,14(sp)
    3f84:	ffbc0c13          	addi	s8,s8,-5
    3f88:	01811723          	sh	s8,14(sp)
    3f8c:	01f00c13          	li	s8,31
    3f90:	013c4463          	blt	s8,s3,3f98 <.L1422>
    3f94:	d24fe06f          	j	24b8 <.L1408>

00003f98 <.L1422>:
    3f98:	00700c13          	li	s8,7
    3f9c:	011c5463          	bge	s8,a7,3fa4 <.L1422+0xc>
    3fa0:	5510306f          	j	7cf0 <.L1409>
    3fa4:	00815c03          	lhu	s8,8(sp)
    3fa8:	fffc0c13          	addi	s8,s8,-1
    3fac:	01811423          	sh	s8,8(sp)
    3fb0:	03300c13          	li	s8,51
    3fb4:	01fc4463          	blt	s8,t6,3fbc <.L1426>
    3fb8:	d28fe06f          	j	24e0 <.L2850>

00003fbc <.L1426>:
    3fbc:	03b00c13          	li	s8,59
    3fc0:	00fc5463          	bge	s8,a5,3fc8 <.L2918>
    3fc4:	2ac0306f          	j	7270 <.L1431>

00003fc8 <.L2918>:
    3fc8:	0a500c13          	li	s8,165
    3fcc:	007c5463          	bge	s8,t2,3fd4 <.L2918+0xc>
    3fd0:	d30fe06f          	j	2500 <.L1429>
    3fd4:	00a15c03          	lhu	s8,10(sp)
    3fd8:	005c0c13          	addi	s8,s8,5
    3fdc:	01811523          	sh	s8,10(sp)
    3fe0:	f9800c13          	li	s8,-104
    3fe4:	01845463          	bge	s0,s8,3fec <.L1433>
    3fe8:	d24fe06f          	j	250c <.L2851>

00003fec <.L1433>:
    3fec:	f6d00c13          	li	s8,-147
    3ff0:	018ac463          	blt	s5,s8,3ff8 <.L1433+0xc>
    3ff4:	3800306f          	j	7374 <.L1437>
    3ff8:	0c700c13          	li	s8,199
    3ffc:	01ec5463          	bge	s8,t5,4004 <.L1433+0x18>
    4000:	0510606f          	j	a850 <.L1438>
    4004:	00c15c03          	lhu	s8,12(sp)
    4008:	017c0c13          	addi	s8,s8,23
    400c:	01811623          	sh	s8,12(sp)
    4010:	d2a00c13          	li	s8,-726
    4014:	0185d463          	bge	a1,s8,401c <.L1440>
    4018:	d20fe06f          	j	2538 <.L2852>

0000401c <.L1440>:
    401c:	02c00c13          	li	s8,44
    4020:	011c5463          	bge	s8,a7,4028 <.L1440+0xc>
    4024:	1f50406f          	j	8a18 <.L1446>
    4028:	01889463          	bne	a7,s8,4030 <.L1440+0x14>
    402c:	3950106f          	j	5bc0 <.L2853>
    4030:	00400c13          	li	s8,4
    4034:	011c5463          	bge	s8,a7,403c <.L1440+0x20>
    4038:	34d0106f          	j	5b84 <.L1444>
    403c:	03800c13          	li	s8,56
    4040:	01fc5463          	bge	s8,t6,4048 <.L1440+0x2c>
    4044:	1a40306f          	j	71e8 <.L1450>
    4048:	00815c03          	lhu	s8,8(sp)
    404c:	f8b00c93          	li	s9,-117
    4050:	00bc0c13          	addi	s8,s8,11
    4054:	01811423          	sh	s8,8(sp)
    4058:	0195d463          	bge	a1,s9,4060 <.L1464>
    405c:	d24fe06f          	j	2580 <.L2737>

00004060 <.L1464>:
    4060:	ffe00c13          	li	s8,-2
    4064:	01865463          	bge	a2,s8,406c <.L1464+0xc>
    4068:	3490106f          	j	5bb0 <.L1468>
    406c:	00a15c03          	lhu	s8,10(sp)
    4070:	ffec0c13          	addi	s8,s8,-2
    4074:	01811523          	sh	s8,10(sp)
    4078:	02700c13          	li	s8,39
    407c:	01dc4463          	blt	s8,t4,4084 <.L1477>
    4080:	d30fe06f          	j	25b0 <.L1476>

00004084 <.L1477>:
    4084:	34900c13          	li	s8,841
    4088:	00dc5463          	bge	s8,a3,4090 <.L1477+0xc>
    408c:	d3cfe06f          	j	25c8 <.L1487>
    4090:	00c15c03          	lhu	s8,12(sp)
    4094:	ff7c0c13          	addi	s8,s8,-9
    4098:	01811623          	sh	s8,12(sp)
    409c:	0a000c13          	li	s8,160
    40a0:	009c4463          	blt	s8,s1,40a8 <.L1491>
    40a4:	d30fe06f          	j	25d4 <.L2854>

000040a8 <.L1491>:
    40a8:	eb800c13          	li	s8,-328
    40ac:	01844463          	blt	s0,s8,40b4 <.L1491+0xc>
    40b0:	3c40306f          	j	7474 <.L1499>
    40b4:	eb100c13          	li	s8,-335
    40b8:	01844863          	blt	s0,s8,40c8 <.L1497>
    40bc:	00e15c03          	lhu	s8,14(sp)
    40c0:	009c0c13          	addi	s8,s8,9
    40c4:	01811723          	sh	s8,14(sp)

000040c8 <.L1497>:
    40c8:	39000c13          	li	s8,912
    40cc:	006c5463          	bge	s8,t1,40d4 <.L1497+0xc>
    40d0:	1680106f          	j	5238 <.L1501>
    40d4:	0ba00c13          	li	s8,186
    40d8:	492c5263          	bge	s8,s2,455c <.L1502>
    40dc:	00815c03          	lhu	s8,8(sp)
    40e0:	12e00c93          	li	s9,302
    40e4:	01c04463          	bgtz	t3,40ec <.L1497+0x24>
    40e8:	2f00706f          	j	b3d8 <.L2855>
    40ec:	ffac0c13          	addi	s8,s8,-6
    40f0:	01811423          	sh	s8,8(sp)
    40f4:	006cd463          	bge	s9,t1,40fc <.L1504>
    40f8:	d30fe06f          	j	2628 <.L1511>

000040fc <.L1504>:
    40fc:	02a00c13          	li	s8,42
    4100:	00dc5463          	bge	s8,a3,4108 <.L1504+0xc>
    4104:	1b00306f          	j	72b4 <.L1515>
    4108:	04b00c13          	li	s8,75
    410c:	00ec5463          	bge	s8,a4,4114 <.L1504+0x18>
    4110:	0f90506f          	j	9a08 <.L1516>
    4114:	00a15c03          	lhu	s8,10(sp)
    4118:	fffc0c13          	addi	s8,s8,-1
    411c:	010c1c13          	slli	s8,s8,0x10
    4120:	410c5c13          	srai	s8,s8,0x10

00004124 <.L1517>:
    4124:	01811523          	sh	s8,10(sp)
    4128:	f9800c13          	li	s8,-104
    412c:	47845a63          	bge	s0,s8,45a0 <.L1507>
    4130:	0c700c13          	li	s8,199
    4134:	016c4463          	blt	s8,s6,413c <.L1529>
    4138:	4710406f          	j	8da8 <.L1528>

0000413c <.L1529>:
    413c:	0aa00c13          	li	s8,170
    4140:	006c5463          	bge	s8,t1,4148 <.L1529+0xc>
    4144:	d20fe06f          	j	2664 <.L1521>
    4148:	00c15c03          	lhu	s8,12(sp)
    414c:	002c0c13          	addi	s8,s8,2
    4150:	010c1c13          	slli	s8,s8,0x10
    4154:	410c5c13          	srai	s8,s8,0x10
    4158:	01811623          	sh	s8,12(sp)
    415c:	01800c13          	li	s8,24
    4160:	470c5863          	bge	s8,a6,45d0 <.L1544>

00004164 <.L1532>:
    4164:	eee00c13          	li	s8,-274
    4168:	b18adee3          	bge	s5,s8,3c84 <.L1545>
    416c:	01c51c83          	lh	s9,28(a0)
    4170:	02300c13          	li	s8,35
    4174:	019c4463          	blt	s8,s9,417c <.L2808>
    4178:	d20fe06f          	j	2698 <.L1540>

0000417c <.L2808>:
    417c:	00e15c03          	lhu	s8,14(sp)
    4180:	ffac0c13          	addi	s8,s8,-6
    4184:	01811723          	sh	s8,14(sp)
    4188:	d1cfe06f          	j	26a4 <.L1539>

0000418c <.L1204>:
    418c:	00e15c03          	lhu	s8,14(sp)
    4190:	00400c93          	li	s9,4
    4194:	ffcc0c13          	addi	s8,s8,-4
    4198:	01811723          	sh	s8,14(sp)
    419c:	571cd4e3          	bge	s9,a7,4f04 <.L1209>
    41a0:	00e00c13          	li	s8,14
    41a4:	01dc5463          	bge	s8,t4,41ac <.L1218>
    41a8:	890fe06f          	j	2238 <.L1210>

000041ac <.L1218>:
    41ac:	00815c03          	lhu	s8,8(sp)
    41b0:	ffac0c13          	addi	s8,s8,-6
    41b4:	01811423          	sh	s8,8(sp)
    41b8:	880fe06f          	j	2238 <.L1210>

000041bc <.L2004>:
    41bc:	fe900c13          	li	s8,-23
    41c0:	01864463          	blt	a2,s8,41c8 <.L2004+0xc>
    41c4:	7280406f          	j	88ec <.L2011>
    41c8:	dde00c13          	li	s8,-546
    41cc:	018a4463          	blt	s4,s8,41d4 <.L2004+0x18>
    41d0:	3300606f          	j	a500 <.L2012>
    41d4:	00c15c03          	lhu	s8,12(sp)
    41d8:	005c0c13          	addi	s8,s8,5
    41dc:	01811623          	sh	s8,12(sp)
    41e0:	02700c13          	li	s8,39
    41e4:	007c4463          	blt	s8,t2,41ec <.L2013>
    41e8:	c11fe06f          	j	2df8 <.L2856>

000041ec <.L2013>:
    41ec:	03000c13          	li	s8,48
    41f0:	007c5463          	bge	s8,t2,41f8 <.L2013+0xc>
    41f4:	6890306f          	j	807c <.L2016>
    41f8:	0b800c13          	li	s8,184
    41fc:	009c5463          	bge	s8,s1,4204 <.L2013+0x18>
    4200:	1bc0606f          	j	a3bc <.L2017>
    4204:	00e15c03          	lhu	s8,14(sp)
    4208:	00bc0c13          	addi	s8,s8,11
    420c:	010c1c13          	slli	s8,s8,0x10
    4210:	410c5c13          	srai	s8,s8,0x10
    4214:	01811723          	sh	s8,14(sp)
    4218:	00400c13          	li	s8,4
    421c:	011c4463          	blt	s8,a7,4224 <.L2019>
    4220:	c05fe06f          	j	2e24 <.L2857>

00004224 <.L2019>:
    4224:	00e00c13          	li	s8,14
    4228:	01dc5463          	bge	s8,t4,4230 <.L2019+0xc>
    422c:	6050306f          	j	8030 <.L2027>
    4230:	f9c00c13          	li	s8,-100
    4234:	01844463          	blt	s0,s8,423c <.L2019+0x18>
    4238:	6090306f          	j	8040 <.L2028>
    423c:	00815c03          	lhu	s8,8(sp)
    4240:	ffbc0c13          	addi	s8,s8,-5
    4244:	01811423          	sh	s8,8(sp)
    4248:	0f000c13          	li	s8,240
    424c:	006c5463          	bge	s8,t1,4254 <.L2029>
    4250:	bf9fe06f          	j	2e48 <.L2858>

00004254 <.L2029>:
    4254:	00200c13          	li	s8,2
    4258:	01cc5463          	bge	s8,t3,4260 <.L2029+0xc>
    425c:	1b40106f          	j	5410 <.L2859>
    4260:	03500c13          	li	s8,53
    4264:	00fc5463          	bge	s8,a5,426c <.L2029+0x18>
    4268:	7a50506f          	j	a20c <.L2031>
    426c:	00a15c03          	lhu	s8,10(sp)
    4270:	01500c93          	li	s9,21
    4274:	006c0c13          	addi	s8,s8,6
    4278:	01811523          	sh	s8,10(sp)
    427c:	010cc463          	blt	s9,a6,4284 <.L2051>
    4280:	5fc0106f          	j	587c <.L2032>

00004284 <.L2051>:
    4284:	00b00c13          	li	s8,11
    4288:	011c4463          	blt	s8,a7,4290 <.L2051+0xc>
    428c:	3850506f          	j	9e10 <.L2033>
    4290:	00c15c03          	lhu	s8,12(sp)
    4294:	009c0c13          	addi	s8,s8,9
    4298:	010c1c13          	slli	s8,s8,0x10
    429c:	410c5c13          	srai	s8,s8,0x10
    42a0:	01811623          	sh	s8,12(sp)
    42a4:	01c05463          	blez	t3,42ac <.L2818>
    42a8:	bf9fe06f          	j	2ea0 <.L2045>

000042ac <.L2818>:
    42ac:	00e15c03          	lhu	s8,14(sp)
    42b0:	ffac0c13          	addi	s8,s8,-6
    42b4:	010c1c13          	slli	s8,s8,0x10
    42b8:	410c5c13          	srai	s8,s8,0x10
    42bc:	01811723          	sh	s8,14(sp)
    42c0:	0a900c13          	li	s8,169
    42c4:	01ec4463          	blt	s8,t5,42cc <.L2056>
    42c8:	c11fe06f          	j	2ed8 <.L2050>

000042cc <.L2056>:
    42cc:	eba00c13          	li	s8,-326
    42d0:	0185c463          	blt	a1,s8,42d8 <.L2056+0xc>
    42d4:	5ec0106f          	j	58c0 <.L2046>
    42d8:	01400b13          	li	s6,20
    42dc:	013b5463          	bge	s6,s3,42e4 <.L2056+0x18>
    42e0:	3450506f          	j	9e24 <.L2072>
    42e4:	00815b03          	lhu	s6,8(sp)
    42e8:	08300c13          	li	s8,131
    42ec:	003b0b13          	addi	s6,s6,3
    42f0:	01611423          	sh	s6,8(sp)
    42f4:	529c40e3          	blt	s8,s1,5014 <.L2073>

000042f8 <.L2076>:
    42f8:	00a15b03          	lhu	s6,10(sp)
    42fc:	02700c13          	li	s8,39
    4300:	ff9b0b13          	addi	s6,s6,-7
    4304:	01611523          	sh	s6,10(sp)
    4308:	006c4463          	blt	s8,t1,4310 <.L2075>
    430c:	c21fe06f          	j	2f2c <.L2074>

00004310 <.L2075>:
    4310:	ecb00b13          	li	s6,-309
    4314:	016ac463          	blt	s5,s6,431c <.L2075+0xc>
    4318:	2b00406f          	j	85c8 <.L2081>
    431c:	ff900b13          	li	s6,-7
    4320:	536642e3          	blt	a2,s6,5044 <.L2088>

00004324 <.L2087>:
    4324:	00c15b03          	lhu	s6,12(sp)
    4328:	ffbb0b13          	addi	s6,s6,-5
    432c:	010b1b13          	slli	s6,s6,0x10
    4330:	410b5b13          	srai	s6,s6,0x10
    4334:	01611623          	sh	s6,12(sp)
    4338:	c5700b13          	li	s6,-937
    433c:	0165d463          	bge	a1,s6,4344 <.L2094>
    4340:	c19fe06f          	j	2f58 <.L2860>

00004344 <.L2094>:
    4344:	02c00b13          	li	s6,44
    4348:	011b5463          	bge	s6,a7,4350 <.L2094+0xc>
    434c:	4a80306f          	j	77f4 <.L2096>
    4350:	03100b13          	li	s6,49
    4354:	01fb5463          	bge	s6,t6,435c <.L2094+0x18>
    4358:	c0dfe06f          	j	2f64 <.L2095>
    435c:	00e15b03          	lhu	s6,14(sp)
    4360:	01e00c13          	li	s8,30
    4364:	006b0b13          	addi	s6,s6,6
    4368:	01611723          	sh	s6,14(sp)
    436c:	013c5463          	bge	s8,s3,4374 <.L2094+0x30>
    4370:	2e40706f          	j	b654 <.L2097>
    4374:	01c04463          	bgtz	t3,437c <.L2103>
    4378:	28d0706f          	j	be04 <.L2098>

0000437c <.L2103>:
    437c:	02e00b13          	li	s6,46
    4380:	3ddb44e3          	blt	s6,t4,4f48 <.L2100>

00004384 <.L2099>:
    4384:	ff200b13          	li	s6,-14
    4388:	01664463          	blt	a2,s6,4390 <.L2099+0xc>
    438c:	4840306f          	j	7810 <.L2861>
    4390:	ea400b13          	li	s6,-348
    4394:	016ac463          	blt	s5,s6,439c <.L2099+0x18>
    4398:	c21fe06f          	j	2fb8 <.L2115>
    439c:	00a15b03          	lhu	s6,10(sp)
    43a0:	ff7b0b13          	addi	s6,s6,-9
    43a4:	01611523          	sh	s6,10(sp)
    43a8:	25b00b13          	li	s6,603
    43ac:	00eb5463          	bge	s6,a4,43b4 <.L2120>
    43b0:	c15fe06f          	j	2fc4 <.L2862>

000043b4 <.L2120>:
    43b4:	ec500b13          	li	s6,-315
    43b8:	0165c463          	blt	a1,s6,43c0 <.L2120+0xc>
    43bc:	5f10206f          	j	71ac <.L2863>
    43c0:	22200b13          	li	s6,546
    43c4:	007b5463          	bge	s6,t2,43cc <.L2120+0x18>
    43c8:	30c0306f          	j	76d4 <.L2123>
    43cc:	00c15b03          	lhu	s6,12(sp)
    43d0:	ffbb0b13          	addi	s6,s6,-5
    43d4:	01611623          	sh	s6,12(sp)
    43d8:	02600b13          	li	s6,38
    43dc:	00db4463          	blt	s6,a3,43e4 <.L2128>
    43e0:	c15fe06f          	j	2ff4 <.L2864>

000043e4 <.L2128>:
    43e4:	00300b13          	li	s6,3
    43e8:	75cb48e3          	blt	s6,t3,5338 <.L2143>
    43ec:	03d00b13          	li	s6,61
    43f0:	00fb4463          	blt	s6,a5,43f8 <.L2128+0x14>
    43f4:	5f10506f          	j	a1e4 <.L2144>
    43f8:	00400b13          	li	s6,4
    43fc:	771b44e3          	blt	s6,a7,5364 <.L2140>
    4400:	06a00b13          	li	s6,106
    4404:	012b4463          	blt	s6,s2,440c <.L2128+0x28>
    4408:	1a50706f          	j	bdac <.L2865>
    440c:	00815b03          	lhu	s6,8(sp)
    4410:	001b0b13          	addi	s6,s6,1
    4414:	01611423          	sh	s6,8(sp)
    4418:	e90ff06f          	j	3aa8 <.L2146>

0000441c <.L2756>:
    441c:	00815c03          	lhu	s8,8(sp)
    4420:	34b00c93          	li	s9,843
    4424:	ff6c0c13          	addi	s8,s8,-10
    4428:	01811423          	sh	s8,8(sp)
    442c:	00ecd463          	bge	s9,a4,4434 <.L516>
    4430:	ed4fc06f          	j	b04 <.L2575>

00004434 <.L516>:
    4434:	ff900c13          	li	s8,-7
    4438:	01864463          	blt	a2,s8,4440 <.L516+0xc>
    443c:	7e90206f          	j	7424 <.L520>
    4440:	1ba00c13          	li	s8,442
    4444:	016c4463          	blt	s8,s6,444c <.L516+0x18>
    4448:	5190406f          	j	9160 <.L521>
    444c:	17000c13          	li	s8,368
    4450:	00dc5463          	bge	s8,a3,4458 <.L522>
    4454:	5250406f          	j	9178 <.L526>

00004458 <.L522>:
    4458:	02200c13          	li	s8,34
    445c:	01dc5463          	bge	s8,t4,4464 <.L2277>
    4460:	7f50206f          	j	7454 <.L536>

00004464 <.L2277>:
    4464:	00c15c03          	lhu	s8,12(sp)
    4468:	002c0c13          	addi	s8,s8,2
    446c:	010c1c13          	slli	s8,s8,0x10
    4470:	410c5c13          	srai	s8,s8,0x10
    4474:	ee8fc06f          	j	b5c <.L538>

00004478 <.L501>:
    4478:	01d00c13          	li	s8,29
    447c:	010c5463          	bge	s8,a6,4484 <.L501+0xc>
    4480:	68d0206f          	j	730c <.L510>
    4484:	11800c13          	li	s8,280
    4488:	012c5463          	bge	s8,s2,4490 <.L501+0x18>
    448c:	26c0606f          	j	a6f8 <.L511>
    4490:	00815c03          	lhu	s8,8(sp)
    4494:	009c0c13          	addi	s8,s8,9
    4498:	010c1c13          	slli	s8,s8,0x10
    449c:	410c5c13          	srai	s8,s8,0x10

000044a0 <.L512>:
    44a0:	01811423          	sh	s8,8(sp)
    44a4:	34b00c13          	li	s8,843
    44a8:	f8ec56e3          	bge	s8,a4,4434 <.L516>
    44ac:	00001c37          	lui	s8,0x1
    44b0:	a9dc0c13          	addi	s8,s8,-1379 # a9d <.L470+0x2d>
    44b4:	00dc5463          	bge	s8,a3,44bc <.L512+0x1c>
    44b8:	e58fc06f          	j	b10 <.L518>
    44bc:	f5100c13          	li	s8,-175
    44c0:	018a5463          	bge	s4,s8,44c8 <.L512+0x28>
    44c4:	accfd06f          	j	1790 <.L517>
    44c8:	00a15c03          	lhu	s8,10(sp)
    44cc:	17000c93          	li	s9,368
    44d0:	ffbc0c13          	addi	s8,s8,-5
    44d4:	01811523          	sh	s8,10(sp)
    44d8:	00dcc463          	blt	s9,a3,44e0 <.L533>
    44dc:	accfd06f          	j	17a8 <.L2576>

000044e0 <.L533>:
    44e0:	3fa00c13          	li	s8,1018
    44e4:	00ec4463          	blt	s8,a4,44ec <.L532>
    44e8:	4910406f          	j	9178 <.L526>

000044ec <.L532>:
    44ec:	00c15c03          	lhu	s8,12(sp)
    44f0:	ff7c0c13          	addi	s8,s8,-9
    44f4:	010c1c13          	slli	s8,s8,0x10
    44f8:	410c5c13          	srai	s8,s8,0x10
    44fc:	e60fc06f          	j	b5c <.L538>

00004500 <.L2212>:
    4500:	03c00613          	li	a2,60
    4504:	00f64463          	blt	a2,a5,450c <.L2217>
    4508:	08d0706f          	j	bd94 <.L2866>

0000450c <.L2217>:
    450c:	03300713          	li	a4,51
    4510:	01f75463          	bge	a4,t6,4518 <.L2214>
    4514:	5f00606f          	j	ab04 <.L2867>

00004518 <.L2214>:
    4518:	0ff00713          	li	a4,255
    451c:	00675463          	bge	a4,t1,4524 <.L2214+0xc>
    4520:	5e90506f          	j	a308 <.L2244>
    4524:	00a15703          	lhu	a4,10(sp)
    4528:	f5b00693          	li	a3,-165
    452c:	ffd70713          	addi	a4,a4,-3
    4530:	00e11523          	sh	a4,10(sp)
    4534:	00d2d463          	bge	t0,a3,453c <.L2240>
    4538:	cadfe06f          	j	31e4 <.L2670>

0000453c <.L2240>:
    453c:	01600713          	li	a4,22
    4540:	00f75463          	bge	a4,a5,4548 <.L2240+0xc>
    4544:	7d10206f          	j	7514 <.L2248>
    4548:	00c15783          	lhu	a5,12(sp)
    454c:	00178793          	addi	a5,a5,1
    4550:	01079793          	slli	a5,a5,0x10
    4554:	4107d793          	srai	a5,a5,0x10
    4558:	ca9fe06f          	j	3200 <.L2242>

0000455c <.L1502>:
    455c:	03800c13          	li	s8,56
    4560:	00fc5463          	bge	s8,a5,4568 <.L1502+0xc>
    4564:	61c0606f          	j	ab80 <.L2868>
    4568:	00815c03          	lhu	s8,8(sp)
    456c:	12e00c93          	li	s9,302
    4570:	ffec0c13          	addi	s8,s8,-2
    4574:	01811423          	sh	s8,8(sp)
    4578:	b86cd2e3          	bge	s9,t1,40fc <.L1504>

0000457c <.L2631>:
    457c:	00c00c13          	li	s8,12
    4580:	01cc5463          	bge	s8,t3,4588 <.L1508>
    4584:	8b0fe06f          	j	2634 <.L1505>

00004588 <.L1508>:
    4588:	00a15c03          	lhu	s8,10(sp)
    458c:	f9800c93          	li	s9,-104
    4590:	006c0c13          	addi	s8,s8,6
    4594:	01811523          	sh	s8,10(sp)
    4598:	01945463          	bge	s0,s9,45a0 <.L1507>
    459c:	8bcfe06f          	j	2658 <.L1506>

000045a0 <.L1507>:
    45a0:	f6d00c13          	li	s8,-147
    45a4:	018ac463          	blt	s5,s8,45ac <.L1507+0xc>
    45a8:	6900306f          	j	7c38 <.L1542>
    45ac:	f4700c13          	li	s8,-185
    45b0:	ed8ad063          	bge	s5,s8,3c70 <.L1543>
    45b4:	00c15c03          	lhu	s8,12(sp)
    45b8:	005c0c13          	addi	s8,s8,5
    45bc:	010c1c13          	slli	s8,s8,0x10
    45c0:	410c5c13          	srai	s8,s8,0x10
    45c4:	01811623          	sh	s8,12(sp)
    45c8:	01800c13          	li	s8,24
    45cc:	b90c4ce3          	blt	s8,a6,4164 <.L1532>

000045d0 <.L1544>:
    45d0:	11a00c13          	li	s8,282
    45d4:	007c4463          	blt	s8,t2,45dc <.L1536>
    45d8:	6840306f          	j	7c5c <.L1537>

000045dc <.L1536>:
    45dc:	ccd00c13          	li	s8,-819
    45e0:	0185c463          	blt	a1,s8,45e8 <.L1536+0xc>
    45e4:	1a80606f          	j	a78c <.L1548>
    45e8:	00e15c03          	lhu	s8,14(sp)
    45ec:	004c0c13          	addi	s8,s8,4
    45f0:	01811723          	sh	s8,14(sp)
    45f4:	8b0fe06f          	j	26a4 <.L1539>

000045f8 <.L1254>:
    45f8:	07000c13          	li	s8,112
    45fc:	012c5463          	bge	s8,s2,4604 <.L1254+0xc>
    4600:	5f80306f          	j	7bf8 <.L2869>
    4604:	00815c03          	lhu	s8,8(sp)
    4608:	008c0c13          	addi	s8,s8,8
    460c:	010c1c13          	slli	s8,s8,0x10
    4610:	410c5c13          	srai	s8,s8,0x10

00004614 <.L1253>:
    4614:	01811423          	sh	s8,8(sp)
    4618:	08c00c13          	li	s8,140
    461c:	006c4463          	blt	s8,t1,4624 <.L1253+0x10>
    4620:	cbdfd06f          	j	22dc <.L1250>
    4624:	00c00c13          	li	s8,12
    4628:	01cc4463          	blt	s8,t3,4630 <.L1275>
    462c:	1440606f          	j	a770 <.L1251>

00004630 <.L1275>:
    4630:	1fa00c13          	li	s8,506
    4634:	016c4463          	blt	s8,s6,463c <.L1275+0xc>
    4638:	6e80506f          	j	9d20 <.L1252>
    463c:	00a15c03          	lhu	s8,10(sp)
    4640:	002c0c13          	addi	s8,s8,2
    4644:	010c1c13          	slli	s8,s8,0x10
    4648:	010c5c13          	srli	s8,s8,0x10

0000464c <.L1297>:
    464c:	01811523          	sh	s8,10(sp)
    4650:	03300c13          	li	s8,51
    4654:	00fc5463          	bge	s8,a5,465c <.L2734>
    4658:	6e40106f          	j	5d3c <.L1284>

0000465c <.L2734>:
    465c:	00900c13          	li	s8,9
    4660:	011c4463          	blt	s8,a7,4668 <.L1287>
    4664:	69c0306f          	j	7d00 <.L2611>

00004668 <.L1287>:
    4668:	00300c13          	li	s8,3
    466c:	010c5463          	bge	s8,a6,4674 <.L1287+0xc>
    4670:	6fc0306f          	j	7d6c <.L1291>
    4674:	00c15c03          	lhu	s8,12(sp)
    4678:	ffec0c13          	addi	s8,s8,-2
    467c:	01811623          	sh	s8,12(sp)

00004680 <.L1292>:
    4680:	f3900c13          	li	s8,-199
    4684:	018a5463          	bge	s4,s8,468c <.L1299>
    4688:	6910406f          	j	9518 <.L1302>

0000468c <.L1299>:
    468c:	01800c13          	li	s8,24
    4690:	012c4463          	blt	s8,s2,4698 <.L1299+0xc>
    4694:	68c0306f          	j	7d20 <.L2614>
    4698:	00e15c03          	lhu	s8,14(sp)
    469c:	ffe00c93          	li	s9,-2
    46a0:	005c0c13          	addi	s8,s8,5
    46a4:	01811723          	sh	s8,14(sp)
    46a8:	01985463          	bge	a6,s9,46b0 <.L1301>
    46ac:	848fd06f          	j	16f4 <.L1300>

000046b0 <.L1301>:
    46b0:	00300c13          	li	s8,3
    46b4:	00dc5463          	bge	s8,a3,46bc <.L1301+0xc>
    46b8:	4980506f          	j	9b50 <.L1331>
    46bc:	00815c03          	lhu	s8,8(sp)
    46c0:	003c0c13          	addi	s8,s8,3
    46c4:	010c1c13          	slli	s8,s8,0x10
    46c8:	410c5c13          	srai	s8,s8,0x10
    46cc:	c9dfd06f          	j	2368 <.L1332>

000046d0 <.L956>:
    46d0:	fe200c13          	li	s8,-30
    46d4:	01864463          	blt	a2,s8,46dc <.L956+0xc>
    46d8:	7700206f          	j	6e48 <.L2870>
    46dc:	e3d00c13          	li	s8,-451
    46e0:	09845263          	bge	s0,s8,4764 <.L958>
    46e4:	00a15c03          	lhu	s8,10(sp)
    46e8:	03900c93          	li	s9,57
    46ec:	ff9c0c13          	addi	s8,s8,-7
    46f0:	01811523          	sh	s8,10(sp)
    46f4:	00dcc463          	blt	s9,a3,46fc <.L956+0x2c>
    46f8:	addfc06f          	j	11d4 <.L960>
    46fc:	02700c13          	li	s8,39
    4700:	08ec4463          	blt	s8,a4,4788 <.L966>

00004704 <.L961>:
    4704:	00c15c03          	lhu	s8,12(sp)
    4708:	cf000c93          	li	s9,-784
    470c:	fffc0c13          	addi	s8,s8,-1
    4710:	01811623          	sh	s8,12(sp)
    4714:	0995d463          	bge	a1,s9,479c <.L2408>

00004718 <.L962>:
    4718:	25d00c13          	li	s8,605
    471c:	009c4463          	blt	s8,s1,4724 <.L962+0xc>
    4720:	addfc06f          	j	11fc <.L982>
    4724:	0f600c13          	li	s8,246
    4728:	007c5463          	bge	s8,t2,4730 <.L962+0x18>
    472c:	6a40106f          	j	5dd0 <.L992>
    4730:	00e15c03          	lhu	s8,14(sp)
    4734:	fa300c93          	li	s9,-93
    4738:	ffac0c13          	addi	s8,s8,-6
    473c:	01811723          	sh	s8,14(sp)
    4740:	0192d463          	bge	t0,s9,4748 <.L2596>
    4744:	6a40106f          	j	5de8 <.L985>

00004748 <.L2596>:
    4748:	11c00c13          	li	s8,284
    474c:	012c5463          	bge	s8,s2,4754 <.L990>
    4750:	6d80406f          	j	8e28 <.L991>

00004754 <.L990>:
    4754:	00815c03          	lhu	s8,8(sp)
    4758:	001c0c13          	addi	s8,s8,1
    475c:	01811423          	sh	s8,8(sp)
    4760:	ac9fc06f          	j	1228 <.L1002>

00004764 <.L958>:
    4764:	00a15c03          	lhu	s8,10(sp)
    4768:	03900c93          	li	s9,57
    476c:	005c0c13          	addi	s8,s8,5
    4770:	01811523          	sh	s8,10(sp)
    4774:	00dcc463          	blt	s9,a3,477c <.L958+0x18>
    4778:	a5dfc06f          	j	11d4 <.L960>
    477c:	02700c13          	li	s8,39
    4780:	00ec4463          	blt	s8,a4,4788 <.L966>
    4784:	7100406f          	j	8e94 <.L972>

00004788 <.L966>:
    4788:	00c15c03          	lhu	s8,12(sp)
    478c:	cf000c93          	li	s9,-784
    4790:	002c0c13          	addi	s8,s8,2
    4794:	01811623          	sh	s8,12(sp)
    4798:	f995c0e3          	blt	a1,s9,4718 <.L962>

0000479c <.L2408>:
    479c:	0de00c13          	li	s8,222
    47a0:	012c5463          	bge	s8,s2,47a8 <.L988>
    47a4:	5980206f          	j	6d3c <.L984>

000047a8 <.L988>:
    47a8:	00e15c03          	lhu	s8,14(sp)
    47ac:	fa300c93          	li	s9,-93
    47b0:	ffac0c13          	addi	s8,s8,-6
    47b4:	01811723          	sh	s8,14(sp)
    47b8:	0192d463          	bge	t0,s9,47c0 <.L988+0x18>
    47bc:	62c0106f          	j	5de8 <.L985>
    47c0:	11c00c13          	li	s8,284
    47c4:	012c4463          	blt	s8,s2,47cc <.L995>
    47c8:	ee8fd06f          	j	1eb0 <.L994>

000047cc <.L995>:
    47cc:	00815c03          	lhu	s8,8(sp)
    47d0:	006c0c13          	addi	s8,s8,6
    47d4:	01811423          	sh	s8,8(sp)
    47d8:	a51fc06f          	j	1228 <.L1002>

000047dc <.L1376>:
    47dc:	00815c03          	lhu	s8,8(sp)
    47e0:	03900c93          	li	s9,57
    47e4:	ffdc0c13          	addi	s8,s8,-3
    47e8:	01811423          	sh	s8,8(sp)
    47ec:	f46cc863          	blt	s9,t1,3f3c <.L2620>

000047f0 <.L1372>:
    47f0:	00800c13          	li	s8,8
    47f4:	011c5463          	bge	s8,a7,47fc <.L1372+0xc>
    47f8:	49c0306f          	j	7c94 <.L2871>
    47fc:	00900c13          	li	s8,9
    4800:	01dc5463          	bge	s8,t4,4808 <.L1372+0x18>
    4804:	3280406f          	j	8b2c <.L1387>
    4808:	00a15c03          	lhu	s8,10(sp)
    480c:	00100c93          	li	s9,1
    4810:	ffbc0c13          	addi	s8,s8,-5
    4814:	01811523          	sh	s8,10(sp)
    4818:	01ccc463          	blt	s9,t3,4820 <.L1372+0x30>
    481c:	1440706f          	j	b960 <.L1388>
    4820:	ff000c13          	li	s8,-16
    4824:	01864463          	blt	a2,s8,482c <.L1389>
    4828:	6440706f          	j	be6c <.L2872>

0000482c <.L1389>:
    482c:	00c15c03          	lhu	s8,12(sp)
    4830:	007c0c13          	addi	s8,s8,7
    4834:	01811623          	sh	s8,12(sp)
    4838:	03c00c13          	li	s8,60
    483c:	f2fc5663          	bge	s8,a5,3f68 <.L1403>

00004840 <.L1390>:
    4840:	0dc00c13          	li	s8,220
    4844:	00ec4463          	blt	s8,a4,484c <.L1390+0xc>
    4848:	0050406f          	j	904c <.L2873>
    484c:	01f00c13          	li	s8,31
    4850:	010c5463          	bge	s8,a6,4858 <.L1390+0x18>
    4854:	5e80606f          	j	ae3c <.L1421>
    4858:	00e15c03          	lhu	s8,14(sp)
    485c:	ff8c0c13          	addi	s8,s8,-8
    4860:	01811723          	sh	s8,14(sp)
    4864:	c49fd06f          	j	24ac <.L1411>

00004868 <.L1152>:
    4868:	00700c13          	li	s8,7
    486c:	011c5463          	bge	s8,a7,4874 <.L1152+0xc>
    4870:	2310206f          	j	72a0 <.L1165>
    4874:	00815c03          	lhu	s8,8(sp)
    4878:	fffc0c13          	addi	s8,s8,-1
    487c:	010c1c13          	slli	s8,s8,0x10
    4880:	010c5c13          	srli	s8,s8,0x10

00004884 <.L1166>:
    4884:	01811423          	sh	s8,8(sp)
    4888:	1b900c13          	li	s8,441
    488c:	01ec5463          	bge	s8,t5,4894 <.L1166+0x10>
    4890:	8f1fd06f          	j	2180 <.L1162>
    4894:	03b00c13          	li	s8,59
    4898:	00fc4463          	blt	s8,a5,48a0 <.L1164>
    489c:	4d40206f          	j	6d70 <.L1158>

000048a0 <.L1164>:
    48a0:	ffe00c13          	li	s8,-2
    48a4:	9b864063          	blt	a2,s8,3a44 <.L1161>
    48a8:	00a15c03          	lhu	s8,10(sp)
    48ac:	03c00c93          	li	s9,60
    48b0:	002c0c13          	addi	s8,s8,2
    48b4:	01811523          	sh	s8,10(sp)
    48b8:	00fcd463          	bge	s9,a5,48c0 <.L1164+0x20>
    48bc:	8f1fd06f          	j	21ac <.L1171>
    48c0:	00f00c13          	li	s8,15
    48c4:	010c4463          	blt	s8,a6,48cc <.L1192>
    48c8:	c75fc06f          	j	153c <.L1188>

000048cc <.L1192>:
    48cc:	00c15c03          	lhu	s8,12(sp)
    48d0:	ff8c0c13          	addi	s8,s8,-8
    48d4:	010c1c13          	slli	s8,s8,0x10
    48d8:	410c5c13          	srai	s8,s8,0x10
    48dc:	8f9fd06f          	j	21d4 <.L1189>

000048e0 <.L1829>:
    48e0:	00815c03          	lhu	s8,8(sp)
    48e4:	03300c93          	li	s9,51
    48e8:	ff3c0c13          	addi	s8,s8,-13
    48ec:	01811423          	sh	s8,8(sp)
    48f0:	01fcd463          	bge	s9,t6,48f8 <.L1832>
    48f4:	a20fe06f          	j	2b14 <.L1831>

000048f8 <.L1832>:
    48f8:	1c600c13          	li	s8,454
    48fc:	00ec5463          	bge	s8,a4,4904 <.L1832+0xc>
    4900:	07c0406f          	j	897c <.L1841>
    4904:	03300c13          	li	s8,51
    4908:	018f9463          	bne	t6,s8,4910 <.L1832+0x18>
    490c:	4a90606f          	j	b5b4 <.L1842>
    4910:	00a15c03          	lhu	s8,10(sp)
    4914:	ff8c0c13          	addi	s8,s8,-8
    4918:	010c1c13          	slli	s8,s8,0x10
    491c:	410c5c13          	srai	s8,s8,0x10
    4920:	01811523          	sh	s8,10(sp)

00004924 <.L2884>:
    4924:	00100c13          	li	s8,1
    4928:	01cc5463          	bge	s8,t3,4930 <.L2816>
    492c:	a08fe06f          	j	2b34 <.L1849>

00004930 <.L2816>:
    4930:	01100c13          	li	s8,17
    4934:	011c5463          	bge	s8,a7,493c <.L2816+0xc>
    4938:	6b80406f          	j	8ff0 <.L1850>
    493c:	00c15c03          	lhu	s8,12(sp)
    4940:	c0000c93          	li	s9,-1024
    4944:	ff8c0c13          	addi	s8,s8,-8
    4948:	01811623          	sh	s8,12(sp)
    494c:	0195d463          	bge	a1,s9,4954 <.L2816+0x24>
    4950:	1950606f          	j	b2e4 <.L1851>
    4954:	01f00c13          	li	s8,31
    4958:	013c4463          	blt	s8,s3,4960 <.L2816+0x30>
    495c:	02c0706f          	j	b988 <.L1852>
    4960:	00815c03          	lhu	s8,8(sp)
    4964:	f8b00c93          	li	s9,-117
    4968:	ff9c0c13          	addi	s8,s8,-7
    496c:	01811423          	sh	s8,8(sp)
    4970:	0195d463          	bge	a1,s9,4978 <.L1855>
    4974:	a24fe06f          	j	2b98 <.L1874>

00004978 <.L1855>:
    4978:	00a15c03          	lhu	s8,10(sp)
    497c:	ffec0c13          	addi	s8,s8,-2
    4980:	010c1c13          	slli	s8,s8,0x10
    4984:	410c5c13          	srai	s8,s8,0x10
    4988:	01811523          	sh	s8,10(sp)

0000498c <.L2894>:
    498c:	fdb00c13          	li	s8,-37
    4990:	01875463          	bge	a4,s8,4998 <.L1882>
    4994:	a34fe06f          	j	2bc8 <.L2874>

00004998 <.L1882>:
    4998:	02700c13          	li	s8,39
    499c:	00ec5463          	bge	s8,a4,49a4 <.L1882+0xc>
    49a0:	1bd0306f          	j	835c <.L1888>
    49a4:	03c00c13          	li	s8,60
    49a8:	00dc5863          	bge	s8,a3,49b8 <.L1889>
    49ac:	00c15c03          	lhu	s8,12(sp)
    49b0:	007c0c13          	addi	s8,s8,7
    49b4:	01811623          	sh	s8,12(sp)

000049b8 <.L1889>:
    49b8:	05800c13          	li	s8,88
    49bc:	769c4263          	blt	s8,s1,5120 <.L1884>
    49c0:	f5300c13          	li	s8,-173
    49c4:	01845463          	bge	s0,s8,49cc <.L1889+0x14>
    49c8:	1c50306f          	j	838c <.L1885>
    49cc:	ff900c13          	li	s8,-7
    49d0:	01875463          	bge	a4,s8,49d8 <.L1899>
    49d4:	a24fe06f          	j	2bf8 <.L1886>

000049d8 <.L1899>:
    49d8:	00e15c03          	lhu	s8,14(sp)
    49dc:	ffbc0c13          	addi	s8,s8,-5
    49e0:	010c1c13          	slli	s8,s8,0x10
    49e4:	410c5c13          	srai	s8,s8,0x10
    49e8:	01811723          	sh	s8,14(sp)
    49ec:	07300c13          	li	s8,115
    49f0:	012c5463          	bge	s8,s2,49f8 <.L1894>
    49f4:	a24fe06f          	j	2c18 <.L1900>

000049f8 <.L1894>:
    49f8:	00c00c13          	li	s8,12
    49fc:	651c4e63          	blt	s8,a7,5058 <.L1901>
    4a00:	673c4663          	blt	s8,s3,506c <.L1907>
    4a04:	00815c03          	lhu	s8,8(sp)
    4a08:	02b00c93          	li	s9,43
    4a0c:	009c0c13          	addi	s8,s8,9
    4a10:	01811423          	sh	s8,8(sp)
    4a14:	670cc263          	blt	s9,a6,5078 <.L1903>

00004a18 <.L1912>:
    4a18:	d7400c13          	li	s8,-652
    4a1c:	018ac463          	blt	s5,s8,4a24 <.L1912+0xc>
    4a20:	a38fe06f          	j	2c58 <.L1914>
    4a24:	00a15c03          	lhu	s8,10(sp)
    4a28:	ff9c0c13          	addi	s8,s8,-7
    4a2c:	01811523          	sh	s8,10(sp)
    4a30:	00100c13          	li	s8,1
    4a34:	01cc5463          	bge	s8,t3,4a3c <.L1916>
    4a38:	a2cfe06f          	j	2c64 <.L2495>

00004a3c <.L1916>:
    4a3c:	02100c13          	li	s8,33
    4a40:	00ec5463          	bge	s8,a4,4a48 <.L1916+0xc>
    4a44:	0e80106f          	j	5b2c <.L2652>
    4a48:	00c15c03          	lhu	s8,12(sp)
    4a4c:	fffc0c13          	addi	s8,s8,-1
    4a50:	010c1c13          	slli	s8,s8,0x10
    4a54:	410c5c13          	srai	s8,s8,0x10
    4a58:	01811623          	sh	s8,12(sp)
    4a5c:	ff600c13          	li	s8,-10
    4a60:	01865463          	bge	a2,s8,4a68 <.L1930>
    4a64:	a38fe06f          	j	2c9c <.L2875>

00004a68 <.L1930>:
    4a68:	ff600c13          	li	s8,-10
    4a6c:	01861463          	bne	a2,s8,4a74 <.L1930+0xc>
    4a70:	1450406f          	j	93b4 <.L2876>
    4a74:	01400c13          	li	s8,20
    4a78:	013c5463          	bge	s8,s3,4a80 <.L1937>
    4a7c:	5040106f          	j	5f80 <.L2653>

00004a80 <.L1937>:
    4a80:	00e15c03          	lhu	s8,14(sp)
    4a84:	fffc0c13          	addi	s8,s8,-1
    4a88:	01811723          	sh	s8,14(sp)
    4a8c:	39000c13          	li	s8,912
    4a90:	006c4463          	blt	s8,t1,4a98 <.L1939>
    4a94:	a38fe06f          	j	2ccc <.L2877>

00004a98 <.L1939>:
    4a98:	01c00c13          	li	s8,28
    4a9c:	00ec5463          	bge	s8,a4,4aa4 <.L1939+0xc>
    4aa0:	6540306f          	j	80f4 <.L1943>
    4aa4:	00815c03          	lhu	s8,8(sp)
    4aa8:	00bc0c13          	addi	s8,s8,11
    4aac:	01811423          	sh	s8,8(sp)
    4ab0:	e2400c13          	li	s8,-476
    4ab4:	0182d463          	bge	t0,s8,4abc <.L1945>
    4ab8:	a40fe06f          	j	2cf8 <.L2878>

00004abc <.L1945>:
    4abc:	03c00c13          	li	s8,60
    4ac0:	01fc5463          	bge	s8,t6,4ac8 <.L1945+0xc>
    4ac4:	0cd0206f          	j	7390 <.L1956>
    4ac8:	00900c13          	li	s8,9
    4acc:	01cc5463          	bge	s8,t3,4ad4 <.L1945+0x18>
    4ad0:	61c0606f          	j	b0ec <.L1957>
    4ad4:	00a15c03          	lhu	s8,10(sp)
    4ad8:	001c0c13          	addi	s8,s8,1
    4adc:	010c1c13          	slli	s8,s8,0x10
    4ae0:	410c5c13          	srai	s8,s8,0x10
    4ae4:	01811523          	sh	s8,10(sp)
    4ae8:	03c00c13          	li	s8,60
    4aec:	00fc5463          	bge	s8,a5,4af4 <.L1963>
    4af0:	a40fe06f          	j	2d30 <.L1959>

00004af4 <.L1963>:
    4af4:	42200c13          	li	s8,1058
    4af8:	007c4463          	blt	s8,t2,4b00 <.L1951>
    4afc:	3d80406f          	j	8ed4 <.L1950>

00004b00 <.L1951>:
    4b00:	e2300c13          	li	s8,-477
    4b04:	01844463          	blt	s0,s8,4b0c <.L1951+0xc>
    4b08:	6c10406f          	j	99c8 <.L1976>
    4b0c:	00c15c03          	lhu	s8,12(sp)
    4b10:	05800c93          	li	s9,88
    4b14:	006c0c13          	addi	s8,s8,6
    4b18:	01811623          	sh	s8,12(sp)
    4b1c:	009cd463          	bge	s9,s1,4b24 <.L2656>
    4b20:	6cd0406f          	j	99ec <.L1977>

00004b24 <.L2656>:
    4b24:	00e15c03          	lhu	s8,14(sp)
    4b28:	00ec0c13          	addi	s8,s8,14
    4b2c:	01811723          	sh	s8,14(sp)

00004b30 <.L1995>:
    4b30:	e7b00c13          	li	s8,-389
    4b34:	0185c463          	blt	a1,s8,4b3c <.L1995+0xc>
    4b38:	4e40206f          	j	701c <.L1988>
    4b3c:	00815c03          	lhu	s8,8(sp)
    4b40:	ffac0c13          	addi	s8,s8,-6
    4b44:	01811423          	sh	s8,8(sp)
    4b48:	02e00c13          	li	s8,46
    4b4c:	01dc5463          	bge	s8,t4,4b54 <.L1993>
    4b50:	a54fe06f          	j	2da4 <.L2879>

00004b54 <.L1993>:
    4b54:	01d00c13          	li	s8,29
    4b58:	011c5463          	bge	s8,a7,4b60 <.L1993+0xc>
    4b5c:	56c0306f          	j	80c8 <.L2880>
    4b60:	ffe00c13          	li	s8,-2
    4b64:	01884463          	blt	a6,s8,4b6c <.L2501>
    4b68:	a54fe06f          	j	2dbc <.L1999>

00004b6c <.L2501>:
    4b6c:	00a15c03          	lhu	s8,10(sp)
    4b70:	ff9c0c13          	addi	s8,s8,-7
    4b74:	01811523          	sh	s8,10(sp)
    4b78:	a44fe06f          	j	2dbc <.L1999>

00004b7c <.L1778>:
    4b7c:	ff800c13          	li	s8,-8
    4b80:	01864463          	blt	a2,s8,4b88 <.L1778+0xc>
    4b84:	5750206f          	j	78f8 <.L1785>
    4b88:	01f00c13          	li	s8,31
    4b8c:	571c4ce3          	blt	s8,a7,5904 <.L1786>
    4b90:	00815c03          	lhu	s8,8(sp)
    4b94:	02e00c93          	li	s9,46
    4b98:	003c0c13          	addi	s8,s8,3
    4b9c:	01811423          	sh	s8,8(sp)
    4ba0:	57dccce3          	blt	s9,t4,5918 <.L1780>
    4ba4:	01700c13          	li	s8,23
    4ba8:	011c4463          	blt	s8,a7,4bb0 <.L1789>
    4bac:	eadfd06f          	j	2a58 <.L1783>

00004bb0 <.L1789>:
    4bb0:	00a15c03          	lhu	s8,10(sp)
    4bb4:	01500c93          	li	s9,21
    4bb8:	ff9c0c13          	addi	s8,s8,-7
    4bbc:	01811523          	sh	s8,10(sp)
    4bc0:	330cd0e3          	bge	s9,a6,56e0 <.L1787>
    4bc4:	03b00c13          	li	s8,59
    4bc8:	06fc5263          	bge	s8,a5,4c2c <.L1795>

00004bcc <.L1796>:
    4bcc:	1df00c13          	li	s8,479
    4bd0:	01ec4463          	blt	s8,t5,4bd8 <.L1796+0xc>
    4bd4:	ec9fd06f          	j	2a9c <.L2647>
    4bd8:	00c15c03          	lhu	s8,12(sp)
    4bdc:	00300c93          	li	s9,3
    4be0:	019c0c33          	add	s8,s8,s9
    4be4:	01811623          	sh	s8,12(sp)
    4be8:	01ccd463          	bge	s9,t3,4bf0 <.L1796+0x24>
    4bec:	3ed0606f          	j	b7d8 <.L1810>
    4bf0:	01300c13          	li	s8,19
    4bf4:	01dc5463          	bge	s8,t4,4bfc <.L1796+0x30>
    4bf8:	0480706f          	j	bc40 <.L2881>
    4bfc:	02e00c13          	li	s8,46
    4c00:	012c5463          	bge	s8,s2,4c08 <.L1796+0x3c>
    4c04:	3500706f          	j	bf54 <.L2882>
    4c08:	00e15c83          	lhu	s9,14(sp)
    4c0c:	00815c03          	lhu	s8,8(sp)
    4c10:	ff9c8c93          	addi	s9,s9,-7

00004c14 <.L2650>:
    4c14:	fffc0c13          	addi	s8,s8,-1
    4c18:	01811423          	sh	s8,8(sp)
    4c1c:	01911723          	sh	s9,14(sp)
    4c20:	03300c13          	li	s8,51
    4c24:	09fc4463          	blt	s8,t6,4cac <.L1846>
    4c28:	cd1ff06f          	j	48f8 <.L1832>

00004c2c <.L1795>:
    4c2c:	00c15c03          	lhu	s8,12(sp)
    4c30:	008c0c13          	addi	s8,s8,8
    4c34:	01811623          	sh	s8,12(sp)
    4c38:	00300c13          	li	s8,3
    4c3c:	01cc4463          	blt	s8,t3,4c44 <.L1801>
    4c40:	e75fd06f          	j	2ab4 <.L2883>

00004c44 <.L1801>:
    4c44:	e4a00c13          	li	s8,-438
    4c48:	0182c463          	blt	t0,s8,4c50 <.L1801+0xc>
    4c4c:	1940406f          	j	8de0 <.L1821>
    4c50:	de700c13          	li	s8,-537
    4c54:	0185c863          	blt	a1,s8,4c64 <.L1822>

00004c58 <.L2648>:
    4c58:	00e15c03          	lhu	s8,14(sp)
    4c5c:	ff8c0c13          	addi	s8,s8,-8
    4c60:	01811723          	sh	s8,14(sp)

00004c64 <.L1822>:
    4c64:	0a900c13          	li	s8,169
    4c68:	01ec4463          	blt	s8,t5,4c70 <.L1827>
    4c6c:	e79fd06f          	j	2ae4 <.L1818>

00004c70 <.L1827>:
    4c70:	01700c13          	li	s8,23
    4c74:	6fdc52e3          	bge	s8,t4,5b58 <.L2649>

00004c78 <.L1836>:
    4c78:	01c51c83          	lh	s9,28(a0)
    4c7c:	02500c13          	li	s8,37
    4c80:	6d9c5ce3          	bge	s8,s9,5b58 <.L2649>
    4c84:	00815c03          	lhu	s8,8(sp)
    4c88:	004c0c13          	addi	s8,s8,4
    4c8c:	010c1c13          	slli	s8,s8,0x10
    4c90:	410c5c13          	srai	s8,s8,0x10

00004c94 <.L1835>:
    4c94:	01811423          	sh	s8,8(sp)
    4c98:	03300c13          	li	s8,51
    4c9c:	c5fc5ee3          	bge	s8,t6,48f8 <.L1832>
    4ca0:	03b00c13          	li	s8,59
    4ca4:	00fc4463          	blt	s8,a5,4cac <.L1846>
    4ca8:	e6dfd06f          	j	2b14 <.L1831>

00004cac <.L1846>:
    4cac:	17900c13          	li	s8,377
    4cb0:	009c5463          	bge	s8,s1,4cb8 <.L1846+0xc>
    4cb4:	e75fd06f          	j	2b28 <.L1845>
    4cb8:	00a15c03          	lhu	s8,10(sp)
    4cbc:	ff9c0c13          	addi	s8,s8,-7
    4cc0:	01811523          	sh	s8,10(sp)
    4cc4:	c61ff06f          	j	4924 <.L2884>

00004cc8 <.L1759>:
    4cc8:	faf00c13          	li	s8,-81
    4ccc:	01844463          	blt	s0,s8,4cd4 <.L1759+0xc>
    4cd0:	7440306f          	j	8414 <.L2885>
    4cd4:	00c15c03          	lhu	s8,12(sp)
    4cd8:	02700c93          	li	s9,39
    4cdc:	001c0c13          	addi	s8,s8,1
    4ce0:	01811623          	sh	s8,12(sp)
    4ce4:	007cc463          	blt	s9,t2,4cec <.L1763>
    4ce8:	7440306f          	j	842c <.L1762>

00004cec <.L1763>:
    4cec:	03000c13          	li	s8,48
    4cf0:	007c5463          	bge	s8,t2,4cf8 <.L1763+0xc>
    4cf4:	68d0106f          	j	6b80 <.L1776>
    4cf8:	0b800c13          	li	s8,184
    4cfc:	009c5463          	bge	s8,s1,4d04 <.L1763+0x18>
    4d00:	14c0606f          	j	ae4c <.L1777>
    4d04:	00e15c03          	lhu	s8,14(sp)
    4d08:	00dc0c13          	addi	s8,s8,13
    4d0c:	01811723          	sh	s8,14(sp)
    4d10:	d19fd06f          	j	2a28 <.L1775>

00004d14 <.L1753>:
    4d14:	00c00c13          	li	s8,12
    4d18:	01cc5463          	bge	s8,t3,4d20 <.L1753+0xc>
    4d1c:	6810106f          	j	6b9c <.L1757>
    4d20:	03300c13          	li	s8,51
    4d24:	01fc5463          	bge	s8,t6,4d2c <.L1753+0x18>
    4d28:	4790306f          	j	89a0 <.L1758>
    4d2c:	00a15c03          	lhu	s8,10(sp)
    4d30:	ffac0c13          	addi	s8,s8,-6
    4d34:	01811523          	sh	s8,10(sp)
    4d38:	f9800c13          	li	s8,-104
    4d3c:	01845463          	bge	s0,s8,4d44 <.L2814>
    4d40:	c99fd06f          	j	29d8 <.L1768>

00004d44 <.L2814>:
    4d44:	faf00c13          	li	s8,-81
    4d48:	01844463          	blt	s0,s8,4d50 <.L2814+0xc>
    4d4c:	ca1fd06f          	j	29ec <.L1772>
    4d50:	03200c13          	li	s8,50
    4d54:	01fc5463          	bge	s8,t6,4d5c <.L2814+0x18>
    4d58:	72c0606f          	j	b484 <.L1773>
    4d5c:	00c15c03          	lhu	s8,12(sp)
    4d60:	011c0c13          	addi	s8,s8,17
    4d64:	01811623          	sh	s8,12(sp)
    4d68:	c91fd06f          	j	29f8 <.L1770>

00004d6c <.L1725>:
    4d6c:	00a15c03          	lhu	s8,10(sp)
    4d70:	02200c93          	li	s9,34
    4d74:	ff5c0c13          	addi	s8,s8,-11
    4d78:	01811523          	sh	s8,10(sp)
    4d7c:	011cd463          	bge	s9,a7,4d84 <.L1725+0x18>
    4d80:	1510606f          	j	b6d0 <.L1726>
    4d84:	01700c13          	li	s8,23
    4d88:	01dc5463          	bge	s8,t4,4d90 <.L1725+0x24>
    4d8c:	7380306f          	j	84c4 <.L1727>
    4d90:	1dc00c13          	li	s8,476
    4d94:	01ec5463          	bge	s8,t5,4d9c <.L1728>
    4d98:	ba9fd06f          	j	2940 <.L1729>

00004d9c <.L1728>:
    4d9c:	01d00c13          	li	s8,29
    4da0:	453c4463          	blt	s8,s3,51e8 <.L1745>
    4da4:	ff500c13          	li	s8,-11
    4da8:	01894463          	blt	s2,s8,4db0 <.L1728+0x14>
    4dac:	6d40506f          	j	a480 <.L1746>
    4db0:	00e15c03          	lhu	s8,14(sp)
    4db4:	01500c93          	li	s9,21
    4db8:	004c0c13          	addi	s8,s8,4
    4dbc:	01811723          	sh	s8,14(sp)
    4dc0:	447cc863          	blt	s9,t2,5210 <.L1742>

00004dc4 <.L1747>:
    4dc4:	00815c03          	lhu	s8,8(sp)
    4dc8:	008c0c13          	addi	s8,s8,8
    4dcc:	01811423          	sh	s8,8(sp)
    4dd0:	bcdfd06f          	j	299c <.L1749>

00004dd4 <.L769>:
    4dd4:	00e15c03          	lhu	s8,14(sp)
    4dd8:	004c0c13          	addi	s8,s8,4
    4ddc:	010c1c13          	slli	s8,s8,0x10
    4de0:	410c5c13          	srai	s8,s8,0x10
    4de4:	01811723          	sh	s8,14(sp)
    4de8:	ffe00c13          	li	s8,-2
    4dec:	01884463          	blt	a6,s8,4df4 <.L783>
    4df0:	d65fc06f          	j	1b54 <.L786>

00004df4 <.L783>:
    4df4:	0a400c13          	li	s8,164
    4df8:	00dc5463          	bge	s8,a3,4e00 <.L783+0xc>
    4dfc:	6110306f          	j	8c0c <.L776>
    4e00:	1aa00c13          	li	s8,426
    4e04:	016c5463          	bge	s8,s6,4e0c <.L783+0x18>
    4e08:	76c0506f          	j	a574 <.L787>
    4e0c:	00815c03          	lhu	s8,8(sp)
    4e10:	03300c93          	li	s9,51
    4e14:	007c0c13          	addi	s8,s8,7
    4e18:	01811423          	sh	s8,8(sp)
    4e1c:	01fcc463          	blt	s9,t6,4e24 <.L789>
    4e20:	d65fc06f          	j	1b84 <.L788>

00004e24 <.L789>:
    4e24:	0c400c13          	li	s8,196
    4e28:	016c5463          	bge	s8,s6,4e30 <.L789+0xc>
    4e2c:	2490606f          	j	b874 <.L802>
    4e30:	00a15c03          	lhu	s8,10(sp)
    4e34:	ff8c0c13          	addi	s8,s8,-8
    4e38:	010c1c13          	slli	s8,s8,0x10
    4e3c:	410c5c13          	srai	s8,s8,0x10

00004e40 <.L800>:
    4e40:	01811523          	sh	s8,10(sp)
    4e44:	ffc00c13          	li	s8,-4
    4e48:	01865463          	bge	a2,s8,4e50 <.L800+0x10>
    4e4c:	d65fc06f          	j	1bb0 <.L797>
    4e50:	01005463          	blez	a6,4e58 <.L803>
    4e54:	8ecfc06f          	j	f40 <.L812>

00004e58 <.L803>:
    4e58:	03500c13          	li	s8,53
    4e5c:	2efc4263          	blt	s8,a5,5140 <.L813>
    4e60:	00c15c03          	lhu	s8,12(sp)
    4e64:	03800c93          	li	s9,56
    4e68:	ff9c0c13          	addi	s8,s8,-7
    4e6c:	01811623          	sh	s8,12(sp)
    4e70:	00ecd463          	bge	s9,a4,4e78 <.L814>
    4e74:	5210306f          	j	8b94 <.L815>

00004e78 <.L814>:
    4e78:	00e15c03          	lhu	s8,14(sp)
    4e7c:	ff7c0c13          	addi	s8,s8,-9
    4e80:	010c1c13          	slli	s8,s8,0x10
    4e84:	410c5c13          	srai	s8,s8,0x10
    4e88:	8e0fc06f          	j	f68 <.L820>

00004e8c <.L772>:
    4e8c:	00c15c03          	lhu	s8,12(sp)
    4e90:	03e00c93          	li	s9,62
    4e94:	004c0c13          	addi	s8,s8,4
    4e98:	01811623          	sh	s8,12(sp)
    4e9c:	00fcc463          	blt	s9,a5,4ea4 <.L752>
    4ea0:	c89fc06f          	j	1b28 <.L751>

00004ea4 <.L752>:
    4ea4:	fec00c13          	li	s8,-20
    4ea8:	01865463          	bge	a2,s8,4eb0 <.L755>
    4eac:	828fc06f          	j	ed4 <.L780>

00004eb0 <.L755>:
    4eb0:	00e15c03          	lhu	s8,14(sp)
    4eb4:	ffe00c93          	li	s9,-2
    4eb8:	009c0c13          	addi	s8,s8,9
    4ebc:	01811723          	sh	s8,14(sp)
    4ec0:	f3984ae3          	blt	a6,s9,4df4 <.L783>

00004ec4 <.L2387>:
    4ec4:	0ba00c13          	li	s8,186
    4ec8:	012c4463          	blt	s8,s2,4ed0 <.L777>
    4ecc:	82cfc06f          	j	ef8 <.L784>

00004ed0 <.L777>:
    4ed0:	00815c03          	lhu	s8,8(sp)
    4ed4:	01c04463          	bgtz	t3,4edc <.L777+0xc>
    4ed8:	3d40606f          	j	b2ac <.L2886>
    4edc:	ff8c0c13          	addi	s8,s8,-8
    4ee0:	010c1c13          	slli	s8,s8,0x10
    4ee4:	410c5c13          	srai	s8,s8,0x10
    4ee8:	820fc06f          	j	f08 <.L778>

00004eec <.L1211>:
    4eec:	00e15c03          	lhu	s8,14(sp)
    4ef0:	00400c93          	li	s9,4
    4ef4:	ff6c0c13          	addi	s8,s8,-10
    4ef8:	01811723          	sh	s8,14(sp)
    4efc:	011cd463          	bge	s9,a7,4f04 <.L1209>
    4f00:	39d0206f          	j	7a9c <.L2606>

00004f04 <.L1209>:
    4f04:	03a00c13          	li	s8,58
    4f08:	01fc5463          	bge	s8,t6,4f10 <.L1209+0xc>
    4f0c:	2350306f          	j	8940 <.L1214>
    4f10:	00815c03          	lhu	s8,8(sp)
    4f14:	00cc0c13          	addi	s8,s8,12
    4f18:	01811423          	sh	s8,8(sp)
    4f1c:	b1cfd06f          	j	2238 <.L1210>

00004f20 <.L2108>:
    4f20:	0a400b13          	li	s6,164
    4f24:	01eb5863          	bge	s6,t5,4f34 <.L2102>
    4f28:	00815b03          	lhu	s6,8(sp)
    4f2c:	ff9b0b13          	addi	s6,s6,-7
    4f30:	01611423          	sh	s6,8(sp)

00004f34 <.L2102>:
    4f34:	02e00b13          	li	s6,46
    4f38:	c5db5663          	bge	s6,t4,4384 <.L2099>
    4f3c:	03900b13          	li	s6,57
    4f40:	01fb5463          	bge	s6,t6,4f48 <.L2100>
    4f44:	85cfe06f          	j	2fa0 <.L2112>

00004f48 <.L2100>:
    4f48:	00e00b13          	li	s6,14
    4f4c:	010b5463          	bge	s6,a6,4f54 <.L2100+0xc>
    4f50:	6600406f          	j	95b0 <.L2887>
    4f54:	00a15b03          	lhu	s6,10(sp)
    4f58:	004b0b13          	addi	s6,s6,4
    4f5c:	01611523          	sh	s6,10(sp)
    4f60:	858fe06f          	j	2fb8 <.L2115>

00004f64 <.L2890>:
    4f64:	07400c13          	li	s8,116
    4f68:	007c5463          	bge	s8,t2,4f70 <.L2890+0xc>
    4f6c:	6380606f          	j	b5a4 <.L1701>
    4f70:	00e15c03          	lhu	s8,14(sp)
    4f74:	e4300c93          	li	s9,-445
    4f78:	ffdc0c13          	addi	s8,s8,-3
    4f7c:	01811723          	sh	s8,14(sp)
    4f80:	01945463          	bge	s0,s9,4f88 <.L1703>
    4f84:	4140406f          	j	9398 <.L1702>

00004f88 <.L1703>:
    4f88:	03b00c13          	li	s8,59
    4f8c:	00fc5463          	bge	s8,a5,4f94 <.L1703+0xc>
    4f90:	7f90206f          	j	7f88 <.L1714>
    4f94:	d6700c13          	li	s8,-665
    4f98:	018ac463          	blt	s5,s8,4fa0 <.L1703+0x18>
    4f9c:	3fc0506f          	j	a398 <.L1715>
    4fa0:	00815c03          	lhu	s8,8(sp)
    4fa4:	00fc0c13          	addi	s8,s8,15
    4fa8:	010c1c13          	slli	s8,s8,0x10
    4fac:	010c5c13          	srli	s8,s8,0x10

00004fb0 <.L1716>:
    4fb0:	01811423          	sh	s8,8(sp)

00004fb4 <.L1712>:
    4fb4:	03500c13          	li	s8,53
    4fb8:	00ec4463          	blt	s8,a4,4fc0 <.L1712+0xc>
    4fbc:	2400306f          	j	81fc <.L1709>
    4fc0:	1a200c13          	li	s8,418
    4fc4:	007c4463          	blt	s8,t2,4fcc <.L1712+0x18>
    4fc8:	945fd06f          	j	290c <.L1710>
    4fcc:	00a15c03          	lhu	s8,10(sp)
    4fd0:	ffcc0c13          	addi	s8,s8,-4
    4fd4:	010c1c13          	slli	s8,s8,0x10
    4fd8:	410c5c13          	srai	s8,s8,0x10
    4fdc:	01811523          	sh	s8,10(sp)
    4fe0:	02200c13          	li	s8,34
    4fe4:	011c4463          	blt	s8,a7,4fec <.L1730>
    4fe8:	945fd06f          	j	292c <.L2888>

00004fec <.L1730>:
    4fec:	e6b00c13          	li	s8,-405
    4ff0:	0182c463          	blt	t0,s8,4ff8 <.L1730+0xc>
    4ff4:	5d10306f          	j	8dc4 <.L1737>
    4ff8:	03300c13          	li	s8,51
    4ffc:	01dc5463          	bge	s8,t4,5004 <.L1735>
    5000:	94dfd06f          	j	294c <.L1731>

00005004 <.L1735>:
    5004:	00c15c03          	lhu	s8,12(sp)
    5008:	009c0c13          	addi	s8,s8,9
    500c:	01811623          	sh	s8,12(sp)
    5010:	93dfd06f          	j	294c <.L1731>

00005014 <.L2073>:
    5014:	ff900b13          	li	s6,-7
    5018:	01664463          	blt	a2,s6,5020 <.L2073+0xc>
    501c:	5cc0306f          	j	85e8 <.L2078>
    5020:	09000b13          	li	s6,144
    5024:	012b5463          	bge	s6,s2,502c <.L2073+0x18>
    5028:	0380206f          	j	7060 <.L2079>
    502c:	02700b13          	li	s6,39
    5030:	006b4463          	blt	s6,t1,5038 <.L2659>
    5034:	0440206f          	j	7078 <.L2080>

00005038 <.L2659>:
    5038:	ecb00b13          	li	s6,-309
    503c:	016ac463          	blt	s5,s6,5044 <.L2088>
    5040:	5880306f          	j	85c8 <.L2081>

00005044 <.L2088>:
    5044:	00c15b03          	lhu	s6,12(sp)
    5048:	001b0b13          	addi	s6,s6,1
    504c:	010b1b13          	slli	s6,s6,0x10
    5050:	410b5b13          	srai	s6,s6,0x10
    5054:	ef5fd06f          	j	2f48 <.L2082>

00005058 <.L1901>:
    5058:	03c00c13          	li	s8,60
    505c:	01fc5863          	bge	s8,t6,506c <.L1907>
    5060:	00815c03          	lhu	s8,8(sp)
    5064:	006c0c13          	addi	s8,s8,6
    5068:	01811423          	sh	s8,8(sp)

0000506c <.L1907>:
    506c:	02b00c13          	li	s8,43
    5070:	010c4463          	blt	s8,a6,5078 <.L1903>
    5074:	bc5fd06f          	j	2c38 <.L1909>

00005078 <.L1903>:
    5078:	01400c13          	li	s8,20
    507c:	01dc5463          	bge	s8,t4,5084 <.L1903+0xc>
    5080:	4140306f          	j	8494 <.L1915>
    5084:	00a15c03          	lhu	s8,10(sp)
    5088:	00100c93          	li	s9,1
    508c:	ff9c0c13          	addi	s8,s8,-7
    5090:	01811523          	sh	s8,10(sp)
    5094:	9bccd4e3          	bge	s9,t3,4a3c <.L1916>

00005098 <.L1923>:
    5098:	0ff00c13          	li	s8,255
    509c:	009c5463          	bge	s8,s1,50a4 <.L1923+0xc>
    50a0:	3cc0406f          	j	946c <.L2889>
    50a4:	00c15c03          	lhu	s8,12(sp)
    50a8:	ff600c93          	li	s9,-10
    50ac:	ffec0c13          	addi	s8,s8,-2
    50b0:	01811623          	sh	s8,12(sp)
    50b4:	9b965ae3          	bge	a2,s9,4a68 <.L1930>

000050b8 <.L1931>:
    50b8:	03c00c13          	li	s8,60
    50bc:	01fc5463          	bge	s8,t6,50c4 <.L1931+0xc>
    50c0:	c01fd06f          	j	2cc0 <.L1934>
    50c4:	00e15c03          	lhu	s8,14(sp)
    50c8:	ff8c0c13          	addi	s8,s8,-8
    50cc:	01811723          	sh	s8,14(sp)
    50d0:	bf1fd06f          	j	2cc0 <.L1934>

000050d4 <.L2813>:
    50d4:	ff600c13          	li	s8,-10
    50d8:	01865463          	bge	a2,s8,50e0 <.L1683>
    50dc:	fc8fd06f          	j	28a4 <.L1682>

000050e0 <.L1683>:
    50e0:	ff600c13          	li	s8,-10
    50e4:	e98600e3          	beq	a2,s8,4f64 <.L2890>
    50e8:	f2700c13          	li	s8,-217
    50ec:	0182c463          	blt	t0,s8,50f4 <.L1683+0x14>
    50f0:	2e00406f          	j	93d0 <.L1704>
    50f4:	00e15c03          	lhu	s8,14(sp)
    50f8:	ffdc0c13          	addi	s8,s8,-3
    50fc:	010c1c13          	slli	s8,s8,0x10
    5100:	010c5c13          	srli	s8,s8,0x10
    5104:	fbcfd06f          	j	28c0 <.L1697>

00005108 <.L1890>:
    5108:	00c15c03          	lhu	s8,12(sp)
    510c:	05800c93          	li	s9,88
    5110:	001c0c13          	addi	s8,s8,1
    5114:	01811623          	sh	s8,12(sp)
    5118:	009cc463          	blt	s9,s1,5120 <.L1884>
    511c:	2640306f          	j	8380 <.L1891>

00005120 <.L1884>:
    5120:	03600c13          	li	s8,54
    5124:	00fc5463          	bge	s8,a5,512c <.L1884+0xc>
    5128:	34d0206f          	j	7c74 <.L1898>
    512c:	00e15c03          	lhu	s8,14(sp)
    5130:	ff8c0c13          	addi	s8,s8,-8
    5134:	010c1c13          	slli	s8,s8,0x10
    5138:	410c5c13          	srai	s8,s8,0x10
    513c:	acdfd06f          	j	2c08 <.L1897>

00005140 <.L813>:
    5140:	00c15c03          	lhu	s8,12(sp)
    5144:	03e00c93          	li	s9,62
    5148:	00dc0c13          	addi	s8,s8,13
    514c:	01811623          	sh	s8,12(sp)
    5150:	00fcd463          	bge	s9,a5,5158 <.L816>
    5154:	e05fb06f          	j	f58 <.L817>

00005158 <.L816>:
    5158:	03800c13          	li	s8,56
    515c:	00ec5463          	bge	s8,a4,5164 <.L816+0xc>
    5160:	2350306f          	j	8b94 <.L815>
    5164:	03600c13          	li	s8,54
    5168:	d0fc58e3          	bge	s8,a5,4e78 <.L814>

0000516c <.L821>:
    516c:	00e15c03          	lhu	s8,14(sp)
    5170:	003c0c13          	addi	s8,s8,3
    5174:	010c1c13          	slli	s8,s8,0x10
    5178:	410c5c13          	srai	s8,s8,0x10
    517c:	dedfb06f          	j	f68 <.L820>

00005180 <.L749>:
    5180:	f5000c13          	li	s8,-176
    5184:	0185c463          	blt	a1,s8,518c <.L749+0xc>
    5188:	5b90306f          	j	8f40 <.L2891>
    518c:	00f00c13          	li	s8,15
    5190:	010c5463          	bge	s8,a6,5198 <.L749+0x18>
    5194:	0e40606f          	j	b278 <.L761>
    5198:	00c15c03          	lhu	s8,12(sp)
    519c:	ff8c0c13          	addi	s8,s8,-8
    51a0:	010c1c13          	slli	s8,s8,0x10
    51a4:	010c5c13          	srli	s8,s8,0x10

000051a8 <.L762>:
    51a8:	01811623          	sh	s8,12(sp)
    51ac:	03e00c13          	li	s8,62
    51b0:	cefc4ae3          	blt	s8,a5,4ea4 <.L752>

000051b4 <.L741>:
    51b4:	03800c13          	li	s8,56
    51b8:	00ec5463          	bge	s8,a4,51c0 <.L770>
    51bc:	96dfc06f          	j	1b28 <.L751>

000051c0 <.L770>:
    51c0:	03600c13          	li	s8,54
    51c4:	c0fc48e3          	blt	s8,a5,4dd4 <.L769>
    51c8:	00e15c03          	lhu	s8,14(sp)
    51cc:	ffe00c93          	li	s9,-2
    51d0:	ff7c0c13          	addi	s8,s8,-9
    51d4:	01811723          	sh	s8,14(sp)
    51d8:	c1984ee3          	blt	a6,s9,4df4 <.L783>
    51dc:	0ba00c13          	li	s8,186
