
header_editado.o:     formato de ficheiro elf32-littleriscv


Desmontagem da secção .text:

00000000 <get_num_target>:
       0:	00100513          	li	a0,1
       4:	00008067          	ret

00000008 <get_num_class>:
       8:	00400793          	li	a5,4
       c:	00f52023          	sw	a5,0(a0)
      10:	00008067          	ret

00000014 <get_num_feature>:
      14:	01600513          	li	a0,22
      18:	00008067          	ret

0000001c <get_threshold_type>:
      1c:	00000517          	auipc	a0,0x0
      20:	00050513          	mv	a0,a0
      24:	00008067          	ret

00000028 <get_leaf_output_type>:
      28:	00000517          	auipc	a0,0x0
      2c:	00050513          	mv	a0,a0
      30:	00008067          	ret

00000034 <predict>:
      34:	00451303          	lh	t1,4(a0) # 2c <get_leaf_output_type+0x4>
      38:	fc010113          	addi	sp,sp,-64
      3c:	03712023          	sw	s7,32(sp)
      40:	02812e23          	sw	s0,60(sp)
      44:	02912c23          	sw	s1,56(sp)
      48:	03212a23          	sw	s2,52(sp)
      4c:	03312823          	sw	s3,48(sp)
      50:	03412623          	sw	s4,44(sp)
      54:	03512423          	sw	s5,40(sp)
      58:	03612223          	sw	s6,36(sp)
      5c:	01812e23          	sw	s8,28(sp)
      60:	01912c23          	sw	s9,24(sp)
      64:	01a12a23          	sw	s10,20(sp)
      68:	04600793          	li	a5,70
      6c:	00c10b93          	addi	s7,sp,12
      70:	2067c463          	blt	a5,t1,278 <.L8>
      74:	02451983          	lh	s3,36(a0)
      78:	01900793          	li	a5,25
      7c:	4d37c063          	blt	a5,s3,53c <.L9>
      80:	01651a03          	lh	s4,22(a0)
      84:	efc00793          	li	a5,-260
      88:	4cfa4a63          	blt	s4,a5,55c <.L2291>
      8c:	02251f03          	lh	t5,34(a0)
      90:	00e51f83          	lh	t6,14(a0)
      94:	01a51403          	lh	s0,26(a0)
      98:	02400793          	li	a5,36

0000009c <.L10>:
      9c:	00251703          	lh	a4,2(a0)
      a0:	00f11423          	sh	a5,8(sp)
      a4:	2df00793          	li	a5,735
      a8:	20e7c463          	blt	a5,a4,2b0 <.L12>

000000ac <.L2751>:
      ac:	01851603          	lh	a2,24(a0)
      b0:	ffd00793          	li	a5,-3
      b4:	00f64463          	blt	a2,a5,bc <.L2751+0x10>
      b8:	5280606f          	j	65e0 <.L13>
      bc:	01251483          	lh	s1,18(a0)
      c0:	19100693          	li	a3,401
      c4:	ff600793          	li	a5,-10
      c8:	0096d463          	bge	a3,s1,d0 <.L14>
      cc:	00200793          	li	a5,2

000000d0 <.L14>:
      d0:	00651a83          	lh	s5,6(a0)
      d4:	00f11523          	sh	a5,10(sp)
      d8:	d5c00793          	li	a5,-676
      dc:	00fac463          	blt	s5,a5,e4 <.L14+0x14>
      e0:	5100b06f          	j	b5f0 <.L2747>
      e4:	ff400793          	li	a5,-12
      e8:	00f64463          	blt	a2,a5,f0 <.L14+0x20>
      ec:	51c0606f          	j	6608 <.L16>
      f0:	00a51683          	lh	a3,10(a0)
      f4:	01051b03          	lh	s6,16(a0)
      f8:	02851e83          	lh	t4,40(a0)

000000fc <.L21>:
      fc:	06300793          	li	a5,99
     100:	01d7d463          	bge	a5,t4,108 <.L21+0xc>
     104:	4b10a06f          	j	adb4 <.L25>
     108:	00051783          	lh	a5,0(a0)
     10c:	02500593          	li	a1,37
     110:	00b11623          	sh	a1,12(sp)
     114:	03e00593          	li	a1,62
     118:	01451283          	lh	t0,20(a0)
     11c:	1ef5dc63          	bge	a1,a5,314 <.L26>

00000120 <.L27>:
     120:	ff600593          	li	a1,-10
     124:	00b11723          	sh	a1,14(sp)
     128:	05700593          	li	a1,87
     12c:	0065c463          	blt	a1,t1,134 <.L27+0x14>
     130:	30d0906f          	j	9c3c <.L2341>
     134:	01e51583          	lh	a1,30(a0)
     138:	00c51903          	lh	s2,12(a0)

0000013c <.L33>:
     13c:	0ac00813          	li	a6,172
     140:	01685463          	bge	a6,s6,148 <.L33+0xc>
     144:	4fc0606f          	j	6640 <.L45>
     148:	03a00813          	li	a6,58
     14c:	00815883          	lhu	a7,8(sp)
     150:	01f85463          	bge	a6,t6,158 <.L33+0x1c>
     154:	4250a06f          	j	ad78 <.L46>
     158:	01588893          	addi	a7,a7,21
     15c:	00851803          	lh	a6,8(a0)
     160:	01089893          	slli	a7,a7,0x10
     164:	4108d893          	srai	a7,a7,0x10

00000168 <.L47>:
     168:	01111423          	sh	a7,8(sp)
     16c:	1b500893          	li	a7,437
     170:	00e8d463          	bge	a7,a4,178 <.L47+0x10>
     174:	7400306f          	j	38b4 <.L44>
     178:	02a51883          	lh	a7,42(a0)
     17c:	00800e13          	li	t3,8
     180:	011e4463          	blt	t3,a7,188 <.L47+0x20>
     184:	0480806f          	j	81cc <.L42>
     188:	0f200e13          	li	t3,242
     18c:	1e6e5e63          	bge	t3,t1,388 <.L41>
     190:	00a15e03          	lhu	t3,10(sp)
     194:	fffe0e13          	addi	t3,t3,-1
     198:	010e1e13          	slli	t3,t3,0x10
     19c:	410e5e13          	srai	t3,t3,0x10

000001a0 <.L51>:
     1a0:	01c11523          	sh	t3,10(sp)
     1a4:	df700e13          	li	t3,-521
     1a8:	1fca5e63          	bge	s4,t3,3a4 <.L57>

000001ac <.L52>:
     1ac:	ff400e13          	li	t3,-12
     1b0:	01c65463          	bge	a2,t3,1b8 <.L52+0xc>
     1b4:	0ec0806f          	j	82a0 <.L58>
     1b8:	03b00e13          	li	t3,59
     1bc:	00ee5463          	bge	t3,a4,1c4 <.L52+0x18>
     1c0:	7340306f          	j	38f4 <.L59>
     1c4:	00c15e03          	lhu	t3,12(sp)
     1c8:	012e0e13          	addi	t3,t3,18
     1cc:	010e1e13          	slli	t3,t3,0x10
     1d0:	410e5e13          	srai	t3,t3,0x10

000001d4 <.L65>:
     1d4:	01c11623          	sh	t3,12(sp)
     1d8:	03d00e13          	li	t3,61
     1dc:	1efe5663          	bge	t3,a5,3c8 <.L66>
     1e0:	dce00e13          	li	t3,-562
     1e4:	01cac463          	blt	s5,t3,1ec <.L65+0x18>
     1e8:	3d00606f          	j	65b8 <.L67>
     1ec:	00e15e03          	lhu	t3,14(sp)
     1f0:	0d900393          	li	t2,217
     1f4:	ff5e0e13          	addi	t3,t3,-11
     1f8:	01c11723          	sh	t3,14(sp)
     1fc:	21e3d263          	bge	t2,t5,400 <.L76>

00000200 <.L2344>:
     200:	05700e13          	li	t3,87
     204:	006e4463          	blt	t3,t1,20c <.L82>
     208:	5410806f          	j	8f48 <.L83>

0000020c <.L82>:
     20c:	00815e03          	lhu	t3,8(sp)
     210:	02651383          	lh	t2,38(a0)
     214:	ff7e0e13          	addi	t3,t3,-9

00000218 <.L2549>:
     218:	01c11423          	sh	t3,8(sp)

0000021c <.L85>:
     21c:	1de00e13          	li	t3,478
     220:	20ee5263          	bge	t3,a4,424 <.L90>

00000224 <.L93>:
     224:	4ae00e13          	li	t3,1198
     228:	00de5463          	bge	t3,a3,230 <.L93+0xc>
     22c:	56c0806f          	j	8798 <.L92>
     230:	03e00e13          	li	t3,62
     234:	00fe4463          	blt	t3,a5,23c <.L93+0x18>
     238:	6590806f          	j	9090 <.L91>
     23c:	00a15e03          	lhu	t3,10(sp)
     240:	31a00c13          	li	s8,794
     244:	ff5e0e13          	addi	t3,t3,-11
     248:	01c11523          	sh	t3,10(sp)
     24c:	00dc5463          	bge	s8,a3,254 <.L93+0x30>
     250:	6080b06f          	j	b858 <.L2748>
     254:	ea700e13          	li	t3,-345
     258:	01ca4463          	blt	s4,t3,260 <.L93+0x3c>
     25c:	0410b06f          	j	ba9c <.L2749>
     260:	00c15e03          	lhu	t3,12(sp)
     264:	ff6e0e13          	addi	t3,t3,-10
     268:	010e1e13          	slli	t3,t3,0x10
     26c:	410e5e13          	srai	t3,t3,0x10
     270:	01c11623          	sh	t3,12(sp)
     274:	20c0006f          	j	480 <.L121>

00000278 <.L8>:
     278:	02251f03          	lh	t5,34(a0)
     27c:	0d900793          	li	a5,217
     280:	29e7ce63          	blt	a5,t5,51c <.L11>
     284:	00e51f83          	lh	t6,14(a0)
     288:	03c00793          	li	a5,60
     28c:	2ff7ce63          	blt	a5,t6,588 <.L2750>
     290:	00251703          	lh	a4,2(a0)
     294:	01c00793          	li	a5,28
     298:	00f11423          	sh	a5,8(sp)
     29c:	2df00793          	li	a5,735
     2a0:	02451983          	lh	s3,36(a0)
     2a4:	01651a03          	lh	s4,22(a0)
     2a8:	01a51403          	lh	s0,26(a0)
     2ac:	e0e7d0e3          	bge	a5,a4,ac <.L2751>

000002b0 <.L12>:
     2b0:	00a51683          	lh	a3,10(a0)
     2b4:	7e700793          	li	a5,2023
     2b8:	00d7d463          	bge	a5,a3,2c0 <.L12+0x10>
     2bc:	5500806f          	j	880c <.L18>
     2c0:	01051b03          	lh	s6,16(a0)
     2c4:	10100793          	li	a5,257
     2c8:	00651a83          	lh	s5,6(a0)
     2cc:	0167d463          	bge	a5,s6,2d4 <.L12+0x24>
     2d0:	20c0a06f          	j	a4dc <.L19>
     2d4:	ffe00793          	li	a5,-2
     2d8:	00f11523          	sh	a5,10(sp)
     2dc:	d5c00793          	li	a5,-676
     2e0:	01851603          	lh	a2,24(a0)
     2e4:	00fac463          	blt	s5,a5,2ec <.L2337>
     2e8:	20c0a06f          	j	a4f4 <.L2543>

000002ec <.L2337>:
     2ec:	ff400793          	li	a5,-12
     2f0:	01251483          	lh	s1,18(a0)
     2f4:	02851e83          	lh	t4,40(a0)
     2f8:	e0f642e3          	blt	a2,a5,fc <.L21>

000002fc <.L22>:
     2fc:	00051783          	lh	a5,0(a0)
     300:	ff500593          	li	a1,-11
     304:	00b11623          	sh	a1,12(sp)
     308:	03e00593          	li	a1,62
     30c:	01451283          	lh	t0,20(a0)
     310:	e0f5c8e3          	blt	a1,a5,120 <.L27>

00000314 <.L26>:
     314:	01e51583          	lh	a1,30(a0)
     318:	d8200813          	li	a6,-638
     31c:	0105c463          	blt	a1,a6,324 <.L26+0x10>
     320:	1480806f          	j	8468 <.L31>
     324:	27300813          	li	a6,627
     328:	01e84463          	blt	a6,t5,330 <.L26+0x1c>
     32c:	4d10906f          	j	9ffc <.L2299>
     330:	00c51903          	lh	s2,12(a0)
     334:	ff900813          	li	a6,-7

00000338 <.L32>:
     338:	01011723          	sh	a6,14(sp)
     33c:	05700813          	li	a6,87
     340:	de684ee3          	blt	a6,t1,13c <.L33>
     344:	00851803          	lh	a6,8(a0)
     348:	02200893          	li	a7,34
     34c:	0108c463          	blt	a7,a6,354 <.L32+0x1c>
     350:	54c0306f          	j	389c <.L34>
     354:	fba00893          	li	a7,-70
     358:	011ad463          	bge	s5,a7,360 <.L32+0x28>
     35c:	0f90906f          	j	9c54 <.L35>
     360:	00815883          	lhu	a7,8(sp)
     364:	1b500e13          	li	t3,437
     368:	00188893          	addi	a7,a7,1
     36c:	01111423          	sh	a7,8(sp)
     370:	00ee5463          	bge	t3,a4,378 <.L2544>
     374:	5400306f          	j	38b4 <.L44>

00000378 <.L2544>:
     378:	02a51883          	lh	a7,42(a0)
     37c:	00800e13          	li	t3,8
     380:	011e4463          	blt	t3,a7,388 <.L41>
     384:	6490706f          	j	81cc <.L42>

00000388 <.L41>:
     388:	00a15e03          	lhu	t3,10(sp)
     38c:	ff6e0e13          	addi	t3,t3,-10
     390:	010e1e13          	slli	t3,t3,0x10
     394:	410e5e13          	srai	t3,t3,0x10
     398:	01c11523          	sh	t3,10(sp)
     39c:	df700e13          	li	t3,-521
     3a0:	e1ca46e3          	blt	s4,t3,1ac <.L52>

000003a4 <.L57>:
     3a4:	eef00e13          	li	t3,-273
     3a8:	01c2c463          	blt	t0,t3,3b0 <.L2910>
     3ac:	46c0606f          	j	6818 <.L68>

000003b0 <.L2910>:
     3b0:	03300e13          	li	t3,51
     3b4:	00fe5463          	bge	t3,a5,3bc <.L2910+0xc>
     3b8:	4390a06f          	j	aff0 <.L69>
     3bc:	00c15e03          	lhu	t3,12(sp)
     3c0:	010e0e13          	addi	t3,t3,16
     3c4:	01c11623          	sh	t3,12(sp)

000003c8 <.L66>:
     3c8:	d8200e13          	li	t3,-638
     3cc:	01c5c463          	blt	a1,t3,3d4 <.L66+0xc>
     3d0:	3b00606f          	j	6780 <.L71>
     3d4:	27300e13          	li	t3,627
     3d8:	01ee5463          	bge	t3,t5,3e0 <.L66+0x18>
     3dc:	1410a06f          	j	ad1c <.L72>
     3e0:	00e15e03          	lhu	t3,14(sp)
     3e4:	017e0e13          	addi	t3,t3,23
     3e8:	010e1e13          	slli	t3,t3,0x10
     3ec:	410e5e13          	srai	t3,t3,0x10

000003f0 <.L73>:
     3f0:	01c11723          	sh	t3,14(sp)
     3f4:	0d900e13          	li	t3,217
     3f8:	01ee5463          	bge	t3,t5,400 <.L76>
     3fc:	3b00606f          	j	67ac <.L74>

00000400 <.L76>:
     400:	01a00e13          	li	t3,26
     404:	010e5463          	bge	t3,a6,40c <.L76+0xc>
     408:	32c0706f          	j	7734 <.L80>
     40c:	0da00e13          	li	t3,218
     410:	012e4463          	blt	t3,s2,418 <.L76+0x18>
     414:	1740a06f          	j	a588 <.L84>
     418:	1de00e13          	li	t3,478
     41c:	02651383          	lh	t2,38(a0)
     420:	e0ee42e3          	blt	t3,a4,224 <.L93>

00000424 <.L90>:
     424:	ffd00e13          	li	t3,-3
     428:	01c64463          	blt	a2,t3,430 <.L90+0xc>
     42c:	3140806f          	j	8740 <.L94>
     430:	1b300e13          	li	t3,435
     434:	009e5463          	bge	t3,s1,43c <.L90+0x18>
     438:	4350906f          	j	a06c <.L95>
     43c:	00a15e03          	lhu	t3,10(sp)
     440:	31a00c13          	li	s8,794
     444:	ff7e0e13          	addi	t3,t3,-9
     448:	01c11523          	sh	t3,10(sp)
     44c:	00dc4463          	blt	s8,a3,454 <.L2349>
     450:	3140806f          	j	8764 <.L96>

00000454 <.L2349>:
     454:	e4e00e13          	li	t3,-434
     458:	01cac463          	blt	s5,t3,460 <.L119>
     45c:	3e10906f          	j	a03c <.L101>

00000460 <.L119>:
     460:	00c15e03          	lhu	t3,12(sp)
     464:	015e0e13          	addi	t3,t3,21
     468:	010e1e13          	slli	t3,t3,0x10
     46c:	410e5e13          	srai	t3,t3,0x10

00000470 <.L120>:
     470:	01c11623          	sh	t3,12(sp)
     474:	03d00e13          	li	t3,61
     478:	00fe4463          	blt	t3,a5,480 <.L121>
     47c:	0150506f          	j	5c90 <.L125>

00000480 <.L121>:
     480:	1f800e13          	li	t3,504
     484:	13ee4663          	blt	t3,t5,5b0 <.L131>
     488:	03a00e13          	li	t3,58
     48c:	01fe5463          	bge	t3,t6,494 <.L121+0x14>
     490:	1e80a06f          	j	a678 <.L132>
     494:	00e15e03          	lhu	t3,14(sp)
     498:	ff8e0e13          	addi	t3,t3,-8
     49c:	010e1e13          	slli	t3,t3,0x10
     4a0:	410e5e13          	srai	t3,t3,0x10

000004a4 <.L129>:
     4a4:	01c11723          	sh	t3,14(sp)
     4a8:	0d900e13          	li	t3,217
     4ac:	13ee4263          	blt	t3,t5,5d0 <.L135>
     4b0:	01a00e13          	li	t3,26
     4b4:	010e5463          	bge	t3,a6,4bc <.L129+0x18>
     4b8:	4500306f          	j	3908 <.L136>
     4bc:	11800e13          	li	t3,280
     4c0:	012e5463          	bge	t3,s2,4c8 <.L129+0x24>
     4c4:	17c0a06f          	j	a640 <.L137>
     4c8:	00815e03          	lhu	t3,8(sp)
     4cc:	0a600c13          	li	s8,166
     4d0:	00ee0e13          	addi	t3,t3,14
     4d4:	01c11423          	sh	t3,8(sp)
     4d8:	00ec4463          	blt	s8,a4,4e0 <.L2552>
     4dc:	4540306f          	j	3930 <.L143>

000004e0 <.L2552>:
     4e0:	03d00e13          	li	t3,61
     4e4:	00fe4463          	blt	t3,a5,4ec <.L164>
     4e8:	3a50506f          	j	608c <.L144>

000004ec <.L164>:
     4ec:	00a15e03          	lhu	t3,10(sp)
     4f0:	10b00c13          	li	s8,267
     4f4:	ff5e0e13          	addi	t3,t3,-11
     4f8:	01c11523          	sh	t3,10(sp)
     4fc:	00dc5463          	bge	s8,a3,504 <.L164+0x18>
     500:	1940906f          	j	9694 <.L2354>
     504:	d6700e13          	li	t3,-665
     508:	13ca5663          	bge	s4,t3,634 <.L173>
     50c:	00c15e03          	lhu	t3,12(sp)
     510:	00be0e13          	addi	t3,t3,11
     514:	01c11623          	sh	t3,12(sp)
     518:	1280006f          	j	640 <.L174>

0000051c <.L11>:
     51c:	01a51403          	lh	s0,26(a0)
     520:	f2900793          	li	a5,-215
     524:	06f45c63          	bge	s0,a5,59c <.L2752>
     528:	02451983          	lh	s3,36(a0)
     52c:	01651a03          	lh	s4,22(a0)
     530:	00e51f83          	lh	t6,14(a0)
     534:	ff500793          	li	a5,-11
     538:	b65ff06f          	j	9c <.L10>

0000053c <.L9>:
     53c:	01f00793          	li	a5,31
     540:	0337c863          	blt	a5,s3,570 <.L2753>
     544:	01651a03          	lh	s4,22(a0)
     548:	02251f03          	lh	t5,34(a0)
     54c:	00e51f83          	lh	t6,14(a0)
     550:	01a51403          	lh	s0,26(a0)
     554:	00900793          	li	a5,9
     558:	b45ff06f          	j	9c <.L10>

0000055c <.L2291>:
     55c:	02251f03          	lh	t5,34(a0)
     560:	00e51f83          	lh	t6,14(a0)
     564:	01a51403          	lh	s0,26(a0)
     568:	01300793          	li	a5,19
     56c:	b31ff06f          	j	9c <.L10>

00000570 <.L2753>:
     570:	01651a03          	lh	s4,22(a0)
     574:	02251f03          	lh	t5,34(a0)
     578:	00e51f83          	lh	t6,14(a0)
     57c:	01a51403          	lh	s0,26(a0)
     580:	ff500793          	li	a5,-11
     584:	b19ff06f          	j	9c <.L10>

00000588 <.L2750>:
     588:	02451983          	lh	s3,36(a0)
     58c:	01651a03          	lh	s4,22(a0)
     590:	01a51403          	lh	s0,26(a0)
     594:	ff500793          	li	a5,-11
     598:	b05ff06f          	j	9c <.L10>

0000059c <.L2752>:
     59c:	02451983          	lh	s3,36(a0)
     5a0:	01651a03          	lh	s4,22(a0)
     5a4:	00e51f83          	lh	t6,14(a0)
     5a8:	ffc00793          	li	a5,-4
     5ac:	af1ff06f          	j	9c <.L10>

000005b0 <.L131>:
     5b0:	b6f00e13          	li	t3,-1169
     5b4:	01c44463          	blt	s0,t3,5bc <.L131+0xc>
     5b8:	10c0a06f          	j	a6c4 <.L133>
     5bc:	00e15e03          	lhu	t3,14(sp)
     5c0:	00ce0e13          	addi	t3,t3,12
     5c4:	010e1e13          	slli	t3,t3,0x10
     5c8:	010e5e13          	srli	t3,t3,0x10
     5cc:	01c11723          	sh	t3,14(sp)

000005d0 <.L135>:
     5d0:	03e00e13          	li	t3,62
     5d4:	006e5463          	bge	t3,t1,5dc <.L135+0xc>
     5d8:	6c90706f          	j	84a0 <.L145>
     5dc:	02000e13          	li	t3,32
     5e0:	010e5463          	bge	t3,a6,5e8 <.L135+0x18>
     5e4:	19d0606f          	j	6f80 <.L146>
     5e8:	00815e03          	lhu	t3,8(sp)
     5ec:	009e0e13          	addi	t3,t3,9
     5f0:	010e1e13          	slli	t3,t3,0x10
     5f4:	410e5e13          	srai	t3,t3,0x10

000005f8 <.L147>:
     5f8:	01c11423          	sh	t3,8(sp)
     5fc:	0a600e13          	li	t3,166
     600:	00ee4463          	blt	t3,a4,608 <.L147+0x10>
     604:	32c0306f          	j	3930 <.L143>
     608:	03d00e13          	li	t3,61
     60c:	00fe4463          	blt	t3,a5,614 <.L147+0x1c>
     610:	27d0506f          	j	608c <.L144>
     614:	21a00e13          	li	t3,538
     618:	edee5ae3          	bge	t3,t5,4ec <.L164>
     61c:	10b00e13          	li	t3,267
     620:	00de5463          	bge	t3,a3,628 <.L147+0x30>
     624:	0700906f          	j	9694 <.L2354>
     628:	d6700e13          	li	t3,-665
     62c:	01ca5463          	bge	s4,t3,634 <.L173>
     630:	2b50506f          	j	60e4 <.L2754>

00000634 <.L173>:
     634:	00c15e03          	lhu	t3,12(sp)
     638:	ff6e0e13          	addi	t3,t3,-10
     63c:	01c11623          	sh	t3,12(sp)

00000640 <.L174>:
     640:	1e500e13          	li	t3,485
     644:	01ee5463          	bge	t3,t5,64c <.L174+0xc>
     648:	2a90506f          	j	60f0 <.L172>
     64c:	ec100e13          	li	t3,-319
     650:	01c44463          	blt	s0,t3,658 <.L174+0x18>
     654:	0800306f          	j	36d4 <.L192>
     658:	00e15e03          	lhu	t3,14(sp)
     65c:	0d900c13          	li	s8,217
     660:	00ee0e13          	addi	t3,t3,14
     664:	01c11723          	sh	t3,14(sp)
     668:	01ec4463          	blt	s8,t5,670 <.L2356>
     66c:	0800306f          	j	36ec <.L194>

00000670 <.L2356>:
     670:	07a00e13          	li	t3,122
     674:	006e4463          	blt	t3,t1,67c <.L2356+0xc>
     678:	33c0706f          	j	79b4 <.L196>
     67c:	00815e03          	lhu	t3,8(sp)
     680:	08000c13          	li	s8,128
     684:	ff8e0e13          	addi	t3,t3,-8
     688:	01c11423          	sh	t3,8(sp)
     68c:	00ec5463          	bge	s8,a4,694 <.L215>
     690:	5950806f          	j	9424 <.L2755>

00000694 <.L215>:
     694:	ffd00e13          	li	t3,-3
     698:	01c64463          	blt	a2,t3,6a0 <.L215+0xc>
     69c:	7940506f          	j	5e30 <.L231>
     6a0:	36800e13          	li	t3,872
     6a4:	016e5463          	bge	t3,s6,6ac <.L215+0x18>
     6a8:	3180a06f          	j	a9c0 <.L232>
     6ac:	00a15e03          	lhu	t3,10(sp)
     6b0:	08c00c13          	li	s8,140
     6b4:	ff7e0e13          	addi	t3,t3,-9
     6b8:	01c11523          	sh	t3,10(sp)
     6bc:	00dc4463          	blt	s8,a3,6c4 <.L236>
     6c0:	7940506f          	j	5e54 <.L239>

000006c4 <.L236>:
     6c4:	eef00e13          	li	t3,-273
     6c8:	01c2c463          	blt	t0,t3,6d0 <.L236+0xc>
     6cc:	10c0a06f          	j	a7d8 <.L267>
     6d0:	00c15e03          	lhu	t3,12(sp)
     6d4:	00de0e13          	addi	t3,t3,13
     6d8:	010e1e13          	slli	t3,t3,0x10
     6dc:	410e5e13          	srai	t3,t3,0x10

000006e0 <.L263>:
     6e0:	01c11623          	sh	t3,12(sp)
     6e4:	03c00e13          	li	t3,60
     6e8:	00fe5463          	bge	t3,a5,6f0 <.L263+0x10>
     6ec:	0640306f          	j	3750 <.L259>
     6f0:	ce400e13          	li	t3,-796
     6f4:	01c5c463          	blt	a1,t3,6fc <.L252>
     6f8:	1e90806f          	j	90e0 <.L273>

000006fc <.L252>:
     6fc:	19c00e13          	li	t3,412
     700:	00ee5463          	bge	t3,a4,708 <.L252+0xc>
     704:	3400306f          	j	3a44 <.L276>
     708:	00e15e03          	lhu	t3,14(sp)
     70c:	00fe0e13          	addi	t3,t3,15
     710:	010e1e13          	slli	t3,t3,0x10
     714:	410e5e13          	srai	t3,t3,0x10

00000718 <.L275>:
     718:	01c11723          	sh	t3,14(sp)
     71c:	efb00e13          	li	t3,-261
     720:	01ca4463          	blt	s4,t3,728 <.L2833>
     724:	0640306f          	j	3788 <.L280>

00000728 <.L2833>:
     728:	08700e13          	li	t3,135
     72c:	006e5463          	bge	t3,t1,734 <.L2833+0xc>
     730:	3b80606f          	j	6ae8 <.L281>
     734:	02200e13          	li	t3,34
     738:	010e5463          	bge	t3,a6,740 <.L2833+0x18>
     73c:	3300606f          	j	6a6c <.L282>
     740:	00815e03          	lhu	t3,8(sp)
     744:	2df00c13          	li	s8,735
     748:	002e0e13          	addi	t3,t3,2
     74c:	01c11423          	sh	t3,8(sp)
     750:	00ec5463          	bge	s8,a4,758 <.L2685>
     754:	3300606f          	j	6a84 <.L297>

00000758 <.L2685>:
     758:	02051e03          	lh	t3,32(a0)
     75c:	00400c13          	li	s8,4
     760:	01cc5463          	bge	s8,t3,768 <.L2685+0x10>
     764:	61c0806f          	j	8d80 <.L299>
     768:	00a15c03          	lhu	s8,10(sp)
     76c:	08f00c93          	li	s9,143
     770:	ffcc0c13          	addi	s8,s8,-4
     774:	01811523          	sh	s8,10(sp)
     778:	00dcc463          	blt	s9,a3,780 <.L317>
     77c:	3ac0606f          	j	6b28 <.L2560>

00000780 <.L317>:
     780:	2b200c13          	li	s8,690
     784:	00ec5463          	bge	s8,a4,78c <.L317+0xc>
     788:	26c0606f          	j	69f4 <.L315>
     78c:	ef500c13          	li	s8,-267
     790:	0182c463          	blt	t0,s8,798 <.L317+0x18>
     794:	2a40606f          	j	6a38 <.L324>
     798:	00c15c03          	lhu	s8,12(sp)
     79c:	03c00c93          	li	s9,60
     7a0:	00bc0c13          	addi	s8,s8,11
     7a4:	01811623          	sh	s8,12(sp)
     7a8:	00fcd463          	bge	s9,a5,7b0 <.L2563>
     7ac:	0880306f          	j	3834 <.L325>

000007b0 <.L2563>:
     7b0:	d2500c13          	li	s8,-731
     7b4:	0185d463          	bge	a1,s8,7bc <.L334>
     7b8:	3140606f          	j	6acc <.L337>

000007bc <.L334>:
     7bc:	00e15c03          	lhu	s8,14(sp)
     7c0:	ff6c0c13          	addi	s8,s8,-10
     7c4:	010c1c13          	slli	s8,s8,0x10
     7c8:	410c5c13          	srai	s8,s8,0x10

000007cc <.L338>:
     7cc:	01811723          	sh	s8,14(sp)
     7d0:	efb00c13          	li	s8,-261
     7d4:	018a4463          	blt	s4,s8,7dc <.L2835>
     7d8:	0940306f          	j	386c <.L341>

000007dc <.L2835>:
     7dc:	00d00c13          	li	s8,13
     7e0:	013c5463          	bge	s8,s3,7e8 <.L2835+0xc>
     7e4:	1010606f          	j	70e4 <.L342>
     7e8:	0f400c13          	li	s8,244
     7ec:	006c5463          	bge	s8,t1,7f4 <.L2835+0x18>
     7f0:	6e00906f          	j	9ed0 <.L343>
     7f4:	00815c03          	lhu	s8,8(sp)
     7f8:	003c0c13          	addi	s8,s8,3
     7fc:	01811423          	sh	s8,8(sp)

00000800 <.L344>:
     800:	07600c13          	li	s8,118
     804:	00ec5463          	bge	s8,a4,80c <.L344+0xc>
     808:	3150206f          	j	331c <.L348>
     80c:	ffe00c13          	li	s8,-2
     810:	01864463          	blt	a2,s8,818 <.L344+0x18>
     814:	7cd0606f          	j	77e0 <.L349>
     818:	e2c00c13          	li	s8,-468
     81c:	0182c463          	blt	t0,s8,824 <.L344+0x24>
     820:	0490a06f          	j	b068 <.L350>
     824:	00a15c03          	lhu	s8,10(sp)
     828:	17000c93          	li	s9,368
     82c:	001c0c13          	addi	s8,s8,1
     830:	01811523          	sh	s8,10(sp)
     834:	00dcc463          	blt	s9,a3,83c <.L355>
     838:	6d80606f          	j	6f10 <.L351>

0000083c <.L355>:
     83c:	00c15c03          	lhu	s8,12(sp)
     840:	00cc0c13          	addi	s8,s8,12
     844:	010c1c13          	slli	s8,s8,0x10
     848:	410c5c13          	srai	s8,s8,0x10

0000084c <.L352>:
     84c:	01811623          	sh	s8,12(sp)
     850:	e9900c13          	li	s8,-359
     854:	0185d463          	bge	a1,s8,85c <.L372>
     858:	3210206f          	j	3378 <.L368>

0000085c <.L372>:
     85c:	03d00c13          	li	s8,61
     860:	00fc5463          	bge	s8,a5,868 <.L372+0xc>
     864:	6dc0606f          	j	6f40 <.L371>
     868:	03800c13          	li	s8,56
     86c:	00ec5463          	bge	s8,a4,874 <.L372+0x18>
     870:	5f00606f          	j	6e60 <.L370>
     874:	00e15c03          	lhu	s8,14(sp)
     878:	ffac0c13          	addi	s8,s8,-6
     87c:	010c1c13          	slli	s8,s8,0x10
     880:	410c5c13          	srai	s8,s8,0x10

00000884 <.L375>:
     884:	01811723          	sh	s8,14(sp)
     888:	0a900c13          	li	s8,169
     88c:	01ec5463          	bge	s8,t5,894 <.L2827>
     890:	3210206f          	j	33b0 <.L378>

00000894 <.L2827>:
     894:	01d00c13          	li	s8,29
     898:	010c5463          	bge	s8,a6,8a0 <.L2827+0xc>
     89c:	79d0506f          	j	6838 <.L379>
     8a0:	11800c13          	li	s8,280
     8a4:	012c5463          	bge	s8,s2,8ac <.L2827+0x18>
     8a8:	2090906f          	j	a2b0 <.L380>
     8ac:	00815c03          	lhu	s8,8(sp)
     8b0:	0b500c93          	li	s9,181
     8b4:	00bc0c13          	addi	s8,s8,11
     8b8:	01811423          	sh	s8,8(sp)
     8bc:	006cd463          	bge	s9,t1,8c4 <.L2566>
     8c0:	7a10506f          	j	6860 <.L381>

000008c4 <.L2566>:
     8c4:	00a00c13          	li	s8,10
     8c8:	011c4463          	blt	s8,a7,8d0 <.L388>
     8cc:	7b10506f          	j	687c <.L382>

000008d0 <.L388>:
     8d0:	00a15c03          	lhu	s8,10(sp)
     8d4:	ff7c0c13          	addi	s8,s8,-9
     8d8:	010c1c13          	slli	s8,s8,0x10
     8dc:	410c5c13          	srai	s8,s8,0x10

000008e0 <.L383>:
     8e0:	01811523          	sh	s8,10(sp)
     8e4:	06300c13          	li	s8,99
     8e8:	00dc5463          	bge	s8,a3,8f0 <.L2828>
     8ec:	3350206f          	j	3420 <.L400>

000008f0 <.L2828>:
     8f0:	f2100c13          	li	s8,-223
     8f4:	0185c463          	blt	a1,s8,8fc <.L2828+0xc>
     8f8:	7e10506f          	j	68d8 <.L401>
     8fc:	21800c13          	li	s8,536
     900:	016c5463          	bge	s8,s6,908 <.L2828+0x18>
     904:	1f10906f          	j	a2f4 <.L402>
     908:	00c15c03          	lhu	s8,12(sp)
     90c:	ff6c0c13          	addi	s8,s8,-10
     910:	010c1c13          	slli	s8,s8,0x10
     914:	410c5c13          	srai	s8,s8,0x10

00000918 <.L403>:
     918:	01811623          	sh	s8,12(sp)
     91c:	03b00c13          	li	s8,59
     920:	00fc5463          	bge	s8,a5,928 <.L2829>
     924:	3350206f          	j	3458 <.L411>

00000928 <.L2829>:
     928:	cd800c13          	li	s8,-808
     92c:	0185c463          	blt	a1,s8,934 <.L2829+0xc>
     930:	44d0706f          	j	857c <.L405>
     934:	00e15c03          	lhu	s8,14(sp)
     938:	008c0c13          	addi	s8,s8,8
     93c:	010c1c13          	slli	s8,s8,0x10
     940:	410c5c13          	srai	s8,s8,0x10

00000944 <.L412>:
     944:	01811723          	sh	s8,14(sp)
     948:	0a900c13          	li	s8,169
     94c:	01ec5463          	bge	s8,t5,954 <.L2830>
     950:	3410206f          	j	3490 <.L415>

00000954 <.L2830>:
     954:	01d00c13          	li	s8,29
     958:	010c4463          	blt	s8,a6,960 <.L2830+0xc>
     95c:	0440606f          	j	69a0 <.L418>
     960:	01c51c83          	lh	s9,28(a0)
     964:	03800c13          	li	s8,56
     968:	019c5463          	bge	s8,s9,970 <.L2830+0x1c>
     96c:	3700a06f          	j	acdc <.L421>
     970:	00815c03          	lhu	s8,8(sp)
     974:	ff8c0c13          	addi	s8,s8,-8
     978:	010c1c13          	slli	s8,s8,0x10
     97c:	410c5c13          	srai	s8,s8,0x10

00000980 <.L420>:
     980:	01811423          	sh	s8,8(sp)
     984:	03900c13          	li	s8,57
     988:	00ec5463          	bge	s8,a4,990 <.L2831>
     98c:	33d0206f          	j	34c8 <.L424>

00000990 <.L2831>:
     990:	00700c13          	li	s8,7
     994:	011c5463          	bge	s8,a7,99c <.L2831+0xc>
     998:	4b90206f          	j	3650 <.L425>
     99c:	00a00c13          	li	s8,10
     9a0:	01dc5463          	bge	s8,t4,9a8 <.L2831+0x18>
     9a4:	7010806f          	j	98a4 <.L426>
     9a8:	00a15c03          	lhu	s8,10(sp)
     9ac:	06300c93          	li	s9,99
     9b0:	ffcc0c13          	addi	s8,s8,-4
     9b4:	01811523          	sh	s8,10(sp)
     9b8:	00dcc463          	blt	s9,a3,9c0 <.L427>
     9bc:	4b90206f          	j	3674 <.L432>

000009c0 <.L427>:
     9c0:	ed000c13          	li	s8,-304
     9c4:	018ac463          	blt	s5,s8,9cc <.L433>
     9c8:	0dd0506f          	j	62a4 <.L430>

000009cc <.L433>:
     9cc:	00c15c03          	lhu	s8,12(sp)
     9d0:	008c0c13          	addi	s8,s8,8
     9d4:	010c1c13          	slli	s8,s8,0x10
     9d8:	410c5c13          	srai	s8,s8,0x10

000009dc <.L431>:
     9dc:	01811623          	sh	s8,12(sp)
     9e0:	e2500c13          	li	s8,-475
     9e4:	01844463          	blt	s0,s8,9ec <.L446>
     9e8:	4c50206f          	j	36ac <.L443>

000009ec <.L446>:
     9ec:	25500c13          	li	s8,597
     9f0:	009c4463          	blt	s8,s1,9f8 <.L446+0xc>
     9f4:	1a90506f          	j	639c <.L444>
     9f8:	c2600c13          	li	s8,-986
     9fc:	0185c463          	blt	a1,s8,a04 <.L446+0x18>
     a00:	1310506f          	j	6330 <.L445>
     a04:	00e15c03          	lhu	s8,14(sp)
     a08:	008c0c13          	addi	s8,s8,8

00000a0c <.L2571>:
     a0c:	01811723          	sh	s8,14(sp)

00000a10 <.L451>:
     a10:	02200c13          	li	s8,34
     a14:	010c5463          	bge	s8,a6,a1c <.L2904>
     a18:	1310506f          	j	6348 <.L457>

00000a1c <.L2904>:
     a1c:	0f600c13          	li	s8,246
     a20:	006c5463          	bge	s8,t1,a28 <.L2904+0xc>
     a24:	62d0806f          	j	9850 <.L458>
     a28:	00815c03          	lhu	s8,8(sp)
     a2c:	002c0c13          	addi	s8,s8,2
     a30:	010c1c13          	slli	s8,s8,0x10
     a34:	410c5c13          	srai	s8,s8,0x10

00000a38 <.L459>:
     a38:	01811423          	sh	s8,8(sp)
     a3c:	0b500c13          	li	s8,181
     a40:	006c5463          	bge	s8,t1,a48 <.L465>
     a44:	12d0506f          	j	6370 <.L460>

00000a48 <.L465>:
     a48:	00200c13          	li	s8,2
     a4c:	01cc5463          	bge	s8,t3,a54 <.L465+0xc>
     a50:	0950506f          	j	62e4 <.L468>
     a54:	00b00c13          	li	s8,11
     a58:	013c5463          	bge	s8,s3,a60 <.L465+0x18>
     a5c:	5cd0806f          	j	9828 <.L469>
     a60:	00a15c03          	lhu	s8,10(sp)
     a64:	ff9c0c13          	addi	s8,s8,-7
     a68:	010c1c13          	slli	s8,s8,0x10
     a6c:	410c5c13          	srai	s8,s8,0x10

00000a70 <.L470>:
     a70:	01811523          	sh	s8,10(sp)
     a74:	2be00c13          	li	s8,702
     a78:	00dc5463          	bge	s8,a3,a80 <.L470+0x10>
     a7c:	3d90406f          	j	5654 <.L479>
     a80:	0a300c13          	li	s8,163
     a84:	00ec5463          	bge	s8,a4,a8c <.L470+0x1c>
     a88:	7380806f          	j	91c0 <.L480>
     a8c:	04d00c13          	li	s8,77
     a90:	00dc5463          	bge	s8,a3,a98 <.L470+0x28>
     a94:	38d0a06f          	j	b620 <.L481>
     a98:	00c15c03          	lhu	s8,12(sp)
     a9c:	e0800c93          	li	s9,-504
     aa0:	ffbc0c13          	addi	s8,s8,-5
     aa4:	01811623          	sh	s8,12(sp)
     aa8:	01944463          	blt	s0,s9,ab0 <.L482>
     aac:	6a90506f          	j	6954 <.L2289>

00000ab0 <.L482>:
     ab0:	25500c13          	li	s8,597
     ab4:	009c5463          	bge	s8,s1,abc <.L482+0xc>
     ab8:	4f10606f          	j	77a8 <.L499>
     abc:	df100c13          	li	s8,-527
     ac0:	018a4463          	blt	s4,s8,ac8 <.L482+0x18>
     ac4:	2510906f          	j	a514 <.L500>
     ac8:	00e15c03          	lhu	s8,14(sp)
     acc:	0a900c93          	li	s9,169
     ad0:	ff9c0c13          	addi	s8,s8,-7
     ad4:	01811723          	sh	s8,14(sp)
     ad8:	01ecc463          	blt	s9,t5,ae0 <.L482+0x30>
     adc:	1c90306f          	j	44a4 <.L501>
     ae0:	01e00c13          	li	s8,30
     ae4:	013c5463          	bge	s8,s3,aec <.L502>
     ae8:	1610306f          	j	4448 <.L2756>

00000aec <.L502>:
     aec:	00815c03          	lhu	s8,8(sp)
     af0:	34b00c93          	li	s9,843
     af4:	ffcc0c13          	addi	s8,s8,-4
     af8:	01811423          	sh	s8,8(sp)
     afc:	00ecc463          	blt	s9,a4,b04 <.L2575>
     b00:	1610306f          	j	4460 <.L516>

00000b04 <.L2575>:
     b04:	00001c37          	lui	s8,0x1
     b08:	a9dc0c13          	addi	s8,s8,-1379 # a9d <.L470+0x2d>
     b0c:	48dc52e3          	bge	s8,a3,1790 <.L517>

00000b10 <.L518>:
     b10:	00b00c13          	li	s8,11
     b14:	01cc5463          	bge	s8,t3,b1c <.L518+0xc>
     b18:	3ac0a06f          	j	aec4 <.L534>
     b1c:	00a15c03          	lhu	s8,10(sp)
     b20:	fffc0c13          	addi	s8,s8,-1
     b24:	010c1c13          	slli	s8,s8,0x10
     b28:	010c5c13          	srli	s8,s8,0x10

00000b2c <.L535>:
     b2c:	01811523          	sh	s8,10(sp)
     b30:	3fa00c13          	li	s8,1018
     b34:	00ec4463          	blt	s8,a4,b3c <.L535+0x10>
     b38:	6680806f          	j	91a0 <.L526>
     b3c:	00001c37          	lui	s8,0x1
     b40:	b13c0c13          	addi	s8,s8,-1261 # b13 <.L518+0x3>
     b44:	00dc4463          	blt	s8,a3,b4c <.L535+0x20>
     b48:	1d10306f          	j	4518 <.L532>
     b4c:	00c15c03          	lhu	s8,12(sp)
     b50:	009c0c13          	addi	s8,s8,9
     b54:	010c1c13          	slli	s8,s8,0x10
     b58:	410c5c13          	srai	s8,s8,0x10

00000b5c <.L538>:
     b5c:	01811623          	sh	s8,12(sp)
     b60:	e9900c13          	li	s8,-359
     b64:	4785d6e3          	bge	a1,s8,17d0 <.L541>

00000b68 <.L2775>:
     b68:	20200c13          	li	s8,514
     b6c:	016c5463          	bge	s8,s6,b74 <.L2775+0xc>
     b70:	0f40606f          	j	6c64 <.L542>
     b74:	14600c13          	li	s8,326
     b78:	007c4863          	blt	s8,t2,b88 <.L543>
     b7c:	00e15c03          	lhu	s8,14(sp)
     b80:	009c0c13          	addi	s8,s8,9
     b84:	01811723          	sh	s8,14(sp)

00000b88 <.L543>:
     b88:	3c084ee3          	bltz	a6,1764 <.L2757>

00000b8c <.L546>:
     b8c:	00095463          	bgez	s2,b94 <.L546+0x8>
     b90:	0cc0806f          	j	8c5c <.L2758>
     b94:	02200c13          	li	s8,34
     b98:	010c4463          	blt	s8,a6,ba0 <.L546+0x14>
     b9c:	3880506f          	j	5f24 <.L2577>
     ba0:	00815c03          	lhu	s8,8(sp)
     ba4:	ff7c0c13          	addi	s8,s8,-9
     ba8:	010c1c13          	slli	s8,s8,0x10
     bac:	410c5c13          	srai	s8,s8,0x10

00000bb0 <.L552>:
     bb0:	01811423          	sh	s8,8(sp)
     bb4:	0f000c13          	li	s8,240
     bb8:	446c5ce3          	bge	s8,t1,1810 <.L549>
     bbc:	d6c00c13          	li	s8,-660
     bc0:	018ad463          	bge	s5,s8,bc8 <.L552+0x18>
     bc4:	1340806f          	j	8cf8 <.L2759>
     bc8:	18000c13          	li	s8,384
     bcc:	009c5863          	bge	s8,s1,bdc <.L567>
     bd0:	00a15c03          	lhu	s8,10(sp)
     bd4:	007c0c13          	addi	s8,s8,7

00000bd8 <.L2578>:
     bd8:	01811523          	sh	s8,10(sp)

00000bdc <.L567>:
     bdc:	17000c13          	li	s8,368
     be0:	00dc5463          	bge	s8,a3,be8 <.L563>
     be4:	4350406f          	j	5818 <.L575>

00000be8 <.L563>:
     be8:	f5200c13          	li	s8,-174
     bec:	0185c463          	blt	a1,s8,bf4 <.L563+0xc>
     bf0:	7680606f          	j	7358 <.L576>
     bf4:	03200c13          	li	s8,50
     bf8:	00fc5463          	bge	s8,a5,c00 <.L563+0x18>
     bfc:	6240906f          	j	a220 <.L577>
     c00:	00c15c03          	lhu	s8,12(sp)
     c04:	002c0c13          	addi	s8,s8,2
     c08:	010c1c13          	slli	s8,s8,0x10
     c0c:	010c5c13          	srli	s8,s8,0x10

00000c10 <.L578>:
     c10:	01811623          	sh	s8,12(sp)
     c14:	e0800c13          	li	s8,-504
     c18:	01845463          	bge	s0,s8,c20 <.L581>
     c1c:	42d0406f          	j	5848 <.L584>

00000c20 <.L581>:
     c20:	0de00c13          	li	s8,222
     c24:	012c5463          	bge	s8,s2,c2c <.L581+0xc>
     c28:	2250706f          	j	864c <.L586>
     c2c:	02600c13          	li	s8,38
     c30:	42dc4ee3          	blt	s8,a3,186c <.L585>

00000c34 <.L607>:
     c34:	0a900c13          	li	s8,169
     c38:	45ec54e3          	bge	s8,t5,1880 <.L600>

00000c3c <.L610>:
     c3c:	10700c13          	li	s8,263
     c40:	007c4463          	blt	s8,t2,c48 <.L610+0xc>
     c44:	2c90506f          	j	670c <.L603>
     c48:	e4300c13          	li	s8,-445
     c4c:	01845463          	bge	s0,s8,c54 <.L617>
     c50:	42d0406f          	j	587c <.L602>

00000c54 <.L617>:
     c54:	00815c03          	lhu	s8,8(sp)
     c58:	004c0c13          	addi	s8,s8,4
     c5c:	01811423          	sh	s8,8(sp)

00000c60 <.L614>:
     c60:	03900c13          	li	s8,57
     c64:	44ec42e3          	blt	s8,a4,18a8 <.L618>

00000c68 <.L2777>:
     c68:	00900c13          	li	s8,9
     c6c:	011c5463          	bge	s8,a7,c74 <.L2777+0xc>
     c70:	1f10506f          	j	6660 <.L619>
     c74:	fff00c13          	li	s8,-1
     c78:	01875463          	bge	a4,s8,c80 <.L2777+0x18>
     c7c:	6900a06f          	j	b30c <.L2760>
     c80:	00a15c03          	lhu	s8,10(sp)
     c84:	08900c93          	li	s9,137
     c88:	006c0c13          	addi	s8,s8,6
     c8c:	01811523          	sh	s8,10(sp)
     c90:	00dcd463          	bge	s9,a3,c98 <.L621>
     c94:	5c50606f          	j	7a58 <.L2582>

00000c98 <.L621>:
     c98:	03700c13          	li	s8,55
     c9c:	00fc5463          	bge	s8,a5,ca4 <.L2274>
     ca0:	1f10506f          	j	6690 <.L634>

00000ca4 <.L2274>:
     ca4:	00c15c03          	lhu	s8,12(sp)
     ca8:	ff7c0c13          	addi	s8,s8,-9
     cac:	01811623          	sh	s8,12(sp)

00000cb0 <.L636>:
     cb0:	03000c13          	li	s8,48
     cb4:	45fc4ae3          	blt	s8,t6,1908 <.L646>

00000cb8 <.L2778>:
     cb8:	00e15c03          	lhu	s8,14(sp)
     cbc:	0a900c93          	li	s9,169
     cc0:	0009d463          	bgez	s3,cc8 <.L2586>
     cc4:	7800a06f          	j	b444 <.L2761>

00000cc8 <.L2586>:
     cc8:	009c0c13          	addi	s8,s8,9
     ccc:	01811723          	sh	s8,14(sp)
     cd0:	45ecdce3          	bge	s9,t5,1928 <.L648>

00000cd4 <.L2584>:
     cd4:	01e00c13          	li	s8,30
     cd8:	013c5463          	bge	s8,s3,ce0 <.L652>
     cdc:	50c0506f          	j	61e8 <.L653>

00000ce0 <.L652>:
     ce0:	00815c03          	lhu	s8,8(sp)
     ce4:	fffc0c13          	addi	s8,s8,-1
     ce8:	01811423          	sh	s8,8(sp)

00000cec <.L649>:
     cec:	0b500c13          	li	s8,181
     cf0:	466c40e3          	blt	s8,t1,1950 <.L659>

00000cf4 <.L2779>:
     cf4:	00b00c13          	li	s8,11
     cf8:	011c5463          	bge	s8,a7,d00 <.L2779+0xc>
     cfc:	4140606f          	j	7110 <.L660>
     d00:	f8700c13          	li	s8,-121
     d04:	01844463          	blt	s0,s8,d0c <.L2779+0x18>
     d08:	2e50906f          	j	a7ec <.L661>
     d0c:	00a15c03          	lhu	s8,10(sp)
     d10:	006c0c13          	addi	s8,s8,6
     d14:	010c1c13          	slli	s8,s8,0x10
     d18:	410c5c13          	srai	s8,s8,0x10

00000d1c <.L662>:
     d1c:	01811523          	sh	s8,10(sp)
     d20:	27a00c13          	li	s8,634
     d24:	46dc40e3          	blt	s8,a3,1984 <.L667>

00000d28 <.L2780>:
     d28:	02200c13          	li	s8,34
     d2c:	01dc5463          	bge	s8,t4,d34 <.L2780+0xc>
     d30:	7540706f          	j	8484 <.L668>
     d34:	ff400c13          	li	s8,-12
     d38:	01864463          	blt	a2,s8,d40 <.L2780+0x18>
     d3c:	7350806f          	j	9c70 <.L669>
     d40:	00c15c03          	lhu	s8,12(sp)
     d44:	007c0c13          	addi	s8,s8,7
     d48:	01811623          	sh	s8,12(sp)

00000d4c <.L670>:
     d4c:	d8200c13          	li	s8,-638
     d50:	4585dee3          	bge	a1,s8,19ac <.L673>

00000d54 <.L2781>:
     d54:	25500c13          	li	s8,597
     d58:	009c5463          	bge	s8,s1,d60 <.L2781+0xc>
     d5c:	4bc0506f          	j	6218 <.L674>
     d60:	47700c13          	li	s8,1143
     d64:	007c5463          	bge	s8,t2,d6c <.L2781+0x18>
     d68:	4190806f          	j	9980 <.L675>
     d6c:	00e15c03          	lhu	s8,14(sp)
     d70:	00ac0c13          	addi	s8,s8,10
     d74:	010c1c13          	slli	s8,s8,0x10
     d78:	410c5c13          	srai	s8,s8,0x10

00000d7c <.L676>:
     d7c:	01811723          	sh	s8,14(sp)
     d80:	44084ee3          	bltz	a6,19dc <.L2269>

00000d84 <.L682>:
     d84:	00a00c13          	li	s8,10
     d88:	012c5463          	bge	s8,s2,d90 <.L682+0xc>
     d8c:	1d40506f          	j	5f60 <.L693>
     d90:	02e00c13          	li	s8,46
     d94:	01dc5463          	bge	s8,t4,d9c <.L682+0x18>
     d98:	7280806f          	j	94c0 <.L694>
     d9c:	00815c03          	lhu	s8,8(sp)
     da0:	006c0c13          	addi	s8,s8,6
     da4:	010c1c13          	slli	s8,s8,0x10
     da8:	410c5c13          	srai	s8,s8,0x10

00000dac <.L692>:
     dac:	01811423          	sh	s8,8(sp)
     db0:	07200c13          	li	s8,114
     db4:	00ec5463          	bge	s8,a4,dbc <.L685>
     db8:	70c0406f          	j	54c4 <.L696>

00000dbc <.L685>:
     dbc:	ffa00c13          	li	s8,-6
     dc0:	01865463          	bge	a2,s8,dc8 <.L685+0xc>
     dc4:	07c0706f          	j	7e40 <.L688>
     dc8:	ed100c13          	li	s8,-303
     dcc:	018ac463          	blt	s5,s8,dd4 <.L685+0x18>
     dd0:	0e00a06f          	j	aeb0 <.L698>
     dd4:	00a15c03          	lhu	s8,10(sp)
     dd8:	00ac0c13          	addi	s8,s8,10
     ddc:	010c1c13          	slli	s8,s8,0x10
     de0:	010c5c13          	srli	s8,s8,0x10

00000de4 <.L699>:
     de4:	01811523          	sh	s8,10(sp)

00000de8 <.L703>:
     de8:	01c51c83          	lh	s9,28(a0)
     dec:	03c00c13          	li	s8,60
     df0:	019c5463          	bge	s8,s9,df8 <.L703+0x10>
     df4:	2d10706f          	j	88c4 <.L708>
     df8:	03600c13          	li	s8,54
     dfc:	01fc5463          	bge	s8,t6,e04 <.L703+0x1c>
     e00:	7380906f          	j	a538 <.L709>
     e04:	00c15c03          	lhu	s8,12(sp)
     e08:	ffec0c13          	addi	s8,s8,-2
     e0c:	010c1c13          	slli	s8,s8,0x10
     e10:	410c5c13          	srai	s8,s8,0x10

00000e14 <.L706>:
     e14:	01811623          	sh	s8,12(sp)
     e18:	03900c13          	li	s8,57
     e1c:	44fc44e3          	blt	s8,a5,1a64 <.L710>

00000e20 <.L2783>:
     e20:	feb00c13          	li	s8,-21
     e24:	01834463          	blt	t1,s8,e2c <.L2783+0xc>
     e28:	2b10706f          	j	88d8 <.L711>
     e2c:	07700c13          	li	s8,119
     e30:	007c5463          	bge	s8,t2,e38 <.L2783+0x18>
     e34:	4b40206f          	j	32e8 <.L712>
     e38:	00e15c03          	lhu	s8,14(sp)
     e3c:	0a900c93          	li	s9,169
     e40:	ffac0c13          	addi	s8,s8,-6
     e44:	01811723          	sh	s8,14(sp)
     e48:	01ecc463          	blt	s9,t5,e50 <.L2783+0x30>
     e4c:	5d90506f          	j	6c24 <.L2731>
     e50:	02400c13          	li	s8,36
     e54:	007c5463          	bge	s8,t2,e5c <.L729>
     e58:	4b40206f          	j	330c <.L714>

00000e5c <.L729>:
     e5c:	00815c03          	lhu	s8,8(sp)
     e60:	004c0c13          	addi	s8,s8,4
     e64:	01811423          	sh	s8,8(sp)

00000e68 <.L715>:
     e68:	00200c13          	li	s8,2
     e6c:	01cc5463          	bge	s8,t3,e74 <.L715+0xc>
     e70:	5d90506f          	j	6c48 <.L736>
     e74:	03b00c13          	li	s8,59
     e78:	00fc4463          	blt	s8,a5,e80 <.L715+0x18>
     e7c:	4d00906f          	j	a34c <.L2265>
     e80:	00a15c03          	lhu	s8,10(sp)
     e84:	ff9c0c13          	addi	s8,s8,-7
     e88:	010c1c13          	slli	s8,s8,0x10
     e8c:	410c5c13          	srai	s8,s8,0x10

00000e90 <.L745>:
     e90:	01811523          	sh	s8,10(sp)
     e94:	0dd00c13          	li	s8,221
     e98:	00dc4463          	blt	s8,a3,ea0 <.L745+0x10>
     e9c:	3100406f          	j	51ac <.L749>
     ea0:	25b00c13          	li	s8,603
     ea4:	44ec5ae3          	bge	s8,a4,1af8 <.L750>
     ea8:	ddb00c13          	li	s8,-549
     eac:	018ad463          	bge	s5,s8,eb4 <.L745+0x24>
     eb0:	0080406f          	j	4eb8 <.L772>
     eb4:	00c15c03          	lhu	s8,12(sp)
     eb8:	03e00c93          	li	s9,62
     ebc:	ff7c0c13          	addi	s8,s8,-9
     ec0:	01811623          	sh	s8,12(sp)
     ec4:	46fcd2e3          	bge	s9,a5,1b28 <.L751>
     ec8:	fec00c13          	li	s8,-20
     ecc:	01864463          	blt	a2,s8,ed4 <.L780>
     ed0:	54d0706f          	j	8c1c <.L2762>

00000ed4 <.L780>:
     ed4:	08900c13          	li	s8,137
     ed8:	012c5463          	bge	s8,s2,ee0 <.L780+0xc>
     edc:	1fc0906f          	j	a0d8 <.L782>
     ee0:	00e15c03          	lhu	s8,14(sp)
     ee4:	ffe00c93          	li	s9,-2
     ee8:	ff9c0c13          	addi	s8,s8,-7
     eec:	01811723          	sh	s8,14(sp)
     ef0:	01985463          	bge	a6,s9,ef8 <.L784>
     ef4:	72d0306f          	j	4e20 <.L783>

00000ef8 <.L784>:
     ef8:	00815c03          	lhu	s8,8(sp)
     efc:	002c0c13          	addi	s8,s8,2
     f00:	010c1c13          	slli	s8,s8,0x10
     f04:	410c5c13          	srai	s8,s8,0x10

00000f08 <.L778>:
     f08:	01811423          	sh	s8,8(sp)
     f0c:	03300c13          	li	s8,51
     f10:	47fc5ae3          	bge	s8,t6,1b84 <.L788>

00000f14 <.L794>:
     f14:	01400c13          	li	s8,20
     f18:	010c4463          	blt	s8,a6,f20 <.L794+0xc>
     f1c:	7350306f          	j	4e50 <.L789>
     f20:	00b00c13          	li	s8,11
     f24:	011c5463          	bge	s8,a7,f2c <.L794+0x18>
     f28:	7a80806f          	j	96d0 <.L804>
     f2c:	00a15c03          	lhu	s8,10(sp)
     f30:	ffc00c93          	li	s9,-4
     f34:	005c0c13          	addi	s8,s8,5
     f38:	01811523          	sh	s8,10(sp)
     f3c:	47964ae3          	blt	a2,s9,1bb0 <.L797>

00000f40 <.L812>:
     f40:	00c15c03          	lhu	s8,12(sp)
     f44:	03e00c93          	li	s9,62
     f48:	ff7c0c13          	addi	s8,s8,-9
     f4c:	01811623          	sh	s8,12(sp)
     f50:	00fcc463          	blt	s9,a5,f58 <.L817>
     f54:	2300406f          	j	5184 <.L816>

00000f58 <.L817>:
     f58:	00e15c03          	lhu	s8,14(sp)
     f5c:	009c0c13          	addi	s8,s8,9
     f60:	010c1c13          	slli	s8,s8,0x10
     f64:	410c5c13          	srai	s8,s8,0x10

00000f68 <.L820>:
     f68:	01811723          	sh	s8,14(sp)
     f6c:	01f00c13          	li	s8,31
     f70:	493c4ee3          	blt	s8,s3,1c0c <.L822>

00000f74 <.L2785>:
     f74:	01c04463          	bgtz	t3,f7c <.L2785+0x8>
     f78:	0e00806f          	j	9058 <.L2763>
     f7c:	00300c13          	li	s8,3
     f80:	01cc4463          	blt	s8,t3,f88 <.L2785+0x14>
     f84:	17c0606f          	j	7100 <.L824>
     f88:	00815c03          	lhu	s8,8(sp)
     f8c:	001c0c13          	addi	s8,s8,1
     f90:	01811423          	sh	s8,8(sp)

00000f94 <.L825>:
     f94:	1ac00c13          	li	s8,428
     f98:	496c48e3          	blt	s8,s6,1c28 <.L826>

00000f9c <.L2786>:
     f9c:	ff900c13          	li	s8,-7
     fa0:	01864463          	blt	a2,s8,fa8 <.L2786+0xc>
     fa4:	4f90506f          	j	6c9c <.L827>
     fa8:	00100c13          	li	s8,1
     fac:	01cc4463          	blt	s8,t3,fb4 <.L2786+0x18>
     fb0:	3bc0a06f          	j	b36c <.L2764>
     fb4:	00a15c03          	lhu	s8,10(sp)
     fb8:	ff8c0c13          	addi	s8,s8,-8
     fbc:	010c1c13          	slli	s8,s8,0x10
     fc0:	410c5c13          	srai	s8,s8,0x10

00000fc4 <.L829>:
     fc4:	01811523          	sh	s8,10(sp)
     fc8:	27a00c13          	li	s8,634
     fcc:	48dc48e3          	blt	s8,a3,1c5c <.L837>

00000fd0 <.L2787>:
     fd0:	02200c13          	li	s8,34
     fd4:	01dc5463          	bge	s8,t4,fdc <.L2787+0xc>
     fd8:	4f50506f          	j	6ccc <.L833>
     fdc:	ff000c13          	li	s8,-16
     fe0:	01865863          	bge	a2,s8,ff0 <.L838>
     fe4:	00c15c03          	lhu	s8,12(sp)
     fe8:	00ac0c13          	addi	s8,s8,10
     fec:	01811623          	sh	s8,12(sp)

00000ff0 <.L838>:
     ff0:	d2a00c13          	li	s8,-726
     ff4:	0185d463          	bge	a1,s8,ffc <.L840>
     ff8:	1c90406f          	j	59c0 <.L850>

00000ffc <.L840>:
     ffc:	eea00c13          	li	s8,-278
    1000:	018a4463          	blt	s4,s8,1008 <.L840+0xc>
    1004:	5090506f          	j	6d0c <.L845>
    1008:	02700c13          	li	s8,39
    100c:	48dc46e3          	blt	s8,a3,1c98 <.L852>

00001010 <.L846>:
    1010:	0a900c13          	li	s8,169
    1014:	49ec5ce3          	bge	s8,t5,1cac <.L860>

00001018 <.L2788>:
    1018:	01e00c13          	li	s8,30
    101c:	013c5463          	bge	s8,s3,1024 <.L2788+0xc>
    1020:	5190506f          	j	6d38 <.L858>
    1024:	03c00c13          	li	s8,60
    1028:	00fc4463          	blt	s8,a5,1030 <.L2788+0x18>
    102c:	5700706f          	j	859c <.L864>
    1030:	00815c03          	lhu	s8,8(sp)
    1034:	005c0c13          	addi	s8,s8,5
    1038:	01811423          	sh	s8,8(sp)

0000103c <.L859>:
    103c:	0b500c13          	li	s8,181
    1040:	486c4ae3          	blt	s8,t1,1cd4 <.L865>

00001044 <.L2790>:
    1044:	00300c13          	li	s8,3
    1048:	01cc4463          	blt	s8,t3,1050 <.L2790+0xc>
    104c:	4000506f          	j	644c <.L2261>
    1050:	47000c13          	li	s8,1136
    1054:	007c5463          	bge	s8,t2,105c <.L2790+0x18>
    1058:	4990906f          	j	acf0 <.L875>
    105c:	00a15c03          	lhu	s8,10(sp)
    1060:	ff8c0c13          	addi	s8,s8,-8
    1064:	01811523          	sh	s8,10(sp)

00001068 <.L874>:
    1068:	f6a00c13          	li	s8,-150
    106c:	4985c6e3          	blt	a1,s8,1cf8 <.L878>
    1070:	f5b00c13          	li	s8,-165
    1074:	0182d463          	bge	t0,s8,107c <.L874+0x14>
    1078:	4400506f          	j	64b8 <.L871>
    107c:	0ed00c13          	li	s8,237
    1080:	00dc4463          	blt	s8,a3,1088 <.L874+0x20>
    1084:	3f40506f          	j	6478 <.L894>
    1088:	00c15c03          	lhu	s8,12(sp)
    108c:	02f00c93          	li	s9,47
    1090:	003c0c13          	addi	s8,s8,3
    1094:	01811623          	sh	s8,12(sp)
    1098:	490cc6e3          	blt	s9,a6,1d24 <.L889>

0000109c <.L888>:
    109c:	03800c13          	li	s8,56
    10a0:	01fc5463          	bge	s8,t6,10a8 <.L890>
    10a4:	3f40506f          	j	6498 <.L881>

000010a8 <.L890>:
    10a8:	00e15c03          	lhu	s8,14(sp)
    10ac:	ff8c0c13          	addi	s8,s8,-8
    10b0:	010c1c13          	slli	s8,s8,0x10
    10b4:	410c5c13          	srai	s8,s8,0x10

000010b8 <.L896>:
    10b8:	01811723          	sh	s8,14(sp)
    10bc:	ec600c13          	li	s8,-314
    10c0:	498446e3          	blt	s0,s8,1d4c <.L904>

000010c4 <.L2791>:
    10c4:	ebf00c13          	li	s8,-321
    10c8:	0185c463          	blt	a1,s8,10d0 <.L2791+0xc>
    10cc:	6190706f          	j	8ee4 <.L908>
    10d0:	03c00c13          	li	s8,60
    10d4:	00fc5463          	bge	s8,a5,10dc <.L2595>
    10d8:	6ac0806f          	j	9784 <.L901>

000010dc <.L2595>:
    10dc:	00815c03          	lhu	s8,8(sp)
    10e0:	006c0c13          	addi	s8,s8,6
    10e4:	01811423          	sh	s8,8(sp)

000010e8 <.L906>:
    10e8:	03400c13          	li	s8,52
    10ec:	49dc46e3          	blt	s8,t4,1d78 <.L909>

000010f0 <.L2793>:
    10f0:	ff800c13          	li	s8,-8
    10f4:	01864463          	blt	a2,s8,10fc <.L2793+0xc>
    10f8:	6600606f          	j	7758 <.L910>
    10fc:	01e00c13          	li	s8,30
    1100:	011c5463          	bge	s8,a7,1108 <.L2793+0x18>
    1104:	6740606f          	j	7778 <.L911>
    1108:	00a15c03          	lhu	s8,10(sp)
    110c:	ffdc0c13          	addi	s8,s8,-3
    1110:	010c1c13          	slli	s8,s8,0x10
    1114:	410c5c13          	srai	s8,s8,0x10

00001118 <.L912>:
    1118:	01811523          	sh	s8,10(sp)
    111c:	03300c13          	li	s8,51
    1120:	00fc4463          	blt	s8,a5,1128 <.L914>
    1124:	2000406f          	j	5324 <.L923>

00001128 <.L914>:
    1128:	d7800c13          	li	s8,-648
    112c:	018a5463          	bge	s4,s8,1134 <.L914+0xc>
    1130:	04d0606f          	j	797c <.L927>
    1134:	01500c93          	li	s9,21
    1138:	47dccee3          	blt	s9,t4,1db4 <.L920>
    113c:	00c15c03          	lhu	s8,12(sp)
    1140:	03900d13          	li	s10,57
    1144:	001c0c13          	addi	s8,s8,1
    1148:	01811623          	sh	s8,12(sp)
    114c:	48fd44e3          	blt	s10,a5,1dd4 <.L941>
    1150:	006cc463          	blt	s9,t1,1158 <.L933>
    1154:	1840206f          	j	32d8 <.L934>

00001158 <.L933>:
    1158:	27700c13          	li	s8,631
    115c:	012c5463          	bge	s8,s2,1164 <.L933+0xc>
    1160:	5600806f          	j	96c0 <.L942>
    1164:	00e15c03          	lhu	s8,14(sp)
    1168:	ff7c0c13          	addi	s8,s8,-9
    116c:	01811723          	sh	s8,14(sp)

00001170 <.L940>:
    1170:	00c00c13          	li	s8,12
    1174:	493c44e3          	blt	s8,s3,1dfc <.L935>

00001178 <.L2794>:
    1178:	1b000c13          	li	s8,432
    117c:	009c5463          	bge	s8,s1,1184 <.L2794+0xc>
    1180:	55c0706f          	j	86dc <.L946>
    1184:	10600c13          	li	s8,262
    1188:	00ec4463          	blt	s8,a4,1190 <.L2794+0x18>
    118c:	5490506f          	j	6ed4 <.L952>
    1190:	00815c03          	lhu	s8,8(sp)
    1194:	03300c93          	li	s9,51
    1198:	008c0c13          	addi	s8,s8,8
    119c:	01811423          	sh	s8,8(sp)
    11a0:	01fcc463          	blt	s9,t6,11a8 <.L949>
    11a4:	5580306f          	j	46fc <.L956>

000011a8 <.L949>:
    11a8:	03b00c13          	li	s8,59
    11ac:	00fc5463          	bge	s8,a5,11b4 <.L949+0xc>
    11b0:	7e80906f          	j	a998 <.L973>
    11b4:	00a15c03          	lhu	s8,10(sp)
    11b8:	005c0c13          	addi	s8,s8,5
    11bc:	010c1c13          	slli	s8,s8,0x10
    11c0:	410c5c13          	srai	s8,s8,0x10

000011c4 <.L969>:
    11c4:	01811523          	sh	s8,10(sp)
    11c8:	03900c13          	li	s8,57
    11cc:	00dc5463          	bge	s8,a3,11d4 <.L960>
    11d0:	4d10506f          	j	6ea0 <.L970>

000011d4 <.L960>:
    11d4:	01300c13          	li	s8,19
    11d8:	491c44e3          	blt	s8,a7,1e60 <.L974>

000011dc <.L2795>:
    11dc:	20f00c13          	li	s8,527
    11e0:	009c5463          	bge	s8,s1,11e8 <.L2795+0xc>
    11e4:	78c0906f          	j	a970 <.L975>
    11e8:	00c15c03          	lhu	s8,12(sp)
    11ec:	cf000c93          	li	s9,-784
    11f0:	ffec0c13          	addi	s8,s8,-2
    11f4:	01811623          	sh	s8,12(sp)
    11f8:	4995dae3          	bge	a1,s9,1e8c <.L976>

000011fc <.L982>:
    11fc:	e2c00c13          	li	s8,-468
    1200:	0182c463          	blt	t0,s8,1208 <.L982+0xc>
    1204:	73c0906f          	j	a940 <.L2765>
    1208:	00e15c03          	lhu	s8,14(sp)
    120c:	ffec0c13          	addi	s8,s8,-2
    1210:	01811723          	sh	s8,14(sp)

00001214 <.L989>:
    1214:	00400c13          	li	s8,4
    1218:	011c4863          	blt	s8,a7,1228 <.L1002>
    121c:	00815c03          	lhu	s8,8(sp)
    1220:	00cc0c13          	addi	s8,s8,12
    1224:	01811423          	sh	s8,8(sp)

00001228 <.L1002>:
    1228:	1ac00c13          	li	s8,428
    122c:	4b6c42e3          	blt	s8,s6,1ed0 <.L1004>

00001230 <.L2796>:
    1230:	00400c13          	li	s8,4
    1234:	01cc5463          	bge	s8,t3,123c <.L2796+0xc>
    1238:	4610406f          	j	5e98 <.L1005>
    123c:	16a00c13          	li	s8,362
    1240:	007c5463          	bge	s8,t2,1248 <.L2796+0x18>
    1244:	4950906f          	j	aed8 <.L1006>
    1248:	00a15c03          	lhu	s8,10(sp)
    124c:	003c0c13          	addi	s8,s8,3
    1250:	010c1c13          	slli	s8,s8,0x10
    1254:	410c5c13          	srai	s8,s8,0x10

00001258 <.L1007>:
    1258:	01811523          	sh	s8,10(sp)
    125c:	03d00c13          	li	s8,61
    1260:	4afc42e3          	blt	s8,a5,1f04 <.L1017>

00001264 <.L1013>:
    1264:	00100c13          	li	s8,1
    1268:	01cc5463          	bge	s8,t3,1270 <.L1013+0xc>
    126c:	4590406f          	j	5ec4 <.L1016>
    1270:	e4e00c13          	li	s8,-434
    1274:	0185c463          	blt	a1,s8,127c <.L1013+0x18>
    1278:	1500a06f          	j	b3c8 <.L1018>
    127c:	00c15c03          	lhu	s8,12(sp)
    1280:	004c0c13          	addi	s8,s8,4
    1284:	010c1c13          	slli	s8,s8,0x10
    1288:	410c5c13          	srai	s8,s8,0x10

0000128c <.L1019>:
    128c:	01811623          	sh	s8,12(sp)
    1290:	03900c13          	li	s8,57
    1294:	48fc4ae3          	blt	s8,a5,1f28 <.L1014>
    1298:	03200c13          	li	s8,50
    129c:	01dc4463          	blt	s8,t4,12a4 <.L1019+0x18>
    12a0:	4490406f          	j	5ee8 <.L1026>
    12a4:	ebb00c13          	li	s8,-325
    12a8:	0182c463          	blt	t0,s8,12b0 <.L1019+0x24>
    12ac:	3850906f          	j	ae30 <.L1029>
    12b0:	00e15c03          	lhu	s8,14(sp)
    12b4:	ffbc0c13          	addi	s8,s8,-5
    12b8:	010c1c13          	slli	s8,s8,0x10
    12bc:	410c5c13          	srai	s8,s8,0x10

000012c0 <.L1028>:
    12c0:	01811723          	sh	s8,14(sp)
    12c4:	01f00c13          	li	s8,31
    12c8:	013c4463          	blt	s8,s3,12d0 <.L1037>
    12cc:	7e10306f          	j	52ac <.L1038>

000012d0 <.L1037>:
    12d0:	00600c13          	li	s8,6
    12d4:	011c5863          	bge	s8,a7,12e4 <.L1043>

000012d8 <.L1046>:
    12d8:	00815c03          	lhu	s8,8(sp)
    12dc:	ff7c0c13          	addi	s8,s8,-9
    12e0:	01811423          	sh	s8,8(sp)

000012e4 <.L1043>:
    12e4:	03100c13          	li	s8,49
    12e8:	01fc5463          	bge	s8,t6,12f0 <.L2893>
    12ec:	7e90306f          	j	52d4 <.L1051>

000012f0 <.L2893>:
    12f0:	1f500c13          	li	s8,501
    12f4:	00ec5463          	bge	s8,a4,12fc <.L1052>
    12f8:	76d0406f          	j	6264 <.L1042>

000012fc <.L1052>:
    12fc:	ff900c13          	li	s8,-7
    1300:	01884463          	blt	a6,s8,1308 <.L1052+0xc>
    1304:	0500806f          	j	9354 <.L1041>
    1308:	00a15c03          	lhu	s8,10(sp)
    130c:	ffec0c13          	addi	s8,s8,-2
    1310:	010c1c13          	slli	s8,s8,0x10
    1314:	410c5c13          	srai	s8,s8,0x10

00001318 <.L1045>:
    1318:	01811523          	sh	s8,10(sp)
    131c:	0c100c13          	li	s8,193
    1320:	469c48e3          	blt	s8,s1,1f90 <.L1056>

00001324 <.L2797>:
    1324:	03800c13          	li	s8,56
    1328:	00fc5463          	bge	s8,a5,1330 <.L2797+0xc>
    132c:	2d10506f          	j	6dfc <.L1057>
    1330:	ff900c93          	li	s9,-7
    1334:	01964463          	blt	a2,s9,133c <.L2797+0x18>
    1338:	7780706f          	j	8ab0 <.L1058>
    133c:	00c15c83          	lhu	s9,12(sp)
    1340:	02f00d13          	li	s10,47
    1344:	005c8c93          	addi	s9,s9,5
    1348:	01911623          	sh	s9,12(sp)
    134c:	010d4463          	blt	s10,a6,1354 <.L2797+0x30>
    1350:	2780206f          	j	35c8 <.L2732>
    1354:	e1900c13          	li	s8,-487
    1358:	018a4463          	blt	s4,s8,1360 <.L1062>
    135c:	0d90a06f          	j	bc34 <.L2766>

00001360 <.L1062>:
    1360:	00300c13          	li	s8,3
    1364:	00dc5463          	bge	s8,a3,136c <.L1062+0xc>
    1368:	5600906f          	j	a8c8 <.L1073>
    136c:	00815c03          	lhu	s8,8(sp)
    1370:	003c0c13          	addi	s8,s8,3
    1374:	010c1c13          	slli	s8,s8,0x10
    1378:	410c5c13          	srai	s8,s8,0x10

0000137c <.L1092>:
    137c:	01811423          	sh	s8,8(sp)
    1380:	30000c13          	li	s8,768
    1384:	4bec44e3          	blt	s8,t5,202c <.L1095>

00001388 <.L1085>:
    1388:	ff800c13          	li	s8,-8
    138c:	01864463          	blt	a2,s8,1394 <.L1085+0xc>
    1390:	7740706f          	j	8b04 <.L1096>
    1394:	1dc00c13          	li	s8,476
    1398:	016c4863          	blt	s8,s6,13a8 <.L1097>
    139c:	00a15c03          	lhu	s8,10(sp)
    13a0:	ff9c0c13          	addi	s8,s8,-7
    13a4:	01811523          	sh	s8,10(sp)

000013a8 <.L1097>:
    13a8:	04900c13          	li	s8,73
    13ac:	011c5463          	bge	s8,a7,13b4 <.L1097+0xc>
    13b0:	0240406f          	j	53d4 <.L1105>
    13b4:	02000c13          	li	s8,32
    13b8:	01dc5463          	bge	s8,t4,13c0 <.L1097+0x18>
    13bc:	2e50606f          	j	7ea0 <.L1103>
    13c0:	16300c13          	li	s8,355
    13c4:	4bec42e3          	blt	s8,t5,2068 <.L1102>
    13c8:	00c15c03          	lhu	s8,12(sp)
    13cc:	fffc0c13          	addi	s8,s8,-1
    13d0:	01811623          	sh	s8,12(sp)

000013d4 <.L1108>:
    13d4:	e4a00c13          	li	s8,-438
    13d8:	4b82d2e3          	bge	t0,s8,207c <.L1112>

000013dc <.L2798>:
    13dc:	03d00c13          	li	s8,61
    13e0:	00fc4463          	blt	s8,a5,13e8 <.L2798+0xc>
    13e4:	0440606f          	j	7428 <.L1113>
    13e8:	01100c13          	li	s8,17
    13ec:	011c5463          	bge	s8,a7,13f4 <.L2798+0x18>
    13f0:	0200406f          	j	5410 <.L1114>
    13f4:	00e15c03          	lhu	s8,14(sp)
    13f8:	01500c93          	li	s9,21
    13fc:	008c0c13          	addi	s8,s8,8
    1400:	01811723          	sh	s8,14(sp)
    1404:	4a7cd2e3          	bge	s9,t2,20a8 <.L1118>

00001408 <.L2602>:
    1408:	0fd00c13          	li	s8,253
    140c:	007c4463          	blt	s8,t2,1414 <.L1120>
    1410:	18c0406f          	j	559c <.L1119>

00001414 <.L1120>:
    1414:	e4300c13          	li	s8,-445
    1418:	01844463          	blt	s0,s8,1420 <.L1120+0xc>
    141c:	5180806f          	j	9934 <.L1131>
    1420:	00815c03          	lhu	s8,8(sp)
    1424:	ff7c0c13          	addi	s8,s8,-9
    1428:	010c1c13          	slli	s8,s8,0x10
    142c:	410c5c13          	srai	s8,s8,0x10

00001430 <.L1127>:
    1430:	01811423          	sh	s8,8(sp)
    1434:	03300c13          	li	s8,51
    1438:	4bfc42e3          	blt	s8,t6,20dc <.L1129>

0000143c <.L2799>:
    143c:	fe200c13          	li	s8,-30
    1440:	01864463          	blt	a2,s8,1448 <.L2799+0xc>
    1444:	64c0606f          	j	7a90 <.L1128>
    1448:	e3d00c13          	li	s8,-451
    144c:	01844463          	blt	s0,s8,1454 <.L2799+0x18>
    1450:	5080806f          	j	9958 <.L1132>
    1454:	00a15c03          	lhu	s8,10(sp)
    1458:	ffac0c13          	addi	s8,s8,-6
    145c:	010c1c13          	slli	s8,s8,0x10
    1460:	410c5c13          	srai	s8,s8,0x10

00001464 <.L1133>:
    1464:	01811523          	sh	s8,10(sp)
    1468:	00100c13          	li	s8,1
    146c:	4bcc52e3          	bge	s8,t3,2110 <.L2767>

00001470 <.L1138>:
    1470:	01500c13          	li	s8,21
    1474:	01dc5463          	bge	s8,t4,147c <.L1138+0xc>
    1478:	2910406f          	j	5f08 <.L1142>
    147c:	20f00c13          	li	s8,527
    1480:	016c4463          	blt	s8,s6,1488 <.L1138+0x18>
    1484:	2f90406f          	j	5f7c <.L1144>
    1488:	00c15c03          	lhu	s8,12(sp)
    148c:	00ac0c13          	addi	s8,s8,10
    1490:	010c1c13          	slli	s8,s8,0x10
    1494:	410c5c13          	srai	s8,s8,0x10

00001498 <.L1140>:
    1498:	01811623          	sh	s8,12(sp)
    149c:	03e00c13          	li	s8,62
    14a0:	48fc4ce3          	blt	s8,a5,2138 <.L1145>

000014a4 <.L2800>:
    14a4:	03800c13          	li	s8,56
    14a8:	01fc5463          	bge	s8,t6,14b0 <.L2800+0xc>
    14ac:	2e90606f          	j	7f94 <.L1146>
    14b0:	f5400c13          	li	s8,-172
    14b4:	01844463          	blt	s0,s8,14bc <.L2800+0x18>
    14b8:	62c0806f          	j	9ae4 <.L1147>
    14bc:	00e15c03          	lhu	s8,14(sp)
    14c0:	005c0c13          	addi	s8,s8,5
    14c4:	010c1c13          	slli	s8,s8,0x10
    14c8:	410c5c13          	srai	s8,s8,0x10

000014cc <.L1148>:
    14cc:	01811723          	sh	s8,14(sp)
    14d0:	01f00c13          	li	s8,31
    14d4:	013c5463          	bge	s8,s3,14dc <.L1148+0x10>
    14d8:	3bc0306f          	j	4894 <.L1152>
    14dc:	03b00c13          	li	s8,59
    14e0:	00fc5463          	bge	s8,a5,14e8 <.L1148+0x1c>
    14e4:	6b00706f          	j	8b94 <.L1153>
    14e8:	1ed00c13          	li	s8,493
    14ec:	009c5463          	bge	s8,s1,14f4 <.L1148+0x28>
    14f0:	0950506f          	j	6d84 <.L1154>
    14f4:	00815c03          	lhu	s8,8(sp)
    14f8:	1b900c93          	li	s9,441
    14fc:	ffec0c13          	addi	s8,s8,-2
    1500:	01811423          	sh	s8,8(sp)
    1504:	01ecc463          	blt	s9,t5,150c <.L1155>
    1508:	0950506f          	j	6d9c <.L1158>

0000150c <.L1155>:
    150c:	03200c13          	li	s8,50
    1510:	01dc5463          	bge	s8,t4,1518 <.L1155+0xc>
    1514:	7650706f          	j	9478 <.L1176>
    1518:	ff200c13          	li	s8,-14
    151c:	01864463          	blt	a2,s8,1524 <.L1155+0x18>
    1520:	7040a06f          	j	bc24 <.L1177>
    1524:	00a15c03          	lhu	s8,10(sp)
    1528:	ff7c0c13          	addi	s8,s8,-9
    152c:	01811523          	sh	s8,10(sp)

00001530 <.L1174>:
    1530:	00f00c13          	li	s8,15
    1534:	010c5463          	bge	s8,a6,153c <.L1188>
    1538:	56c0206f          	j	3aa4 <.L1196>

0000153c <.L1188>:
    153c:	f6300c13          	li	s8,-157
    1540:	0185c463          	blt	a1,s8,1548 <.L1188+0xc>
    1544:	7d10606f          	j	8514 <.L2768>
    1548:	00c15c03          	lhu	s8,12(sp)
    154c:	ffcc0c13          	addi	s8,s8,-4
    1550:	010c1c13          	slli	s8,s8,0x10
    1554:	410c5c13          	srai	s8,s8,0x10
    1558:	01811623          	sh	s8,12(sp)
    155c:	0d800c13          	li	s8,216
    1560:	492c50e3          	bge	s8,s2,21e0 <.L2769>

00001564 <.L1195>:
    1564:	38f00c13          	li	s8,911
    1568:	006c5463          	bge	s8,t1,1570 <.L1195+0xc>
    156c:	5440606f          	j	7ab0 <.L1202>
    1570:	1ca00c13          	li	s8,458
    1574:	01ec5463          	bge	s8,t5,157c <.L1195+0x18>
    1578:	4410206f          	j	41b8 <.L1203>
    157c:	00e15c03          	lhu	s8,14(sp)
    1580:	00400c93          	li	s9,4
    1584:	007c0c13          	addi	s8,s8,7
    1588:	01811723          	sh	s8,14(sp)
    158c:	011cc463          	blt	s9,a7,1594 <.L1195+0x30>
    1590:	1a10306f          	j	4f30 <.L1208>
    1594:	00e00c13          	li	s8,14
    1598:	01dc4463          	blt	s8,t4,15a0 <.L1195+0x3c>
    159c:	43d0206f          	j	41d8 <.L1217>
    15a0:	0ac00c13          	li	s8,172
    15a4:	01ec4463          	blt	s8,t5,15ac <.L1195+0x48>
    15a8:	5380606f          	j	7ae0 <.L1218>
    15ac:	03500c13          	li	s8,53
    15b0:	00ec5463          	bge	s8,a4,15b8 <.L1214>
    15b4:	5440606f          	j	7af8 <.L2608>

000015b8 <.L1214>:
    15b8:	01900c13          	li	s8,25
    15bc:	00dc5463          	bge	s8,a3,15c4 <.L1214+0xc>
    15c0:	64c0606f          	j	7c0c <.L1224>
    15c4:	00c00c13          	li	s8,12
    15c8:	49cc48e3          	blt	s8,t3,2258 <.L2694>
    15cc:	00a15c03          	lhu	s8,10(sp)
    15d0:	0c100c93          	li	s9,193
    15d4:	001c0c13          	addi	s8,s8,1
    15d8:	01811523          	sh	s8,10(sp)
    15dc:	489cc8e3          	blt	s9,s1,226c <.L2609>

000015e0 <.L1227>:
    15e0:	fae00c13          	li	s8,-82
    15e4:	0185c463          	blt	a1,s8,15ec <.L1227+0xc>
    15e8:	0fd0606f          	j	7ee4 <.L1237>
    15ec:	ea900c13          	li	s8,-343
    15f0:	018a4463          	blt	s4,s8,15f8 <.L1227+0x18>
    15f4:	56c0906f          	j	ab60 <.L1238>
    15f8:	00c15c03          	lhu	s8,12(sp)
    15fc:	002c0c13          	addi	s8,s8,2
    1600:	010c1c13          	slli	s8,s8,0x10
    1604:	410c5c13          	srai	s8,s8,0x10
    1608:	01811623          	sh	s8,12(sp)
    160c:	03600c13          	li	s8,54
    1610:	48fc52e3          	bge	s8,a5,2294 <.L2770>

00001614 <.L1243>:
    1614:	e4a00c13          	li	s8,-438
    1618:	0182c463          	blt	t0,s8,1620 <.L1243+0xc>
    161c:	3d90506f          	j	71f4 <.L1256>
    1620:	03d00c13          	li	s8,61
    1624:	00fc5463          	bge	s8,a5,162c <.L1243+0x18>
    1628:	49d0706f          	j	92c4 <.L1257>
    162c:	00e15c03          	lhu	s8,14(sp)
    1630:	ff8c0c13          	addi	s8,s8,-8
    1634:	010c1c13          	slli	s8,s8,0x10
    1638:	410c5c13          	srai	s8,s8,0x10

0000163c <.L1258>:
    163c:	01811723          	sh	s8,14(sp)
    1640:	01500c13          	li	s8,21
    1644:	007c4463          	blt	s8,t2,164c <.L1258+0x10>
    1648:	7dd0206f          	j	4624 <.L1253>
    164c:	11d00c13          	li	s8,285
    1650:	007c5463          	bge	s8,t2,1658 <.L1258+0x1c>
    1654:	4950706f          	j	92e8 <.L1255>
    1658:	03b00c13          	li	s8,59
    165c:	00fc4463          	blt	s8,a5,1664 <.L1259>
    1660:	4e00706f          	j	8b40 <.L1254>

00001664 <.L1259>:
    1664:	00815c03          	lhu	s8,8(sp)
    1668:	08c00c93          	li	s9,140
    166c:	001c0c13          	addi	s8,s8,1
    1670:	01811423          	sh	s8,8(sp)
    1674:	466cd4e3          	bge	s9,t1,22dc <.L1249>
    1678:	00c00c13          	li	s8,12
    167c:	01cc5463          	bge	s8,t3,1684 <.L1259+0x20>
    1680:	7dd0206f          	j	465c <.L1274>
    1684:	01700c13          	li	s8,23
    1688:	49dc50e3          	bge	s8,t4,2308 <.L1278>

0000168c <.L1267>:
    168c:	00a15c03          	lhu	s8,10(sp)
    1690:	03300c93          	li	s9,51
    1694:	007c0c13          	addi	s8,s8,7
    1698:	01811523          	sh	s8,10(sp)
    169c:	00fcc463          	blt	s9,a5,16a4 <.L1267+0x18>
    16a0:	7e90206f          	j	4688 <.L2735>
    16a4:	04700c13          	li	s8,71
    16a8:	007c5463          	bge	s8,t2,16b0 <.L1265>
    16ac:	6d40406f          	j	5d80 <.L1294>

000016b0 <.L1265>:
    16b0:	2bd00c13          	li	s8,701
    16b4:	009c5463          	bge	s8,s1,16bc <.L1265+0xc>
    16b8:	5550806f          	j	a40c <.L2771>
    16bc:	00c15c03          	lhu	s8,12(sp)
    16c0:	03c00c93          	li	s9,60
    16c4:	ff7c0c13          	addi	s8,s8,-9
    16c8:	01811623          	sh	s8,12(sp)
    16cc:	00fcc463          	blt	s9,a5,16d4 <.L2613>
    16d0:	7dd0206f          	j	46ac <.L1291>

000016d4 <.L2613>:
    16d4:	0d400c13          	li	s8,212
    16d8:	00ec5463          	bge	s8,a4,16e0 <.L1309>
    16dc:	7900706f          	j	8e6c <.L1306>

000016e0 <.L1309>:
    16e0:	00e15c03          	lhu	s8,14(sp)
    16e4:	ffe00c93          	li	s9,-2
    16e8:	008c0c13          	addi	s8,s8,8
    16ec:	01811723          	sh	s8,14(sp)
    16f0:	45985ee3          	bge	a6,s9,234c <.L1320>

000016f4 <.L1299>:
    16f4:	0ce00c13          	li	s8,206
    16f8:	00dc5463          	bge	s8,a3,1700 <.L1299+0xc>
    16fc:	7980206f          	j	3e94 <.L2772>
    1700:	01c51c83          	lh	s9,28(a0)
    1704:	03500c13          	li	s8,53
    1708:	019c4463          	blt	s8,s9,1710 <.L1299+0x1c>
    170c:	0690906f          	j	af74 <.L1321>
    1710:	03400c13          	li	s8,52
    1714:	01dc4463          	blt	s8,t4,171c <.L1322>
    1718:	79c0206f          	j	3eb4 <.L1328>

0000171c <.L1322>:
    171c:	1db00c13          	li	s8,475
    1720:	016c5463          	bge	s8,s6,1728 <.L1329>
    1724:	6d80606f          	j	7dfc <.L1325>

00001728 <.L1329>:
    1728:	00a15c03          	lhu	s8,10(sp)
    172c:	02a00c93          	li	s9,42
    1730:	005c0c13          	addi	s8,s8,5
    1734:	01811523          	sh	s8,10(sp)
    1738:	46dcd4e3          	bge	s9,a3,23a0 <.L1326>

0000173c <.L1327>:
    173c:	02700c13          	li	s8,39
    1740:	00ec5463          	bge	s8,a4,1748 <.L1327+0xc>
    1744:	66d0306f          	j	55b0 <.L2773>
    1748:	00900c13          	li	s8,9
    174c:	012c5463          	bge	s8,s2,1754 <.L1327+0x18>
    1750:	5ed0906f          	j	b53c <.L2774>
    1754:	00c15c03          	lhu	s8,12(sp)
    1758:	001c0c13          	addi	s8,s8,1
    175c:	01811623          	sh	s8,12(sp)
    1760:	4590006f          	j	23b8 <.L1359>

00001764 <.L2757>:
    1764:	18f00c13          	li	s8,399
    1768:	00dc5463          	bge	s8,a3,1770 <.L2757+0xc>
    176c:	0680406f          	j	57d4 <.L550>
    1770:	1aa00c13          	li	s8,426
    1774:	016c5463          	bge	s8,s6,177c <.L2757+0x18>
    1778:	5f50906f          	j	b56c <.L551>
    177c:	00815c03          	lhu	s8,8(sp)
    1780:	007c0c13          	addi	s8,s8,7
    1784:	010c1c13          	slli	s8,s8,0x10
    1788:	410c5c13          	srai	s8,s8,0x10
    178c:	c24ff06f          	j	bb0 <.L552>

00001790 <.L517>:
    1790:	00a15c03          	lhu	s8,10(sp)
    1794:	17000c93          	li	s9,368
    1798:	009c0c13          	addi	s8,s8,9
    179c:	01811523          	sh	s8,10(sp)
    17a0:	00dcd463          	bge	s9,a3,17a8 <.L2576>
    17a4:	5690206f          	j	450c <.L533>

000017a8 <.L2576>:
    17a8:	02200c13          	li	s8,34
    17ac:	01dc4463          	blt	s8,t4,17b4 <.L531>
    17b0:	2bd0706f          	j	926c <.L530>

000017b4 <.L531>:
    17b4:	00c15c03          	lhu	s8,12(sp)
    17b8:	ff6c0c13          	addi	s8,s8,-10
    17bc:	010c1c13          	slli	s8,s8,0x10
    17c0:	410c5c13          	srai	s8,s8,0x10
    17c4:	01811623          	sh	s8,12(sp)
    17c8:	e9900c13          	li	s8,-359
    17cc:	b985ce63          	blt	a1,s8,b68 <.L2775>

000017d0 <.L541>:
    17d0:	ee600c13          	li	s8,-282
    17d4:	018ac463          	blt	s5,s8,17dc <.L541+0xc>
    17d8:	4280506f          	j	6c00 <.L545>
    17dc:	ffc00c13          	li	s8,-4
    17e0:	01834463          	blt	t1,s8,17e8 <.L541+0x18>
    17e4:	2040406f          	j	59e8 <.L544>
    17e8:	00e15c03          	lhu	s8,14(sp)
    17ec:	002c0c13          	addi	s8,s8,2
    17f0:	01811723          	sh	s8,14(sp)
    17f4:	b8085c63          	bgez	a6,b8c <.L546>
    17f8:	18f00c13          	li	s8,399
    17fc:	00dc4463          	blt	s8,a3,1804 <.L547>
    1800:	6600a06f          	j	be60 <.L2776>

00001804 <.L547>:
    1804:	00815c03          	lhu	s8,8(sp)
    1808:	007c0c13          	addi	s8,s8,7
    180c:	01811423          	sh	s8,8(sp)

00001810 <.L549>:
    1810:	00400c13          	li	s8,4
    1814:	01cc5463          	bge	s8,t3,181c <.L549+0xc>
    1818:	26d0406f          	j	6284 <.L561>
    181c:	12e00c13          	li	s8,302
    1820:	00ec5463          	bge	s8,a4,1828 <.L549+0x18>
    1824:	4800806f          	j	9ca4 <.L562>
    1828:	00a15c03          	lhu	s8,10(sp)
    182c:	17000c93          	li	s9,368
    1830:	ffec0c13          	addi	s8,s8,-2
    1834:	01811523          	sh	s8,10(sp)
    1838:	badcd863          	bge	s9,a3,be8 <.L563>

0000183c <.L564>:
    183c:	ea700c13          	li	s8,-345
    1840:	018ad463          	bge	s5,s8,1848 <.L564+0xc>
    1844:	4e40706f          	j	8d28 <.L571>
    1848:	00c15c03          	lhu	s8,12(sp)
    184c:	e0800c93          	li	s9,-504
    1850:	ffdc0c13          	addi	s8,s8,-3
    1854:	01811623          	sh	s8,12(sp)
    1858:	01945463          	bge	s0,s9,1860 <.L2375>
    185c:	7ed0306f          	j	5848 <.L584>

00001860 <.L2375>:
    1860:	0de00c13          	li	s8,222
    1864:	012c5463          	bge	s8,s2,186c <.L585>
    1868:	5e50606f          	j	864c <.L586>

0000186c <.L585>:
    186c:	00e15c03          	lhu	s8,14(sp)
    1870:	ff8c0c13          	addi	s8,s8,-8
    1874:	01811723          	sh	s8,14(sp)
    1878:	0a900c13          	li	s8,169
    187c:	bdec4063          	blt	s8,t5,c3c <.L610>

00001880 <.L600>:
    1880:	01a00c13          	li	s8,26
    1884:	010c5463          	bge	s8,a6,188c <.L600+0xc>
    1888:	0a90506f          	j	7130 <.L611>
    188c:	11800c13          	li	s8,280
    1890:	bd2c4863          	blt	s8,s2,c60 <.L614>
    1894:	00815c03          	lhu	s8,8(sp)
    1898:	009c0c13          	addi	s8,s8,9
    189c:	01811423          	sh	s8,8(sp)
    18a0:	03900c13          	li	s8,57
    18a4:	bcec5263          	bge	s8,a4,c68 <.L2777>

000018a8 <.L618>:
    18a8:	ff900c13          	li	s8,-7
    18ac:	01864463          	blt	a2,s8,18b4 <.L618+0xc>
    18b0:	6790406f          	j	6728 <.L627>
    18b4:	1d700c13          	li	s8,471
    18b8:	016c5463          	bge	s8,s6,18c0 <.L618+0x18>
    18bc:	52c0906f          	j	ade8 <.L628>
    18c0:	00a15c03          	lhu	s8,10(sp)
    18c4:	ff9c0c13          	addi	s8,s8,-7
    18c8:	010c1c13          	slli	s8,s8,0x10
    18cc:	410c5c13          	srai	s8,s8,0x10

000018d0 <.L629>:
    18d0:	01811523          	sh	s8,10(sp)
    18d4:	08900c13          	li	s8,137
    18d8:	00dc5463          	bge	s8,a3,18e0 <.L2909>
    18dc:	6790406f          	j	6754 <.L633>

000018e0 <.L2909>:
    18e0:	03700c13          	li	s8,55
    18e4:	00fc5463          	bge	s8,a5,18ec <.L2909+0xc>
    18e8:	5a90406f          	j	6690 <.L634>
    18ec:	00900c13          	li	s8,9
    18f0:	bb1c5a63          	bge	s8,a7,ca4 <.L2274>

000018f4 <.L635>:
    18f4:	00c15c03          	lhu	s8,12(sp)
    18f8:	002c0c13          	addi	s8,s8,2
    18fc:	01811623          	sh	s8,12(sp)
    1900:	03000c13          	li	s8,48
    1904:	bbfc5a63          	bge	s8,t6,cb8 <.L2778>

00001908 <.L646>:
    1908:	faf00c13          	li	s8,-81
    190c:	018a4463          	blt	s4,s8,1914 <.L646+0xc>
    1910:	64d0806f          	j	a75c <.L654>
    1914:	00e15c03          	lhu	s8,14(sp)
    1918:	0a900c93          	li	s9,169
    191c:	ff6c0c13          	addi	s8,s8,-10
    1920:	01811723          	sh	s8,14(sp)
    1924:	bbecc863          	blt	s9,t5,cd4 <.L2584>

00001928 <.L648>:
    1928:	01a00c13          	li	s8,26
    192c:	010c5463          	bge	s8,a6,1934 <.L648+0xc>
    1930:	7d90506f          	j	7908 <.L651>
    1934:	11800c13          	li	s8,280
    1938:	bb2c4a63          	blt	s8,s2,cec <.L649>
    193c:	00815c03          	lhu	s8,8(sp)
    1940:	008c0c13          	addi	s8,s8,8
    1944:	01811423          	sh	s8,8(sp)
    1948:	0b500c13          	li	s8,181
    194c:	ba6c5463          	bge	s8,t1,cf4 <.L2779>

00001950 <.L659>:
    1950:	00400c13          	li	s8,4
    1954:	01cc5463          	bge	s8,t3,195c <.L659+0xc>
    1958:	0350406f          	j	618c <.L664>
    195c:	0bb00c13          	li	s8,187
    1960:	016c5463          	bge	s8,s6,1968 <.L659+0x18>
    1964:	5b10706f          	j	9714 <.L665>
    1968:	00a15c03          	lhu	s8,10(sp)
    196c:	ff7c0c13          	addi	s8,s8,-9
    1970:	010c1c13          	slli	s8,s8,0x10
    1974:	410c5c13          	srai	s8,s8,0x10
    1978:	01811523          	sh	s8,10(sp)
    197c:	27a00c13          	li	s8,634
    1980:	badc5463          	bge	s8,a3,d28 <.L2780>

00001984 <.L667>:
    1984:	ed100c13          	li	s8,-303
    1988:	018ac463          	blt	s5,s8,1990 <.L667+0xc>
    198c:	0480506f          	j	69d4 <.L672>
    1990:	3fa00c13          	li	s8,1018
    1994:	baec4c63          	blt	s8,a4,d4c <.L670>
    1998:	00c15c03          	lhu	s8,12(sp)
    199c:	00ac0c13          	addi	s8,s8,10
    19a0:	01811623          	sh	s8,12(sp)
    19a4:	d8200c13          	li	s8,-638
    19a8:	bb85c663          	blt	a1,s8,d54 <.L2781>

000019ac <.L673>:
    19ac:	0de00c13          	li	s8,222
    19b0:	012c5463          	bge	s8,s2,19b8 <.L673+0xc>
    19b4:	5840406f          	j	5f38 <.L678>
    19b8:	03e00c13          	li	s8,62
    19bc:	00fc5463          	bge	s8,a5,19c4 <.L673+0x18>
    19c0:	2c00806f          	j	9c80 <.L679>
    19c4:	00e15c03          	lhu	s8,14(sp)
    19c8:	ffbc0c13          	addi	s8,s8,-5
    19cc:	010c1c13          	slli	s8,s8,0x10
    19d0:	410c5c13          	srai	s8,s8,0x10
    19d4:	01811723          	sh	s8,14(sp)
    19d8:	ba085663          	bgez	a6,d84 <.L682>

000019dc <.L2269>:
    19dc:	0cd00c13          	li	s8,205
    19e0:	00dc5463          	bge	s8,a3,19e8 <.L2269+0xc>
    19e4:	6440706f          	j	9028 <.L683>
    19e8:	1aa00c13          	li	s8,426
    19ec:	016c5463          	bge	s8,s6,19f4 <.L2269+0x18>
    19f0:	1ed0906f          	j	b3dc <.L684>
    19f4:	00815c03          	lhu	s8,8(sp)
    19f8:	07200c93          	li	s9,114
    19fc:	006c0c13          	addi	s8,s8,6
    1a00:	01811423          	sh	s8,8(sp)
    1a04:	baecdc63          	bge	s9,a4,dbc <.L685>

00001a08 <.L690>:
    1a08:	03300c13          	li	s8,51
    1a0c:	01fc5463          	bge	s8,t6,1a14 <.L690+0xc>
    1a10:	3600806f          	j	9d70 <.L2782>
    1a14:	00a15c03          	lhu	s8,10(sp)
    1a18:	ffac0c13          	addi	s8,s8,-6
    1a1c:	010c1c13          	slli	s8,s8,0x10
    1a20:	410c5c13          	srai	s8,s8,0x10

00001a24 <.L701>:
    1a24:	01811523          	sh	s8,10(sp)
    1a28:	ffa00c13          	li	s8,-6
    1a2c:	bb865e63          	bge	a2,s8,de8 <.L703>

00001a30 <.L2268>:
    1a30:	01000c13          	li	s8,16
    1a34:	01dc5463          	bge	s8,t4,1a3c <.L2929>
    1a38:	42c0606f          	j	7e64 <.L704>

00001a3c <.L2929>:
    1a3c:	00c00c13          	li	s8,12
    1a40:	011c5463          	bge	s8,a7,1a48 <.L2929+0xc>
    1a44:	7510706f          	j	9994 <.L705>
    1a48:	00c15c03          	lhu	s8,12(sp)
    1a4c:	001c0c13          	addi	s8,s8,1
    1a50:	010c1c13          	slli	s8,s8,0x10
    1a54:	410c5c13          	srai	s8,s8,0x10
    1a58:	01811623          	sh	s8,12(sp)
    1a5c:	03900c13          	li	s8,57
    1a60:	bcfc5063          	bge	s8,a5,e20 <.L2783>

00001a64 <.L710>:
    1a64:	e4a00c13          	li	s8,-438
    1a68:	0182c463          	blt	t0,s8,1a70 <.L710+0xc>
    1a6c:	1780506f          	j	6be4 <.L723>
    1a70:	03d00c13          	li	s8,61
    1a74:	00fc5463          	bge	s8,a5,1a7c <.L710+0x18>
    1a78:	1b40806f          	j	9c2c <.L724>
    1a7c:	00e15c03          	lhu	s8,14(sp)
    1a80:	ff8c0c13          	addi	s8,s8,-8
    1a84:	01811723          	sh	s8,14(sp)

00001a88 <.L722>:
    1a88:	0a900c13          	li	s8,169
    1a8c:	01ec5463          	bge	s8,t5,1a94 <.L722+0xc>
    1a90:	6790306f          	j	5908 <.L725>
    1a94:	01a00c13          	li	s8,26
    1a98:	010c5463          	bge	s8,a6,1aa0 <.L722+0x18>
    1a9c:	08d0706f          	j	9328 <.L726>
    1aa0:	11800c13          	li	s8,280
    1aa4:	012c4863          	blt	s8,s2,1ab4 <.L718>
    1aa8:	00815c03          	lhu	s8,8(sp)
    1aac:	008c0c13          	addi	s8,s8,8
    1ab0:	01811423          	sh	s8,8(sp)

00001ab4 <.L718>:
    1ab4:	0f000c13          	li	s8,240
    1ab8:	ba6c5863          	bge	s8,t1,e68 <.L715>
    1abc:	d6c00c13          	li	s8,-660
    1ac0:	018ac463          	blt	s5,s8,1ac8 <.L718+0x14>
    1ac4:	5010506f          	j	77c4 <.L747>
    1ac8:	ff400c13          	li	s8,-12
    1acc:	01864463          	blt	a2,s8,1ad4 <.L718+0x20>
    1ad0:	67c0506f          	j	714c <.L748>
    1ad4:	00a15c03          	lhu	s8,10(sp)
    1ad8:	0dd00c93          	li	s9,221
    1adc:	ff7c0c13          	addi	s8,s8,-9
    1ae0:	01811523          	sh	s8,10(sp)
    1ae4:	00dcc463          	blt	s9,a3,1aec <.L718+0x38>
    1ae8:	6c40306f          	j	51ac <.L749>
    1aec:	25b00c13          	li	s8,603
    1af0:	00ec5463          	bge	s8,a4,1af8 <.L750>
    1af4:	3c40306f          	j	4eb8 <.L772>

00001af8 <.L750>:
    1af8:	03d00c13          	li	s8,61
    1afc:	00fc4463          	blt	s8,a5,1b04 <.L750+0xc>
    1b00:	5c80806f          	j	a0c8 <.L753>
    1b04:	00c15c03          	lhu	s8,12(sp)
    1b08:	03e00c93          	li	s9,62
    1b0c:	ffcc0c13          	addi	s8,s8,-4
    1b10:	01811623          	sh	s8,12(sp)
    1b14:	01978463          	beq	a5,s9,1b1c <.L754>
    1b18:	3b80306f          	j	4ed0 <.L752>

00001b1c <.L754>:
    1b1c:	03800c13          	li	s8,56
    1b20:	00ec4463          	blt	s8,a4,1b28 <.L751>
    1b24:	2dc0306f          	j	4e00 <.L769>

00001b28 <.L751>:
    1b28:	c3900c13          	li	s8,-967
    1b2c:	0185c463          	blt	a1,s8,1b34 <.L751+0xc>
    1b30:	4680706f          	j	8f98 <.L767>
    1b34:	00e15c03          	lhu	s8,14(sp)
    1b38:	008c0c13          	addi	s8,s8,8
    1b3c:	010c1c13          	slli	s8,s8,0x10
    1b40:	410c5c13          	srai	s8,s8,0x10

00001b44 <.L779>:
    1b44:	01811723          	sh	s8,14(sp)
    1b48:	ffe00c13          	li	s8,-2
    1b4c:	01885463          	bge	a6,s8,1b54 <.L786>
    1b50:	2d00306f          	j	4e20 <.L783>

00001b54 <.L786>:
    1b54:	0ba00c13          	li	s8,186
    1b58:	012c5463          	bge	s8,s2,1b60 <.L786+0xc>
    1b5c:	3a00306f          	j	4efc <.L777>
    1b60:	03800c13          	li	s8,56
    1b64:	b8fc4a63          	blt	s8,a5,ef8 <.L784>

00001b68 <.L792>:
    1b68:	00815c03          	lhu	s8,8(sp)
    1b6c:	ffdc0c13          	addi	s8,s8,-3
    1b70:	010c1c13          	slli	s8,s8,0x10
    1b74:	410c5c13          	srai	s8,s8,0x10
    1b78:	01811423          	sh	s8,8(sp)
    1b7c:	03300c13          	li	s8,51
    1b80:	b9fc4a63          	blt	s8,t6,f14 <.L794>

00001b84 <.L788>:
    1b84:	fe200c13          	li	s8,-30
    1b88:	01864463          	blt	a2,s8,1b90 <.L788+0xc>
    1b8c:	62c0506f          	j	71b8 <.L795>
    1b90:	e3d00c13          	li	s8,-451
    1b94:	01844463          	blt	s0,s8,1b9c <.L788+0x18>
    1b98:	50c0806f          	j	a0a4 <.L796>
    1b9c:	00a15c03          	lhu	s8,10(sp)
    1ba0:	ff8c0c13          	addi	s8,s8,-8
    1ba4:	010c1c13          	slli	s8,s8,0x10
    1ba8:	010c5c13          	srli	s8,s8,0x10
    1bac:	01811523          	sh	s8,10(sp)

00001bb0 <.L797>:
    1bb0:	01000c13          	li	s8,16
    1bb4:	01dc5463          	bge	s8,t4,1bbc <.L797+0xc>
    1bb8:	5910606f          	j	8948 <.L808>
    1bbc:	00100c13          	li	s8,1
    1bc0:	01cc4463          	blt	s8,t3,1bc8 <.L797+0x18>
    1bc4:	7bc0906f          	j	b380 <.L2784>
    1bc8:	00c15c03          	lhu	s8,12(sp)
    1bcc:	009c0c13          	addi	s8,s8,9
    1bd0:	010c1c13          	slli	s8,s8,0x10
    1bd4:	410c5c13          	srai	s8,s8,0x10

00001bd8 <.L810>:
    1bd8:	01811623          	sh	s8,12(sp)
    1bdc:	03e00c13          	li	s8,62
    1be0:	00fc4463          	blt	s8,a5,1be8 <.L810+0x10>
    1be4:	5a00306f          	j	5184 <.L816>
    1be8:	fec00c13          	li	s8,-20
    1bec:	b7865663          	bge	a2,s8,f58 <.L817>
    1bf0:	00e15c03          	lhu	s8,14(sp)
    1bf4:	ffec0c13          	addi	s8,s8,-2
    1bf8:	010c1c13          	slli	s8,s8,0x10
    1bfc:	410c5c13          	srai	s8,s8,0x10
    1c00:	01811723          	sh	s8,14(sp)
    1c04:	01f00c13          	li	s8,31
    1c08:	b73c5663          	bge	s8,s3,f74 <.L2785>

00001c0c <.L822>:
    1c0c:	00500c13          	li	s8,5
    1c10:	b91c5263          	bge	s8,a7,f94 <.L825>
    1c14:	00815c03          	lhu	s8,8(sp)
    1c18:	ff7c0c13          	addi	s8,s8,-9
    1c1c:	01811423          	sh	s8,8(sp)
    1c20:	1ac00c13          	li	s8,428
    1c24:	b76c5c63          	bge	s8,s6,f9c <.L2786>

00001c28 <.L826>:
    1c28:	0a500c13          	li	s8,165
    1c2c:	00ec5463          	bge	s8,a4,1c34 <.L826+0xc>
    1c30:	5980406f          	j	61c8 <.L834>
    1c34:	1ff00c13          	li	s8,511
    1c38:	009c5463          	bge	s8,s1,1c40 <.L826+0x18>
    1c3c:	2650806f          	j	a6a0 <.L835>
    1c40:	00a15c03          	lhu	s8,10(sp)
    1c44:	006c0c13          	addi	s8,s8,6
    1c48:	010c1c13          	slli	s8,s8,0x10
    1c4c:	410c5c13          	srai	s8,s8,0x10
    1c50:	01811523          	sh	s8,10(sp)
    1c54:	27a00c13          	li	s8,634
    1c58:	b6dc5c63          	bge	s8,a3,fd0 <.L2787>

00001c5c <.L837>:
    1c5c:	ff700c13          	li	s8,-9
    1c60:	01864463          	blt	a2,s8,1c68 <.L837+0xc>
    1c64:	5390306f          	j	599c <.L831>
    1c68:	0e600c13          	li	s8,230
    1c6c:	009c5463          	bge	s8,s1,1c74 <.L837+0x18>
    1c70:	3a50806f          	j	a814 <.L843>
    1c74:	00c15c03          	lhu	s8,12(sp)
    1c78:	d2a00c93          	li	s9,-726
    1c7c:	ffcc0c13          	addi	s8,s8,-4
    1c80:	01811623          	sh	s8,12(sp)
    1c84:	0195d463          	bge	a1,s9,1c8c <.L2593>
    1c88:	0680506f          	j	6cf0 <.L844>

00001c8c <.L2593>:
    1c8c:	eea00c13          	li	s8,-278
    1c90:	018a4463          	blt	s4,s8,1c98 <.L852>
    1c94:	0780506f          	j	6d0c <.L845>

00001c98 <.L852>:
    1c98:	00e15c03          	lhu	s8,14(sp)
    1c9c:	ff8c0c13          	addi	s8,s8,-8
    1ca0:	01811723          	sh	s8,14(sp)
    1ca4:	0a900c13          	li	s8,169
    1ca8:	b7ec4863          	blt	s8,t5,1018 <.L2788>

00001cac <.L860>:
    1cac:	fff00c13          	li	s8,-1
    1cb0:	018e5463          	bge	t3,s8,1cb8 <.L860+0xc>
    1cb4:	76c0406f          	j	6420 <.L2789>
    1cb8:	09e00c13          	li	s8,158
    1cbc:	b92c4063          	blt	s8,s2,103c <.L859>
    1cc0:	00815c03          	lhu	s8,8(sp)
    1cc4:	008c0c13          	addi	s8,s8,8
    1cc8:	01811423          	sh	s8,8(sp)
    1ccc:	0b500c13          	li	s8,181
    1cd0:	b66c5a63          	bge	s8,t1,1044 <.L2790>

00001cd4 <.L865>:
    1cd4:	f5700c13          	li	s8,-169
    1cd8:	0185c463          	blt	a1,s8,1ce0 <.L865+0xc>
    1cdc:	0210406f          	j	64fc <.L876>
    1ce0:	ff100c13          	li	s8,-15
    1ce4:	01864463          	blt	a2,s8,1cec <.L865+0x18>
    1ce8:	26d0706f          	j	9754 <.L877>
    1cec:	00a15c03          	lhu	s8,10(sp)
    1cf0:	fffc0c13          	addi	s8,s8,-1
    1cf4:	01811523          	sh	s8,10(sp)

00001cf8 <.L878>:
    1cf8:	17000c13          	li	s8,368
    1cfc:	00dc4463          	blt	s8,a3,1d04 <.L880>
    1d00:	0440706f          	j	8d44 <.L885>

00001d04 <.L880>:
    1d04:	2ba00c13          	li	s8,698
    1d08:	00ec5463          	bge	s8,a4,1d10 <.L880+0xc>
    1d0c:	7ad0706f          	j	9cb8 <.L887>
    1d10:	00c15c03          	lhu	s8,12(sp)
    1d14:	02f00c93          	li	s9,47
    1d18:	006c0c13          	addi	s8,s8,6
    1d1c:	01811623          	sh	s8,12(sp)
    1d20:	b70cde63          	bge	s9,a6,109c <.L888>

00001d24 <.L889>:
    1d24:	e0400c13          	li	s8,-508
    1d28:	0182c463          	blt	t0,s8,1d30 <.L889+0xc>
    1d2c:	0190406f          	j	6544 <.L903>
    1d30:	00e15c03          	lhu	s8,14(sp)
    1d34:	ffdc0c13          	addi	s8,s8,-3
    1d38:	010c1c13          	slli	s8,s8,0x10
    1d3c:	410c5c13          	srai	s8,s8,0x10
    1d40:	01811723          	sh	s8,14(sp)
    1d44:	ec600c13          	li	s8,-314
    1d48:	b7845e63          	bge	s0,s8,10c4 <.L2791>

00001d4c <.L904>:
    1d4c:	01c51c83          	lh	s9,28(a0)
    1d50:	02600c13          	li	s8,38
    1d54:	019c5463          	bge	s8,s9,1d5c <.L904+0x10>
    1d58:	3400606f          	j	8098 <.L2792>
    1d5c:	e9900c13          	li	s8,-359
    1d60:	b982d463          	bge	t0,s8,10e8 <.L906>

00001d64 <.L907>:
    1d64:	00815c03          	lhu	s8,8(sp)
    1d68:	ff7c0c13          	addi	s8,s8,-9
    1d6c:	01811423          	sh	s8,8(sp)
    1d70:	03400c13          	li	s8,52
    1d74:	b7dc5e63          	bge	s8,t4,10f0 <.L2793>

00001d78 <.L909>:
    1d78:	1db00c13          	li	s8,475
    1d7c:	016c5463          	bge	s8,s6,1d84 <.L909+0xc>
    1d80:	5800306f          	j	5300 <.L916>
    1d84:	ff400c13          	li	s8,-12
    1d88:	01864463          	blt	a2,s8,1d90 <.L909+0x18>
    1d8c:	7750806f          	j	ad00 <.L917>
    1d90:	00a15c03          	lhu	s8,10(sp)
    1d94:	03300c93          	li	s9,51
    1d98:	ffec0c13          	addi	s8,s8,-2
    1d9c:	01811523          	sh	s8,10(sp)
    1da0:	00fcc463          	blt	s9,a5,1da8 <.L918>
    1da4:	5800306f          	j	5324 <.L923>

00001da8 <.L918>:
    1da8:	d7800c13          	li	s8,-648
    1dac:	018a5463          	bge	s4,s8,1db4 <.L920>
    1db0:	3cd0506f          	j	797c <.L927>

00001db4 <.L920>:
    1db4:	00c15c03          	lhu	s8,12(sp)
    1db8:	ffbc0c13          	addi	s8,s8,-5
    1dbc:	010c1c13          	slli	s8,s8,0x10
    1dc0:	410c5c13          	srai	s8,s8,0x10

00001dc4 <.L931>:
    1dc4:	01811623          	sh	s8,12(sp)
    1dc8:	03900c13          	li	s8,57
    1dcc:	00fc4463          	blt	s8,a5,1dd4 <.L941>
    1dd0:	56c0306f          	j	533c <.L928>

00001dd4 <.L941>:
    1dd4:	e4a00c13          	li	s8,-438
    1dd8:	0182d463          	bge	t0,s8,1de0 <.L941+0xc>
    1ddc:	7c50606f          	j	8da0 <.L943>
    1de0:	02200c13          	li	s8,34
    1de4:	b90c5663          	bge	s8,a6,1170 <.L940>
    1de8:	00e15c03          	lhu	s8,14(sp)
    1dec:	008c0c13          	addi	s8,s8,8
    1df0:	01811723          	sh	s8,14(sp)
    1df4:	00c00c13          	li	s8,12
    1df8:	b93c5063          	bge	s8,s3,1178 <.L2794>

00001dfc <.L935>:
    1dfc:	01c51c83          	lh	s9,28(a0)
    1e00:	03500c13          	li	s8,53
    1e04:	019c5463          	bge	s8,s9,1e0c <.L935+0x10>
    1e08:	1580506f          	j	6f60 <.L953>
    1e0c:	ffa00c13          	li	s8,-6
    1e10:	01894463          	blt	s2,s8,1e18 <.L935+0x1c>
    1e14:	7d40706f          	j	95e8 <.L954>
    1e18:	00815c03          	lhu	s8,8(sp)
    1e1c:	004c0c13          	addi	s8,s8,4
    1e20:	010c1c13          	slli	s8,s8,0x10
    1e24:	410c5c13          	srai	s8,s8,0x10

00001e28 <.L948>:
    1e28:	01811423          	sh	s8,8(sp)
    1e2c:	03300c13          	li	s8,51
    1e30:	01fc4463          	blt	s8,t6,1e38 <.L948+0x10>
    1e34:	0c90206f          	j	46fc <.L956>
    1e38:	01b00c13          	li	s8,27
    1e3c:	b6ec4663          	blt	s8,a4,11a8 <.L949>
    1e40:	fcd00c13          	li	s8,-51
    1e44:	0186c463          	blt	a3,s8,1e4c <.L948+0x24>
    1e48:	05c0706f          	j	8ea4 <.L971>
    1e4c:	00a15c03          	lhu	s8,10(sp)
    1e50:	006c0c13          	addi	s8,s8,6
    1e54:	01811523          	sh	s8,10(sp)
    1e58:	01300c13          	li	s8,19
    1e5c:	b91c5063          	bge	s8,a7,11dc <.L2795>

00001e60 <.L974>:
    1e60:	d8400c13          	li	s8,-636
    1e64:	0182c463          	blt	t0,s8,1e6c <.L974+0xc>
    1e68:	2c50806f          	j	a92c <.L980>
    1e6c:	00c15c03          	lhu	s8,12(sp)
    1e70:	002c0c13          	addi	s8,s8,2
    1e74:	010c1c13          	slli	s8,s8,0x10
    1e78:	410c5c13          	srai	s8,s8,0x10

00001e7c <.L979>:
    1e7c:	01811623          	sh	s8,12(sp)
    1e80:	cf000c13          	li	s8,-784
    1e84:	0185d463          	bge	a1,s8,1e8c <.L976>
    1e88:	0bd0206f          	j	4744 <.L962>

00001e8c <.L976>:
    1e8c:	0de00c13          	li	s8,222
    1e90:	012c5463          	bge	s8,s2,1e98 <.L976+0xc>
    1e94:	6d50406f          	j	6d68 <.L984>
    1e98:	02600c13          	li	s8,38
    1e9c:	00dc5463          	bge	s8,a3,1ea4 <.L976+0x18>
    1ea0:	1350206f          	j	47d4 <.L988>
    1ea4:	fa300c13          	li	s8,-93
    1ea8:	0182d463          	bge	t0,s8,1eb0 <.L994>
    1eac:	7690306f          	j	5e14 <.L985>

00001eb0 <.L994>:
    1eb0:	efb00c13          	li	s8,-261
    1eb4:	0185d463          	bge	a1,s8,1ebc <.L994+0xc>
    1eb8:	0c90206f          	j	4780 <.L990>
    1ebc:	00815c03          	lhu	s8,8(sp)
    1ec0:	00ac0c13          	addi	s8,s8,10
    1ec4:	01811423          	sh	s8,8(sp)
    1ec8:	1ac00c13          	li	s8,428
    1ecc:	b76c5263          	bge	s8,s6,1230 <.L2796>

00001ed0 <.L1004>:
    1ed0:	0a500c13          	li	s8,165
    1ed4:	00ec5463          	bge	s8,a4,1edc <.L1004+0xc>
    1ed8:	5f80506f          	j	74d0 <.L1010>
    1edc:	1ff00c13          	li	s8,511
    1ee0:	009c4463          	blt	s8,s1,1ee8 <.L1004+0x18>
    1ee4:	1990506f          	j	787c <.L1012>
    1ee8:	00a15c03          	lhu	s8,10(sp)
    1eec:	ffac0c13          	addi	s8,s8,-6
    1ef0:	010c1c13          	slli	s8,s8,0x10
    1ef4:	410c5c13          	srai	s8,s8,0x10
    1ef8:	01811523          	sh	s8,10(sp)
    1efc:	03d00c13          	li	s8,61
    1f00:	b6fc5263          	bge	s8,a5,1264 <.L1013>

00001f04 <.L1017>:
    1f04:	d9500c13          	li	s8,-619
    1f08:	018ad463          	bge	s5,s8,1f10 <.L1017+0xc>
    1f0c:	5e40506f          	j	74f0 <.L1024>
    1f10:	55900c13          	li	s8,1369
    1f14:	00dc5463          	bge	s8,a3,1f1c <.L1017+0x18>
    1f18:	2400806f          	j	a158 <.L1025>
    1f1c:	00c15c03          	lhu	s8,12(sp)
    1f20:	ff7c0c13          	addi	s8,s8,-9
    1f24:	01811623          	sh	s8,12(sp)

00001f28 <.L1014>:
    1f28:	11a00c13          	li	s8,282
    1f2c:	007c5463          	bge	s8,t2,1f34 <.L1014+0xc>
    1f30:	48c0406f          	j	63bc <.L1030>
    1f34:	0db00c13          	li	s8,219
    1f38:	00ec5463          	bge	s8,a4,1f40 <.L1014+0x18>
    1f3c:	1c10706f          	j	98fc <.L1031>
    1f40:	00e15c03          	lhu	s8,14(sp)
    1f44:	01f00c93          	li	s9,31
    1f48:	005c0c13          	addi	s8,s8,5
    1f4c:	01811723          	sh	s8,14(sp)
    1f50:	013cc463          	blt	s9,s3,1f58 <.L1014+0x30>
    1f54:	3580306f          	j	52ac <.L1038>
    1f58:	00600c13          	li	s8,6
    1f5c:	b71c4e63          	blt	s8,a7,12d8 <.L1046>
    1f60:	03100c13          	li	s8,49
    1f64:	b9fc5c63          	bge	s8,t6,12fc <.L1052>
    1f68:	01400c13          	li	s8,20
    1f6c:	010c4463          	blt	s8,a6,1f74 <.L1054>
    1f70:	3700306f          	j	52e0 <.L2260>

00001f74 <.L1054>:
    1f74:	00a15c03          	lhu	s8,10(sp)
    1f78:	003c0c13          	addi	s8,s8,3
    1f7c:	010c1c13          	slli	s8,s8,0x10
    1f80:	410c5c13          	srai	s8,s8,0x10
    1f84:	01811523          	sh	s8,10(sp)
    1f88:	0c100c13          	li	s8,193
    1f8c:	b89c5c63          	bge	s8,s1,1324 <.L2797>

00001f90 <.L1056>:
    1f90:	f6900c13          	li	s8,-151
    1f94:	0185c463          	blt	a1,s8,1f9c <.L1056+0xc>
    1f98:	2600406f          	j	61f8 <.L1075>
    1f9c:	11400c13          	li	s8,276
    1fa0:	00dc5463          	bge	s8,a3,1fa8 <.L1056+0x18>
    1fa4:	15c0706f          	j	9100 <.L1076>
    1fa8:	00c15c03          	lhu	s8,12(sp)
    1fac:	ffdc0c13          	addi	s8,s8,-3
    1fb0:	010c1c13          	slli	s8,s8,0x10
    1fb4:	410c5c13          	srai	s8,s8,0x10

00001fb8 <.L1074>:
    1fb8:	01811623          	sh	s8,12(sp)
    1fbc:	02f00c13          	li	s8,47
    1fc0:	010c5463          	bge	s8,a6,1fc8 <.L1074+0x10>
    1fc4:	0c90306f          	j	588c <.L1082>
    1fc8:	03800c13          	li	s8,56
    1fcc:	01fc5463          	bge	s8,t6,1fd4 <.L1074+0x1c>
    1fd0:	1540706f          	j	9124 <.L1078>
    1fd4:	08d00c13          	li	s8,141
    1fd8:	00dc5463          	bge	s8,a3,1fe0 <.L1074+0x28>
    1fdc:	0c90806f          	j	a8a4 <.L1067>
    1fe0:	00e15c03          	lhu	s8,14(sp)
    1fe4:	ffe00c93          	li	s9,-2
    1fe8:	004c0c13          	addi	s8,s8,4
    1fec:	01811723          	sh	s8,14(sp)
    1ff0:	01985463          	bge	a6,s9,1ff8 <.L1080>
    1ff4:	6000106f          	j	35f4 <.L1064>

00001ff8 <.L1080>:
    1ff8:	03c00c13          	li	s8,60
    1ffc:	b6fc5263          	bge	s8,a5,1360 <.L1062>

00002000 <.L1089>:
    2000:	01c51c83          	lh	s9,28(a0)
    2004:	01e00c13          	li	s8,30
    2008:	019c5463          	bge	s8,s9,2010 <.L1089+0x10>
    200c:	0710706f          	j	987c <.L1094>
    2010:	00815c03          	lhu	s8,8(sp)
    2014:	ff9c0c13          	addi	s8,s8,-7
    2018:	010c1c13          	slli	s8,s8,0x10
    201c:	410c5c13          	srai	s8,s8,0x10
    2020:	01811423          	sh	s8,8(sp)
    2024:	30000c13          	li	s8,768
    2028:	b7ec5063          	bge	s8,t5,1388 <.L1085>

0000202c <.L1095>:
    202c:	03d00c13          	li	s8,61
    2030:	01fc4463          	blt	s8,t6,2038 <.L1095+0xc>
    2034:	5e40106f          	j	3618 <.L1086>
    2038:	ff300c13          	li	s8,-13
    203c:	01864463          	blt	a2,s8,2044 <.L1095+0x18>
    2040:	5a90706f          	j	9de8 <.L1106>
    2044:	00a15c03          	lhu	s8,10(sp)
    2048:	04900c93          	li	s9,73
    204c:	ff5c0c13          	addi	s8,s8,-11
    2050:	01811523          	sh	s8,10(sp)
    2054:	011cd463          	bge	s9,a7,205c <.L1104>
    2058:	37c0306f          	j	53d4 <.L1105>

0000205c <.L1104>:
    205c:	02000c13          	li	s8,32
    2060:	01dc5463          	bge	s8,t4,2068 <.L1102>
    2064:	63d0506f          	j	7ea0 <.L1103>

00002068 <.L1102>:
    2068:	00c15c03          	lhu	s8,12(sp)
    206c:	004c0c13          	addi	s8,s8,4
    2070:	01811623          	sh	s8,12(sp)
    2074:	e4a00c13          	li	s8,-438
    2078:	b782c263          	blt	t0,s8,13dc <.L2798>

0000207c <.L1112>:
    207c:	00300c13          	li	s8,3
    2080:	01cc5463          	bge	s8,t3,2088 <.L1112+0xc>
    2084:	4cc0306f          	j	5550 <.L1121>
    2088:	f0e00c13          	li	s8,-242
    208c:	0182c463          	blt	t0,s8,2094 <.L1112+0x18>
    2090:	4d80306f          	j	5568 <.L1122>
    2094:	00e15c03          	lhu	s8,14(sp)
    2098:	01500c93          	li	s9,21
    209c:	ff6c0c13          	addi	s8,s8,-10
    20a0:	01811723          	sh	s8,14(sp)
    20a4:	b67cc263          	blt	s9,t2,1408 <.L2602>

000020a8 <.L1118>:
    20a8:	0ac00c13          	li	s8,172
    20ac:	006c5463          	bge	s8,t1,20b4 <.L1118+0xc>
    20b0:	4ec0306f          	j	559c <.L1119>
    20b4:	ffe00c13          	li	s8,-2
    20b8:	01864463          	blt	a2,s8,20c0 <.L1118+0x18>
    20bc:	1bd0506f          	j	7a78 <.L1126>
    20c0:	00815c03          	lhu	s8,8(sp)
    20c4:	009c0c13          	addi	s8,s8,9
    20c8:	010c1c13          	slli	s8,s8,0x10
    20cc:	410c5c13          	srai	s8,s8,0x10
    20d0:	01811423          	sh	s8,8(sp)
    20d4:	03300c13          	li	s8,51
    20d8:	b7fc5263          	bge	s8,t6,143c <.L2799>

000020dc <.L1129>:
    20dc:	01400c13          	li	s8,20
    20e0:	010c5463          	bge	s8,a6,20e8 <.L1129+0xc>
    20e4:	3ec0606f          	j	84d0 <.L1135>
    20e8:	01300c13          	li	s8,19
    20ec:	00ec5463          	bge	s8,a4,20f4 <.L1129+0x18>
    20f0:	4950706f          	j	9d84 <.L1136>
    20f4:	00a15c03          	lhu	s8,10(sp)
    20f8:	ffcc0c13          	addi	s8,s8,-4
    20fc:	010c1c13          	slli	s8,s8,0x10
    2100:	410c5c13          	srai	s8,s8,0x10
    2104:	01811523          	sh	s8,10(sp)
    2108:	00100c13          	li	s8,1
    210c:	b7cc4263          	blt	s8,t3,1470 <.L1138>

00002110 <.L2767>:
    2110:	e4e00c13          	li	s8,-434
    2114:	0185c463          	blt	a1,s8,211c <.L2767+0xc>
    2118:	6e10606f          	j	8ff8 <.L1139>
    211c:	00c15c03          	lhu	s8,12(sp)
    2120:	003c0c13          	addi	s8,s8,3
    2124:	010c1c13          	slli	s8,s8,0x10
    2128:	410c5c13          	srai	s8,s8,0x10
    212c:	01811623          	sh	s8,12(sp)
    2130:	03e00c13          	li	s8,62
    2134:	b6fc5863          	bge	s8,a5,14a4 <.L2800>

00002138 <.L1145>:
    2138:	fec00c13          	li	s8,-20
    213c:	01864463          	blt	a2,s8,2144 <.L1145+0xc>
    2140:	23d0606f          	j	8b7c <.L1150>
    2144:	00e15c03          	lhu	s8,14(sp)
    2148:	01f00c93          	li	s9,31
    214c:	ffdc0c13          	addi	s8,s8,-3
    2150:	01811723          	sh	s8,14(sp)
    2154:	013cd463          	bge	s9,s3,215c <.L1145+0x24>
    2158:	73c0206f          	j	4894 <.L1152>
    215c:	e2100c13          	li	s8,-479
    2160:	0182c463          	blt	t0,s8,2168 <.L1145+0x30>
    2164:	0f50106f          	j	3a58 <.L1160>
    2168:	00815c03          	lhu	s8,8(sp)
    216c:	1b900c93          	li	s9,441
    2170:	ff7c0c13          	addi	s8,s8,-9
    2174:	01811423          	sh	s8,8(sp)
    2178:	01ecc463          	blt	s9,t5,2180 <.L1162>
    217c:	0f50106f          	j	3a70 <.L1161>

00002180 <.L1162>:
    2180:	03200c13          	li	s8,50
    2184:	01dc5463          	bge	s8,t4,218c <.L1162+0xc>
    2188:	0a00706f          	j	9228 <.L1178>
    218c:	ff200c13          	li	s8,-14
    2190:	01864463          	blt	a2,s8,2198 <.L1162+0x18>
    2194:	3780906f          	j	b50c <.L1179>
    2198:	00a15c03          	lhu	s8,10(sp)
    219c:	03c00c93          	li	s9,60
    21a0:	ff7c0c13          	addi	s8,s8,-9
    21a4:	01811523          	sh	s8,10(sp)
    21a8:	b8fcd463          	bge	s9,a5,1530 <.L1174>

000021ac <.L1171>:
    21ac:	daa00c13          	li	s8,-598
    21b0:	018ad463          	bge	s5,s8,21b8 <.L1171+0xc>
    21b4:	34c0506f          	j	7500 <.L1187>
    21b8:	00b00c13          	li	s8,11
    21bc:	01dc5463          	bge	s8,t4,21c4 <.L1171+0x18>
    21c0:	0980706f          	j	9258 <.L1184>
    21c4:	00c15c03          	lhu	s8,12(sp)
    21c8:	004c0c13          	addi	s8,s8,4
    21cc:	010c1c13          	slli	s8,s8,0x10
    21d0:	410c5c13          	srai	s8,s8,0x10

000021d4 <.L1189>:
    21d4:	01811623          	sh	s8,12(sp)
    21d8:	0d800c13          	li	s8,216
    21dc:	b92c4463          	blt	s8,s2,1564 <.L1195>

000021e0 <.L2769>:
    21e0:	cf000c13          	li	s8,-784
    21e4:	0185c463          	blt	a1,s8,21ec <.L2769+0xc>
    21e8:	3440606f          	j	852c <.L1194>
    21ec:	e1800c13          	li	s8,-488
    21f0:	018a4463          	blt	s4,s8,21f8 <.L2769+0x18>
    21f4:	4290706f          	j	9e1c <.L1198>
    21f8:	00e15c03          	lhu	s8,14(sp)
    21fc:	fffc0c13          	addi	s8,s8,-1
    2200:	010c1c13          	slli	s8,s8,0x10
    2204:	010c5c13          	srli	s8,s8,0x10

00002208 <.L2606>:
    2208:	01811723          	sh	s8,14(sp)

0000220c <.L1200>:
    220c:	00400c13          	li	s8,4
    2210:	011c4463          	blt	s8,a7,2218 <.L1200+0xc>
    2214:	51d0206f          	j	4f30 <.L1208>
    2218:	00e00c13          	li	s8,14
    221c:	01dc5463          	bge	s8,t4,2224 <.L1200+0x18>
    2220:	0b50506f          	j	7ad4 <.L1216>
    2224:	00094463          	bltz	s2,222c <.L1200+0x20>
    2228:	7b10106f          	j	41d8 <.L1217>
    222c:	00815c03          	lhu	s8,8(sp)
    2230:	008c0c13          	addi	s8,s8,8
    2234:	01811423          	sh	s8,8(sp)

00002238 <.L1209>:
    2238:	03500c13          	li	s8,53
    223c:	b6ec5e63          	bge	s8,a4,15b8 <.L1214>
    2240:	0e100c13          	li	s8,225
    2244:	00dc5463          	bge	s8,a3,224c <.L1219>
    2248:	5950606f          	j	8fdc <.L1222>

0000224c <.L1219>:
    224c:	03200c13          	li	s8,50
    2250:	01fc5463          	bge	s8,t6,2258 <.L2694>
    2254:	7340606f          	j	8988 <.L1221>

00002258 <.L2694>:
    2258:	00a15c03          	lhu	s8,10(sp)
    225c:	0c100c93          	li	s9,193
    2260:	ff7c0c13          	addi	s8,s8,-9
    2264:	01811523          	sh	s8,10(sp)
    2268:	b69cdc63          	bge	s9,s1,15e0 <.L1227>

0000226c <.L2609>:
    226c:	f6900c13          	li	s8,-151
    2270:	0185c463          	blt	a1,s8,2278 <.L1229>
    2274:	7ac0506f          	j	7a20 <.L1234>

00002278 <.L1229>:
    2278:	00c15c03          	lhu	s8,12(sp)
    227c:	fffc0c13          	addi	s8,s8,-1
    2280:	010c1c13          	slli	s8,s8,0x10
    2284:	410c5c13          	srai	s8,s8,0x10

00002288 <.L1239>:
    2288:	01811623          	sh	s8,12(sp)
    228c:	03600c13          	li	s8,54
    2290:	b8fc4263          	blt	s8,a5,1614 <.L1243>

00002294 <.L2770>:
    2294:	04c00c13          	li	s8,76
    2298:	016c5463          	bge	s8,s6,22a0 <.L2770+0xc>
    229c:	0850606f          	j	8b20 <.L1244>
    22a0:	00e15c03          	lhu	s8,14(sp)
    22a4:	01500c93          	li	s9,21
    22a8:	002c0c13          	addi	s8,s8,2
    22ac:	01811723          	sh	s8,14(sp)
    22b0:	007cc463          	blt	s9,t2,22b8 <.L2770+0x24>
    22b4:	3700206f          	j	4624 <.L1253>
    22b8:	11d00c13          	li	s8,285
    22bc:	007c5463          	bge	s8,t2,22c4 <.L2770+0x30>
    22c0:	2690706f          	j	9d28 <.L1248>
    22c4:	00815c03          	lhu	s8,8(sp)
    22c8:	08c00c93          	li	s9,140
    22cc:	ffdc0c13          	addi	s8,s8,-3
    22d0:	01811423          	sh	s8,8(sp)
    22d4:	006cd463          	bge	s9,t1,22dc <.L1249>
    22d8:	4b80806f          	j	a790 <.L2801>

000022dc <.L1249>:
    22dc:	00900c13          	li	s8,9
    22e0:	011c5463          	bge	s8,a7,22e8 <.L1249+0xc>
    22e4:	2850506f          	j	7d68 <.L2802>
    22e8:	01dc5463          	bge	s8,t4,22f0 <.L1249+0x14>
    22ec:	2650306f          	j	5d50 <.L1277>
    22f0:	00a15c03          	lhu	s8,10(sp)
    22f4:	03300c93          	li	s9,51
    22f8:	ffac0c13          	addi	s8,s8,-6
    22fc:	01811523          	sh	s8,10(sp)
    2300:	00fcc463          	blt	s9,a5,2308 <.L1278>
    2304:	2290506f          	j	7d2c <.L2612>

00002308 <.L1278>:
    2308:	04700c13          	li	s8,71
    230c:	ba7c5263          	bge	s8,t2,16b0 <.L1265>

00002310 <.L1288>:
    2310:	00c15c03          	lhu	s8,12(sp)
    2314:	003c0c13          	addi	s8,s8,3
    2318:	010c1c13          	slli	s8,s8,0x10
    231c:	410c5c13          	srai	s8,s8,0x10

00002320 <.L1280>:
    2320:	01811623          	sh	s8,12(sp)
    2324:	03c00c13          	li	s8,60
    2328:	00fc4463          	blt	s8,a5,2330 <.L1280+0x10>
    232c:	3800206f          	j	46ac <.L1291>
    2330:	0d400c13          	li	s8,212
    2334:	00ec5463          	bge	s8,a4,233c <.L1280+0x1c>
    2338:	3350606f          	j	8e6c <.L1306>
    233c:	0a100c13          	li	s8,161
    2340:	ba7c5063          	bge	s8,t2,16e0 <.L1309>
    2344:	ffe00c13          	li	s8,-2
    2348:	bb884663          	blt	a6,s8,16f4 <.L1299>

0000234c <.L1320>:
    234c:	ec700c13          	li	s8,-313
    2350:	01844463          	blt	s0,s8,2358 <.L2941>
    2354:	33d0606f          	j	8e90 <.L1332>

00002358 <.L2941>:
    2358:	00815c03          	lhu	s8,8(sp)
    235c:	fffc0c13          	addi	s8,s8,-1
    2360:	010c1c13          	slli	s8,s8,0x10
    2364:	410c5c13          	srai	s8,s8,0x10

00002368 <.L1331>:
    2368:	01811423          	sh	s8,8(sp)
    236c:	03400c13          	li	s8,52
    2370:	01dc4463          	blt	s8,t4,2378 <.L1331+0x10>
    2374:	3410106f          	j	3eb4 <.L1328>
    2378:	1db00c13          	li	s8,475
    237c:	016c5463          	bge	s8,s6,2384 <.L1331+0x1c>
    2380:	27d0506f          	j	7dfc <.L1325>
    2384:	00800c13          	li	s8,8
    2388:	bb0c5063          	bge	s8,a6,1728 <.L1329>
    238c:	00a15c03          	lhu	s8,10(sp)
    2390:	02a00c93          	li	s9,42
    2394:	ff4c0c13          	addi	s8,s8,-12
    2398:	01811523          	sh	s8,10(sp)
    239c:	badcc063          	blt	s9,a3,173c <.L1327>

000023a0 <.L1326>:
    23a0:	fba00c13          	li	s8,-70
    23a4:	0185c463          	blt	a1,s8,23ac <.L1356>
    23a8:	70d0606f          	j	92b4 <.L1337>

000023ac <.L1356>:
    23ac:	00c15c03          	lhu	s8,12(sp)
    23b0:	ffbc0c13          	addi	s8,s8,-5
    23b4:	01811623          	sh	s8,12(sp)

000023b8 <.L1359>:
    23b8:	03600c13          	li	s8,54
    23bc:	00fc4463          	blt	s8,a5,23c4 <.L1355>
    23c0:	2140306f          	j	55d4 <.L1340>

000023c4 <.L1355>:
    23c4:	ff600c13          	li	s8,-10
    23c8:	01865463          	bge	a2,s8,23d0 <.L1354>
    23cc:	3490106f          	j	3f14 <.L1341>

000023d0 <.L1354>:
    23d0:	eea00c13          	li	s8,-278
    23d4:	018a4463          	blt	s4,s8,23dc <.L1354+0xc>
    23d8:	3790806f          	j	af50 <.L1369>
    23dc:	00e15c03          	lhu	s8,14(sp)
    23e0:	ffdc0c13          	addi	s8,s8,-3
    23e4:	010c1c13          	slli	s8,s8,0x10
    23e8:	410c5c13          	srai	s8,s8,0x10

000023ec <.L1365>:
    23ec:	01811723          	sh	s8,14(sp)
    23f0:	fa300c13          	li	s8,-93
    23f4:	0182c463          	blt	t0,s8,23fc <.L2849>
    23f8:	3490106f          	j	3f40 <.L1366>

000023fc <.L2849>:
    23fc:	fa100c13          	li	s8,-95
    2400:	0182c463          	blt	t0,s8,2408 <.L2849+0xc>
    2404:	2b90506f          	j	7ebc <.L1368>
    2408:	01c04463          	bgtz	t3,2410 <.L2849+0x14>
    240c:	7890806f          	j	b394 <.L2803>
    2410:	03900c13          	li	s8,57
    2414:	006c4463          	blt	s8,t1,241c <.L2849+0x20>
    2418:	4040206f          	j	481c <.L1371>
    241c:	ff800c13          	li	s8,-8
    2420:	01864463          	blt	a2,s8,2428 <.L1372>
    2424:	1850906f          	j	bda8 <.L2804>

00002428 <.L1372>:
    2428:	01c51c83          	lh	s9,28(a0)
    242c:	01e00c13          	li	s8,30
    2430:	019c5463          	bge	s8,s9,2438 <.L1372+0x10>
    2434:	3900806f          	j	a7c4 <.L2805>
    2438:	00a15c03          	lhu	s8,10(sp)
    243c:	002c0c13          	addi	s8,s8,2
    2440:	010c1c13          	slli	s8,s8,0x10
    2444:	410c5c13          	srai	s8,s8,0x10

00002448 <.L1398>:
    2448:	01811523          	sh	s8,10(sp)
    244c:	00100c13          	li	s8,1
    2450:	01cc4463          	blt	s8,t3,2458 <.L1395>
    2454:	4110306f          	j	6064 <.L1374>

00002458 <.L1395>:
    2458:	02000c13          	li	s8,32
    245c:	01dc4463          	blt	s8,t4,2464 <.L1401>
    2460:	0c40706f          	j	9524 <.L2806>

00002464 <.L1401>:
    2464:	34700c13          	li	s8,839
    2468:	00dc5463          	bge	s8,a3,2470 <.L1401+0xc>
    246c:	07c0706f          	j	94e8 <.L1413>
    2470:	00c15c03          	lhu	s8,12(sp)
    2474:	03c00c93          	li	s9,60
    2478:	ff9c0c13          	addi	s8,s8,-7
    247c:	01811623          	sh	s8,12(sp)
    2480:	00fcd463          	bge	s9,a5,2488 <.L2627>
    2484:	3e80206f          	j	486c <.L1389>

00002488 <.L2627>:
    2488:	e4f00c13          	li	s8,-433
    248c:	018ac463          	blt	s5,s8,2494 <.L1390>
    2490:	11c0606f          	j	85ac <.L1415>

00002494 <.L1390>:
    2494:	c5a00c13          	li	s8,-934
    2498:	0185d463          	bge	a1,s8,24a0 <.L1390+0xc>
    249c:	1100606f          	j	85ac <.L1415>
    24a0:	00e15c03          	lhu	s8,14(sp)
    24a4:	ff6c0c13          	addi	s8,s8,-10
    24a8:	01811723          	sh	s8,14(sp)

000024ac <.L1410>:
    24ac:	01f00c13          	li	s8,31
    24b0:	013c5463          	bge	s8,s3,24b8 <.L1407>
    24b4:	3110106f          	j	3fc4 <.L1421>

000024b8 <.L1407>:
    24b8:	03d00c13          	li	s8,61
    24bc:	01fc5463          	bge	s8,t6,24c4 <.L1407+0xc>
    24c0:	5b90406f          	j	7278 <.L1422>
    24c4:	01c04863          	bgtz	t3,24d4 <.L1423>
    24c8:	00815c03          	lhu	s8,8(sp)
    24cc:	005c0c13          	addi	s8,s8,5
    24d0:	01811423          	sh	s8,8(sp)

000024d4 <.L1423>:
    24d4:	03300c13          	li	s8,51
    24d8:	01fc5463          	bge	s8,t6,24e0 <.L2850>
    24dc:	30d0106f          	j	3fe8 <.L1425>

000024e0 <.L2850>:
    24e0:	1c600c93          	li	s9,454
    24e4:	00ecd463          	bge	s9,a4,24ec <.L2850+0xc>
    24e8:	5550406f          	j	723c <.L1426>
    24ec:	018f9463          	bne	t6,s8,24f4 <.L2850+0x14>
    24f0:	0c80906f          	j	b5b8 <.L1427>
    24f4:	00a15c03          	lhu	s8,10(sp)
    24f8:	ff7c0c13          	addi	s8,s8,-9
    24fc:	01811523          	sh	s8,10(sp)

00002500 <.L1428>:
    2500:	f9800c13          	li	s8,-104
    2504:	01844463          	blt	s0,s8,250c <.L2851>
    2508:	3110106f          	j	4018 <.L1432>

0000250c <.L2851>:
    250c:	0c700c13          	li	s8,199
    2510:	016c5463          	bge	s8,s6,2518 <.L2851+0xc>
    2514:	5100606f          	j	8a24 <.L1433>
    2518:	ea900c13          	li	s8,-343
    251c:	018a4863          	blt	s4,s8,252c <.L1434>
    2520:	00c15c03          	lhu	s8,12(sp)
    2524:	ff7c0c13          	addi	s8,s8,-9
    2528:	01811623          	sh	s8,12(sp)

0000252c <.L1434>:
    252c:	d2a00c13          	li	s8,-726
    2530:	0185c463          	blt	a1,s8,2538 <.L2852>
    2534:	3150106f          	j	4048 <.L1439>

00002538 <.L2852>:
    2538:	25d00c13          	li	s8,605
    253c:	009c5463          	bge	s8,s1,2544 <.L2852+0xc>
    2540:	6580306f          	j	5b98 <.L1440>
    2544:	e2e00c13          	li	s8,-466
    2548:	0182d463          	bge	t0,s8,2550 <.L2852+0x18>
    254c:	3d80706f          	j	9924 <.L1441>
    2550:	00e15c03          	lhu	s8,14(sp)
    2554:	00400c93          	li	s9,4
    2558:	008c0c13          	addi	s8,s8,8
    255c:	01811723          	sh	s8,14(sp)
    2560:	011cd463          	bge	s9,a7,2568 <.L1444>
    2564:	64c0306f          	j	5bb0 <.L1443>

00002568 <.L1444>:
    2568:	03800c13          	li	s8,56
    256c:	01fc5463          	bge	s8,t6,2574 <.L1444+0xc>
    2570:	4a50406f          	j	7214 <.L1449>
    2574:	00815c03          	lhu	s8,8(sp)
    2578:	00bc0c13          	addi	s8,s8,11
    257c:	01811423          	sh	s8,8(sp)

00002580 <.L2738>:
    2580:	00c00c13          	li	s8,12
    2584:	01cc4463          	blt	s8,t3,258c <.L2738+0xc>
    2588:	6d50606f          	j	945c <.L1452>
    258c:	23200c13          	li	s8,562
    2590:	01ec5463          	bge	s8,t5,2598 <.L2738+0x18>
    2594:	49c0806f          	j	aa30 <.L1453>
    2598:	00a15c03          	lhu	s8,10(sp)
    259c:	ff7c0c13          	addi	s8,s8,-9
    25a0:	01811523          	sh	s8,10(sp)

000025a4 <.L1454>:
    25a4:	02700c13          	li	s8,39
    25a8:	01dc5463          	bge	s8,t4,25b0 <.L1475>
    25ac:	3050106f          	j	40b0 <.L1476>

000025b0 <.L1475>:
    25b0:	15500c13          	li	s8,341
    25b4:	01ec5463          	bge	s8,t5,25bc <.L1475+0xc>
    25b8:	4900806f          	j	aa48 <.L1481>
    25bc:	00c15c03          	lhu	s8,12(sp)
    25c0:	ffec0c13          	addi	s8,s8,-2
    25c4:	01811623          	sh	s8,12(sp)

000025c8 <.L1486>:
    25c8:	0a000c13          	li	s8,160
    25cc:	009c5463          	bge	s8,s1,25d4 <.L2854>
    25d0:	3050106f          	j	40d4 <.L1490>

000025d4 <.L2854>:
    25d4:	09b00c13          	li	s8,155
    25d8:	009c5463          	bge	s8,s1,25e0 <.L2854+0xc>
    25dc:	0240506f          	j	7600 <.L1491>
    25e0:	0a300c13          	li	s8,163
    25e4:	012c5463          	bge	s8,s2,25ec <.L2854+0x18>
    25e8:	2d10806f          	j	b0b8 <.L1492>
    25ec:	00e15c03          	lhu	s8,14(sp)
    25f0:	39000c93          	li	s9,912
    25f4:	ffcc0c13          	addi	s8,s8,-4
    25f8:	01811723          	sh	s8,14(sp)
    25fc:	006cc463          	blt	s9,t1,2604 <.L2854+0x30>
    2600:	7890106f          	j	4588 <.L1501>
    2604:	14e00c13          	li	s8,334
    2608:	00dc5463          	bge	s8,a3,2610 <.L1511>
    260c:	6c40906f          	j	bcd0 <.L2807>

00002610 <.L1511>:
    2610:	00900c13          	li	s8,9
    2614:	013c5463          	bge	s8,s3,261c <.L1511+0xc>
    2618:	0450706f          	j	9e5c <.L1513>
    261c:	00815c03          	lhu	s8,8(sp)
    2620:	003c0c13          	addi	s8,s8,3
    2624:	01811423          	sh	s8,8(sp)

00002628 <.L1510>:
    2628:	00c00c13          	li	s8,12
    262c:	01cc4463          	blt	s8,t3,2634 <.L1504>
    2630:	4590206f          	j	5288 <.L1519>

00002634 <.L1504>:
    2634:	1dc00c13          	li	s8,476
    2638:	016c5463          	bge	s8,s6,2640 <.L1504+0xc>
    263c:	3a00806f          	j	a9dc <.L1524>
    2640:	00a15c03          	lhu	s8,10(sp)
    2644:	f9800c93          	li	s9,-104
    2648:	ff3c0c13          	addi	s8,s8,-13
    264c:	01811523          	sh	s8,10(sp)
    2650:	01944463          	blt	s0,s9,2658 <.L1505>
    2654:	7790106f          	j	45cc <.L1506>

00002658 <.L1505>:
    2658:	0c700c13          	li	s8,199
    265c:	016c4463          	blt	s8,s6,2664 <.L1520>
    2660:	7700606f          	j	8dd0 <.L1527>

00002664 <.L1520>:
    2664:	00c15c03          	lhu	s8,12(sp)
    2668:	01800c93          	li	s9,24
    266c:	fffc0c13          	addi	s8,s8,-1
    2670:	01811623          	sh	s8,12(sp)
    2674:	010cc463          	blt	s9,a6,267c <.L1533>
    2678:	7850106f          	j	45fc <.L1543>

0000267c <.L1533>:
    267c:	eee00c13          	li	s8,-274
    2680:	018ac463          	blt	s5,s8,2688 <.L1533+0xc>
    2684:	6380106f          	j	3cbc <.L1548>
    2688:	01c51c83          	lh	s9,28(a0)
    268c:	02300c13          	li	s8,35
    2690:	019c5463          	bge	s8,s9,2698 <.L1539>
    2694:	3150106f          	j	41a8 <.L2808>

00002698 <.L1539>:
    2698:	00e15c03          	lhu	s8,14(sp)
    269c:	005c0c13          	addi	s8,s8,5
    26a0:	01811723          	sh	s8,14(sp)

000026a4 <.L1538>:
    26a4:	0a900c13          	li	s8,169
    26a8:	01ec5463          	bge	s8,t5,26b0 <.L2842>
    26ac:	6280106f          	j	3cd4 <.L1549>

000026b0 <.L2842>:
    26b0:	01c00c13          	li	s8,28
    26b4:	00fc5463          	bge	s8,a5,26bc <.L2842+0xc>
    26b8:	5450506f          	j	83fc <.L1550>
    26bc:	07300c13          	li	s8,115
    26c0:	01ec5463          	bge	s8,t5,26c8 <.L2842+0x18>
    26c4:	1250706f          	j	9fe8 <.L1551>
    26c8:	00815c03          	lhu	s8,8(sp)
    26cc:	006c0c13          	addi	s8,s8,6
    26d0:	010c1c13          	slli	s8,s8,0x10
    26d4:	410c5c13          	srai	s8,s8,0x10

000026d8 <.L1552>:
    26d8:	01811423          	sh	s8,8(sp)
    26dc:	03300c13          	li	s8,51
    26e0:	01fc5463          	bge	s8,t6,26e8 <.L2843>
    26e4:	61c0106f          	j	3d00 <.L1556>

000026e8 <.L2843>:
    26e8:	00001c37          	lui	s8,0x1
    26ec:	cbbc0c13          	addi	s8,s8,-837 # cbb <.L2778+0x3>
    26f0:	00ec5463          	bge	s8,a4,26f8 <.L2843+0x10>
    26f4:	4d90506f          	j	83cc <.L1557>
    26f8:	dba00c13          	li	s8,-582
    26fc:	0185c863          	blt	a1,s8,270c <.L1558>
    2700:	00a15c03          	lhu	s8,10(sp)
    2704:	ff9c0c13          	addi	s8,s8,-7
    2708:	01811523          	sh	s8,10(sp)

0000270c <.L1558>:
    270c:	10b00c13          	li	s8,267
    2710:	00dc4463          	blt	s8,a3,2718 <.L1567>
    2714:	3050606f          	j	9218 <.L1564>

00002718 <.L1567>:
    2718:	e8500c13          	li	s8,-379
    271c:	018ad463          	bge	s5,s8,2724 <.L1567+0xc>
    2720:	4fd0506f          	j	841c <.L1571>
    2724:	18c00c13          	li	s8,396
    2728:	00ec5463          	bge	s8,a4,2730 <.L1567+0x18>
    272c:	4bd0506f          	j	83e8 <.L1568>
    2730:	00c15c03          	lhu	s8,12(sp)
    2734:	001c0c13          	addi	s8,s8,1
    2738:	010c1c13          	slli	s8,s8,0x10
    273c:	410c5c13          	srai	s8,s8,0x10

00002740 <.L1573>:
    2740:	01811623          	sh	s8,12(sp)
    2744:	02700c93          	li	s9,39
    2748:	007cd463          	bge	s9,t2,2750 <.L2844>
    274c:	6040106f          	j	3d50 <.L1576>

00002750 <.L2844>:
    2750:	03d00c93          	li	s9,61
    2754:	00fcd463          	bge	s9,a5,275c <.L2844+0xc>
    2758:	2c10506f          	j	8218 <.L1577>
    275c:	02000c93          	li	s9,32
    2760:	010cd463          	bge	s9,a6,2768 <.L2844+0x18>
    2764:	2a50506f          	j	8208 <.L1578>
    2768:	00e15c83          	lhu	s9,14(sp)
    276c:	ff7c8c93          	addi	s9,s9,-9
    2770:	01911723          	sh	s9,14(sp)

00002774 <.L1579>:
    2774:	01f00c93          	li	s9,31
    2778:	013cd463          	bge	s9,s3,2780 <.L2845>
    277c:	6040106f          	j	3d80 <.L1581>

00002780 <.L2845>:
    2780:	03d00c93          	li	s9,61
    2784:	01fcd463          	bge	s9,t6,278c <.L2845+0xc>
    2788:	1b50506f          	j	813c <.L1582>
    278c:	f7800c93          	li	s9,-136
    2790:	019a4863          	blt	s4,s9,27a0 <.L1583>
    2794:	00815c83          	lhu	s9,8(sp)
    2798:	004c8c93          	addi	s9,s9,4
    279c:	01911423          	sh	s9,8(sp)

000027a0 <.L1583>:
    27a0:	e2c00c93          	li	s9,-468
    27a4:	0192d463          	bge	t0,s9,27ac <.L2846>
    27a8:	5fc0106f          	j	3da4 <.L1589>

000027ac <.L2846>:
    27ac:	03c00c13          	li	s8,60
    27b0:	01fc5463          	bge	s8,t6,27b8 <.L2846+0xc>
    27b4:	1a90506f          	j	815c <.L1585>
    27b8:	00900c93          	li	s9,9
    27bc:	01ccd463          	bge	s9,t3,27c4 <.L2846+0x18>
    27c0:	2ac0306f          	j	5a6c <.L1610>
    27c4:	00a15c03          	lhu	s8,10(sp)
    27c8:	001c0c13          	addi	s8,s8,1
    27cc:	010c1c13          	slli	s8,s8,0x10
    27d0:	410c5c13          	srai	s8,s8,0x10

000027d4 <.L1611>:
    27d4:	01811523          	sh	s8,10(sp)
    27d8:	03c00c13          	li	s8,60
    27dc:	00fc4463          	blt	s8,a5,27e4 <.L1614>
    27e0:	2380306f          	j	5a18 <.L1603>

000027e4 <.L1614>:
    27e4:	e6500c13          	li	s8,-411
    27e8:	0182d463          	bge	t0,s8,27f0 <.L1614+0xc>
    27ec:	0090906f          	j	bff4 <.L1616>
    27f0:	00e00c13          	li	s8,14
    27f4:	01dc5463          	bge	s8,t4,27fc <.L1614+0x18>
    27f8:	7280706f          	j	9f20 <.L1618>
    27fc:	00300c13          	li	s8,3
    2800:	01cc5463          	bge	s8,t3,2808 <.L1614+0x24>
    2804:	2900306f          	j	5a94 <.L1617>
    2808:	0c100c13          	li	s8,193
    280c:	012c5463          	bge	s8,s2,2814 <.L1634>
    2810:	4a40906f          	j	bcb4 <.L2809>

00002814 <.L1634>:
    2814:	02f00c13          	li	s8,47
    2818:	01fc5463          	bge	s8,t6,2820 <.L1634+0xc>
    281c:	6f40706f          	j	9f10 <.L2810>
    2820:	00e15c03          	lhu	s8,14(sp)
    2824:	00400c93          	li	s9,4
    2828:	019c0c33          	add	s8,s8,s9
    282c:	01811723          	sh	s8,14(sp)
    2830:	011cc463          	blt	s9,a7,2838 <.L1634+0x24>
    2834:	3000406f          	j	6b34 <.L1650>
    2838:	00e00c13          	li	s8,14
    283c:	01dc5463          	bge	s8,t4,2844 <.L1645>
    2840:	5290606f          	j	9568 <.L2811>

00002844 <.L1645>:
    2844:	f9c00c13          	li	s8,-100
    2848:	01844463          	blt	s0,s8,2850 <.L1643>
    284c:	31d0606f          	j	9368 <.L1667>

00002850 <.L1643>:
    2850:	00815c03          	lhu	s8,8(sp)
    2854:	01d00c93          	li	s9,29
    2858:	ffac0c13          	addi	s8,s8,-6
    285c:	01811423          	sh	s8,8(sp)
    2860:	011cd463          	bge	s9,a7,2868 <.L2718>
    2864:	31d0606f          	j	9380 <.L1668>

00002868 <.L2718>:
    2868:	00a15c03          	lhu	s8,10(sp)
    286c:	00100c93          	li	s9,1
    2870:	ffec0c13          	addi	s8,s8,-2
    2874:	01811523          	sh	s8,10(sp)
    2878:	01ccc463          	blt	s9,t3,2880 <.L1658>
    287c:	4700906f          	j	bcec <.L2812>

00002880 <.L1658>:
    2880:	ff000c13          	li	s8,-16
    2884:	01864463          	blt	a2,s8,288c <.L1658+0xc>
    2888:	0790206f          	j	5100 <.L2813>
    288c:	00c15c03          	lhu	s8,12(sp)
    2890:	ff600c93          	li	s9,-10
    2894:	007c0c13          	addi	s8,s8,7
    2898:	01811623          	sh	s8,12(sp)
    289c:	01964463          	blt	a2,s9,28a4 <.L1681>
    28a0:	06d0206f          	j	510c <.L1682>

000028a4 <.L1681>:
    28a4:	0da00c13          	li	s8,218
    28a8:	012c5463          	bge	s8,s2,28b0 <.L1681+0xc>
    28ac:	5190606f          	j	95c4 <.L1695>
    28b0:	00e15c03          	lhu	s8,14(sp)
    28b4:	ff9c0c13          	addi	s8,s8,-7
    28b8:	010c1c13          	slli	s8,s8,0x10
    28bc:	010c5c13          	srli	s8,s8,0x10

000028c0 <.L1696>:
    28c0:	01811723          	sh	s8,14(sp)

000028c4 <.L1698>:
    28c4:	e4300c13          	li	s8,-445
    28c8:	01844463          	blt	s0,s8,28d0 <.L1698+0xc>
    28cc:	6e80206f          	j	4fb4 <.L1702>
    28d0:	0d400c13          	li	s8,212
    28d4:	007c5463          	bge	s8,t2,28dc <.L1698+0x18>
    28d8:	6840506f          	j	7f5c <.L1705>
    28dc:	0d100c13          	li	s8,209
    28e0:	007c4463          	blt	s8,t2,28e8 <.L1698+0x24>
    28e4:	2dd0606f          	j	93c0 <.L1701>
    28e8:	00815c03          	lhu	s8,8(sp)
    28ec:	03b00c93          	li	s9,59
    28f0:	008c0c13          	addi	s8,s8,8
    28f4:	01811423          	sh	s8,8(sp)
    28f8:	00fcd463          	bge	s9,a5,2900 <.L2645>
    28fc:	6780506f          	j	7f74 <.L1707>

00002900 <.L2645>:
    2900:	03500c13          	li	s8,53
    2904:	00ec4463          	blt	s8,a4,290c <.L1709>
    2908:	1210506f          	j	8228 <.L1708>

0000290c <.L1709>:
    290c:	00a15c03          	lhu	s8,10(sp)
    2910:	005c0c13          	addi	s8,s8,5
    2914:	010c1c13          	slli	s8,s8,0x10
    2918:	410c5c13          	srai	s8,s8,0x10

0000291c <.L1720>:
    291c:	01811523          	sh	s8,10(sp)
    2920:	02200c13          	li	s8,34
    2924:	011c5463          	bge	s8,a7,292c <.L2888>
    2928:	6f00206f          	j	5018 <.L1729>

0000292c <.L2888>:
    292c:	01700c13          	li	s8,23
    2930:	01dc5463          	bge	s8,t4,2938 <.L2888+0xc>
    2934:	3bd0506f          	j	84f0 <.L1726>
    2938:	1dc00c13          	li	s8,476
    293c:	01ec5863          	bge	s8,t5,294c <.L1730>

00002940 <.L1728>:
    2940:	00c15c03          	lhu	s8,12(sp)
    2944:	008c0c13          	addi	s8,s8,8
    2948:	01811623          	sh	s8,12(sp)

0000294c <.L1730>:
    294c:	02600c13          	li	s8,38
    2950:	00dc5463          	bge	s8,a3,2958 <.L1730+0xc>
    2954:	4740206f          	j	4dc8 <.L1727>
    2958:	00f00c13          	li	s8,15
    295c:	00dc5463          	bge	s8,a3,2964 <.L1730+0x18>
    2960:	7950506f          	j	88f4 <.L1737>
    2964:	08c00c13          	li	s8,140
    2968:	007c5463          	bge	s8,t2,2970 <.L1730+0x24>
    296c:	5340806f          	j	aea0 <.L1738>
    2970:	00e15c03          	lhu	s8,14(sp)
    2974:	01500c93          	li	s9,21
    2978:	003c0c13          	addi	s8,s8,3
    297c:	01811723          	sh	s8,14(sp)
    2980:	007cc463          	blt	s9,t2,2988 <.L1740>
    2984:	2a90206f          	j	542c <.L1739>

00002988 <.L1740>:
    2988:	ff700c13          	li	s8,-9
    298c:	01864863          	blt	a2,s8,299c <.L1748>
    2990:	00815c03          	lhu	s8,8(sp)
    2994:	ffcc0c13          	addi	s8,s8,-4
    2998:	01811423          	sh	s8,8(sp)

0000299c <.L1748>:
    299c:	0f000c13          	li	s8,240
    29a0:	006c5463          	bge	s8,t1,29a8 <.L1748+0xc>
    29a4:	39c0206f          	j	4d40 <.L1752>
    29a8:	00200c13          	li	s8,2
    29ac:	01cc5463          	bge	s8,t3,29b4 <.L1748+0x18>
    29b0:	0580606f          	j	8a08 <.L1753>
    29b4:	03500c13          	li	s8,53
    29b8:	00fc5463          	bge	s8,a5,29c0 <.L1748+0x24>
    29bc:	4150706f          	j	a5d0 <.L1754>
    29c0:	00a15c03          	lhu	s8,10(sp)
    29c4:	007c0c13          	addi	s8,s8,7
    29c8:	01811523          	sh	s8,10(sp)

000029cc <.L1755>:
    29cc:	f9800c13          	li	s8,-104
    29d0:	01844463          	blt	s0,s8,29d8 <.L1767>
    29d4:	39c0206f          	j	4d70 <.L2814>

000029d8 <.L1767>:
    29d8:	f6600c13          	li	s8,-154
    29dc:	01844463          	blt	s0,s8,29e4 <.L1767+0xc>
    29e0:	00c0606f          	j	89ec <.L1759>
    29e4:	0c600c13          	li	s8,198
    29e8:	009c4863          	blt	s8,s1,29f8 <.L1769>

000029ec <.L1771>:
    29ec:	00c15c03          	lhu	s8,12(sp)
    29f0:	ffbc0c13          	addi	s8,s8,-5
    29f4:	01811623          	sh	s8,12(sp)

000029f8 <.L1769>:
    29f8:	02700c13          	li	s8,39
    29fc:	007c5463          	bge	s8,t2,2a04 <.L1769+0xc>
    2a00:	3180206f          	j	4d18 <.L1762>
    2a04:	0e400c13          	li	s8,228
    2a08:	006c5463          	bge	s8,t1,2a10 <.L1769+0x18>
    2a0c:	24d0506f          	j	8458 <.L1761>
    2a10:	01b00c13          	li	s8,27
    2a14:	010c5463          	bge	s8,a6,2a1c <.L1769+0x24>
    2a18:	1980706f          	j	9bb0 <.L1773>
    2a1c:	00e15c03          	lhu	s8,14(sp)
    2a20:	ff8c0c13          	addi	s8,s8,-8
    2a24:	01811723          	sh	s8,14(sp)

00002a28 <.L1774>:
    2a28:	00400c13          	li	s8,4
    2a2c:	011c5463          	bge	s8,a7,2a34 <.L1774+0xc>
    2a30:	1780206f          	j	4ba8 <.L1777>
    2a34:	03a00c13          	li	s8,58
    2a38:	01fc5463          	bge	s8,t6,2a40 <.L1774+0x18>
    2a3c:	4a50206f          	j	56e0 <.L1778>
    2a40:	00815c03          	lhu	s8,8(sp)
    2a44:	02e00c93          	li	s9,46
    2a48:	009c0c13          	addi	s8,s8,9
    2a4c:	01811423          	sh	s8,8(sp)
    2a50:	01dcd463          	bge	s9,t4,2a58 <.L1782>
    2a54:	6f10206f          	j	5944 <.L1779>

00002a58 <.L1782>:
    2a58:	01200c13          	li	s8,18
    2a5c:	01dc5463          	bge	s8,t4,2a64 <.L1782+0xc>
    2a60:	56c0806f          	j	afcc <.L2815>
    2a64:	00a15c03          	lhu	s8,10(sp)
    2a68:	ffec0c13          	addi	s8,s8,-2
    2a6c:	010c1c13          	slli	s8,s8,0x10
    2a70:	410c5c13          	srai	s8,s8,0x10

00002a74 <.L1792>:
    2a74:	01811523          	sh	s8,10(sp)
    2a78:	01500c13          	li	s8,21
    2a7c:	010c4463          	blt	s8,a6,2a84 <.L1792+0x10>
    2a80:	48d0206f          	j	570c <.L1786>
    2a84:	03b00c13          	li	s8,59
    2a88:	00fc5463          	bge	s8,a5,2a90 <.L1792+0x1c>
    2a8c:	16c0206f          	j	4bf8 <.L1795>
    2a90:	ffb00c13          	li	s8,-5
    2a94:	01865463          	bge	a2,s8,2a9c <.L2648>
    2a98:	1c00206f          	j	4c58 <.L1794>

00002a9c <.L2648>:
    2a9c:	00c15c03          	lhu	s8,12(sp)
    2aa0:	ffac0c13          	addi	s8,s8,-6
    2aa4:	01811623          	sh	s8,12(sp)

00002aa8 <.L1807>:
    2aa8:	00300c13          	li	s8,3
    2aac:	01cc5463          	bge	s8,t3,2ab4 <.L2883>
    2ab0:	1c00206f          	j	4c70 <.L1800>

00002ab4 <.L2883>:
    2ab4:	01300c13          	li	s8,19
    2ab8:	01dc5463          	bge	s8,t4,2ac0 <.L2883+0xc>
    2abc:	1c80206f          	j	4c84 <.L2649>
    2ac0:	02e00c13          	li	s8,46
    2ac4:	012c5463          	bge	s8,s2,2acc <.L2883+0x18>
    2ac8:	0a40306f          	j	5b6c <.L1814>
    2acc:	00e15c03          	lhu	s8,14(sp)
    2ad0:	0a900c93          	li	s9,169
    2ad4:	ff9c0c13          	addi	s8,s8,-7
    2ad8:	01811723          	sh	s8,14(sp)
    2adc:	01ecd463          	bge	s9,t5,2ae4 <.L1817>
    2ae0:	0a40306f          	j	5b84 <.L2650>

00002ae4 <.L1817>:
    2ae4:	01c00c13          	li	s8,28
    2ae8:	00fc5463          	bge	s8,a5,2af0 <.L1817+0xc>
    2aec:	76c0406f          	j	7258 <.L1827>
    2af0:	06700c13          	li	s8,103
    2af4:	016c5463          	bge	s8,s6,2afc <.L1817+0x18>
    2af8:	6150106f          	j	490c <.L1828>
    2afc:	00815c03          	lhu	s8,8(sp)
    2b00:	03300c93          	li	s9,51
    2b04:	005c0c13          	addi	s8,s8,5
    2b08:	01811423          	sh	s8,8(sp)
    2b0c:	01fcc463          	blt	s9,t6,2b14 <.L1830>
    2b10:	6150106f          	j	4924 <.L1831>

00002b14 <.L1830>:
    2b14:	08000c13          	li	s8,128
    2b18:	00ec5863          	bge	s8,a4,2b28 <.L1844>
    2b1c:	00a15c03          	lhu	s8,10(sp)
    2b20:	005c0c13          	addi	s8,s8,5
    2b24:	01811523          	sh	s8,10(sp)

00002b28 <.L1844>:
    2b28:	00100c13          	li	s8,1
    2b2c:	01cc4463          	blt	s8,t3,2b34 <.L1848>
    2b30:	62d0106f          	j	495c <.L2816>

00002b34 <.L1848>:
    2b34:	02700c13          	li	s8,39
    2b38:	006c5463          	bge	s8,t1,2b40 <.L1848+0xc>
    2b3c:	4540306f          	j	5f90 <.L1856>
    2b40:	ff800c13          	li	s8,-8
    2b44:	01864463          	blt	a2,s8,2b4c <.L1848+0x18>
    2b48:	1cd0606f          	j	9514 <.L1857>
    2b4c:	00c15c03          	lhu	s8,12(sp)
    2b50:	ffcc0c13          	addi	s8,s8,-4
    2b54:	01811623          	sh	s8,12(sp)

00002b58 <.L1855>:
    2b58:	c0000c13          	li	s8,-1024
    2b5c:	0185c463          	blt	a1,s8,2b64 <.L1855+0xc>
    2b60:	1910206f          	j	54f0 <.L1858>
    2b64:	00e15c03          	lhu	s8,14(sp)
    2b68:	01f00c93          	li	s9,31
    2b6c:	007c0c13          	addi	s8,s8,7
    2b70:	01811723          	sh	s8,14(sp)
    2b74:	013ccc63          	blt	s9,s3,2b8c <.L1859>
    2b78:	04600c13          	li	s8,70
    2b7c:	011c4463          	blt	s8,a7,2b84 <.L1855+0x2c>
    2b80:	2bd0806f          	j	b63c <.L2817>
    2b84:	03b00c13          	li	s8,59
    2b88:	006c5863          	bge	s8,t1,2b98 <.L1873>

00002b8c <.L1859>:
    2b8c:	00815c03          	lhu	s8,8(sp)
    2b90:	ff9c0c13          	addi	s8,s8,-7
    2b94:	01811423          	sh	s8,8(sp)

00002b98 <.L1873>:
    2b98:	ff900c13          	li	s8,-7
    2b9c:	01864463          	blt	a2,s8,2ba4 <.L1873+0xc>
    2ba0:	5380506f          	j	80d8 <.L1875>
    2ba4:	1d800c13          	li	s8,472
    2ba8:	016c5463          	bge	s8,s6,2bb0 <.L1873+0x18>
    2bac:	5310706f          	j	a8dc <.L1876>
    2bb0:	00a15c03          	lhu	s8,10(sp)
    2bb4:	ffdc0c13          	addi	s8,s8,-3
    2bb8:	01811523          	sh	s8,10(sp)

00002bbc <.L1879>:
    2bbc:	fdb00c13          	li	s8,-37
    2bc0:	01874463          	blt	a4,s8,2bc8 <.L2874>
    2bc4:	6010106f          	j	49c4 <.L1881>

00002bc8 <.L2874>:
    2bc8:	01200c13          	li	s8,18
    2bcc:	010c5463          	bge	s8,a6,2bd4 <.L2874+0xc>
    2bd0:	3c40406f          	j	6f94 <.L1882>
    2bd4:	00c15c03          	lhu	s8,12(sp)
    2bd8:	05800c93          	li	s9,88
    2bdc:	ff8c0c13          	addi	s8,s8,-8
    2be0:	01811623          	sh	s8,12(sp)
    2be4:	009cd463          	bge	s9,s1,2bec <.L2874+0x24>
    2be8:	5640206f          	j	514c <.L1883>
    2bec:	f5300c13          	li	s8,-173
    2bf0:	01845463          	bge	s0,s8,2bf8 <.L1885>
    2bf4:	7c40506f          	j	83b8 <.L1884>

00002bf8 <.L1885>:
    2bf8:	00e15c03          	lhu	s8,14(sp)
    2bfc:	003c0c13          	addi	s8,s8,3
    2c00:	010c1c13          	slli	s8,s8,0x10
    2c04:	410c5c13          	srai	s8,s8,0x10

00002c08 <.L1896>:
    2c08:	01811723          	sh	s8,14(sp)
    2c0c:	07300c13          	li	s8,115
    2c10:	012c4463          	blt	s8,s2,2c18 <.L1899>
    2c14:	6110106f          	j	4a24 <.L1893>

00002c18 <.L1899>:
    2c18:	00600c13          	li	s8,6
    2c1c:	010c5463          	bge	s8,a6,2c24 <.L1899+0xc>
    2c20:	3b00406f          	j	6fd0 <.L1894>
    2c24:	ffe00c13          	li	s8,-2
    2c28:	01884863          	blt	a6,s8,2c38 <.L1908>
    2c2c:	00815c03          	lhu	s8,8(sp)
    2c30:	ff7c0c13          	addi	s8,s8,-9
    2c34:	01811423          	sh	s8,8(sp)

00002c38 <.L1908>:
    2c38:	01e00c13          	li	s8,30
    2c3c:	013c4463          	blt	s8,s3,2c44 <.L1908+0xc>
    2c40:	6050106f          	j	4a44 <.L1911>
    2c44:	efa00c13          	li	s8,-262
    2c48:	01845863          	bge	s0,s8,2c58 <.L1913>
    2c4c:	00a15c03          	lhu	s8,10(sp)
    2c50:	009c0c13          	addi	s8,s8,9
    2c54:	01811523          	sh	s8,10(sp)

00002c58 <.L1913>:
    2c58:	00100c13          	li	s8,1
    2c5c:	01cc4463          	blt	s8,t3,2c64 <.L2495>
    2c60:	6090106f          	j	4a68 <.L1915>

00002c64 <.L2495>:
    2c64:	01f00c13          	li	s8,31
    2c68:	01dc4463          	blt	s8,t4,2c70 <.L2495+0xc>
    2c6c:	4580206f          	j	50c4 <.L1922>
    2c70:	11500c13          	li	s8,277
    2c74:	00dc4463          	blt	s8,a3,2c7c <.L2495+0x18>
    2c78:	6e10206f          	j	5b58 <.L2653>
    2c7c:	00c15c03          	lhu	s8,12(sp)
    2c80:	001c0c13          	addi	s8,s8,1
    2c84:	010c1c13          	slli	s8,s8,0x10
    2c88:	410c5c13          	srai	s8,s8,0x10

00002c8c <.L1921>:
    2c8c:	01811623          	sh	s8,12(sp)
    2c90:	ff600c13          	li	s8,-10
    2c94:	01864463          	blt	a2,s8,2c9c <.L2875>
    2c98:	5fd0106f          	j	4a94 <.L1929>

00002c9c <.L2875>:
    2c9c:	02800c13          	li	s8,40
    2ca0:	01dc4463          	blt	s8,t4,2ca8 <.L2875+0xc>
    2ca4:	4400206f          	j	50e4 <.L1930>
    2ca8:	03900c13          	li	s8,57
    2cac:	01fc4463          	blt	s8,t6,2cb4 <.L2875+0x18>
    2cb0:	2fc0306f          	j	5fac <.L2654>
    2cb4:	00e15c03          	lhu	s8,14(sp)
    2cb8:	ffbc0c13          	addi	s8,s8,-5
    2cbc:	01811723          	sh	s8,14(sp)

00002cc0 <.L1933>:
    2cc0:	39000c13          	li	s8,912
    2cc4:	006c5463          	bge	s8,t1,2ccc <.L2877>
    2cc8:	5fd0106f          	j	4ac4 <.L1938>

00002ccc <.L2877>:
    2ccc:	0ba00c13          	li	s8,186
    2cd0:	012c5463          	bge	s8,s2,2cd8 <.L2877+0xc>
    2cd4:	6710406f          	j	7b44 <.L1939>
    2cd8:	0b700c13          	li	s8,183
    2cdc:	012c5863          	bge	s8,s2,2cec <.L1940>
    2ce0:	00815c03          	lhu	s8,8(sp)
    2ce4:	008c0c13          	addi	s8,s8,8
    2ce8:	01811423          	sh	s8,8(sp)

00002cec <.L1940>:
    2cec:	e2400c13          	li	s8,-476
    2cf0:	0182c463          	blt	t0,s8,2cf8 <.L2878>
    2cf4:	5f50106f          	j	4ae8 <.L1944>

00002cf8 <.L2878>:
    2cf8:	e0200c13          	li	s8,-510
    2cfc:	018ac463          	blt	s5,s8,2d04 <.L2878+0xc>
    2d00:	2ec0406f          	j	6fec <.L1945>
    2d04:	ff400c13          	li	s8,-12
    2d08:	01864463          	blt	a2,s8,2d10 <.L2878+0x18>
    2d0c:	2f80806f          	j	b004 <.L1946>
    2d10:	00a15c03          	lhu	s8,10(sp)
    2d14:	ffbc0c13          	addi	s8,s8,-5
    2d18:	010c1c13          	slli	s8,s8,0x10
    2d1c:	410c5c13          	srai	s8,s8,0x10

00002d20 <.L1947>:
    2d20:	01811523          	sh	s8,10(sp)
    2d24:	03c00c13          	li	s8,60
    2d28:	00fc4463          	blt	s8,a5,2d30 <.L1958>
    2d2c:	5f50106f          	j	4b20 <.L1962>

00002d30 <.L1958>:
    2d30:	daa00c13          	li	s8,-598
    2d34:	018ac463          	blt	s5,s8,2d3c <.L1958+0xc>
    2d38:	2e00406f          	j	7018 <.L1952>
    2d3c:	ff300c13          	li	s8,-13
    2d40:	01864463          	blt	a2,s8,2d48 <.L1980>
    2d44:	2e40806f          	j	b028 <.L1951>

00002d48 <.L1980>:
    2d48:	00c15c03          	lhu	s8,12(sp)
    2d4c:	05800c93          	li	s9,88
    2d50:	006c0c13          	addi	s8,s8,6
    2d54:	01811623          	sh	s8,12(sp)
    2d58:	009cc463          	blt	s9,s1,2d60 <.L1983>
    2d5c:	5240506f          	j	8280 <.L1981>

00002d60 <.L1983>:
    2d60:	1a500c13          	li	s8,421
    2d64:	007c5463          	bge	s8,t2,2d6c <.L1982>
    2d68:	7000806f          	j	b468 <.L1989>

00002d6c <.L1982>:
    2d6c:	00e15c03          	lhu	s8,14(sp)
    2d70:	001c0c13          	addi	s8,s8,1
    2d74:	01811723          	sh	s8,14(sp)

00002d78 <.L1967>:
    2d78:	01500c13          	li	s8,21
    2d7c:	007c5463          	bge	s8,t2,2d84 <.L1965>
    2d80:	6840406f          	j	7404 <.L1974>

00002d84 <.L1965>:
    2d84:	07000c13          	li	s8,112
    2d88:	012c4863          	blt	s8,s2,2d98 <.L1971>
    2d8c:	00815c03          	lhu	s8,8(sp)
    2d90:	007c0c13          	addi	s8,s8,7
    2d94:	01811423          	sh	s8,8(sp)

00002d98 <.L1971>:
    2d98:	02e00c13          	li	s8,46
    2d9c:	01dc4463          	blt	s8,t4,2da4 <.L2879>
    2da0:	5e10106f          	j	4b80 <.L1992>

00002da4 <.L2879>:
    2da4:	03900c13          	li	s8,57
    2da8:	01fc4463          	blt	s8,t6,2db0 <.L2879+0xc>
    2dac:	55c0506f          	j	8308 <.L1997>
    2db0:	03d00c13          	li	s8,61
    2db4:	00fc4463          	blt	s8,a5,2dbc <.L1998>
    2db8:	4a10606f          	j	9a58 <.L2005>

00002dbc <.L1998>:
    2dbc:	25b00c13          	li	s8,603
    2dc0:	00ec5463          	bge	s8,a4,2dc8 <.L1998+0xc>
    2dc4:	4240106f          	j	41e8 <.L2003>
    2dc8:	0fe00c13          	li	s8,254
    2dcc:	00dc5463          	bge	s8,a3,2dd4 <.L1998+0x18>
    2dd0:	3610506f          	j	8930 <.L2007>
    2dd4:	f5600c13          	li	s8,-170
    2dd8:	018a4463          	blt	s4,s8,2de0 <.L1998+0x24>
    2ddc:	2ec0506f          	j	80c8 <.L2008>
    2de0:	00c15c03          	lhu	s8,12(sp)
    2de4:	fffc0c13          	addi	s8,s8,-1
    2de8:	01811623          	sh	s8,12(sp)

00002dec <.L2009>:
    2dec:	02700c13          	li	s8,39
    2df0:	007c5463          	bge	s8,t2,2df8 <.L2856>
    2df4:	4240106f          	j	4218 <.L2012>

00002df8 <.L2856>:
    2df8:	03d00c13          	li	s8,61
    2dfc:	00fc5463          	bge	s8,a5,2e04 <.L2856+0xc>
    2e00:	1fc0506f          	j	7ffc <.L2013>
    2e04:	00e15c03          	lhu	s8,14(sp)
    2e08:	ff9c0c13          	addi	s8,s8,-7
    2e0c:	010c1c13          	slli	s8,s8,0x10
    2e10:	410c5c13          	srai	s8,s8,0x10

00002e14 <.L2014>:
    2e14:	01811723          	sh	s8,14(sp)
    2e18:	00400c13          	li	s8,4
    2e1c:	011c5463          	bge	s8,a7,2e24 <.L2857>
    2e20:	4300106f          	j	4250 <.L2018>

00002e24 <.L2857>:
    2e24:	03800c13          	li	s8,56
    2e28:	01fc5463          	bge	s8,t6,2e30 <.L2857+0xc>
    2e2c:	1e40506f          	j	8010 <.L2019>
    2e30:	00815c03          	lhu	s8,8(sp)
    2e34:	008c0c13          	addi	s8,s8,8
    2e38:	01811423          	sh	s8,8(sp)

00002e3c <.L2020>:
    2e3c:	0f000c13          	li	s8,240
    2e40:	006c4463          	blt	s8,t1,2e48 <.L2858>
    2e44:	43c0106f          	j	4280 <.L2028>

00002e48 <.L2858>:
    2e48:	f5200c13          	li	s8,-174
    2e4c:	0185c463          	blt	a1,s8,2e54 <.L2858+0xc>
    2e50:	22c0506f          	j	807c <.L2025>
    2e54:	03700c13          	li	s8,55
    2e58:	01fc5463          	bge	s8,t6,2e60 <.L2858+0x18>
    2e5c:	1690806f          	j	b7c4 <.L2037>
    2e60:	00a15c03          	lhu	s8,10(sp)
    2e64:	01500c93          	li	s9,21
    2e68:	ffec0c13          	addi	s8,s8,-2
    2e6c:	01811523          	sh	s8,10(sp)
    2e70:	010cd463          	bge	s9,a6,2e78 <.L2034>
    2e74:	5e80206f          	j	545c <.L2038>

00002e78 <.L2034>:
    2e78:	02200c13          	li	s8,34
    2e7c:	011c4463          	blt	s8,a7,2e84 <.L2034+0xc>
    2e80:	1c80506f          	j	8048 <.L2039>
    2e84:	00c15c03          	lhu	s8,12(sp)
    2e88:	001c0c13          	addi	s8,s8,1
    2e8c:	010c1c13          	slli	s8,s8,0x10
    2e90:	410c5c13          	srai	s8,s8,0x10

00002e94 <.L2042>:
    2e94:	01811623          	sh	s8,12(sp)
    2e98:	01c04463          	bgtz	t3,2ea0 <.L2044>
    2e9c:	43c0106f          	j	42d8 <.L2818>

00002ea0 <.L2044>:
    2ea0:	ff600c13          	li	s8,-10
    2ea4:	01864463          	blt	a2,s8,2eac <.L2044+0xc>
    2ea8:	6b90506f          	j	8d60 <.L2819>
    2eac:	02900c13          	li	s8,41
    2eb0:	01dc5463          	bge	s8,t4,2eb8 <.L2044+0x18>
    2eb4:	3980806f          	j	b24c <.L2820>
    2eb8:	00e15c03          	lhu	s8,14(sp)
    2ebc:	ffbc0c13          	addi	s8,s8,-5
    2ec0:	010c1c13          	slli	s8,s8,0x10
    2ec4:	410c5c13          	srai	s8,s8,0x10

00002ec8 <.L2057>:
    2ec8:	01811723          	sh	s8,14(sp)
    2ecc:	0a900c13          	li	s8,169
    2ed0:	01ec5463          	bge	s8,t5,2ed8 <.L2049>
    2ed4:	4240106f          	j	42f8 <.L2055>

00002ed8 <.L2049>:
    2ed8:	01c00b13          	li	s6,28
    2edc:	00fb5463          	bge	s6,a5,2ee4 <.L2049+0xc>
    2ee0:	5c00206f          	j	54a0 <.L2047>
    2ee4:	07300b13          	li	s6,115
    2ee8:	01eb5463          	bge	s6,t5,2ef0 <.L2049+0x18>
    2eec:	7250706f          	j	ae10 <.L2068>
    2ef0:	00815b03          	lhu	s6,8(sp)
    2ef4:	005b0b13          	addi	s6,s6,5
    2ef8:	01611423          	sh	s6,8(sp)

00002efc <.L2069>:
    2efc:	08300b13          	li	s6,131
    2f00:	009b5463          	bge	s6,s1,2f08 <.L2069+0xc>
    2f04:	13c0206f          	j	5040 <.L2072>
    2f08:	01900b13          	li	s6,25
    2f0c:	013b4463          	blt	s6,s3,2f14 <.L2069+0x18>
    2f10:	4140106f          	j	4324 <.L2075>
    2f14:	00a15b03          	lhu	s6,10(sp)
    2f18:	02700c13          	li	s8,39
    2f1c:	fffb0b13          	addi	s6,s6,-1
    2f20:	01611523          	sh	s6,10(sp)
    2f24:	006c5463          	bge	s8,t1,2f2c <.L2073>
    2f28:	4140106f          	j	433c <.L2074>

00002f2c <.L2073>:
    2f2c:	ff800b13          	li	s6,-8
    2f30:	01665463          	bge	a2,s6,2f38 <.L2091>
    2f34:	17c0406f          	j	70b0 <.L2088>

00002f38 <.L2091>:
    2f38:	00c15b03          	lhu	s6,12(sp)
    2f3c:	ffeb0b13          	addi	s6,s6,-2
    2f40:	010b1b13          	slli	s6,s6,0x10
    2f44:	410b5b13          	srai	s6,s6,0x10

00002f48 <.L2081>:
    2f48:	01611623          	sh	s6,12(sp)
    2f4c:	c5700b13          	li	s6,-937
    2f50:	0165c463          	blt	a1,s6,2f58 <.L2860>
    2f54:	41c0106f          	j	4370 <.L2093>

00002f58 <.L2860>:
    2f58:	00e15b03          	lhu	s6,14(sp)
    2f5c:	006b0b13          	addi	s6,s6,6
    2f60:	01611723          	sh	s6,14(sp)

00002f64 <.L2094>:
    2f64:	01e00b13          	li	s6,30
    2f68:	013b5463          	bge	s6,s3,2f70 <.L2094+0xc>
    2f6c:	7e10106f          	j	4f4c <.L2107>
    2f70:	03d00b13          	li	s6,61
    2f74:	01fb4463          	blt	s6,t6,2f7c <.L2094+0x18>
    2f78:	1500606f          	j	90c8 <.L2821>
    2f7c:	07100b13          	li	s6,113
    2f80:	012b5463          	bge	s6,s2,2f88 <.L2094+0x24>
    2f84:	1700706f          	j	a0f4 <.L2110>
    2f88:	00815b03          	lhu	s6,8(sp)
    2f8c:	02e00c13          	li	s8,46
    2f90:	009b0b13          	addi	s6,s6,9
    2f94:	01611423          	sh	s6,8(sp)
    2f98:	01dc4463          	blt	s8,t4,2fa0 <.L2111>
    2f9c:	4140106f          	j	43b0 <.L2098>

00002fa0 <.L2111>:
    2fa0:	02b00b13          	li	s6,43
    2fa4:	011b5463          	bge	s6,a7,2fac <.L2111+0xc>
    2fa8:	6680606f          	j	9610 <.L2120>
    2fac:	00a15b03          	lhu	s6,10(sp)
    2fb0:	008b0b13          	addi	s6,s6,8
    2fb4:	01611523          	sh	s6,10(sp)

00002fb8 <.L2114>:
    2fb8:	25b00b13          	li	s6,603
    2fbc:	00eb4463          	blt	s6,a4,2fc4 <.L2862>
    2fc0:	4200106f          	j	43e0 <.L2119>

00002fc4 <.L2862>:
    2fc4:	fe900b13          	li	s6,-23
    2fc8:	01664463          	blt	a2,s6,2fd0 <.L2862+0xc>
    2fcc:	0950406f          	j	7860 <.L2116>
    2fd0:	dde00b13          	li	s6,-546
    2fd4:	016a4463          	blt	s4,s6,2fdc <.L2862+0x18>
    2fd8:	46d0706f          	j	ac44 <.L2128>
    2fdc:	00c15b03          	lhu	s6,12(sp)
    2fe0:	005b0b13          	addi	s6,s6,5
    2fe4:	01611623          	sh	s6,12(sp)

00002fe8 <.L2123>:
    2fe8:	02600b13          	li	s6,38
    2fec:	00db5463          	bge	s6,a3,2ff4 <.L2864>
    2ff0:	4200106f          	j	4410 <.L2127>

00002ff4 <.L2864>:
    2ff4:	01300b13          	li	s6,19
    2ff8:	00db5463          	bge	s6,a3,3000 <.L2864+0xc>
    2ffc:	7040506f          	j	8700 <.L2126>
    3000:	08400b13          	li	s6,132
    3004:	007b5463          	bge	s6,t2,300c <.L2864+0x18>
    3008:	7180406f          	j	7720 <.L2663>
    300c:	00e15b03          	lhu	s6,14(sp)
    3010:	00400c13          	li	s8,4
    3014:	003b0b13          	addi	s6,s6,3
    3018:	01611723          	sh	s6,14(sp)
    301c:	011c4463          	blt	s8,a7,3024 <.L2864+0x30>
    3020:	7140206f          	j	5734 <.L2147>
    3024:	ff800b13          	li	s6,-8
    3028:	296658e3          	bge	a2,s6,3ab8 <.L2153>

0000302c <.L2133>:
    302c:	01f00b13          	li	s6,31
    3030:	011b5463          	bge	s6,a7,3038 <.L2133+0xc>
    3034:	6540406f          	j	7688 <.L2822>
    3038:	00815b03          	lhu	s6,8(sp)
    303c:	002b0b13          	addi	s6,s6,2
    3040:	010b1b13          	slli	s6,s6,0x10
    3044:	410b5b13          	srai	s6,s6,0x10

00003048 <.L2134>:
    3048:	01611423          	sh	s6,8(sp)
    304c:	03b00b13          	li	s6,59
    3050:	28fb42e3          	blt	s6,a5,3ad4 <.L2145>

00003054 <.L2836>:
    3054:	33f00b13          	li	s6,831
    3058:	00eb5463          	bge	s6,a4,3060 <.L2836+0xc>
    305c:	6500406f          	j	76ac <.L2148>
    3060:	01400b13          	li	s6,20
    3064:	011b4463          	blt	s6,a7,306c <.L2152>
    3068:	6fc0206f          	j	5764 <.L2150>

0000306c <.L2152>:
    306c:	00a15b03          	lhu	s6,10(sp)
    3070:	ffcb0b13          	addi	s6,s6,-4
    3074:	010b1b13          	slli	s6,s6,0x10
    3078:	410b5b13          	srai	s6,s6,0x10
    307c:	01611523          	sh	s6,10(sp)
    3080:	fdb00b13          	li	s6,-37
    3084:	01675463          	bge	a4,s6,308c <.L2178>
    3088:	6fc0206f          	j	5784 <.L2823>

0000308c <.L2178>:
    308c:	02600b13          	li	s6,38
    3090:	00eb5463          	bge	s6,a4,3098 <.L2178+0xc>
    3094:	6300406f          	j	76c4 <.L2155>
    3098:	03c00b13          	li	s6,60
    309c:	00db5863          	bge	s6,a3,30ac <.L2163>

000030a0 <.L2170>:
    30a0:	00c15683          	lhu	a3,12(sp)
    30a4:	00668693          	addi	a3,a3,6
    30a8:	00d11623          	sh	a3,12(sp)

000030ac <.L2163>:
    30ac:	03100693          	li	a3,49
    30b0:	00f6d463          	bge	a3,a5,30b8 <.L2896>
    30b4:	6f40206f          	j	57a8 <.L2169>

000030b8 <.L2896>:
    30b8:	00e15683          	lhu	a3,14(sp)
    30bc:	ffa68693          	addi	a3,a3,-6
    30c0:	01069693          	slli	a3,a3,0x10
    30c4:	4106d693          	srai	a3,a3,0x10

000030c8 <.L2182>:
    30c8:	00d11723          	sh	a3,14(sp)
    30cc:	0a900b13          	li	s6,169
    30d0:	27eb48e3          	blt	s6,t5,3b40 <.L2186>

000030d4 <.L2837>:
    30d4:	000e5463          	bgez	t3,30dc <.L2837+0x8>
    30d8:	7710506f          	j	9048 <.L2824>
    30dc:	02d00f13          	li	t5,45
    30e0:	01ff5463          	bge	t5,t6,30e8 <.L2837+0x14>
    30e4:	3cc0606f          	j	94b0 <.L2189>
    30e8:	00815f03          	lhu	t5,8(sp)
    30ec:	ffef0f13          	addi	t5,t5,-2
    30f0:	01e11423          	sh	t5,8(sp)

000030f4 <.L2188>:
    30f4:	ef600f13          	li	t5,-266
    30f8:	27ead8e3          	bge	s5,t5,3b68 <.L2192>

000030fc <.L2838>:
    30fc:	ff800f13          	li	t5,-8
    3100:	01e64463          	blt	a2,t5,3108 <.L2838+0xc>
    3104:	7550306f          	j	7058 <.L2193>
    3108:	01c51e83          	lh	t4,28(a0)
    310c:	01e00513          	li	a0,30
    3110:	01d55463          	bge	a0,t4,3118 <.L2838+0x1c>
    3114:	3ec0706f          	j	a500 <.L2194>
    3118:	00a15503          	lhu	a0,10(sp)
    311c:	00250513          	addi	a0,a0,2
    3120:	01051513          	slli	a0,a0,0x10
    3124:	41055513          	srai	a0,a0,0x10

00003128 <.L2195>:
    3128:	00a11523          	sh	a0,10(sp)
    312c:	25b00513          	li	a0,603
    3130:	26e546e3          	blt	a0,a4,3b9c <.L2204>

00003134 <.L2200>:
    3134:	00e00513          	li	a0,14
    3138:	01055463          	bge	a0,a6,3140 <.L2200+0xc>
    313c:	4e00406f          	j	761c <.L2825>
    3140:	f6300513          	li	a0,-157
    3144:	00a5c463          	blt	a1,a0,314c <.L2200+0x18>
    3148:	74d0706f          	j	b094 <.L2205>
    314c:	00c15503          	lhu	a0,12(sp)
    3150:	ffc50513          	addi	a0,a0,-4
    3154:	01051513          	slli	a0,a0,0x10
    3158:	41055513          	srai	a0,a0,0x10

0000315c <.L2206>:
    315c:	00a11623          	sh	a0,12(sp)
    3160:	02800513          	li	a0,40
    3164:	00755463          	bge	a0,t2,316c <.L2206+0x10>
    3168:	48c0206f          	j	55f4 <.L2208>
    316c:	03c00513          	li	a0,60
    3170:	00f54463          	blt	a0,a5,3178 <.L2209>
    3174:	4c80406f          	j	763c <.L2221>

00003178 <.L2209>:
    3178:	f7a00693          	li	a3,-134
    317c:	26da48e3          	blt	s4,a3,3bec <.L2826>

00003180 <.L2215>:
    3180:	00b00693          	li	a3,11
    3184:	0136d463          	bge	a3,s3,318c <.L2215+0xc>
    3188:	3c10306f          	j	6d48 <.L2231>
    318c:	19f00693          	li	a3,415
    3190:	0126d463          	bge	a3,s2,3198 <.L2215+0x18>
    3194:	3b80706f          	j	a54c <.L2232>
    3198:	00815683          	lhu	a3,8(sp)
    319c:	00868693          	addi	a3,a3,8
    31a0:	01069693          	slli	a3,a3,0x10
    31a4:	4106d693          	srai	a3,a3,0x10

000031a8 <.L2233>:
    31a8:	00d11423          	sh	a3,8(sp)

000031ac <.L2230>:
    31ac:	03300693          	li	a3,51
    31b0:	27f6c4e3          	blt	a3,t6,3c18 <.L2238>

000031b4 <.L2840>:
    31b4:	11700693          	li	a3,279
    31b8:	00e6d463          	bge	a3,a4,31c0 <.L2840+0xc>
    31bc:	3880106f          	j	4544 <.L2235>
    31c0:	ffe00713          	li	a4,-2
    31c4:	00e84463          	blt	a6,a4,31cc <.L2840+0x18>
    31c8:	7340706f          	j	a8fc <.L2239>
    31cc:	00a15703          	lhu	a4,10(sp)
    31d0:	f5b00693          	li	a3,-165
    31d4:	fff70713          	addi	a4,a4,-1
    31d8:	00e11523          	sh	a4,10(sp)
    31dc:	00d2c463          	blt	t0,a3,31e4 <.L2671>
    31e0:	3880106f          	j	4568 <.L2240>

000031e4 <.L2671>:
    31e4:	f5600793          	li	a5,-170
    31e8:	00fa4463          	blt	s4,a5,31f0 <.L2243>
    31ec:	2d00406f          	j	74bc <.L2241>

000031f0 <.L2243>:
    31f0:	00c15783          	lhu	a5,12(sp)
    31f4:	ffe78793          	addi	a5,a5,-2
    31f8:	01079793          	slli	a5,a5,0x10
    31fc:	4107d793          	srai	a5,a5,0x10

00003200 <.L2242>:
    3200:	00f11623          	sh	a5,12(sp)
    3204:	c0000793          	li	a5,-1024
    3208:	26f5dae3          	bge	a1,a5,3c7c <.L2249>

0000320c <.L2841>:
    320c:	00e15783          	lhu	a5,14(sp)
    3210:	00678793          	addi	a5,a5,6
    3214:	00f11723          	sh	a5,14(sp)

00003218 <.L2250>:
    3218:	cc817057          	vsetivli	zero,2,e16,m1,ta,ma
    321c:	00810793          	addi	a5,sp,8
    3220:	0207d107          	vle16.v	v2,(a5)
    3224:	02000713          	li	a4,32
    3228:	5e0741d7          	vmv.v.x	v3,a4
    322c:	020bd087          	vle16.v	v1,(s7)
    3230:	02218157          	vadd.vv	v2,v2,v3
    3234:	021180d7          	vadd.vv	v1,v1,v3
    3238:	3e20b1d7          	vslidedown.vi	v3,v2,1
    323c:	422026d7          	vmv.x.s	a3,v2
    3240:	0207d127          	vse16.v	v2,(a5)
    3244:	42302557          	vmv.x.s	a0,v3
    3248:	020bd0a7          	vse16.v	v1,(s7)
    324c:	01069693          	slli	a3,a3,0x10
    3250:	01051513          	slli	a0,a0,0x10
    3254:	4106d693          	srai	a3,a3,0x10
    3258:	41055513          	srai	a0,a0,0x10
    325c:	00a6a533          	slt	a0,a3,a0
    3260:	00151693          	slli	a3,a0,0x1
    3264:	42102757          	vmv.x.s	a4,v1
    3268:	00d78633          	add	a2,a5,a3
    326c:	00061603          	lh	a2,0(a2)
    3270:	01071713          	slli	a4,a4,0x10
    3274:	41075713          	srai	a4,a4,0x10
    3278:	00e65663          	bge	a2,a4,3284 <.L2252>
    327c:	00200513          	li	a0,2
    3280:	00400693          	li	a3,4

00003284 <.L2252>:
    3284:	3e10b0d7          	vslidedown.vi	v1,v1,1
    3288:	00d787b3          	add	a5,a5,a3
    328c:	00079703          	lh	a4,0(a5)
    3290:	421027d7          	vmv.x.s	a5,v1
    3294:	01079793          	slli	a5,a5,0x10
    3298:	4107d793          	srai	a5,a5,0x10
    329c:	00f75463          	bge	a4,a5,32a4 <.L2541>
    32a0:	00300513          	li	a0,3

000032a4 <.L2541>:
    32a4:	03c12403          	lw	s0,60(sp)
    32a8:	03812483          	lw	s1,56(sp)
    32ac:	03412903          	lw	s2,52(sp)
    32b0:	03012983          	lw	s3,48(sp)
    32b4:	02c12a03          	lw	s4,44(sp)
    32b8:	02812a83          	lw	s5,40(sp)
    32bc:	02412b03          	lw	s6,36(sp)
    32c0:	02012b83          	lw	s7,32(sp)
    32c4:	01c12c03          	lw	s8,28(sp)
    32c8:	01812c83          	lw	s9,24(sp)
    32cc:	01412d03          	lw	s10,20(sp)
    32d0:	04010113          	addi	sp,sp,64
    32d4:	00008067          	ret

000032d8 <.L934>:
    32d8:	00e15c03          	lhu	s8,14(sp)
    32dc:	ffac0c13          	addi	s8,s8,-6
    32e0:	01811723          	sh	s8,14(sp)
    32e4:	e8dfd06f          	j	1170 <.L940>

000032e8 <.L712>:
    32e8:	00e15c03          	lhu	s8,14(sp)
    32ec:	0a900c93          	li	s9,169
    32f0:	00cc0c13          	addi	s8,s8,12
    32f4:	01811723          	sh	s8,14(sp)
    32f8:	01ecc463          	blt	s9,t5,3300 <.L712+0x18>
    32fc:	1290306f          	j	6c24 <.L2731>
    3300:	10700c13          	li	s8,263
    3304:	007c5463          	bge	s8,t2,330c <.L714>
    3308:	75c0806f          	j	ba64 <.L2534>

0000330c <.L714>:
    330c:	00815c03          	lhu	s8,8(sp)
    3310:	ffcc0c13          	addi	s8,s8,-4
    3314:	01811423          	sh	s8,8(sp)
    3318:	b51fd06f          	j	e68 <.L715>

0000331c <.L348>:
    331c:	ff700c13          	li	s8,-9
    3320:	01864463          	blt	a2,s8,3328 <.L348+0xc>
    3324:	3c50306f          	j	6ee8 <.L360>
    3328:	03100c13          	li	s8,49
    332c:	01dc5463          	bge	s8,t4,3334 <.L348+0x18>
    3330:	2e10306f          	j	6e10 <.L361>
    3334:	00a15c03          	lhu	s8,10(sp)
    3338:	17000c93          	li	s9,368
    333c:	ffac0c13          	addi	s8,s8,-6
    3340:	01811523          	sh	s8,10(sp)
    3344:	00dcd463          	bge	s9,a3,334c <.L353>
    3348:	2e10306f          	j	6e28 <.L362>

0000334c <.L353>:
    334c:	01200c13          	li	s8,18
    3350:	01dc5463          	bge	s8,t4,3358 <.L353+0xc>
    3354:	4140706f          	j	a768 <.L363>
    3358:	00c15c03          	lhu	s8,12(sp)
    335c:	006c0c13          	addi	s8,s8,6
    3360:	010c1c13          	slli	s8,s8,0x10
    3364:	410c5c13          	srai	s8,s8,0x10
    3368:	01811623          	sh	s8,12(sp)
    336c:	e9900c13          	li	s8,-359
    3370:	0185c463          	blt	a1,s8,3378 <.L368>
    3374:	ce8fd06f          	j	85c <.L372>

00003378 <.L368>:
    3378:	20200c13          	li	s8,514
    337c:	016c5463          	bge	s8,s6,3384 <.L368+0xc>
    3380:	1c40506f          	j	8544 <.L373>
    3384:	df000c13          	li	s8,-528
    3388:	0182c463          	blt	t0,s8,3390 <.L368+0x18>
    338c:	2490606f          	j	9dd4 <.L374>
    3390:	00e15c03          	lhu	s8,14(sp)
    3394:	ff7c0c13          	addi	s8,s8,-9
    3398:	010c1c13          	slli	s8,s8,0x10
    339c:	410c5c13          	srai	s8,s8,0x10
    33a0:	01811723          	sh	s8,14(sp)
    33a4:	0a900c13          	li	s8,169
    33a8:	01ec4463          	blt	s8,t5,33b0 <.L378>
    33ac:	ce8fd06f          	j	894 <.L2827>

000033b0 <.L378>:
    33b0:	ea900c13          	li	s8,-343
    33b4:	018a4463          	blt	s4,s8,33bc <.L378+0xc>
    33b8:	34d0406f          	j	7f04 <.L393>
    33bc:	00d00c13          	li	s8,13
    33c0:	013c5463          	bge	s8,s3,33c8 <.L378+0x18>
    33c4:	6e40606f          	j	9aa8 <.L394>
    33c8:	00815c03          	lhu	s8,8(sp)
    33cc:	ffdc0c13          	addi	s8,s8,-3
    33d0:	010c1c13          	slli	s8,s8,0x10
    33d4:	410c5c13          	srai	s8,s8,0x10

000033d8 <.L395>:
    33d8:	01811423          	sh	s8,8(sp)
    33dc:	0b500c13          	li	s8,181
    33e0:	006c5463          	bge	s8,t1,33e8 <.L2930>
    33e4:	34d0406f          	j	7f30 <.L397>

000033e8 <.L2930>:
    33e8:	00a00c13          	li	s8,10
    33ec:	011c4463          	blt	s8,a7,33f4 <.L2930+0xc>
    33f0:	48c0306f          	j	687c <.L382>
    33f4:	18f00c13          	li	s8,399
    33f8:	01ec4463          	blt	s8,t5,3400 <.L2930+0x18>
    33fc:	cd4fd06f          	j	8d0 <.L388>
    3400:	00a15c03          	lhu	s8,10(sp)
    3404:	ffdc0c13          	addi	s8,s8,-3
    3408:	010c1c13          	slli	s8,s8,0x10
    340c:	410c5c13          	srai	s8,s8,0x10
    3410:	01811523          	sh	s8,10(sp)
    3414:	06300c13          	li	s8,99
    3418:	00dc4463          	blt	s8,a3,3420 <.L400>
    341c:	cd4fd06f          	j	8f0 <.L2828>

00003420 <.L400>:
    3420:	ff700c13          	li	s8,-9
    3424:	01864463          	blt	a2,s8,342c <.L400+0xc>
    3428:	1b90406f          	j	7de0 <.L408>
    342c:	03300c13          	li	s8,51
    3430:	01dc4463          	blt	s8,t4,3438 <.L400+0x18>
    3434:	1990406f          	j	7dcc <.L410>
    3438:	00c15c03          	lhu	s8,12(sp)
    343c:	ffdc0c13          	addi	s8,s8,-3
    3440:	010c1c13          	slli	s8,s8,0x10
    3444:	410c5c13          	srai	s8,s8,0x10
    3448:	01811623          	sh	s8,12(sp)
    344c:	03b00c13          	li	s8,59
    3450:	00fc4463          	blt	s8,a5,3458 <.L411>
    3454:	cd4fd06f          	j	928 <.L2829>

00003458 <.L411>:
    3458:	e4700c13          	li	s8,-441
    345c:	0182c463          	blt	t0,s8,3464 <.L411+0xc>
    3460:	51c0306f          	j	697c <.L407>
    3464:	bf300c13          	li	s8,-1037
    3468:	0185c463          	blt	a1,s8,3470 <.L411+0x18>
    346c:	4980306f          	j	6904 <.L406>
    3470:	00e15c03          	lhu	s8,14(sp)
    3474:	00ac0c13          	addi	s8,s8,10
    3478:	010c1c13          	slli	s8,s8,0x10
    347c:	410c5c13          	srai	s8,s8,0x10
    3480:	01811723          	sh	s8,14(sp)
    3484:	0a900c13          	li	s8,169
    3488:	01ec4463          	blt	s8,t5,3490 <.L415>
    348c:	cc8fd06f          	j	954 <.L2830>

00003490 <.L415>:
    3490:	01e00c13          	li	s8,30
    3494:	013c5463          	bge	s8,s3,349c <.L415+0xc>
    3498:	1240506f          	j	85bc <.L422>
    349c:	ea900c13          	li	s8,-343
    34a0:	018a4463          	blt	s4,s8,34a8 <.L415+0x18>
    34a4:	2480606f          	j	96ec <.L423>
    34a8:	00815c03          	lhu	s8,8(sp)
    34ac:	ffbc0c13          	addi	s8,s8,-5
    34b0:	010c1c13          	slli	s8,s8,0x10
    34b4:	410c5c13          	srai	s8,s8,0x10
    34b8:	01811423          	sh	s8,8(sp)
    34bc:	03900c13          	li	s8,57
    34c0:	00ec4463          	blt	s8,a4,34c8 <.L424>
    34c4:	cccfd06f          	j	990 <.L2831>

000034c8 <.L424>:
    34c8:	08c00c13          	li	s8,140
    34cc:	006c5463          	bge	s8,t1,34d4 <.L424+0xc>
    34d0:	0b00306f          	j	6580 <.L435>
    34d4:	00a00c13          	li	s8,10
    34d8:	011c5463          	bge	s8,a7,34e0 <.L424+0x18>
    34dc:	2dc0606f          	j	97b8 <.L436>
    34e0:	00a15c03          	lhu	s8,10(sp)
    34e4:	008c0c13          	addi	s8,s8,8
    34e8:	010c1c13          	slli	s8,s8,0x10
    34ec:	410c5c13          	srai	s8,s8,0x10

000034f0 <.L437>:
    34f0:	01811523          	sh	s8,10(sp)
    34f4:	06300c13          	li	s8,99
    34f8:	16dc5e63          	bge	s8,a3,3674 <.L432>
    34fc:	ed000c13          	li	s8,-304
    3500:	018ac463          	blt	s5,s8,3508 <.L437+0x18>
    3504:	5a10206f          	j	62a4 <.L430>
    3508:	25b00c13          	li	s8,603
    350c:	00ec4463          	blt	s8,a4,3514 <.L437+0x24>
    3510:	cbcfd06f          	j	9cc <.L433>
    3514:	00c15c03          	lhu	s8,12(sp)
    3518:	e2500c93          	li	s9,-475
    351c:	ffec0c13          	addi	s8,s8,-2
    3520:	01811623          	sh	s8,12(sp)
    3524:	01945463          	bge	s0,s9,352c <.L447>
    3528:	cc4fd06f          	j	9ec <.L446>

0000352c <.L447>:
    352c:	03d00c13          	li	s8,61
    3530:	01fc5463          	bge	s8,t6,3538 <.L447+0xc>
    3534:	0a10706f          	j	add4 <.L455>
    3538:	00e15c03          	lhu	s8,14(sp)
    353c:	ff8c0c13          	addi	s8,s8,-8
    3540:	010c1c13          	slli	s8,s8,0x10
    3544:	410c5c13          	srai	s8,s8,0x10

00003548 <.L454>:
    3548:	01811723          	sh	s8,14(sp)
    354c:	f5c00c13          	li	s8,-164
    3550:	01845463          	bge	s0,s8,3558 <.L454+0x10>
    3554:	cbcfd06f          	j	a10 <.L451>
    3558:	0bb00c13          	li	s8,187
    355c:	012c5463          	bge	s8,s2,3564 <.L454+0x1c>
    3560:	7f90206f          	j	6558 <.L462>
    3564:	18500c13          	li	s8,389
    3568:	009c5463          	bge	s8,s1,3570 <.L454+0x28>
    356c:	1cc0606f          	j	9738 <.L463>
    3570:	00815c03          	lhu	s8,8(sp)
    3574:	0b500c93          	li	s9,181
    3578:	009c0c13          	addi	s8,s8,9
    357c:	01811423          	sh	s8,8(sp)
    3580:	006cc463          	blt	s9,t1,3588 <.L472>
    3584:	cc4fd06f          	j	a48 <.L465>

00003588 <.L472>:
    3588:	01300c13          	li	s8,19
    358c:	00ec5463          	bge	s8,a4,3594 <.L472+0xc>
    3590:	3880306f          	j	6918 <.L474>
    3594:	00a15c03          	lhu	s8,10(sp)
    3598:	2be00c93          	li	s9,702
    359c:	ffac0c13          	addi	s8,s8,-6
    35a0:	01811523          	sh	s8,10(sp)
    35a4:	00dcc463          	blt	s9,a3,35ac <.L472+0x24>
    35a8:	3940306f          	j	693c <.L475>
    35ac:	e4e00c13          	li	s8,-434
    35b0:	018ac463          	blt	s5,s8,35b8 <.L2572>
    35b4:	4d80806f          	j	ba8c <.L2573>

000035b8 <.L2572>:
    35b8:	00c15c03          	lhu	s8,12(sp)
    35bc:	00bc0c13          	addi	s8,s8,11
    35c0:	01811623          	sh	s8,12(sp)
    35c4:	41d0506f          	j	91e0 <.L498>

000035c8 <.L2732>:
    35c8:	01fc5463          	bge	s8,t6,35d0 <.L2732+0x8>
    35cc:	3d10606f          	j	a19c <.L1070>
    35d0:	08d00c13          	li	s8,141
    35d4:	00dc5463          	bge	s8,a3,35dc <.L2732+0x14>
    35d8:	0090806f          	j	bde0 <.L1065>
    35dc:	00e15c03          	lhu	s8,14(sp)
    35e0:	ffe00c93          	li	s9,-2
    35e4:	004c0c13          	addi	s8,s8,4
    35e8:	01811723          	sh	s8,14(sp)
    35ec:	01984463          	blt	a6,s9,35f4 <.L1064>
    35f0:	d71fd06f          	j	1360 <.L1062>

000035f4 <.L1064>:
    35f4:	de600c13          	li	s8,-538
    35f8:	018a4463          	blt	s4,s8,3600 <.L1064+0xc>
    35fc:	0a50806f          	j	bea0 <.L1084>
    3600:	00815c03          	lhu	s8,8(sp)
    3604:	30000c93          	li	s9,768
    3608:	ffac0c13          	addi	s8,s8,-6
    360c:	01811423          	sh	s8,8(sp)
    3610:	01ecc463          	blt	s9,t5,3618 <.L1086>
    3614:	d75fd06f          	j	1388 <.L1085>

00003618 <.L1086>:
    3618:	01c51c83          	lh	s9,28(a0)
    361c:	fdf00c13          	li	s8,-33
    3620:	018cc463          	blt	s9,s8,3628 <.L1086+0x10>
    3624:	5990106f          	j	53bc <.L1100>
    3628:	04900c13          	li	s8,73
    362c:	011c4463          	blt	s8,a7,3634 <.L1086+0x1c>
    3630:	a2dfe06f          	j	205c <.L1104>
    3634:	08600c13          	li	s8,134
    3638:	01dc5463          	bge	s8,t4,3640 <.L2258>
    363c:	0490406f          	j	7e84 <.L1110>

00003640 <.L2258>:
    3640:	e4a00c13          	li	s8,-438
    3644:	0182c463          	blt	t0,s8,364c <.L2258+0xc>
    3648:	a35fe06f          	j	207c <.L1112>
    364c:	5b90106f          	j	5404 <.L1115>

00003650 <.L425>:
    3650:	42700c13          	li	s8,1063
    3654:	007c5463          	bge	s8,t2,365c <.L425+0xc>
    3658:	2080606f          	j	9860 <.L434>
    365c:	00a15c03          	lhu	s8,10(sp)
    3660:	06300c93          	li	s9,99
    3664:	ff7c0c13          	addi	s8,s8,-9
    3668:	01811523          	sh	s8,10(sp)
    366c:	00dcd463          	bge	s9,a3,3674 <.L432>
    3670:	b50fd06f          	j	9c0 <.L427>

00003674 <.L432>:
    3674:	f2100c13          	li	s8,-223
    3678:	0185c463          	blt	a1,s8,3680 <.L432+0xc>
    367c:	4890206f          	j	6304 <.L2832>
    3680:	23000c13          	li	s8,560
    3684:	01ec5463          	bge	s8,t5,368c <.L432+0x18>
    3688:	24c0606f          	j	98d4 <.L440>
    368c:	00c15c03          	lhu	s8,12(sp)
    3690:	ff7c0c13          	addi	s8,s8,-9
    3694:	010c1c13          	slli	s8,s8,0x10
    3698:	410c5c13          	srai	s8,s8,0x10
    369c:	01811623          	sh	s8,12(sp)
    36a0:	e2500c13          	li	s8,-475
    36a4:	01845463          	bge	s0,s8,36ac <.L443>
    36a8:	b44fd06f          	j	9ec <.L446>

000036ac <.L443>:
    36ac:	03800c13          	li	s8,56
    36b0:	e6ec4ee3          	blt	s8,a4,352c <.L447>
    36b4:	03a00c13          	li	s8,58
    36b8:	00fc5463          	bge	s8,a5,36c0 <.L443+0x14>
    36bc:	4e10606f          	j	a39c <.L453>
    36c0:	00e15c03          	lhu	s8,14(sp)
    36c4:	ff9c0c13          	addi	s8,s8,-7
    36c8:	010c1c13          	slli	s8,s8,0x10
    36cc:	410c5c13          	srai	s8,s8,0x10
    36d0:	e79ff06f          	j	3548 <.L454>

000036d4 <.L192>:
    36d4:	00e15e03          	lhu	t3,14(sp)
    36d8:	0d900c13          	li	s8,217
    36dc:	002e0e13          	addi	t3,t3,2
    36e0:	01c11723          	sh	t3,14(sp)
    36e4:	01ec5463          	bge	s8,t5,36ec <.L194>
    36e8:	f89fc06f          	j	670 <.L2356>

000036ec <.L194>:
    36ec:	01a00e13          	li	t3,26
    36f0:	010e5463          	bge	t3,a6,36f8 <.L194+0xc>
    36f4:	4310406f          	j	8324 <.L206>
    36f8:	0da00e13          	li	t3,218
    36fc:	012e4463          	blt	t3,s2,3704 <.L194+0x18>
    3700:	0750606f          	j	9f74 <.L207>
    3704:	08000e13          	li	t3,128
    3708:	00ee4463          	blt	t3,a4,3710 <.L2557>
    370c:	f89fc06f          	j	694 <.L215>

00003710 <.L2557>:
    3710:	03d00e13          	li	t3,61
    3714:	00fe4463          	blt	t3,a5,371c <.L213>
    3718:	51d0506f          	j	9434 <.L211>

0000371c <.L213>:
    371c:	00a15e03          	lhu	t3,10(sp)
    3720:	08c00c13          	li	s8,140
    3724:	ff7e0e13          	addi	t3,t3,-9
    3728:	01c11523          	sh	t3,10(sp)
    372c:	00dc5463          	bge	s8,a3,3734 <.L249>
    3730:	2350206f          	j	6164 <.L2728>

00003734 <.L249>:
    3734:	01c51c03          	lh	s8,28(a0)
    3738:	03b00e13          	li	t3,59
    373c:	018e5463          	bge	t3,s8,3744 <.L249+0x10>
    3740:	0080806f          	j	b748 <.L260>
    3744:	00c15e03          	lhu	t3,12(sp)
    3748:	ff7e0e13          	addi	t3,t3,-9
    374c:	01c11623          	sh	t3,12(sp)

00003750 <.L259>:
    3750:	1e500e13          	li	t3,485
    3754:	01ee5463          	bge	t3,t5,375c <.L259+0xc>
    3758:	3f50406f          	j	834c <.L277>
    375c:	ec100e13          	li	t3,-319
    3760:	01c44463          	blt	s0,t3,3768 <.L259+0x18>
    3764:	5700606f          	j	9cd4 <.L278>
    3768:	00e15e03          	lhu	t3,14(sp)
    376c:	00ce0e13          	addi	t3,t3,12
    3770:	010e1e13          	slli	t3,t3,0x10
    3774:	410e5e13          	srai	t3,t3,0x10
    3778:	01c11723          	sh	t3,14(sp)
    377c:	efb00e13          	li	t3,-261
    3780:	01ca5463          	bge	s4,t3,3788 <.L280>
    3784:	fa5fc06f          	j	728 <.L2833>

00003788 <.L280>:
    3788:	01f00e13          	li	t3,31
    378c:	013e5463          	bge	t3,s3,3794 <.L280+0xc>
    3790:	1410306f          	j	70d0 <.L302>
    3794:	0d800e13          	li	t3,216
    3798:	012e5463          	bge	t3,s2,37a0 <.L280+0x18>
    379c:	34c0706f          	j	aae8 <.L303>
    37a0:	00815e03          	lhu	t3,8(sp)
    37a4:	00be0e13          	addi	t3,t3,11
    37a8:	010e1e13          	slli	t3,t3,0x10
    37ac:	410e5e13          	srai	t3,t3,0x10

000037b0 <.L304>:
    37b0:	01c11423          	sh	t3,8(sp)
    37b4:	2df00e13          	li	t3,735
    37b8:	00ee4463          	blt	t3,a4,37c0 <.L304+0x10>
    37bc:	5100206f          	j	5ccc <.L305>
    37c0:	00001e37          	lui	t3,0x1
    37c4:	bace0e13          	addi	t3,t3,-1108 # bac <.L546+0x20>
    37c8:	00de5463          	bge	t3,a3,37d0 <.L304+0x20>
    37cc:	2180306f          	j	69e4 <.L309>
    37d0:	f5100e13          	li	t3,-175
    37d4:	01ca5463          	bge	s4,t3,37dc <.L304+0x2c>
    37d8:	1110806f          	j	c0e8 <.L2834>
    37dc:	00a15e03          	lhu	t3,10(sp)
    37e0:	08f00c13          	li	s8,143
    37e4:	ff8e0e13          	addi	t3,t3,-8
    37e8:	01c11523          	sh	t3,10(sp)
    37ec:	00dc5463          	bge	s8,a3,37f4 <.L304+0x44>
    37f0:	67c0606f          	j	9e6c <.L2564>
    37f4:	03300e13          	li	t3,51
    37f8:	00fe4463          	blt	t3,a5,3800 <.L2562>
    37fc:	4480806f          	j	bc44 <.L316>

00003800 <.L2562>:
    3800:	02051e03          	lh	t3,32(a0)

00003804 <.L313>:
    3804:	01c51c83          	lh	s9,28(a0)
    3808:	03b00c13          	li	s8,59
    380c:	019c5463          	bge	s8,s9,3814 <.L313+0x10>
    3810:	31c0606f          	j	9b2c <.L322>
    3814:	00c15c03          	lhu	s8,12(sp)
    3818:	ff8c0c13          	addi	s8,s8,-8
    381c:	010c1c13          	slli	s8,s8,0x10
    3820:	010c5c13          	srli	s8,s8,0x10

00003824 <.L323>:
    3824:	01811623          	sh	s8,12(sp)
    3828:	03c00c13          	li	s8,60
    382c:	00fc4463          	blt	s8,a5,3834 <.L325>
    3830:	4f80206f          	j	5d28 <.L319>

00003834 <.L325>:
    3834:	e2d00c13          	li	s8,-467
    3838:	0182c463          	blt	t0,s8,3840 <.L325+0xc>
    383c:	2140306f          	j	6a50 <.L329>
    3840:	03e00c13          	li	s8,62
    3844:	00fc5463          	bge	s8,a5,384c <.L325+0x18>
    3848:	6b40606f          	j	9efc <.L339>
    384c:	00e15c03          	lhu	s8,14(sp)
    3850:	ff7c0c13          	addi	s8,s8,-9
    3854:	010c1c13          	slli	s8,s8,0x10
    3858:	410c5c13          	srai	s8,s8,0x10
    385c:	01811723          	sh	s8,14(sp)
    3860:	efb00c13          	li	s8,-261
    3864:	018a5463          	bge	s4,s8,386c <.L341>
    3868:	f75fc06f          	j	7dc <.L2835>

0000386c <.L341>:
    386c:	01900c13          	li	s8,25
    3870:	013c5463          	bge	s8,s3,3878 <.L341+0xc>
    3874:	1390206f          	j	61ac <.L346>
    3878:	0be00c13          	li	s8,190
    387c:	012c5463          	bge	s8,s2,3884 <.L341+0x18>
    3880:	f81fc06f          	j	800 <.L344>
    3884:	00815c03          	lhu	s8,8(sp)
    3888:	00ac0c13          	addi	s8,s8,10
    388c:	01811423          	sh	s8,8(sp)
    3890:	f71fc06f          	j	800 <.L344>

00003894 <.L2318>:
    3894:	01e51583          	lh	a1,30(a0)
    3898:	00c51903          	lh	s2,12(a0)

0000389c <.L34>:
    389c:	0b400893          	li	a7,180
    38a0:	0128c463          	blt	a7,s2,38a8 <.L34+0xc>
    38a4:	7640606f          	j	a008 <.L37>
    38a8:	1b500893          	li	a7,437
    38ac:	00e8c463          	blt	a7,a4,38b4 <.L44>
    38b0:	ac9fc06f          	j	378 <.L2544>

000038b4 <.L44>:
    38b4:	40a00893          	li	a7,1034
    38b8:	00d8d463          	bge	a7,a3,38c0 <.L44+0xc>
    38bc:	7290206f          	j	67e4 <.L55>
    38c0:	10f00893          	li	a7,271
    38c4:	0098d463          	bge	a7,s1,38cc <.L44+0x18>
    38c8:	1990606f          	j	a260 <.L56>
    38cc:	00a15883          	lhu	a7,10(sp)
    38d0:	df700e13          	li	t3,-521
    38d4:	ffe88893          	addi	a7,a7,-2
    38d8:	01111523          	sh	a7,10(sp)
    38dc:	01ca4463          	blt	s4,t3,38e4 <.L60>
    38e0:	7290206f          	j	6808 <.L2548>

000038e4 <.L60>:
    38e4:	ff400893          	li	a7,-12
    38e8:	01165463          	bge	a2,a7,38f0 <.L60+0xc>
    38ec:	1b10406f          	j	829c <.L2324>
    38f0:	02a51883          	lh	a7,42(a0)

000038f4 <.L59>:
    38f4:	00c15e03          	lhu	t3,12(sp)
    38f8:	ff6e0e13          	addi	t3,t3,-10
    38fc:	010e1e13          	slli	t3,t3,0x10
    3900:	410e5e13          	srai	t3,t3,0x10
    3904:	8d1fc06f          	j	1d4 <.L65>

00003908 <.L136>:
    3908:	01c51c03          	lh	s8,28(a0)
    390c:	03500e13          	li	t3,53
    3910:	018e5463          	bge	t3,s8,3918 <.L136+0x10>
    3914:	1e80706f          	j	aafc <.L141>
    3918:	00815e03          	lhu	t3,8(sp)
    391c:	0a600c13          	li	s8,166
    3920:	ff7e0e13          	addi	t3,t3,-9
    3924:	01c11423          	sh	t3,8(sp)
    3928:	00ec5463          	bge	s8,a4,3930 <.L143>
    392c:	bb5fc06f          	j	4e0 <.L2552>

00003930 <.L143>:
    3930:	ffe00e13          	li	t3,-2
    3934:	01c64463          	blt	a2,t3,393c <.L143+0xc>
    3938:	4800306f          	j	6db8 <.L149>
    393c:	e2c00e13          	li	t3,-468
    3940:	01c2c463          	blt	t0,t3,3948 <.L143+0x18>
    3944:	4500206f          	j	5d94 <.L150>
    3948:	00a15e03          	lhu	t3,10(sp)
    394c:	10b00c13          	li	s8,267
    3950:	001e0e13          	addi	t3,t3,1
    3954:	01c11523          	sh	t3,10(sp)
    3958:	00dc4463          	blt	s8,a3,3960 <.L152>
    395c:	4500206f          	j	5dac <.L161>

00003960 <.L152>:
    3960:	00c15e03          	lhu	t3,12(sp)
    3964:	012e0e13          	addi	t3,t3,18
    3968:	010e1e13          	slli	t3,t3,0x10
    396c:	410e5e13          	srai	t3,t3,0x10

00003970 <.L175>:
    3970:	01c11623          	sh	t3,12(sp)
    3974:	03c00e13          	li	t3,60
    3978:	00fe5463          	bge	t3,a5,3980 <.L170>
    397c:	cc5fc06f          	j	640 <.L174>

00003980 <.L170>:
    3980:	ce400e13          	li	t3,-796
    3984:	01c5c463          	blt	a1,t3,398c <.L2901>
    3988:	4540206f          	j	5ddc <.L188>

0000398c <.L2901>:
    398c:	19c00e13          	li	t3,412
    3990:	00ee5463          	bge	t3,a4,3998 <.L2901+0xc>
    3994:	73c0206f          	j	60d0 <.L189>
    3998:	00e15e03          	lhu	t3,14(sp)
    399c:	012e0e13          	addi	t3,t3,18
    39a0:	010e1e13          	slli	t3,t3,0x10
    39a4:	410e5e13          	srai	t3,t3,0x10

000039a8 <.L190>:
    39a8:	01c11723          	sh	t3,14(sp)
    39ac:	0d900e13          	li	t3,217
    39b0:	d3ee5ee3          	bge	t3,t5,36ec <.L194>
    39b4:	07a00e13          	li	t3,122
    39b8:	006e4463          	blt	t3,t1,39c0 <.L190+0x18>
    39bc:	7f90306f          	j	79b4 <.L196>
    39c0:	02700e13          	li	t3,39
    39c4:	00fe5463          	bge	t3,a5,39cc <.L190+0x24>
    39c8:	6f40806f          	j	c0bc <.L221>
    39cc:	00815e03          	lhu	t3,8(sp)
    39d0:	08000c13          	li	s8,128
    39d4:	004e0e13          	addi	t3,t3,4
    39d8:	01c11423          	sh	t3,8(sp)
    39dc:	00ec4463          	blt	s8,a4,39e4 <.L190+0x3c>
    39e0:	cb5fc06f          	j	694 <.L215>
    39e4:	f2000e13          	li	t3,-224
    39e8:	01ca4463          	blt	s4,t3,39f0 <.L190+0x48>
    39ec:	0800706f          	j	aa6c <.L223>
    39f0:	00a15e03          	lhu	t3,10(sp)
    39f4:	08c00c13          	li	s8,140
    39f8:	009e0e13          	addi	t3,t3,9
    39fc:	01c11523          	sh	t3,10(sp)
    3a00:	00dc4463          	blt	s8,a3,3a08 <.L240>
    3a04:	45c0206f          	j	5e60 <.L224>

00003a08 <.L240>:
    3a08:	2df00e13          	li	t3,735
    3a0c:	00ee4463          	blt	t3,a4,3a14 <.L240+0xc>
    3a10:	cb5fc06f          	j	6c4 <.L236>
    3a14:	7e700e13          	li	t3,2023
    3a18:	00de5463          	bge	t3,a3,3a20 <.L240+0x18>
    3a1c:	43d0706f          	j	b658 <.L268>
    3a20:	00c15e03          	lhu	t3,12(sp)
    3a24:	03d00c13          	li	s8,61
    3a28:	ff6e0e13          	addi	t3,t3,-10
    3a2c:	01c11623          	sh	t3,12(sp)
    3a30:	01879463          	bne	a5,s8,3a38 <.L269>
    3a34:	43d0706f          	j	b670 <.L270>

00003a38 <.L269>:
    3a38:	ce400e13          	li	t3,-796
    3a3c:	01c5c463          	blt	a1,t3,3a44 <.L276>
    3a40:	6a00506f          	j	90e0 <.L273>

00003a44 <.L276>:
    3a44:	00e15e03          	lhu	t3,14(sp)
    3a48:	ffae0e13          	addi	t3,t3,-6
    3a4c:	010e1e13          	slli	t3,t3,0x10
    3a50:	410e5e13          	srai	t3,t3,0x10
    3a54:	cc5fc06f          	j	718 <.L275>

00003a58 <.L1160>:
    3a58:	00815c03          	lhu	s8,8(sp)
    3a5c:	1b900c93          	li	s9,441
    3a60:	004c0c13          	addi	s8,s8,4
    3a64:	01811423          	sh	s8,8(sp)
    3a68:	01ecd463          	bge	s9,t5,3a70 <.L1161>
    3a6c:	f14fe06f          	j	2180 <.L1162>

00003a70 <.L1161>:
    3a70:	00a15c03          	lhu	s8,10(sp)
    3a74:	ff8c0c13          	addi	s8,s8,-8
    3a78:	010c1c13          	slli	s8,s8,0x10
    3a7c:	410c5c13          	srai	s8,s8,0x10

00003a80 <.L1169>:
    3a80:	01811523          	sh	s8,10(sp)
    3a84:	03c00c13          	li	s8,60
    3a88:	00fc5463          	bge	s8,a5,3a90 <.L1167>
    3a8c:	f20fe06f          	j	21ac <.L1171>

00003a90 <.L1167>:
    3a90:	00f00c13          	li	s8,15
    3a94:	010c4463          	blt	s8,a6,3a9c <.L1167+0xc>
    3a98:	aa5fd06f          	j	153c <.L1188>
    3a9c:	ffc00c13          	li	s8,-4
    3aa0:	65865ce3          	bge	a2,s8,48f8 <.L1192>

00003aa4 <.L1196>:
    3aa4:	00c15c03          	lhu	s8,12(sp)
    3aa8:	005c0c13          	addi	s8,s8,5
    3aac:	010c1c13          	slli	s8,s8,0x10
    3ab0:	410c5c13          	srai	s8,s8,0x10
    3ab4:	f20fe06f          	j	21d4 <.L1189>

00003ab8 <.L2153>:
    3ab8:	00815b03          	lhu	s6,8(sp)
    3abc:	ffcb0b13          	addi	s6,s6,-4
    3ac0:	010b1b13          	slli	s6,s6,0x10
    3ac4:	410b5b13          	srai	s6,s6,0x10
    3ac8:	01611423          	sh	s6,8(sp)
    3acc:	03b00b13          	li	s6,59
    3ad0:	d8fb5263          	bge	s6,a5,3054 <.L2836>

00003ad4 <.L2145>:
    3ad4:	ec100b13          	li	s6,-319
    3ad8:	01644463          	blt	s0,s6,3ae0 <.L2145+0xc>
    3adc:	2790306f          	j	7554 <.L2156>
    3ae0:	ef600b13          	li	s6,-266
    3ae4:	016ac463          	blt	s5,s6,3aec <.L2145+0x18>
    3ae8:	18d0606f          	j	a474 <.L2157>
    3aec:	00a15b03          	lhu	s6,10(sp)
    3af0:	fdb00c13          	li	s8,-37
    3af4:	002b0b13          	addi	s6,s6,2
    3af8:	01611523          	sh	s6,10(sp)
    3afc:	01875463          	bge	a4,s8,3b04 <.L2158>
    3b00:	18d0606f          	j	a48c <.L2164>

00003b04 <.L2158>:
    3b04:	02600b13          	li	s6,38
    3b08:	00eb5463          	bge	s6,a4,3b10 <.L2158+0xc>
    3b0c:	4010706f          	j	b70c <.L2177>
    3b10:	03c00b13          	li	s6,60
    3b14:	d8db4663          	blt	s6,a3,30a0 <.L2170>

00003b18 <.L2160>:
    3b18:	05800693          	li	a3,88
    3b1c:	0096d463          	bge	a3,s1,3b24 <.L2254>
    3b20:	6c50306f          	j	79e4 <.L2183>

00003b24 <.L2254>:
    3b24:	00e15683          	lhu	a3,14(sp)
    3b28:	0a900b13          	li	s6,169
    3b2c:	00c68693          	addi	a3,a3,12
    3b30:	01069693          	slli	a3,a3,0x10
    3b34:	4106d693          	srai	a3,a3,0x10
    3b38:	00d11723          	sh	a3,14(sp)
    3b3c:	d9eb5c63          	bge	s6,t5,30d4 <.L2837>

00003b40 <.L2186>:
    3b40:	0ba00f13          	li	t5,186
    3b44:	012f5463          	bge	t5,s2,3b4c <.L2186+0xc>
    3b48:	5550206f          	j	689c <.L2190>
    3b4c:	0ac00f13          	li	t5,172
    3b50:	db2f5263          	bge	t5,s2,30f4 <.L2188>
    3b54:	00815f03          	lhu	t5,8(sp)
    3b58:	007f0f13          	addi	t5,t5,7
    3b5c:	01e11423          	sh	t5,8(sp)
    3b60:	ef600f13          	li	t5,-266
    3b64:	d9eacc63          	blt	s5,t5,30fc <.L2838>

00003b68 <.L2192>:
    3b68:	00c00513          	li	a0,12
    3b6c:	01155463          	bge	a0,a7,3b74 <.L2192+0xc>
    3b70:	3710306f          	j	76e0 <.L2201>
    3b74:	00b00513          	li	a0,11
    3b78:	01d55463          	bge	a0,t4,3b80 <.L2192+0x18>
    3b7c:	1f90606f          	j	a574 <.L2202>
    3b80:	00a15503          	lhu	a0,10(sp)
    3b84:	ffb50513          	addi	a0,a0,-5
    3b88:	01051513          	slli	a0,a0,0x10
    3b8c:	41055513          	srai	a0,a0,0x10
    3b90:	00a11523          	sh	a0,10(sp)
    3b94:	25b00513          	li	a0,603
    3b98:	d8e55e63          	bge	a0,a4,3134 <.L2200>

00003b9c <.L2204>:
    3b9c:	fe900513          	li	a0,-23
    3ba0:	00a64463          	blt	a2,a0,3ba8 <.L2204+0xc>
    3ba4:	4cc0306f          	j	7070 <.L2197>
    3ba8:	dde00513          	li	a0,-546
    3bac:	00aa4463          	blt	s4,a0,3bb4 <.L2204+0x18>
    3bb0:	3e00706f          	j	af90 <.L2210>
    3bb4:	00c15503          	lhu	a0,12(sp)
    3bb8:	02800e93          	li	t4,40
    3bbc:	00450513          	addi	a0,a0,4
    3bc0:	00a11623          	sh	a0,12(sp)
    3bc4:	167ed4e3          	bge	t4,t2,452c <.L2211>
    3bc8:	06b00513          	li	a0,107
    3bcc:	169546e3          	blt	a0,s1,4538 <.L2214>

00003bd0 <.L2212>:
    3bd0:	f9500513          	li	a0,-107
    3bd4:	00a44463          	blt	s0,a0,3bdc <.L2212+0xc>
    3bd8:	3440706f          	j	af1c <.L2839>
    3bdc:	00968693          	addi	a3,a3,9
    3be0:	00d11723          	sh	a3,14(sp)
    3be4:	f7a00693          	li	a3,-134
    3be8:	d8da5c63          	bge	s4,a3,3180 <.L2215>

00003bec <.L2826>:
    3bec:	f4000693          	li	a3,-192
    3bf0:	00da5463          	bge	s4,a3,3bf8 <.L2826+0xc>
    3bf4:	2350106f          	j	5628 <.L2216>
    3bf8:	ff700693          	li	a3,-9
    3bfc:	00d64463          	blt	a2,a3,3c04 <.L2217>
    3c00:	2450106f          	j	5644 <.L2227>

00003c04 <.L2217>:
    3c04:	00815683          	lhu	a3,8(sp)
    3c08:	00768693          	addi	a3,a3,7
    3c0c:	00d11423          	sh	a3,8(sp)
    3c10:	03300693          	li	a3,51
    3c14:	dbf6d063          	bge	a3,t6,31b4 <.L2840>

00003c18 <.L2238>:
    3c18:	02b00693          	li	a3,43
    3c1c:	0106d463          	bge	a3,a6,3c24 <.L2236>
    3c20:	05c0506f          	j	8c7c <.L2245>

00003c24 <.L2236>:
    3c24:	00c00713          	li	a4,12
    3c28:	01c75463          	bge	a4,t3,3c30 <.L2236+0xc>
    3c2c:	6f00606f          	j	a31c <.L2246>
    3c30:	00a15703          	lhu	a4,10(sp)
    3c34:	00170713          	addi	a4,a4,1
    3c38:	01071713          	slli	a4,a4,0x10
    3c3c:	41075713          	srai	a4,a4,0x10

00003c40 <.L2247>:
    3c40:	00e11523          	sh	a4,10(sp)
    3c44:	f5b00713          	li	a4,-165
    3c48:	12e2d0e3          	bge	t0,a4,4568 <.L2240>
    3c4c:	f5600793          	li	a5,-170
    3c50:	00fa4463          	blt	s4,a5,3c58 <.L2247+0x18>
    3c54:	0690306f          	j	74bc <.L2241>
    3c58:	03a00793          	li	a5,58
    3c5c:	d9f7da63          	bge	a5,t6,31f0 <.L2243>
    3c60:	00c15783          	lhu	a5,12(sp)
    3c64:	00278793          	addi	a5,a5,2
    3c68:	01079793          	slli	a5,a5,0x10
    3c6c:	4107d793          	srai	a5,a5,0x10
    3c70:	00f11623          	sh	a5,12(sp)
    3c74:	c0000793          	li	a5,-1024
    3c78:	d8f5ca63          	blt	a1,a5,320c <.L2841>

00003c7c <.L2249>:
    3c7c:	02c00793          	li	a5,44
    3c80:	0117d463          	bge	a5,a7,3c88 <.L2249+0xc>
    3c84:	5680406f          	j	81ec <.L2251>
    3c88:	d8f89863          	bne	a7,a5,3218 <.L2250>
    3c8c:	00e15783          	lhu	a5,14(sp)
    3c90:	00878793          	addi	a5,a5,8
    3c94:	00f11723          	sh	a5,14(sp)
    3c98:	d80ff06f          	j	3218 <.L2250>

00003c9c <.L1542>:
    3c9c:	00c15c03          	lhu	s8,12(sp)
    3ca0:	01800c93          	li	s9,24
    3ca4:	016c0c13          	addi	s8,s8,22
    3ca8:	01811623          	sh	s8,12(sp)
    3cac:	150cd8e3          	bge	s9,a6,45fc <.L1543>

00003cb0 <.L1544>:
    3cb0:	02600c13          	li	s8,38
    3cb4:	006c4463          	blt	s8,t1,3cbc <.L1548>
    3cb8:	9edfe06f          	j	26a4 <.L1538>

00003cbc <.L1548>:
    3cbc:	00e15c03          	lhu	s8,14(sp)
    3cc0:	00bc0c13          	addi	s8,s8,11
    3cc4:	01811723          	sh	s8,14(sp)
    3cc8:	0a900c13          	li	s8,169
    3ccc:	01ec4463          	blt	s8,t5,3cd4 <.L1549>
    3cd0:	9e1fe06f          	j	26b0 <.L2842>

00003cd4 <.L1549>:
    3cd4:	01700c13          	li	s8,23
    3cd8:	01dc5463          	bge	s8,t4,3ce0 <.L1549+0xc>
    3cdc:	0450306f          	j	7520 <.L1554>
    3ce0:	00815c03          	lhu	s8,8(sp)
    3ce4:	fffc0c13          	addi	s8,s8,-1
    3ce8:	010c1c13          	slli	s8,s8,0x10
    3cec:	410c5c13          	srai	s8,s8,0x10
    3cf0:	01811423          	sh	s8,8(sp)
    3cf4:	03300c13          	li	s8,51
    3cf8:	01fc4463          	blt	s8,t6,3d00 <.L1556>
    3cfc:	9edfe06f          	j	26e8 <.L2843>

00003d00 <.L1556>:
    3d00:	06f00c13          	li	s8,111
    3d04:	00dc5463          	bge	s8,a3,3d0c <.L1556+0xc>
    3d08:	6590306f          	j	7b60 <.L1561>
    3d0c:	01b00c13          	li	s8,27
    3d10:	00ec5463          	bge	s8,a4,3d18 <.L1556+0x18>
    3d14:	4f80506f          	j	920c <.L1562>
    3d18:	00a15c03          	lhu	s8,10(sp)
    3d1c:	fffc0c13          	addi	s8,s8,-1
    3d20:	01811523          	sh	s8,10(sp)

00003d24 <.L1563>:
    3d24:	02a00c13          	li	s8,42
    3d28:	00dc5463          	bge	s8,a3,3d30 <.L1563+0xc>
    3d2c:	6810306f          	j	7bac <.L1572>
    3d30:	00c15c03          	lhu	s8,12(sp)
    3d34:	02700c93          	li	s9,39
    3d38:	ffec0c13          	addi	s8,s8,-2
    3d3c:	010c1c13          	slli	s8,s8,0x10
    3d40:	410c5c13          	srai	s8,s8,0x10
    3d44:	01811623          	sh	s8,12(sp)
    3d48:	007cc463          	blt	s9,t2,3d50 <.L1576>
    3d4c:	a05fe06f          	j	2750 <.L2844>

00003d50 <.L1576>:
    3d50:	05800c93          	li	s9,88
    3d54:	009cd463          	bge	s9,s1,3d5c <.L1576+0xc>
    3d58:	6140406f          	j	836c <.L1580>
    3d5c:	f9500c93          	li	s9,-107
    3d60:	01944463          	blt	s0,s9,3d68 <.L1576+0x18>
    3d64:	4a40406f          	j	8208 <.L1578>
    3d68:	00e15c83          	lhu	s9,14(sp)
    3d6c:	010c8c93          	addi	s9,s9,16
    3d70:	01911723          	sh	s9,14(sp)
    3d74:	01f00c93          	li	s9,31
    3d78:	013cc463          	blt	s9,s3,3d80 <.L1581>
    3d7c:	a05fe06f          	j	2780 <.L2845>

00003d80 <.L1581>:
    3d80:	e1800c93          	li	s9,-488
    3d84:	019a4463          	blt	s4,s9,3d8c <.L1581+0xc>
    3d88:	3880406f          	j	8110 <.L1588>
    3d8c:	00815c83          	lhu	s9,8(sp)
    3d90:	ffec8c93          	addi	s9,s9,-2
    3d94:	01911423          	sh	s9,8(sp)
    3d98:	e2c00c93          	li	s9,-468
    3d9c:	0192c463          	blt	t0,s9,3da4 <.L1589>
    3da0:	a0dfe06f          	j	27ac <.L2846>

00003da4 <.L1589>:
    3da4:	e0200c93          	li	s9,-510
    3da8:	019ac463          	blt	s5,s9,3db0 <.L1589+0xc>
    3dac:	0d50406f          	j	8680 <.L1587>
    3db0:	fef00c93          	li	s9,-17
    3db4:	01964463          	blt	a2,s9,3dbc <.L1589+0x18>
    3db8:	4490106f          	j	5a00 <.L1591>
    3dbc:	00a15c83          	lhu	s9,10(sp)
    3dc0:	03c00d13          	li	s10,60
    3dc4:	ffac8c93          	addi	s9,s9,-6
    3dc8:	01911523          	sh	s9,10(sp)
    3dcc:	00fd5463          	bge	s10,a5,3dd4 <.L1589+0x30>
    3dd0:	0d10406f          	j	86a0 <.L2713>
    3dd4:	00f00c93          	li	s9,15
    3dd8:	010cd463          	bge	s9,a6,3de0 <.L1589+0x3c>
    3ddc:	1d00506f          	j	8fac <.L1598>
    3de0:	f6300c13          	li	s8,-157
    3de4:	0185c463          	blt	a1,s8,3dec <.L1589+0x48>
    3de8:	1b00806f          	j	bf98 <.L1599>
    3dec:	00c15c03          	lhu	s8,12(sp)
    3df0:	00300c93          	li	s9,3
    3df4:	ffcc0c13          	addi	s8,s8,-4
    3df8:	01811623          	sh	s8,12(sp)
    3dfc:	01ccd463          	bge	s9,t3,3e04 <.L1620>
    3e00:	1c00506f          	j	8fc0 <.L1595>

00003e04 <.L1620>:
    3e04:	0c100c13          	li	s8,193
    3e08:	012c4463          	blt	s8,s2,3e10 <.L1620+0xc>
    3e0c:	a09fe06f          	j	2814 <.L1634>
    3e10:	00e15c03          	lhu	s8,14(sp)
    3e14:	ffdc0c13          	addi	s8,s8,-3
    3e18:	01811723          	sh	s8,14(sp)

00003e1c <.L1627>:
    3e1c:	00400c13          	li	s8,4
    3e20:	011c4463          	blt	s8,a7,3e28 <.L1627+0xc>
    3e24:	4910106f          	j	5ab4 <.L1642>
    3e28:	00e00c13          	li	s8,14
    3e2c:	01dc4463          	blt	s8,t4,3e34 <.L1644>
    3e30:	a15fe06f          	j	2844 <.L1645>

00003e34 <.L1644>:
    3e34:	ffc00c13          	li	s8,-4
    3e38:	01864863          	blt	a2,s8,3e48 <.L1672>

00003e3c <.L1664>:
    3e3c:	00815c03          	lhu	s8,8(sp)
    3e40:	006c0c13          	addi	s8,s8,6
    3e44:	01811423          	sh	s8,8(sp)

00003e48 <.L1672>:
    3e48:	02e00c13          	li	s8,46
    3e4c:	01dc5463          	bge	s8,t4,3e54 <.L1665>
    3e50:	58d0406f          	j	8bdc <.L1673>

00003e54 <.L1665>:
    3e54:	01d00c13          	li	s8,29
    3e58:	011c4463          	blt	s8,a7,3e60 <.L1665+0xc>
    3e5c:	1e80806f          	j	c044 <.L2847>
    3e60:	3b500c13          	li	s8,949
    3e64:	00ec5463          	bge	s8,a4,3e6c <.L1665+0x18>
    3e68:	0800806f          	j	bee8 <.L1686>
    3e6c:	00a15c03          	lhu	s8,10(sp)
    3e70:	00100c93          	li	s9,1
    3e74:	ff7c0c13          	addi	s8,s8,-9
    3e78:	01811523          	sh	s8,10(sp)
    3e7c:	01ccc463          	blt	s9,t3,3e84 <.L1688>
    3e80:	0800806f          	j	bf00 <.L1687>

00003e84 <.L1688>:
    3e84:	02000c13          	li	s8,32
    3e88:	01dc4463          	blt	s8,t4,3e90 <.L1688+0xc>
    3e8c:	9f5fe06f          	j	2880 <.L1658>
    3e90:	4790106f          	j	5b08 <.L1691>

00003e94 <.L2772>:
    3e94:	02c00c13          	li	s8,44
    3e98:	01dc5e63          	bge	s8,t4,3eb4 <.L1328>
    3e9c:	00815c03          	lhu	s8,8(sp)
    3ea0:	03400c93          	li	s9,52
    3ea4:	ffac0c13          	addi	s8,s8,-6
    3ea8:	01811423          	sh	s8,8(sp)
    3eac:	01dcd463          	bge	s9,t4,3eb4 <.L1328>
    3eb0:	86dfd06f          	j	171c <.L1322>

00003eb4 <.L1328>:
    3eb4:	ff100c13          	li	s8,-15
    3eb8:	01864463          	blt	a2,s8,3ec0 <.L1328+0xc>
    3ebc:	6d40306f          	j	7590 <.L2848>
    3ec0:	00200c13          	li	s8,2
    3ec4:	01cc5463          	bge	s8,t3,3ecc <.L1328+0x18>
    3ec8:	3100706f          	j	b1d8 <.L1334>
    3ecc:	00a15c03          	lhu	s8,10(sp)
    3ed0:	02a00c93          	li	s9,42
    3ed4:	006c0c13          	addi	s8,s8,6
    3ed8:	01811523          	sh	s8,10(sp)
    3edc:	00dcc463          	blt	s9,a3,3ee4 <.L1328+0x30>
    3ee0:	6dc0306f          	j	75bc <.L1344>
    3ee4:	02700c13          	li	s8,39
    3ee8:	00ec5463          	bge	s8,a4,3ef0 <.L2699>
    3eec:	6110706f          	j	bcfc <.L1338>

00003ef0 <.L2699>:
    3ef0:	00900c13          	li	s8,9
    3ef4:	012c5463          	bge	s8,s2,3efc <.L1345>
    3ef8:	5a10706f          	j	bc98 <.L1339>

00003efc <.L1345>:
    3efc:	00c15c03          	lhu	s8,12(sp)
    3f00:	03600c93          	li	s9,54
    3f04:	001c0c13          	addi	s8,s8,1
    3f08:	01811623          	sh	s8,12(sp)
    3f0c:	00fcc463          	blt	s9,a5,3f14 <.L1341>
    3f10:	6c40106f          	j	55d4 <.L1340>

00003f14 <.L1341>:
    3f14:	00c00c13          	li	s8,12
    3f18:	01cc5463          	bge	s8,t3,3f20 <.L1363>
    3f1c:	0e80206f          	j	6004 <.L1353>

00003f20 <.L1363>:
    3f20:	00e15c03          	lhu	s8,14(sp)
    3f24:	ffac0c13          	addi	s8,s8,-6
    3f28:	010c1c13          	slli	s8,s8,0x10
    3f2c:	410c5c13          	srai	s8,s8,0x10
    3f30:	01811723          	sh	s8,14(sp)
    3f34:	fa300c13          	li	s8,-93
    3f38:	0182d463          	bge	t0,s8,3f40 <.L1366>
    3f3c:	cc0fe06f          	j	23fc <.L2849>

00003f40 <.L1366>:
    3f40:	01f00c13          	li	s8,31
    3f44:	0d0c42e3          	blt	s8,a6,4808 <.L1375>
    3f48:	1a000c13          	li	s8,416
    3f4c:	012c5463          	bge	s8,s2,3f54 <.L1366+0x14>
    3f50:	2040706f          	j	b154 <.L1383>
    3f54:	00815c03          	lhu	s8,8(sp)
    3f58:	03900c93          	li	s9,57
    3f5c:	009c0c13          	addi	s8,s8,9
    3f60:	01811423          	sh	s8,8(sp)
    3f64:	0a6cdce3          	bge	s9,t1,481c <.L1371>

00003f68 <.L2621>:
    3f68:	ff800c13          	li	s8,-8
    3f6c:	01865463          	bge	a2,s8,3f74 <.L1384>
    3f70:	cb8fe06f          	j	2428 <.L1372>

00003f74 <.L1384>:
    3f74:	00100c13          	li	s8,1
    3f78:	01cc4463          	blt	s8,t3,3f80 <.L2626>
    3f7c:	0e80206f          	j	6064 <.L1374>

00003f80 <.L2626>:
    3f80:	02000c13          	li	s8,32
    3f84:	01dc5463          	bge	s8,t4,3f8c <.L1393>
    3f88:	cdcfe06f          	j	2464 <.L1401>

00003f8c <.L1393>:
    3f8c:	03c00c13          	li	s8,60
    3f90:	0cfc4ee3          	blt	s8,a5,486c <.L1389>

00003f94 <.L1402>:
    3f94:	e4f00c13          	li	s8,-433
    3f98:	018ad463          	bge	s5,s8,3fa0 <.L1402+0xc>
    3f9c:	cf8fe06f          	j	2494 <.L1390>
    3fa0:	01700c13          	li	s8,23
    3fa4:	01dc5463          	bge	s8,t4,3fac <.L1391>
    3fa8:	6040406f          	j	85ac <.L1415>

00003fac <.L1391>:
    3fac:	00e15c03          	lhu	s8,14(sp)
    3fb0:	ffbc0c13          	addi	s8,s8,-5
    3fb4:	01811723          	sh	s8,14(sp)
    3fb8:	01f00c13          	li	s8,31
    3fbc:	013c4463          	blt	s8,s3,3fc4 <.L1421>
    3fc0:	cf8fe06f          	j	24b8 <.L1407>

00003fc4 <.L1421>:
    3fc4:	00700c13          	li	s8,7
    3fc8:	011c5463          	bge	s8,a7,3fd0 <.L1421+0xc>
    3fcc:	5510306f          	j	7d1c <.L1408>
    3fd0:	00815c03          	lhu	s8,8(sp)
    3fd4:	fffc0c13          	addi	s8,s8,-1
    3fd8:	01811423          	sh	s8,8(sp)
    3fdc:	03300c13          	li	s8,51
    3fe0:	01fc4463          	blt	s8,t6,3fe8 <.L1425>
    3fe4:	cfcfe06f          	j	24e0 <.L2850>

00003fe8 <.L1425>:
    3fe8:	03b00c13          	li	s8,59
    3fec:	00fc5463          	bge	s8,a5,3ff4 <.L2919>
    3ff0:	2ac0306f          	j	729c <.L1430>

00003ff4 <.L2919>:
    3ff4:	0a500c13          	li	s8,165
    3ff8:	007c5463          	bge	s8,t2,4000 <.L2919+0xc>
    3ffc:	d04fe06f          	j	2500 <.L1428>
    4000:	00a15c03          	lhu	s8,10(sp)
    4004:	005c0c13          	addi	s8,s8,5
    4008:	01811523          	sh	s8,10(sp)
    400c:	f9800c13          	li	s8,-104
    4010:	01845463          	bge	s0,s8,4018 <.L1432>
    4014:	cf8fe06f          	j	250c <.L2851>

00004018 <.L1432>:
    4018:	f6d00c13          	li	s8,-147
    401c:	018ac463          	blt	s5,s8,4024 <.L1432+0xc>
    4020:	3800306f          	j	73a0 <.L1436>
    4024:	0c700c13          	li	s8,199
    4028:	01ec5463          	bge	s8,t5,4030 <.L1432+0x18>
    402c:	04d0606f          	j	a878 <.L1437>
    4030:	00c15c03          	lhu	s8,12(sp)
    4034:	017c0c13          	addi	s8,s8,23
    4038:	01811623          	sh	s8,12(sp)
    403c:	d2a00c13          	li	s8,-726
    4040:	0185d463          	bge	a1,s8,4048 <.L1439>
    4044:	cf4fe06f          	j	2538 <.L2852>

00004048 <.L1439>:
    4048:	02c00c13          	li	s8,44
    404c:	011c5463          	bge	s8,a7,4054 <.L1439+0xc>
    4050:	1f10406f          	j	8a40 <.L1445>
    4054:	01889463          	bne	a7,s8,405c <.L1439+0x14>
    4058:	3950106f          	j	5bec <.L2853>
    405c:	00400c13          	li	s8,4
    4060:	011c5463          	bge	s8,a7,4068 <.L1439+0x20>
    4064:	34d0106f          	j	5bb0 <.L1443>
    4068:	03800c13          	li	s8,56
    406c:	01fc5463          	bge	s8,t6,4074 <.L1439+0x2c>
    4070:	1a40306f          	j	7214 <.L1449>
    4074:	00815c03          	lhu	s8,8(sp)
    4078:	f8b00c93          	li	s9,-117
    407c:	00bc0c13          	addi	s8,s8,11
    4080:	01811423          	sh	s8,8(sp)
    4084:	0195d463          	bge	a1,s9,408c <.L1463>
    4088:	cf8fe06f          	j	2580 <.L2738>

0000408c <.L1463>:
    408c:	ffe00c13          	li	s8,-2
    4090:	01865463          	bge	a2,s8,4098 <.L1463+0xc>
    4094:	3490106f          	j	5bdc <.L1467>
    4098:	00a15c03          	lhu	s8,10(sp)
    409c:	ffec0c13          	addi	s8,s8,-2
    40a0:	01811523          	sh	s8,10(sp)
    40a4:	02700c13          	li	s8,39
    40a8:	01dc4463          	blt	s8,t4,40b0 <.L1476>
    40ac:	d04fe06f          	j	25b0 <.L1475>

000040b0 <.L1476>:
    40b0:	34900c13          	li	s8,841
    40b4:	00dc5463          	bge	s8,a3,40bc <.L1476+0xc>
    40b8:	d10fe06f          	j	25c8 <.L1486>
    40bc:	00c15c03          	lhu	s8,12(sp)
    40c0:	ff7c0c13          	addi	s8,s8,-9
    40c4:	01811623          	sh	s8,12(sp)
    40c8:	0a000c13          	li	s8,160
    40cc:	009c4463          	blt	s8,s1,40d4 <.L1490>
    40d0:	d04fe06f          	j	25d4 <.L2854>

000040d4 <.L1490>:
    40d4:	eb800c13          	li	s8,-328
    40d8:	01844463          	blt	s0,s8,40e0 <.L1490+0xc>
    40dc:	3c40306f          	j	74a0 <.L1498>
    40e0:	eb100c13          	li	s8,-335
    40e4:	01844863          	blt	s0,s8,40f4 <.L1496>
    40e8:	00e15c03          	lhu	s8,14(sp)
    40ec:	009c0c13          	addi	s8,s8,9
    40f0:	01811723          	sh	s8,14(sp)

000040f4 <.L1496>:
    40f4:	39000c13          	li	s8,912
    40f8:	006c5463          	bge	s8,t1,4100 <.L1496+0xc>
    40fc:	1680106f          	j	5264 <.L1500>
    4100:	0ba00c13          	li	s8,186
    4104:	492c5263          	bge	s8,s2,4588 <.L1501>
    4108:	00815c03          	lhu	s8,8(sp)
    410c:	12e00c93          	li	s9,302
    4110:	01c04463          	bgtz	t3,4118 <.L1496+0x24>
    4114:	3080706f          	j	b41c <.L2855>
    4118:	ffac0c13          	addi	s8,s8,-6
    411c:	01811423          	sh	s8,8(sp)
    4120:	006cd463          	bge	s9,t1,4128 <.L1503>
    4124:	d04fe06f          	j	2628 <.L1510>

00004128 <.L1503>:
    4128:	02a00c13          	li	s8,42
    412c:	00dc5463          	bge	s8,a3,4134 <.L1503+0xc>
    4130:	1b00306f          	j	72e0 <.L1514>
    4134:	04b00c13          	li	s8,75
    4138:	00ec5463          	bge	s8,a4,4140 <.L1503+0x18>
    413c:	0f50506f          	j	9a30 <.L1515>
    4140:	00a15c03          	lhu	s8,10(sp)
    4144:	fffc0c13          	addi	s8,s8,-1
    4148:	010c1c13          	slli	s8,s8,0x10
    414c:	410c5c13          	srai	s8,s8,0x10

00004150 <.L1516>:
    4150:	01811523          	sh	s8,10(sp)
    4154:	f9800c13          	li	s8,-104
    4158:	47845a63          	bge	s0,s8,45cc <.L1506>
    415c:	0c700c13          	li	s8,199
    4160:	016c4463          	blt	s8,s6,4168 <.L1528>
    4164:	46d0406f          	j	8dd0 <.L1527>

00004168 <.L1528>:
    4168:	0aa00c13          	li	s8,170
    416c:	006c5463          	bge	s8,t1,4174 <.L1528+0xc>
    4170:	cf4fe06f          	j	2664 <.L1520>
    4174:	00c15c03          	lhu	s8,12(sp)
    4178:	002c0c13          	addi	s8,s8,2
    417c:	010c1c13          	slli	s8,s8,0x10
    4180:	410c5c13          	srai	s8,s8,0x10
    4184:	01811623          	sh	s8,12(sp)
    4188:	01800c13          	li	s8,24
    418c:	470c5863          	bge	s8,a6,45fc <.L1543>

00004190 <.L1531>:
    4190:	eee00c13          	li	s8,-274
    4194:	b18adee3          	bge	s5,s8,3cb0 <.L1544>
    4198:	01c51c83          	lh	s9,28(a0)
    419c:	02300c13          	li	s8,35
    41a0:	019c4463          	blt	s8,s9,41a8 <.L2808>
    41a4:	cf4fe06f          	j	2698 <.L1539>

000041a8 <.L2808>:
    41a8:	00e15c03          	lhu	s8,14(sp)
    41ac:	ffac0c13          	addi	s8,s8,-6
    41b0:	01811723          	sh	s8,14(sp)
    41b4:	cf0fe06f          	j	26a4 <.L1538>

000041b8 <.L1203>:
    41b8:	00e15c03          	lhu	s8,14(sp)
    41bc:	00400c93          	li	s9,4
    41c0:	ffcc0c13          	addi	s8,s8,-4
    41c4:	01811723          	sh	s8,14(sp)
    41c8:	571cd4e3          	bge	s9,a7,4f30 <.L1208>
    41cc:	00e00c13          	li	s8,14
    41d0:	01dc5463          	bge	s8,t4,41d8 <.L1217>
    41d4:	864fe06f          	j	2238 <.L1209>

000041d8 <.L1217>:
    41d8:	00815c03          	lhu	s8,8(sp)
    41dc:	ffac0c13          	addi	s8,s8,-6
    41e0:	01811423          	sh	s8,8(sp)
    41e4:	854fe06f          	j	2238 <.L1209>

000041e8 <.L2003>:
    41e8:	fe900c13          	li	s8,-23
    41ec:	01864463          	blt	a2,s8,41f4 <.L2003+0xc>
    41f0:	7240406f          	j	8914 <.L2010>
    41f4:	dde00c13          	li	s8,-546
    41f8:	018a4463          	blt	s4,s8,4200 <.L2003+0x18>
    41fc:	32c0606f          	j	a528 <.L2011>
    4200:	00c15c03          	lhu	s8,12(sp)
    4204:	005c0c13          	addi	s8,s8,5
    4208:	01811623          	sh	s8,12(sp)
    420c:	02700c13          	li	s8,39
    4210:	007c4463          	blt	s8,t2,4218 <.L2012>
    4214:	be5fe06f          	j	2df8 <.L2856>

00004218 <.L2012>:
    4218:	03000c13          	li	s8,48
    421c:	007c5463          	bge	s8,t2,4224 <.L2012+0xc>
    4220:	6890306f          	j	80a8 <.L2015>
    4224:	0b800c13          	li	s8,184
    4228:	009c5463          	bge	s8,s1,4230 <.L2012+0x18>
    422c:	1b80606f          	j	a3e4 <.L2016>
    4230:	00e15c03          	lhu	s8,14(sp)
    4234:	00bc0c13          	addi	s8,s8,11
    4238:	010c1c13          	slli	s8,s8,0x10
    423c:	410c5c13          	srai	s8,s8,0x10
    4240:	01811723          	sh	s8,14(sp)
    4244:	00400c13          	li	s8,4
    4248:	011c4463          	blt	s8,a7,4250 <.L2018>
    424c:	bd9fe06f          	j	2e24 <.L2857>

00004250 <.L2018>:
    4250:	00e00c13          	li	s8,14
    4254:	01dc5463          	bge	s8,t4,425c <.L2018+0xc>
    4258:	6050306f          	j	805c <.L2026>
    425c:	f9c00c13          	li	s8,-100
    4260:	01844463          	blt	s0,s8,4268 <.L2018+0x18>
    4264:	6090306f          	j	806c <.L2027>
    4268:	00815c03          	lhu	s8,8(sp)
    426c:	ffbc0c13          	addi	s8,s8,-5
    4270:	01811423          	sh	s8,8(sp)
    4274:	0f000c13          	li	s8,240
    4278:	006c5463          	bge	s8,t1,4280 <.L2028>
    427c:	bcdfe06f          	j	2e48 <.L2858>

00004280 <.L2028>:
    4280:	00200c13          	li	s8,2
    4284:	01cc5463          	bge	s8,t3,428c <.L2028+0xc>
    4288:	1b40106f          	j	543c <.L2859>
    428c:	03500c13          	li	s8,53
    4290:	00fc5463          	bge	s8,a5,4298 <.L2028+0x18>
    4294:	7a10506f          	j	a234 <.L2030>
    4298:	00a15c03          	lhu	s8,10(sp)
    429c:	01500c93          	li	s9,21
    42a0:	006c0c13          	addi	s8,s8,6
    42a4:	01811523          	sh	s8,10(sp)
    42a8:	010cc463          	blt	s9,a6,42b0 <.L2050>
    42ac:	5fc0106f          	j	58a8 <.L2031>

000042b0 <.L2050>:
    42b0:	00b00c13          	li	s8,11
    42b4:	011c4463          	blt	s8,a7,42bc <.L2050+0xc>
    42b8:	3810506f          	j	9e38 <.L2032>
    42bc:	00c15c03          	lhu	s8,12(sp)
    42c0:	009c0c13          	addi	s8,s8,9
    42c4:	010c1c13          	slli	s8,s8,0x10
    42c8:	410c5c13          	srai	s8,s8,0x10
    42cc:	01811623          	sh	s8,12(sp)
    42d0:	01c05463          	blez	t3,42d8 <.L2818>
    42d4:	bcdfe06f          	j	2ea0 <.L2044>

000042d8 <.L2818>:
    42d8:	00e15c03          	lhu	s8,14(sp)
    42dc:	ffac0c13          	addi	s8,s8,-6
    42e0:	010c1c13          	slli	s8,s8,0x10
    42e4:	410c5c13          	srai	s8,s8,0x10
    42e8:	01811723          	sh	s8,14(sp)
    42ec:	0a900c13          	li	s8,169
    42f0:	01ec4463          	blt	s8,t5,42f8 <.L2055>
    42f4:	be5fe06f          	j	2ed8 <.L2049>

000042f8 <.L2055>:
    42f8:	eba00c13          	li	s8,-326
    42fc:	0185c463          	blt	a1,s8,4304 <.L2055+0xc>
    4300:	5ec0106f          	j	58ec <.L2045>
    4304:	01400b13          	li	s6,20
    4308:	013b5463          	bge	s6,s3,4310 <.L2055+0x18>
    430c:	3410506f          	j	9e4c <.L2071>
    4310:	00815b03          	lhu	s6,8(sp)
    4314:	08300c13          	li	s8,131
    4318:	003b0b13          	addi	s6,s6,3
    431c:	01611423          	sh	s6,8(sp)
    4320:	529c40e3          	blt	s8,s1,5040 <.L2072>

00004324 <.L2075>:
    4324:	00a15b03          	lhu	s6,10(sp)
    4328:	02700c13          	li	s8,39
    432c:	ff9b0b13          	addi	s6,s6,-7
    4330:	01611523          	sh	s6,10(sp)
    4334:	006c4463          	blt	s8,t1,433c <.L2074>
    4338:	bf5fe06f          	j	2f2c <.L2073>

0000433c <.L2074>:
    433c:	ecb00b13          	li	s6,-309
    4340:	016ac463          	blt	s5,s6,4348 <.L2074+0xc>
    4344:	2ac0406f          	j	85f0 <.L2080>
    4348:	ff900b13          	li	s6,-7
    434c:	536642e3          	blt	a2,s6,5070 <.L2087>

00004350 <.L2086>:
    4350:	00c15b03          	lhu	s6,12(sp)
    4354:	ffbb0b13          	addi	s6,s6,-5
    4358:	010b1b13          	slli	s6,s6,0x10
    435c:	410b5b13          	srai	s6,s6,0x10
    4360:	01611623          	sh	s6,12(sp)
    4364:	c5700b13          	li	s6,-937
    4368:	0165d463          	bge	a1,s6,4370 <.L2093>
    436c:	bedfe06f          	j	2f58 <.L2860>

00004370 <.L2093>:
    4370:	02c00b13          	li	s6,44
    4374:	011b5463          	bge	s6,a7,437c <.L2093+0xc>
    4378:	4a80306f          	j	7820 <.L2095>
    437c:	03100b13          	li	s6,49
    4380:	01fb5463          	bge	s6,t6,4388 <.L2093+0x18>
    4384:	be1fe06f          	j	2f64 <.L2094>
    4388:	00e15b03          	lhu	s6,14(sp)
    438c:	01e00c13          	li	s8,30
    4390:	006b0b13          	addi	s6,s6,6
    4394:	01611723          	sh	s6,14(sp)
    4398:	013c5463          	bge	s8,s3,43a0 <.L2093+0x30>
    439c:	2dc0706f          	j	b678 <.L2096>
    43a0:	01c04463          	bgtz	t3,43a8 <.L2102>
    43a4:	2850706f          	j	be28 <.L2097>

000043a8 <.L2102>:
    43a8:	02e00b13          	li	s6,46
    43ac:	3ddb44e3          	blt	s6,t4,4f74 <.L2099>

000043b0 <.L2098>:
    43b0:	ff200b13          	li	s6,-14
    43b4:	01664463          	blt	a2,s6,43bc <.L2098+0xc>
    43b8:	4840306f          	j	783c <.L2861>
    43bc:	ea400b13          	li	s6,-348
    43c0:	016ac463          	blt	s5,s6,43c8 <.L2098+0x18>
    43c4:	bf5fe06f          	j	2fb8 <.L2114>
    43c8:	00a15b03          	lhu	s6,10(sp)
    43cc:	ff7b0b13          	addi	s6,s6,-9
    43d0:	01611523          	sh	s6,10(sp)
    43d4:	25b00b13          	li	s6,603
    43d8:	00eb5463          	bge	s6,a4,43e0 <.L2119>
    43dc:	be9fe06f          	j	2fc4 <.L2862>

000043e0 <.L2119>:
    43e0:	ec500b13          	li	s6,-315
    43e4:	0165c463          	blt	a1,s6,43ec <.L2119+0xc>
    43e8:	5f10206f          	j	71d8 <.L2863>
    43ec:	22200b13          	li	s6,546
    43f0:	007b5463          	bge	s6,t2,43f8 <.L2119+0x18>
    43f4:	30c0306f          	j	7700 <.L2122>
    43f8:	00c15b03          	lhu	s6,12(sp)
    43fc:	ffbb0b13          	addi	s6,s6,-5
    4400:	01611623          	sh	s6,12(sp)
    4404:	02600b13          	li	s6,38
    4408:	00db4463          	blt	s6,a3,4410 <.L2127>
    440c:	be9fe06f          	j	2ff4 <.L2864>

00004410 <.L2127>:
    4410:	00300b13          	li	s6,3
    4414:	75cb48e3          	blt	s6,t3,5364 <.L2142>
    4418:	03d00b13          	li	s6,61
    441c:	00fb4463          	blt	s6,a5,4424 <.L2127+0x14>
    4420:	5ed0506f          	j	a20c <.L2143>
    4424:	00400b13          	li	s6,4
    4428:	771b44e3          	blt	s6,a7,5390 <.L2139>
    442c:	06a00b13          	li	s6,106
    4430:	012b4463          	blt	s6,s2,4438 <.L2127+0x28>
    4434:	19d0706f          	j	bdd0 <.L2865>
    4438:	00815b03          	lhu	s6,8(sp)
    443c:	001b0b13          	addi	s6,s6,1
    4440:	01611423          	sh	s6,8(sp)
    4444:	e90ff06f          	j	3ad4 <.L2145>

00004448 <.L2756>:
    4448:	00815c03          	lhu	s8,8(sp)
    444c:	34b00c93          	li	s9,843
    4450:	ff6c0c13          	addi	s8,s8,-10
    4454:	01811423          	sh	s8,8(sp)
    4458:	00ecd463          	bge	s9,a4,4460 <.L516>
    445c:	ea8fc06f          	j	b04 <.L2575>

00004460 <.L516>:
    4460:	ff900c13          	li	s8,-7
    4464:	01864463          	blt	a2,s8,446c <.L516+0xc>
    4468:	7e90206f          	j	7450 <.L520>
    446c:	1ba00c13          	li	s8,442
    4470:	016c4463          	blt	s8,s6,4478 <.L516+0x18>
    4474:	5150406f          	j	9188 <.L521>
    4478:	17000c13          	li	s8,368
    447c:	00dc5463          	bge	s8,a3,4484 <.L522>
    4480:	5210406f          	j	91a0 <.L526>

00004484 <.L522>:
    4484:	02200c13          	li	s8,34
    4488:	01dc5463          	bge	s8,t4,4490 <.L2277>
    448c:	7f50206f          	j	7480 <.L536>

00004490 <.L2277>:
    4490:	00c15c03          	lhu	s8,12(sp)
    4494:	002c0c13          	addi	s8,s8,2
    4498:	010c1c13          	slli	s8,s8,0x10
    449c:	410c5c13          	srai	s8,s8,0x10
    44a0:	ebcfc06f          	j	b5c <.L538>

000044a4 <.L501>:
    44a4:	01d00c13          	li	s8,29
    44a8:	010c5463          	bge	s8,a6,44b0 <.L501+0xc>
    44ac:	68d0206f          	j	7338 <.L510>
    44b0:	11800c13          	li	s8,280
    44b4:	012c5463          	bge	s8,s2,44bc <.L501+0x18>
    44b8:	2680606f          	j	a720 <.L511>
    44bc:	00815c03          	lhu	s8,8(sp)
    44c0:	009c0c13          	addi	s8,s8,9
    44c4:	010c1c13          	slli	s8,s8,0x10
    44c8:	410c5c13          	srai	s8,s8,0x10

000044cc <.L512>:
    44cc:	01811423          	sh	s8,8(sp)
    44d0:	34b00c13          	li	s8,843
    44d4:	f8ec56e3          	bge	s8,a4,4460 <.L516>
    44d8:	00001c37          	lui	s8,0x1
    44dc:	a9dc0c13          	addi	s8,s8,-1379 # a9d <.L470+0x2d>
    44e0:	00dc5463          	bge	s8,a3,44e8 <.L512+0x1c>
    44e4:	e2cfc06f          	j	b10 <.L518>
    44e8:	f5100c13          	li	s8,-175
    44ec:	018a5463          	bge	s4,s8,44f4 <.L512+0x28>
    44f0:	aa0fd06f          	j	1790 <.L517>
    44f4:	00a15c03          	lhu	s8,10(sp)
    44f8:	17000c93          	li	s9,368
    44fc:	ffbc0c13          	addi	s8,s8,-5
    4500:	01811523          	sh	s8,10(sp)
    4504:	00dcc463          	blt	s9,a3,450c <.L533>
    4508:	aa0fd06f          	j	17a8 <.L2576>

0000450c <.L533>:
    450c:	3fa00c13          	li	s8,1018
    4510:	00ec4463          	blt	s8,a4,4518 <.L532>
    4514:	48d0406f          	j	91a0 <.L526>

00004518 <.L532>:
    4518:	00c15c03          	lhu	s8,12(sp)
    451c:	ff7c0c13          	addi	s8,s8,-9
    4520:	010c1c13          	slli	s8,s8,0x10
    4524:	410c5c13          	srai	s8,s8,0x10
    4528:	e34fc06f          	j	b5c <.L538>

0000452c <.L2211>:
    452c:	03c00613          	li	a2,60
    4530:	00f64463          	blt	a2,a5,4538 <.L2214>
    4534:	0850706f          	j	bdb8 <.L2866>

00004538 <.L2214>:
    4538:	03300713          	li	a4,51
    453c:	01f75463          	bge	a4,t6,4544 <.L2235>
    4540:	5ec0606f          	j	ab2c <.L2867>

00004544 <.L2235>:
    4544:	0ff00713          	li	a4,255
    4548:	00675463          	bge	a4,t1,4550 <.L2235+0xc>
    454c:	5e50506f          	j	a330 <.L2244>
    4550:	00a15703          	lhu	a4,10(sp)
    4554:	f5b00693          	li	a3,-165
    4558:	ffd70713          	addi	a4,a4,-3
    455c:	00e11523          	sh	a4,10(sp)
    4560:	00d2d463          	bge	t0,a3,4568 <.L2240>
    4564:	c81fe06f          	j	31e4 <.L2671>

00004568 <.L2240>:
    4568:	01600713          	li	a4,22
    456c:	00f75463          	bge	a4,a5,4574 <.L2240+0xc>
    4570:	7d10206f          	j	7540 <.L2248>
    4574:	00c15783          	lhu	a5,12(sp)
    4578:	00178793          	addi	a5,a5,1
    457c:	01079793          	slli	a5,a5,0x10
    4580:	4107d793          	srai	a5,a5,0x10
    4584:	c7dfe06f          	j	3200 <.L2242>

00004588 <.L1501>:
    4588:	03800c13          	li	s8,56
    458c:	00fc5463          	bge	s8,a5,4594 <.L1501+0xc>
    4590:	6180606f          	j	aba8 <.L2868>
    4594:	00815c03          	lhu	s8,8(sp)
    4598:	12e00c93          	li	s9,302
    459c:	ffec0c13          	addi	s8,s8,-2
    45a0:	01811423          	sh	s8,8(sp)
    45a4:	b86cd2e3          	bge	s9,t1,4128 <.L1503>

000045a8 <.L2632>:
    45a8:	00c00c13          	li	s8,12
    45ac:	01cc5463          	bge	s8,t3,45b4 <.L1507>
    45b0:	884fe06f          	j	2634 <.L1504>

000045b4 <.L1507>:
    45b4:	00a15c03          	lhu	s8,10(sp)
    45b8:	f9800c93          	li	s9,-104
    45bc:	006c0c13          	addi	s8,s8,6
    45c0:	01811523          	sh	s8,10(sp)
    45c4:	01945463          	bge	s0,s9,45cc <.L1506>
    45c8:	890fe06f          	j	2658 <.L1505>

000045cc <.L1506>:
    45cc:	f6d00c13          	li	s8,-147
    45d0:	018ac463          	blt	s5,s8,45d8 <.L1506+0xc>
    45d4:	6900306f          	j	7c64 <.L1541>
    45d8:	f4700c13          	li	s8,-185
    45dc:	ed8ad063          	bge	s5,s8,3c9c <.L1542>
    45e0:	00c15c03          	lhu	s8,12(sp)
    45e4:	005c0c13          	addi	s8,s8,5
    45e8:	010c1c13          	slli	s8,s8,0x10
    45ec:	410c5c13          	srai	s8,s8,0x10
    45f0:	01811623          	sh	s8,12(sp)
    45f4:	01800c13          	li	s8,24
    45f8:	b90c4ce3          	blt	s8,a6,4190 <.L1531>

000045fc <.L1543>:
    45fc:	11a00c13          	li	s8,282
    4600:	007c4463          	blt	s8,t2,4608 <.L1535>
    4604:	6840306f          	j	7c88 <.L1536>

00004608 <.L1535>:
    4608:	ccd00c13          	li	s8,-819
    460c:	0185c463          	blt	a1,s8,4614 <.L1535+0xc>
    4610:	1a40606f          	j	a7b4 <.L1547>
    4614:	00e15c03          	lhu	s8,14(sp)
    4618:	004c0c13          	addi	s8,s8,4
    461c:	01811723          	sh	s8,14(sp)
    4620:	884fe06f          	j	26a4 <.L1538>

00004624 <.L1253>:
    4624:	07000c13          	li	s8,112
    4628:	012c5463          	bge	s8,s2,4630 <.L1253+0xc>
    462c:	5f80306f          	j	7c24 <.L2869>
    4630:	00815c03          	lhu	s8,8(sp)
    4634:	008c0c13          	addi	s8,s8,8
    4638:	010c1c13          	slli	s8,s8,0x10
    463c:	410c5c13          	srai	s8,s8,0x10

00004640 <.L1252>:
    4640:	01811423          	sh	s8,8(sp)
    4644:	08c00c13          	li	s8,140
    4648:	006c4463          	blt	s8,t1,4650 <.L1252+0x10>
    464c:	c91fd06f          	j	22dc <.L1249>
    4650:	00c00c13          	li	s8,12
    4654:	01cc4463          	blt	s8,t3,465c <.L1274>
    4658:	1400606f          	j	a798 <.L1250>

0000465c <.L1274>:
    465c:	1fa00c13          	li	s8,506
    4660:	016c4463          	blt	s8,s6,4668 <.L1274+0xc>
    4664:	6e40506f          	j	9d48 <.L1251>
    4668:	00a15c03          	lhu	s8,10(sp)
    466c:	002c0c13          	addi	s8,s8,2
    4670:	010c1c13          	slli	s8,s8,0x10
    4674:	010c5c13          	srli	s8,s8,0x10

00004678 <.L1296>:
    4678:	01811523          	sh	s8,10(sp)
    467c:	03300c13          	li	s8,51
    4680:	00fc5463          	bge	s8,a5,4688 <.L2735>
    4684:	6e40106f          	j	5d68 <.L1283>

00004688 <.L2735>:
    4688:	00900c13          	li	s8,9
    468c:	011c4463          	blt	s8,a7,4694 <.L1286>
    4690:	69c0306f          	j	7d2c <.L2612>

00004694 <.L1286>:
    4694:	00300c13          	li	s8,3
    4698:	010c5463          	bge	s8,a6,46a0 <.L1286+0xc>
    469c:	6fc0306f          	j	7d98 <.L1290>
    46a0:	00c15c03          	lhu	s8,12(sp)
    46a4:	ffec0c13          	addi	s8,s8,-2
    46a8:	01811623          	sh	s8,12(sp)

000046ac <.L1291>:
    46ac:	f3900c13          	li	s8,-199
    46b0:	018a5463          	bge	s4,s8,46b8 <.L1298>
    46b4:	68d0406f          	j	9540 <.L1301>

000046b8 <.L1298>:
    46b8:	01800c13          	li	s8,24
    46bc:	012c4463          	blt	s8,s2,46c4 <.L1298+0xc>
    46c0:	68c0306f          	j	7d4c <.L2615>
    46c4:	00e15c03          	lhu	s8,14(sp)
    46c8:	ffe00c93          	li	s9,-2
    46cc:	005c0c13          	addi	s8,s8,5
    46d0:	01811723          	sh	s8,14(sp)
    46d4:	01985463          	bge	a6,s9,46dc <.L1300>
    46d8:	81cfd06f          	j	16f4 <.L1299>

000046dc <.L1300>:
    46dc:	00300c13          	li	s8,3
    46e0:	00dc5463          	bge	s8,a3,46e8 <.L1300+0xc>
    46e4:	4940506f          	j	9b78 <.L1330>
    46e8:	00815c03          	lhu	s8,8(sp)
    46ec:	003c0c13          	addi	s8,s8,3
    46f0:	010c1c13          	slli	s8,s8,0x10
    46f4:	410c5c13          	srai	s8,s8,0x10
    46f8:	c71fd06f          	j	2368 <.L1331>

000046fc <.L956>:
    46fc:	fe200c13          	li	s8,-30
    4700:	01864463          	blt	a2,s8,4708 <.L956+0xc>
    4704:	7700206f          	j	6e74 <.L2870>
    4708:	e3d00c13          	li	s8,-451
    470c:	09845263          	bge	s0,s8,4790 <.L958>
    4710:	00a15c03          	lhu	s8,10(sp)
    4714:	03900c93          	li	s9,57
    4718:	ff9c0c13          	addi	s8,s8,-7
    471c:	01811523          	sh	s8,10(sp)
    4720:	00dcc463          	blt	s9,a3,4728 <.L956+0x2c>
    4724:	ab1fc06f          	j	11d4 <.L960>
    4728:	02700c13          	li	s8,39
    472c:	08ec4463          	blt	s8,a4,47b4 <.L966>

00004730 <.L961>:
    4730:	00c15c03          	lhu	s8,12(sp)
    4734:	cf000c93          	li	s9,-784
    4738:	fffc0c13          	addi	s8,s8,-1
    473c:	01811623          	sh	s8,12(sp)
    4740:	0995d463          	bge	a1,s9,47c8 <.L2408>

00004744 <.L962>:
    4744:	25d00c13          	li	s8,605
    4748:	009c4463          	blt	s8,s1,4750 <.L962+0xc>
    474c:	ab1fc06f          	j	11fc <.L982>
    4750:	0f600c13          	li	s8,246
    4754:	007c5463          	bge	s8,t2,475c <.L962+0x18>
    4758:	6a40106f          	j	5dfc <.L992>
    475c:	00e15c03          	lhu	s8,14(sp)
    4760:	fa300c93          	li	s9,-93
    4764:	ffac0c13          	addi	s8,s8,-6
    4768:	01811723          	sh	s8,14(sp)
    476c:	0192d463          	bge	t0,s9,4774 <.L2596>
    4770:	6a40106f          	j	5e14 <.L985>

00004774 <.L2596>:
    4774:	11c00c13          	li	s8,284
    4778:	012c5463          	bge	s8,s2,4780 <.L990>
    477c:	6d40406f          	j	8e50 <.L991>

00004780 <.L990>:
    4780:	00815c03          	lhu	s8,8(sp)
    4784:	001c0c13          	addi	s8,s8,1
    4788:	01811423          	sh	s8,8(sp)
    478c:	a9dfc06f          	j	1228 <.L1002>

00004790 <.L958>:
    4790:	00a15c03          	lhu	s8,10(sp)
    4794:	03900c93          	li	s9,57
    4798:	005c0c13          	addi	s8,s8,5
    479c:	01811523          	sh	s8,10(sp)
    47a0:	00dcc463          	blt	s9,a3,47a8 <.L958+0x18>
    47a4:	a31fc06f          	j	11d4 <.L960>
    47a8:	02700c13          	li	s8,39
    47ac:	00ec4463          	blt	s8,a4,47b4 <.L966>
    47b0:	70c0406f          	j	8ebc <.L972>

000047b4 <.L966>:
    47b4:	00c15c03          	lhu	s8,12(sp)
    47b8:	cf000c93          	li	s9,-784
    47bc:	002c0c13          	addi	s8,s8,2
    47c0:	01811623          	sh	s8,12(sp)
    47c4:	f995c0e3          	blt	a1,s9,4744 <.L962>

000047c8 <.L2408>:
    47c8:	0de00c13          	li	s8,222
    47cc:	012c5463          	bge	s8,s2,47d4 <.L988>
    47d0:	5980206f          	j	6d68 <.L984>

000047d4 <.L988>:
    47d4:	00e15c03          	lhu	s8,14(sp)
    47d8:	fa300c93          	li	s9,-93
    47dc:	ffac0c13          	addi	s8,s8,-6
    47e0:	01811723          	sh	s8,14(sp)
    47e4:	0192d463          	bge	t0,s9,47ec <.L988+0x18>
    47e8:	62c0106f          	j	5e14 <.L985>
    47ec:	11c00c13          	li	s8,284
    47f0:	012c4463          	blt	s8,s2,47f8 <.L995>
    47f4:	ebcfd06f          	j	1eb0 <.L994>

000047f8 <.L995>:
    47f8:	00815c03          	lhu	s8,8(sp)
    47fc:	006c0c13          	addi	s8,s8,6
    4800:	01811423          	sh	s8,8(sp)
    4804:	a25fc06f          	j	1228 <.L1002>

00004808 <.L1375>:
    4808:	00815c03          	lhu	s8,8(sp)
    480c:	03900c93          	li	s9,57
    4810:	ffdc0c13          	addi	s8,s8,-3
    4814:	01811423          	sh	s8,8(sp)
    4818:	f46cc863          	blt	s9,t1,3f68 <.L2621>

0000481c <.L1371>:
    481c:	00800c13          	li	s8,8
    4820:	011c5463          	bge	s8,a7,4828 <.L1371+0xc>
    4824:	49c0306f          	j	7cc0 <.L2871>
    4828:	00900c13          	li	s8,9
    482c:	01dc5463          	bge	s8,t4,4834 <.L1371+0x18>
    4830:	3240406f          	j	8b54 <.L1386>
    4834:	00a15c03          	lhu	s8,10(sp)
    4838:	00100c93          	li	s9,1
    483c:	ffbc0c13          	addi	s8,s8,-5
    4840:	01811523          	sh	s8,10(sp)
    4844:	01ccc463          	blt	s9,t3,484c <.L1371+0x30>
    4848:	13c0706f          	j	b984 <.L1387>
    484c:	ff000c13          	li	s8,-16
    4850:	01864463          	blt	a2,s8,4858 <.L1388>
    4854:	63c0706f          	j	be90 <.L2872>

00004858 <.L1388>:
    4858:	00c15c03          	lhu	s8,12(sp)
    485c:	007c0c13          	addi	s8,s8,7
    4860:	01811623          	sh	s8,12(sp)
    4864:	03c00c13          	li	s8,60
    4868:	f2fc5663          	bge	s8,a5,3f94 <.L1402>

0000486c <.L1389>:
    486c:	0dc00c13          	li	s8,220
    4870:	00ec4463          	blt	s8,a4,4878 <.L1389+0xc>
    4874:	0010406f          	j	9074 <.L2873>
    4878:	01f00c13          	li	s8,31
    487c:	010c5463          	bge	s8,a6,4884 <.L1389+0x18>
    4880:	6000606f          	j	ae80 <.L1420>
    4884:	00e15c03          	lhu	s8,14(sp)
    4888:	ff8c0c13          	addi	s8,s8,-8
    488c:	01811723          	sh	s8,14(sp)
    4890:	c1dfd06f          	j	24ac <.L1410>

00004894 <.L1152>:
    4894:	00700c13          	li	s8,7
    4898:	011c5463          	bge	s8,a7,48a0 <.L1152+0xc>
    489c:	2310206f          	j	72cc <.L1165>
    48a0:	00815c03          	lhu	s8,8(sp)
    48a4:	fffc0c13          	addi	s8,s8,-1
    48a8:	010c1c13          	slli	s8,s8,0x10
    48ac:	010c5c13          	srli	s8,s8,0x10

000048b0 <.L1166>:
    48b0:	01811423          	sh	s8,8(sp)
    48b4:	1b900c13          	li	s8,441
    48b8:	01ec5463          	bge	s8,t5,48c0 <.L1166+0x10>
    48bc:	8c5fd06f          	j	2180 <.L1162>
    48c0:	03b00c13          	li	s8,59
    48c4:	00fc4463          	blt	s8,a5,48cc <.L1164>
    48c8:	4d40206f          	j	6d9c <.L1158>

000048cc <.L1164>:
    48cc:	ffe00c13          	li	s8,-2
    48d0:	9b864063          	blt	a2,s8,3a70 <.L1161>
    48d4:	00a15c03          	lhu	s8,10(sp)
    48d8:	03c00c93          	li	s9,60
    48dc:	002c0c13          	addi	s8,s8,2
    48e0:	01811523          	sh	s8,10(sp)
    48e4:	00fcd463          	bge	s9,a5,48ec <.L1164+0x20>
    48e8:	8c5fd06f          	j	21ac <.L1171>
    48ec:	00f00c13          	li	s8,15
    48f0:	010c4463          	blt	s8,a6,48f8 <.L1192>
    48f4:	c49fc06f          	j	153c <.L1188>

000048f8 <.L1192>:
    48f8:	00c15c03          	lhu	s8,12(sp)
    48fc:	ff8c0c13          	addi	s8,s8,-8
    4900:	010c1c13          	slli	s8,s8,0x10
    4904:	410c5c13          	srai	s8,s8,0x10
    4908:	8cdfd06f          	j	21d4 <.L1189>

0000490c <.L1828>:
    490c:	00815c03          	lhu	s8,8(sp)
    4910:	03300c93          	li	s9,51
    4914:	ff3c0c13          	addi	s8,s8,-13
    4918:	01811423          	sh	s8,8(sp)
    491c:	01fcd463          	bge	s9,t6,4924 <.L1831>
    4920:	9f4fe06f          	j	2b14 <.L1830>

00004924 <.L1831>:
    4924:	1c600c13          	li	s8,454
    4928:	00ec5463          	bge	s8,a4,4930 <.L1831+0xc>
    492c:	0780406f          	j	89a4 <.L1840>
    4930:	03300c13          	li	s8,51
    4934:	018f9463          	bne	t6,s8,493c <.L1831+0x18>
    4938:	4a10606f          	j	b5d8 <.L1841>
    493c:	00a15c03          	lhu	s8,10(sp)
    4940:	ff8c0c13          	addi	s8,s8,-8
    4944:	010c1c13          	slli	s8,s8,0x10
    4948:	410c5c13          	srai	s8,s8,0x10
    494c:	01811523          	sh	s8,10(sp)

00004950 <.L2884>:
    4950:	00100c13          	li	s8,1
    4954:	01cc5463          	bge	s8,t3,495c <.L2816>
    4958:	9dcfe06f          	j	2b34 <.L1848>

0000495c <.L2816>:
    495c:	01100c13          	li	s8,17
    4960:	011c5463          	bge	s8,a7,4968 <.L2816+0xc>
    4964:	6b40406f          	j	9018 <.L1849>
    4968:	00c15c03          	lhu	s8,12(sp)
    496c:	c0000c93          	li	s9,-1024
    4970:	ff8c0c13          	addi	s8,s8,-8
    4974:	01811623          	sh	s8,12(sp)
    4978:	0195d463          	bge	a1,s9,4980 <.L2816+0x24>
    497c:	1ad0606f          	j	b328 <.L1850>
    4980:	01f00c13          	li	s8,31
    4984:	013c4463          	blt	s8,s3,498c <.L2816+0x30>
    4988:	0240706f          	j	b9ac <.L1851>
    498c:	00815c03          	lhu	s8,8(sp)
    4990:	f8b00c93          	li	s9,-117
    4994:	ff9c0c13          	addi	s8,s8,-7
    4998:	01811423          	sh	s8,8(sp)
    499c:	0195d463          	bge	a1,s9,49a4 <.L1854>
    49a0:	9f8fe06f          	j	2b98 <.L1873>

000049a4 <.L1854>:
    49a4:	00a15c03          	lhu	s8,10(sp)
    49a8:	ffec0c13          	addi	s8,s8,-2
    49ac:	010c1c13          	slli	s8,s8,0x10
    49b0:	410c5c13          	srai	s8,s8,0x10
    49b4:	01811523          	sh	s8,10(sp)

000049b8 <.L2894>:
    49b8:	fdb00c13          	li	s8,-37
    49bc:	01875463          	bge	a4,s8,49c4 <.L1881>
    49c0:	a08fe06f          	j	2bc8 <.L2874>

000049c4 <.L1881>:
    49c4:	02700c13          	li	s8,39
    49c8:	00ec5463          	bge	s8,a4,49d0 <.L1881+0xc>
    49cc:	1bd0306f          	j	8388 <.L1887>
    49d0:	03c00c13          	li	s8,60
    49d4:	00dc5863          	bge	s8,a3,49e4 <.L1888>
    49d8:	00c15c03          	lhu	s8,12(sp)
    49dc:	007c0c13          	addi	s8,s8,7
    49e0:	01811623          	sh	s8,12(sp)

000049e4 <.L1888>:
    49e4:	05800c13          	li	s8,88
    49e8:	769c4263          	blt	s8,s1,514c <.L1883>
    49ec:	f5300c13          	li	s8,-173
    49f0:	01845463          	bge	s0,s8,49f8 <.L1888+0x14>
    49f4:	1c50306f          	j	83b8 <.L1884>
    49f8:	ff900c13          	li	s8,-7
    49fc:	01875463          	bge	a4,s8,4a04 <.L1898>
    4a00:	9f8fe06f          	j	2bf8 <.L1885>

00004a04 <.L1898>:
    4a04:	00e15c03          	lhu	s8,14(sp)
    4a08:	ffbc0c13          	addi	s8,s8,-5
    4a0c:	010c1c13          	slli	s8,s8,0x10
    4a10:	410c5c13          	srai	s8,s8,0x10
    4a14:	01811723          	sh	s8,14(sp)
    4a18:	07300c13          	li	s8,115
    4a1c:	012c5463          	bge	s8,s2,4a24 <.L1893>
    4a20:	9f8fe06f          	j	2c18 <.L1899>

00004a24 <.L1893>:
    4a24:	00c00c13          	li	s8,12
    4a28:	651c4e63          	blt	s8,a7,5084 <.L1900>
    4a2c:	673c4663          	blt	s8,s3,5098 <.L1906>
    4a30:	00815c03          	lhu	s8,8(sp)
    4a34:	02b00c93          	li	s9,43
    4a38:	009c0c13          	addi	s8,s8,9
    4a3c:	01811423          	sh	s8,8(sp)
    4a40:	670cc263          	blt	s9,a6,50a4 <.L1902>

00004a44 <.L1911>:
    4a44:	d7400c13          	li	s8,-652
    4a48:	018ac463          	blt	s5,s8,4a50 <.L1911+0xc>
    4a4c:	a0cfe06f          	j	2c58 <.L1913>
    4a50:	00a15c03          	lhu	s8,10(sp)
    4a54:	ff9c0c13          	addi	s8,s8,-7
    4a58:	01811523          	sh	s8,10(sp)
    4a5c:	00100c13          	li	s8,1
    4a60:	01cc5463          	bge	s8,t3,4a68 <.L1915>
    4a64:	a00fe06f          	j	2c64 <.L2495>

00004a68 <.L1915>:
    4a68:	02100c13          	li	s8,33
    4a6c:	00ec5463          	bge	s8,a4,4a74 <.L1915+0xc>
    4a70:	0e80106f          	j	5b58 <.L2653>
    4a74:	00c15c03          	lhu	s8,12(sp)
    4a78:	fffc0c13          	addi	s8,s8,-1
    4a7c:	010c1c13          	slli	s8,s8,0x10
    4a80:	410c5c13          	srai	s8,s8,0x10
    4a84:	01811623          	sh	s8,12(sp)
    4a88:	ff600c13          	li	s8,-10
    4a8c:	01865463          	bge	a2,s8,4a94 <.L1929>
    4a90:	a0cfe06f          	j	2c9c <.L2875>

00004a94 <.L1929>:
    4a94:	ff600c13          	li	s8,-10
    4a98:	01861463          	bne	a2,s8,4aa0 <.L1929+0xc>
    4a9c:	1410406f          	j	93dc <.L2876>
    4aa0:	01400c13          	li	s8,20
    4aa4:	013c5463          	bge	s8,s3,4aac <.L1936>
    4aa8:	5040106f          	j	5fac <.L2654>

00004aac <.L1936>:
    4aac:	00e15c03          	lhu	s8,14(sp)
    4ab0:	fffc0c13          	addi	s8,s8,-1
    4ab4:	01811723          	sh	s8,14(sp)
    4ab8:	39000c13          	li	s8,912
    4abc:	006c4463          	blt	s8,t1,4ac4 <.L1938>
    4ac0:	a0cfe06f          	j	2ccc <.L2877>

00004ac4 <.L1938>:
    4ac4:	01c00c13          	li	s8,28
    4ac8:	00ec5463          	bge	s8,a4,4ad0 <.L1938+0xc>
    4acc:	6540306f          	j	8120 <.L1942>
    4ad0:	00815c03          	lhu	s8,8(sp)
    4ad4:	00bc0c13          	addi	s8,s8,11
    4ad8:	01811423          	sh	s8,8(sp)
    4adc:	e2400c13          	li	s8,-476
    4ae0:	0182d463          	bge	t0,s8,4ae8 <.L1944>
    4ae4:	a14fe06f          	j	2cf8 <.L2878>

00004ae8 <.L1944>:
    4ae8:	03c00c13          	li	s8,60
    4aec:	01fc5463          	bge	s8,t6,4af4 <.L1944+0xc>
    4af0:	0cd0206f          	j	73bc <.L1955>
    4af4:	00900c13          	li	s8,9
    4af8:	01cc5463          	bge	s8,t3,4b00 <.L1944+0x18>
    4afc:	6340606f          	j	b130 <.L1956>
    4b00:	00a15c03          	lhu	s8,10(sp)
    4b04:	001c0c13          	addi	s8,s8,1
    4b08:	010c1c13          	slli	s8,s8,0x10
    4b0c:	410c5c13          	srai	s8,s8,0x10
    4b10:	01811523          	sh	s8,10(sp)
    4b14:	03c00c13          	li	s8,60
    4b18:	00fc5463          	bge	s8,a5,4b20 <.L1962>
    4b1c:	a14fe06f          	j	2d30 <.L1958>

00004b20 <.L1962>:
    4b20:	42200c13          	li	s8,1058
    4b24:	007c4463          	blt	s8,t2,4b2c <.L1950>
    4b28:	3d40406f          	j	8efc <.L1949>

00004b2c <.L1950>:
    4b2c:	e2300c13          	li	s8,-477
    4b30:	01844463          	blt	s0,s8,4b38 <.L1950+0xc>
    4b34:	6bd0406f          	j	99f0 <.L1975>
    4b38:	00c15c03          	lhu	s8,12(sp)
    4b3c:	05800c93          	li	s9,88
    4b40:	006c0c13          	addi	s8,s8,6
    4b44:	01811623          	sh	s8,12(sp)
    4b48:	009cd463          	bge	s9,s1,4b50 <.L2657>
    4b4c:	6c90406f          	j	9a14 <.L1976>

00004b50 <.L2657>:
    4b50:	00e15c03          	lhu	s8,14(sp)
    4b54:	00ec0c13          	addi	s8,s8,14
    4b58:	01811723          	sh	s8,14(sp)

00004b5c <.L1994>:
    4b5c:	e7b00c13          	li	s8,-389
    4b60:	0185c463          	blt	a1,s8,4b68 <.L1994+0xc>
    4b64:	4e40206f          	j	7048 <.L1987>
    4b68:	00815c03          	lhu	s8,8(sp)
    4b6c:	ffac0c13          	addi	s8,s8,-6
    4b70:	01811423          	sh	s8,8(sp)
    4b74:	02e00c13          	li	s8,46
    4b78:	01dc5463          	bge	s8,t4,4b80 <.L1992>
    4b7c:	a28fe06f          	j	2da4 <.L2879>

00004b80 <.L1992>:
    4b80:	01d00c13          	li	s8,29
    4b84:	011c5463          	bge	s8,a7,4b8c <.L1992+0xc>
    4b88:	56c0306f          	j	80f4 <.L2880>
    4b8c:	ffe00c13          	li	s8,-2
    4b90:	01884463          	blt	a6,s8,4b98 <.L2501>
    4b94:	a28fe06f          	j	2dbc <.L1998>

00004b98 <.L2501>:
    4b98:	00a15c03          	lhu	s8,10(sp)
    4b9c:	ff9c0c13          	addi	s8,s8,-7
    4ba0:	01811523          	sh	s8,10(sp)
    4ba4:	a18fe06f          	j	2dbc <.L1998>

00004ba8 <.L1777>:
    4ba8:	ff800c13          	li	s8,-8
    4bac:	01864463          	blt	a2,s8,4bb4 <.L1777+0xc>
    4bb0:	5750206f          	j	7924 <.L1784>
    4bb4:	01f00c13          	li	s8,31
    4bb8:	571c4ce3          	blt	s8,a7,5930 <.L1785>
    4bbc:	00815c03          	lhu	s8,8(sp)
    4bc0:	02e00c93          	li	s9,46
    4bc4:	003c0c13          	addi	s8,s8,3
    4bc8:	01811423          	sh	s8,8(sp)
    4bcc:	57dccce3          	blt	s9,t4,5944 <.L1779>
    4bd0:	01700c13          	li	s8,23
    4bd4:	011c4463          	blt	s8,a7,4bdc <.L1788>
    4bd8:	e81fd06f          	j	2a58 <.L1782>

00004bdc <.L1788>:
    4bdc:	00a15c03          	lhu	s8,10(sp)
    4be0:	01500c93          	li	s9,21
    4be4:	ff9c0c13          	addi	s8,s8,-7
    4be8:	01811523          	sh	s8,10(sp)
    4bec:	330cd0e3          	bge	s9,a6,570c <.L1786>
    4bf0:	03b00c13          	li	s8,59
    4bf4:	06fc5263          	bge	s8,a5,4c58 <.L1794>

00004bf8 <.L1795>:
    4bf8:	1df00c13          	li	s8,479
    4bfc:	01ec4463          	blt	s8,t5,4c04 <.L1795+0xc>
    4c00:	e9dfd06f          	j	2a9c <.L2648>
    4c04:	00c15c03          	lhu	s8,12(sp)
    4c08:	00300c93          	li	s9,3
    4c0c:	019c0c33          	add	s8,s8,s9
    4c10:	01811623          	sh	s8,12(sp)
    4c14:	01ccd463          	bge	s9,t3,4c1c <.L1795+0x24>
    4c18:	3e50606f          	j	b7fc <.L1809>
    4c1c:	01300c13          	li	s8,19
    4c20:	01dc5463          	bge	s8,t4,4c28 <.L1795+0x30>
    4c24:	0400706f          	j	bc64 <.L2881>
    4c28:	02e00c13          	li	s8,46
    4c2c:	012c5463          	bge	s8,s2,4c34 <.L1795+0x3c>
    4c30:	3480706f          	j	bf78 <.L2882>
    4c34:	00e15c83          	lhu	s9,14(sp)
    4c38:	00815c03          	lhu	s8,8(sp)
    4c3c:	ff9c8c93          	addi	s9,s9,-7

00004c40 <.L2651>:
    4c40:	fffc0c13          	addi	s8,s8,-1
    4c44:	01811423          	sh	s8,8(sp)
    4c48:	01911723          	sh	s9,14(sp)
    4c4c:	03300c13          	li	s8,51
    4c50:	09fc4463          	blt	s8,t6,4cd8 <.L1845>
    4c54:	cd1ff06f          	j	4924 <.L1831>

00004c58 <.L1794>:
    4c58:	00c15c03          	lhu	s8,12(sp)
    4c5c:	008c0c13          	addi	s8,s8,8
    4c60:	01811623          	sh	s8,12(sp)
    4c64:	00300c13          	li	s8,3
    4c68:	01cc4463          	blt	s8,t3,4c70 <.L1800>
    4c6c:	e49fd06f          	j	2ab4 <.L2883>

00004c70 <.L1800>:
    4c70:	e4a00c13          	li	s8,-438
    4c74:	0182c463          	blt	t0,s8,4c7c <.L1800+0xc>
    4c78:	1900406f          	j	8e08 <.L1820>
    4c7c:	de700c13          	li	s8,-537
    4c80:	0185c863          	blt	a1,s8,4c90 <.L1821>

00004c84 <.L2649>:
    4c84:	00e15c03          	lhu	s8,14(sp)
    4c88:	ff8c0c13          	addi	s8,s8,-8
    4c8c:	01811723          	sh	s8,14(sp)

00004c90 <.L1821>:
    4c90:	0a900c13          	li	s8,169
    4c94:	01ec4463          	blt	s8,t5,4c9c <.L1826>
    4c98:	e4dfd06f          	j	2ae4 <.L1817>

00004c9c <.L1826>:
    4c9c:	01700c13          	li	s8,23
    4ca0:	6fdc52e3          	bge	s8,t4,5b84 <.L2650>

00004ca4 <.L1835>:
    4ca4:	01c51c83          	lh	s9,28(a0)
    4ca8:	02500c13          	li	s8,37
    4cac:	6d9c5ce3          	bge	s8,s9,5b84 <.L2650>
    4cb0:	00815c03          	lhu	s8,8(sp)
    4cb4:	004c0c13          	addi	s8,s8,4
    4cb8:	010c1c13          	slli	s8,s8,0x10
    4cbc:	410c5c13          	srai	s8,s8,0x10

00004cc0 <.L1834>:
    4cc0:	01811423          	sh	s8,8(sp)
    4cc4:	03300c13          	li	s8,51
    4cc8:	c5fc5ee3          	bge	s8,t6,4924 <.L1831>
    4ccc:	03b00c13          	li	s8,59
    4cd0:	00fc4463          	blt	s8,a5,4cd8 <.L1845>
    4cd4:	e41fd06f          	j	2b14 <.L1830>

00004cd8 <.L1845>:
    4cd8:	17900c13          	li	s8,377
    4cdc:	009c5463          	bge	s8,s1,4ce4 <.L1845+0xc>
    4ce0:	e49fd06f          	j	2b28 <.L1844>
    4ce4:	00a15c03          	lhu	s8,10(sp)
    4ce8:	ff9c0c13          	addi	s8,s8,-7
    4cec:	01811523          	sh	s8,10(sp)
    4cf0:	c61ff06f          	j	4950 <.L2884>

00004cf4 <.L1758>:
    4cf4:	faf00c13          	li	s8,-81
    4cf8:	01844463          	blt	s0,s8,4d00 <.L1758+0xc>
    4cfc:	7440306f          	j	8440 <.L2885>
    4d00:	00c15c03          	lhu	s8,12(sp)
    4d04:	02700c93          	li	s9,39
    4d08:	001c0c13          	addi	s8,s8,1
    4d0c:	01811623          	sh	s8,12(sp)
    4d10:	007cc463          	blt	s9,t2,4d18 <.L1762>
    4d14:	7440306f          	j	8458 <.L1761>

00004d18 <.L1762>:
    4d18:	03000c13          	li	s8,48
    4d1c:	007c5463          	bge	s8,t2,4d24 <.L1762+0xc>
    4d20:	68d0106f          	j	6bac <.L1775>
    4d24:	0b800c13          	li	s8,184
    4d28:	009c5463          	bge	s8,s1,4d30 <.L1762+0x18>
    4d2c:	1640606f          	j	ae90 <.L1776>
    4d30:	00e15c03          	lhu	s8,14(sp)
    4d34:	00dc0c13          	addi	s8,s8,13
    4d38:	01811723          	sh	s8,14(sp)
    4d3c:	cedfd06f          	j	2a28 <.L1774>

00004d40 <.L1752>:
    4d40:	00c00c13          	li	s8,12
    4d44:	01cc5463          	bge	s8,t3,4d4c <.L1752+0xc>
    4d48:	6810106f          	j	6bc8 <.L1756>
    4d4c:	03300c13          	li	s8,51
    4d50:	01fc5463          	bge	s8,t6,4d58 <.L1752+0x18>
    4d54:	4750306f          	j	89c8 <.L1757>
    4d58:	00a15c03          	lhu	s8,10(sp)
    4d5c:	ffac0c13          	addi	s8,s8,-6
    4d60:	01811523          	sh	s8,10(sp)
    4d64:	f9800c13          	li	s8,-104
    4d68:	01845463          	bge	s0,s8,4d70 <.L2814>
    4d6c:	c6dfd06f          	j	29d8 <.L1767>

00004d70 <.L2814>:
    4d70:	faf00c13          	li	s8,-81
    4d74:	01844463          	blt	s0,s8,4d7c <.L2814+0xc>
    4d78:	c75fd06f          	j	29ec <.L1771>
    4d7c:	03200c13          	li	s8,50
    4d80:	01fc5463          	bge	s8,t6,4d88 <.L2814+0x18>
    4d84:	7240606f          	j	b4a8 <.L1772>
    4d88:	00c15c03          	lhu	s8,12(sp)
    4d8c:	011c0c13          	addi	s8,s8,17
    4d90:	01811623          	sh	s8,12(sp)
    4d94:	c65fd06f          	j	29f8 <.L1769>

00004d98 <.L1724>:
    4d98:	00a15c03          	lhu	s8,10(sp)
    4d9c:	02200c93          	li	s9,34
    4da0:	ff5c0c13          	addi	s8,s8,-11
    4da4:	01811523          	sh	s8,10(sp)
    4da8:	011cd463          	bge	s9,a7,4db0 <.L1724+0x18>
    4dac:	1490606f          	j	b6f4 <.L1725>
    4db0:	01700c13          	li	s8,23
    4db4:	01dc5463          	bge	s8,t4,4dbc <.L1724+0x24>
    4db8:	7380306f          	j	84f0 <.L1726>
    4dbc:	1dc00c13          	li	s8,476
    4dc0:	01ec5463          	bge	s8,t5,4dc8 <.L1727>
    4dc4:	b7dfd06f          	j	2940 <.L1728>

00004dc8 <.L1727>:
    4dc8:	01d00c13          	li	s8,29
    4dcc:	453c4463          	blt	s8,s3,5214 <.L1744>
    4dd0:	ff500c13          	li	s8,-11
    4dd4:	01894463          	blt	s2,s8,4ddc <.L1727+0x14>
    4dd8:	6d00506f          	j	a4a8 <.L1745>
    4ddc:	00e15c03          	lhu	s8,14(sp)
    4de0:	01500c93          	li	s9,21
    4de4:	004c0c13          	addi	s8,s8,4
    4de8:	01811723          	sh	s8,14(sp)
    4dec:	447cc863          	blt	s9,t2,523c <.L1741>

00004df0 <.L1746>:
    4df0:	00815c03          	lhu	s8,8(sp)
    4df4:	008c0c13          	addi	s8,s8,8
    4df8:	01811423          	sh	s8,8(sp)
    4dfc:	ba1fd06f          	j	299c <.L1748>

00004e00 <.L769>:
    4e00:	00e15c03          	lhu	s8,14(sp)
    4e04:	004c0c13          	addi	s8,s8,4
    4e08:	010c1c13          	slli	s8,s8,0x10
    4e0c:	410c5c13          	srai	s8,s8,0x10
    4e10:	01811723          	sh	s8,14(sp)
    4e14:	ffe00c13          	li	s8,-2
    4e18:	01884463          	blt	a6,s8,4e20 <.L783>
    4e1c:	d39fc06f          	j	1b54 <.L786>

00004e20 <.L783>:
    4e20:	0a400c13          	li	s8,164
    4e24:	00dc5463          	bge	s8,a3,4e2c <.L783+0xc>
    4e28:	60d0306f          	j	8c34 <.L776>
    4e2c:	1aa00c13          	li	s8,426
    4e30:	016c5463          	bge	s8,s6,4e38 <.L783+0x18>
    4e34:	7680506f          	j	a59c <.L787>
    4e38:	00815c03          	lhu	s8,8(sp)
    4e3c:	03300c93          	li	s9,51
    4e40:	007c0c13          	addi	s8,s8,7
    4e44:	01811423          	sh	s8,8(sp)
    4e48:	01fcc463          	blt	s9,t6,4e50 <.L789>
    4e4c:	d39fc06f          	j	1b84 <.L788>

00004e50 <.L789>:
    4e50:	0c400c13          	li	s8,196
    4e54:	016c5463          	bge	s8,s6,4e5c <.L789+0xc>
    4e58:	2410606f          	j	b898 <.L802>
    4e5c:	00a15c03          	lhu	s8,10(sp)
    4e60:	ff8c0c13          	addi	s8,s8,-8
    4e64:	010c1c13          	slli	s8,s8,0x10
    4e68:	410c5c13          	srai	s8,s8,0x10

00004e6c <.L800>:
    4e6c:	01811523          	sh	s8,10(sp)
    4e70:	ffc00c13          	li	s8,-4
    4e74:	01865463          	bge	a2,s8,4e7c <.L800+0x10>
    4e78:	d39fc06f          	j	1bb0 <.L797>
    4e7c:	01005463          	blez	a6,4e84 <.L803>
    4e80:	8c0fc06f          	j	f40 <.L812>

00004e84 <.L803>:
    4e84:	03500c13          	li	s8,53
    4e88:	2efc4263          	blt	s8,a5,516c <.L813>
    4e8c:	00c15c03          	lhu	s8,12(sp)
    4e90:	03800c93          	li	s9,56
    4e94:	ff9c0c13          	addi	s8,s8,-7
    4e98:	01811623          	sh	s8,12(sp)
    4e9c:	00ecd463          	bge	s9,a4,4ea4 <.L814>
    4ea0:	51d0306f          	j	8bbc <.L815>

00004ea4 <.L814>:
    4ea4:	00e15c03          	lhu	s8,14(sp)
    4ea8:	ff7c0c13          	addi	s8,s8,-9
    4eac:	010c1c13          	slli	s8,s8,0x10
    4eb0:	410c5c13          	srai	s8,s8,0x10
    4eb4:	8b4fc06f          	j	f68 <.L820>

00004eb8 <.L772>:
    4eb8:	00c15c03          	lhu	s8,12(sp)
    4ebc:	03e00c93          	li	s9,62
    4ec0:	004c0c13          	addi	s8,s8,4
    4ec4:	01811623          	sh	s8,12(sp)
    4ec8:	00fcc463          	blt	s9,a5,4ed0 <.L752>
    4ecc:	c5dfc06f          	j	1b28 <.L751>

00004ed0 <.L752>:
    4ed0:	fec00c13          	li	s8,-20
    4ed4:	01865463          	bge	a2,s8,4edc <.L755>
    4ed8:	ffdfb06f          	j	ed4 <.L780>

00004edc <.L755>:
    4edc:	00e15c03          	lhu	s8,14(sp)
    4ee0:	ffe00c93          	li	s9,-2
    4ee4:	009c0c13          	addi	s8,s8,9
    4ee8:	01811723          	sh	s8,14(sp)
    4eec:	f3984ae3          	blt	a6,s9,4e20 <.L783>

00004ef0 <.L2387>:
    4ef0:	0ba00c13          	li	s8,186
    4ef4:	012c4463          	blt	s8,s2,4efc <.L777>
    4ef8:	800fc06f          	j	ef8 <.L784>

00004efc <.L777>:
    4efc:	00815c03          	lhu	s8,8(sp)
    4f00:	01c04463          	bgtz	t3,4f08 <.L777+0xc>
    4f04:	3ec0606f          	j	b2f0 <.L2886>
    4f08:	ff8c0c13          	addi	s8,s8,-8
    4f0c:	010c1c13          	slli	s8,s8,0x10
    4f10:	410c5c13          	srai	s8,s8,0x10
    4f14:	ff5fb06f          	j	f08 <.L778>

00004f18 <.L1210>:
    4f18:	00e15c03          	lhu	s8,14(sp)
    4f1c:	00400c93          	li	s9,4
    4f20:	ff6c0c13          	addi	s8,s8,-10
    4f24:	01811723          	sh	s8,14(sp)
    4f28:	011cd463          	bge	s9,a7,4f30 <.L1208>
    4f2c:	39d0206f          	j	7ac8 <.L2607>

00004f30 <.L1208>:
    4f30:	03a00c13          	li	s8,58
    4f34:	01fc5463          	bge	s8,t6,4f3c <.L1208+0xc>
    4f38:	2310306f          	j	8968 <.L1213>
    4f3c:	00815c03          	lhu	s8,8(sp)
    4f40:	00cc0c13          	addi	s8,s8,12
    4f44:	01811423          	sh	s8,8(sp)
    4f48:	af0fd06f          	j	2238 <.L1209>

00004f4c <.L2107>:
    4f4c:	0a400b13          	li	s6,164
    4f50:	01eb5863          	bge	s6,t5,4f60 <.L2101>
    4f54:	00815b03          	lhu	s6,8(sp)
    4f58:	ff9b0b13          	addi	s6,s6,-7
    4f5c:	01611423          	sh	s6,8(sp)

00004f60 <.L2101>:
    4f60:	02e00b13          	li	s6,46
    4f64:	c5db5663          	bge	s6,t4,43b0 <.L2098>
    4f68:	03900b13          	li	s6,57
    4f6c:	01fb5463          	bge	s6,t6,4f74 <.L2099>
    4f70:	830fe06f          	j	2fa0 <.L2111>

00004f74 <.L2099>:
    4f74:	00e00b13          	li	s6,14
    4f78:	010b5463          	bge	s6,a6,4f80 <.L2099+0xc>
    4f7c:	65c0406f          	j	95d8 <.L2887>
    4f80:	00a15b03          	lhu	s6,10(sp)
    4f84:	004b0b13          	addi	s6,s6,4
    4f88:	01611523          	sh	s6,10(sp)
    4f8c:	82cfe06f          	j	2fb8 <.L2114>

00004f90 <.L2890>:
    4f90:	07400c13          	li	s8,116
    4f94:	007c5463          	bge	s8,t2,4f9c <.L2890+0xc>
    4f98:	6300606f          	j	b5c8 <.L1700>
    4f9c:	00e15c03          	lhu	s8,14(sp)
    4fa0:	e4300c93          	li	s9,-445
    4fa4:	ffdc0c13          	addi	s8,s8,-3
    4fa8:	01811723          	sh	s8,14(sp)
    4fac:	01945463          	bge	s0,s9,4fb4 <.L1702>
    4fb0:	4100406f          	j	93c0 <.L1701>

00004fb4 <.L1702>:
    4fb4:	03b00c13          	li	s8,59
    4fb8:	00fc5463          	bge	s8,a5,4fc0 <.L1702+0xc>
    4fbc:	7f90206f          	j	7fb4 <.L1713>
    4fc0:	d6700c13          	li	s8,-665
    4fc4:	018ac463          	blt	s5,s8,4fcc <.L1702+0x18>
    4fc8:	3f80506f          	j	a3c0 <.L1714>
    4fcc:	00815c03          	lhu	s8,8(sp)
    4fd0:	00fc0c13          	addi	s8,s8,15
    4fd4:	010c1c13          	slli	s8,s8,0x10
    4fd8:	010c5c13          	srli	s8,s8,0x10

00004fdc <.L1715>:
    4fdc:	01811423          	sh	s8,8(sp)

00004fe0 <.L1711>:
    4fe0:	03500c13          	li	s8,53
    4fe4:	00ec4463          	blt	s8,a4,4fec <.L1711+0xc>
    4fe8:	2400306f          	j	8228 <.L1708>
    4fec:	1a200c13          	li	s8,418
    4ff0:	007c4463          	blt	s8,t2,4ff8 <.L1711+0x18>
    4ff4:	919fd06f          	j	290c <.L1709>
    4ff8:	00a15c03          	lhu	s8,10(sp)
    4ffc:	ffcc0c13          	addi	s8,s8,-4
    5000:	010c1c13          	slli	s8,s8,0x10
    5004:	410c5c13          	srai	s8,s8,0x10
    5008:	01811523          	sh	s8,10(sp)
    500c:	02200c13          	li	s8,34
    5010:	011c4463          	blt	s8,a7,5018 <.L1729>
    5014:	919fd06f          	j	292c <.L2888>

00005018 <.L1729>:
    5018:	e6b00c13          	li	s8,-405
    501c:	0182c463          	blt	t0,s8,5024 <.L1729+0xc>
    5020:	5cd0306f          	j	8dec <.L1736>
    5024:	03300c13          	li	s8,51
    5028:	01dc5463          	bge	s8,t4,5030 <.L1734>
    502c:	921fd06f          	j	294c <.L1730>

00005030 <.L1734>:
    5030:	00c15c03          	lhu	s8,12(sp)
    5034:	009c0c13          	addi	s8,s8,9
    5038:	01811623          	sh	s8,12(sp)
    503c:	911fd06f          	j	294c <.L1730>

00005040 <.L2072>:
    5040:	ff900b13          	li	s6,-7
    5044:	01664463          	blt	a2,s6,504c <.L2072+0xc>
    5048:	5c80306f          	j	8610 <.L2077>
    504c:	09000b13          	li	s6,144
    5050:	012b5463          	bge	s6,s2,5058 <.L2072+0x18>
    5054:	0380206f          	j	708c <.L2078>
    5058:	02700b13          	li	s6,39
    505c:	006b4463          	blt	s6,t1,5064 <.L2660>
    5060:	0440206f          	j	70a4 <.L2079>

00005064 <.L2660>:
    5064:	ecb00b13          	li	s6,-309
    5068:	016ac463          	blt	s5,s6,5070 <.L2087>
    506c:	5840306f          	j	85f0 <.L2080>

00005070 <.L2087>:
    5070:	00c15b03          	lhu	s6,12(sp)
    5074:	001b0b13          	addi	s6,s6,1
    5078:	010b1b13          	slli	s6,s6,0x10
    507c:	410b5b13          	srai	s6,s6,0x10
    5080:	ec9fd06f          	j	2f48 <.L2081>

00005084 <.L1900>:
    5084:	03c00c13          	li	s8,60
    5088:	01fc5863          	bge	s8,t6,5098 <.L1906>
    508c:	00815c03          	lhu	s8,8(sp)
    5090:	006c0c13          	addi	s8,s8,6
    5094:	01811423          	sh	s8,8(sp)

00005098 <.L1906>:
    5098:	02b00c13          	li	s8,43
    509c:	010c4463          	blt	s8,a6,50a4 <.L1902>
    50a0:	b99fd06f          	j	2c38 <.L1908>

000050a4 <.L1902>:
    50a4:	01400c13          	li	s8,20
    50a8:	01dc5463          	bge	s8,t4,50b0 <.L1902+0xc>
    50ac:	4140306f          	j	84c0 <.L1914>
    50b0:	00a15c03          	lhu	s8,10(sp)
    50b4:	00100c93          	li	s9,1
    50b8:	ff9c0c13          	addi	s8,s8,-7
    50bc:	01811523          	sh	s8,10(sp)
    50c0:	9bccd4e3          	bge	s9,t3,4a68 <.L1915>

000050c4 <.L1922>:
    50c4:	0ff00c13          	li	s8,255
    50c8:	009c5463          	bge	s8,s1,50d0 <.L1922+0xc>
    50cc:	3c80406f          	j	9494 <.L2889>
    50d0:	00c15c03          	lhu	s8,12(sp)
    50d4:	ff600c93          	li	s9,-10
    50d8:	ffec0c13          	addi	s8,s8,-2
    50dc:	01811623          	sh	s8,12(sp)
    50e0:	9b965ae3          	bge	a2,s9,4a94 <.L1929>

000050e4 <.L1930>:
    50e4:	03c00c13          	li	s8,60
    50e8:	01fc5463          	bge	s8,t6,50f0 <.L1930+0xc>
    50ec:	bd5fd06f          	j	2cc0 <.L1933>
    50f0:	00e15c03          	lhu	s8,14(sp)
    50f4:	ff8c0c13          	addi	s8,s8,-8
    50f8:	01811723          	sh	s8,14(sp)
    50fc:	bc5fd06f          	j	2cc0 <.L1933>

00005100 <.L2813>:
    5100:	ff600c13          	li	s8,-10
    5104:	01865463          	bge	a2,s8,510c <.L1682>
    5108:	f9cfd06f          	j	28a4 <.L1681>

0000510c <.L1682>:
    510c:	ff600c13          	li	s8,-10
    5110:	e98600e3          	beq	a2,s8,4f90 <.L2890>
    5114:	f2700c13          	li	s8,-217
    5118:	0182c463          	blt	t0,s8,5120 <.L1682+0x14>
    511c:	2dc0406f          	j	93f8 <.L1703>
    5120:	00e15c03          	lhu	s8,14(sp)
    5124:	ffdc0c13          	addi	s8,s8,-3
    5128:	010c1c13          	slli	s8,s8,0x10
    512c:	010c5c13          	srli	s8,s8,0x10
    5130:	f90fd06f          	j	28c0 <.L1696>

00005134 <.L1889>:
    5134:	00c15c03          	lhu	s8,12(sp)
    5138:	05800c93          	li	s9,88
    513c:	001c0c13          	addi	s8,s8,1
    5140:	01811623          	sh	s8,12(sp)
    5144:	009cc463          	blt	s9,s1,514c <.L1883>
    5148:	2640306f          	j	83ac <.L1890>

0000514c <.L1883>:
    514c:	03600c13          	li	s8,54
    5150:	00fc5463          	bge	s8,a5,5158 <.L1883+0xc>
    5154:	34d0206f          	j	7ca0 <.L1897>
    5158:	00e15c03          	lhu	s8,14(sp)
    515c:	ff8c0c13          	addi	s8,s8,-8
    5160:	010c1c13          	slli	s8,s8,0x10
    5164:	410c5c13          	srai	s8,s8,0x10
    5168:	aa1fd06f          	j	2c08 <.L1896>

0000516c <.L813>:
    516c:	00c15c03          	lhu	s8,12(sp)
    5170:	03e00c93          	li	s9,62
    5174:	00dc0c13          	addi	s8,s8,13
    5178:	01811623          	sh	s8,12(sp)
    517c:	00fcd463          	bge	s9,a5,5184 <.L816>
    5180:	dd9fb06f          	j	f58 <.L817>

00005184 <.L816>:
    5184:	03800c13          	li	s8,56
    5188:	00ec5463          	bge	s8,a4,5190 <.L816+0xc>
    518c:	2310306f          	j	8bbc <.L815>
    5190:	03600c13          	li	s8,54
    5194:	d0fc58e3          	bge	s8,a5,4ea4 <.L814>

00005198 <.L821>:
    5198:	00e15c03          	lhu	s8,14(sp)
    519c:	003c0c13          	addi	s8,s8,3
    51a0:	010c1c13          	slli	s8,s8,0x10
    51a4:	410c5c13          	srai	s8,s8,0x10
    51a8:	dc1fb06f          	j	f68 <.L820>

000051ac <.L749>:
    51ac:	f5000c13          	li	s8,-176
    51b0:	0185c463          	blt	a1,s8,51b8 <.L749+0xc>
    51b4:	5b50306f          	j	8f68 <.L2891>
    51b8:	00f00c13          	li	s8,15
    51bc:	010c5463          	bge	s8,a6,51c4 <.L749+0x18>
    51c0:	0fc0606f          	j	b2bc <.L761>
    51c4:	00c15c03          	lhu	s8,12(sp)
    51c8:	ff8c0c13          	addi	s8,s8,-8
    51cc:	010c1c13          	slli	s8,s8,0x10
    51d0:	010c5c13          	srli	s8,s8,0x10

000051d4 <.L762>:
    51d4:	01811623          	sh	s8,12(sp)
    51d8:	03e00c13          	li	s8,62
    51dc:	cefc4ae3          	blt	s8,a5,4ed0 <.L752>

000051e0 <.L741>:
    51e0:	03800c13          	li	s8,56
    51e4:	00ec5463          	bge	s8,a4,51ec <.L770>
    51e8:	941fc06f          	j	1b28 <.L751>

000051ec <.L770>:
    51ec:	03600c13          	li	s8,54
    51f0:	c0fc48e3          	blt	s8,a5,4e00 <.L769>
    51f4:	00e15c03          	lhu	s8,14(sp)
    51f8:	ffe00c93          	li	s9,-2
    51fc:	ff7c0c13          	addi	s8,s8,-9
    5200:	01811723          	sh	s8,14(sp)
    5204:	c1984ee3          	blt	a6,s9,4e20 <.L783>
    5208:	0ba00c13          	li	s8,186
    520c:	cf2c48e3          	blt	s8,s2,4efc <.L777>
    5210:	959fc06f          	j	1b68 <.L792>

00005214 <.L1744>:
    5214:	00400c13          	li	s8,4
    5218:	01cc5463          	bge	s8,t3,5220 <.L2647>
    521c:	6e40306f          	j	8900 <.L1747>

00005220 <.L2647>:
    5220:	00e15c03          	lhu	s8,14(sp)
    5224:	ffdc0c13          	addi	s8,s8,-3
    5228:	010c1c13          	slli	s8,s8,0x10
    522c:	410c5c13          	srai	s8,s8,0x10

00005230 <.L1743>:
    5230:	01811723          	sh	s8,14(sp)
    5234:	01500c13          	li	s8,21
    5238:	1e7c5a63          	bge	s8,t2,542c <.L1739>

0000523c <.L1741>:
    523c:	0fd00c13          	li	s8,253
    5240:	007c4463          	blt	s8,t2,5248 <.L1741+0xc>
    5244:	f44fd06f          	j	2988 <.L1740>
    5248:	0d000c13          	li	s8,208
    524c:	009c5463          	bge	s8,s1,5254 <.L1741+0x18>
    5250:	f4cfd06f          	j	299c <.L1748>
    5254:	00815c03          	lhu	s8,8(sp)
    5258:	006c0c13          	addi	s8,s8,6
    525c:	01811423          	sh	s8,8(sp)
    5260:	f3cfd06f          	j	299c <.L1748>

00005264 <.L1500>:
    5264:	14e00c13          	li	s8,334
    5268:	00dc4463          	blt	s8,a3,5270 <.L1500+0xc>
    526c:	ba4fd06f          	j	2610 <.L1511>
    5270:	00815c03          	lhu	s8,8(sp)
    5274:	ffbc0c13          	addi	s8,s8,-5
    5278:	01811423          	sh	s8,8(sp)
    527c:	00c00c13          	li	s8,12
    5280:	01cc5463          	bge	s8,t3,5288 <.L1519>
    5284:	bb0fd06f          	j	2634 <.L1504>

00005288 <.L1519>:
    5288:	19500c13          	li	s8,405
    528c:	b32c5463          	bge	s8,s2,45b4 <.L1507>
    5290:	00a15c03          	lhu	s8,10(sp)
    5294:	f9800c93          	li	s9,-104
    5298:	ffcc0c13          	addi	s8,s8,-4
    529c:	01811523          	sh	s8,10(sp)
    52a0:	01945463          	bge	s0,s9,52a8 <.L1519+0x20>
    52a4:	bb4fd06f          	j	2658 <.L1505>
    52a8:	b24ff06f          	j	45cc <.L1506>

000052ac <.L1038>:
    52ac:	79c056e3          	blez	t3,6238 <.L2892>

000052b0 <.L1034>:
    52b0:	00300c13          	li	s8,3
    52b4:	01cc5463          	bge	s8,t3,52bc <.L1034+0xc>
    52b8:	24c0406f          	j	9504 <.L1050>
    52bc:	00815c03          	lhu	s8,8(sp)
    52c0:	ffcc0c13          	addi	s8,s8,-4
    52c4:	01811423          	sh	s8,8(sp)
    52c8:	03100c13          	li	s8,49
    52cc:	01fc4463          	blt	s8,t6,52d4 <.L1051>
    52d0:	820fc06f          	j	12f0 <.L2893>

000052d4 <.L1051>:
    52d4:	01400c13          	li	s8,20
    52d8:	010c5463          	bge	s8,a6,52e0 <.L2260>
    52dc:	1fd0306f          	j	8cd8 <.L1040>

000052e0 <.L2260>:
    52e0:	0c400c13          	li	s8,196
    52e4:	016c5463          	bge	s8,s6,52ec <.L2260+0xc>
    52e8:	c8dfc06f          	j	1f74 <.L1054>
    52ec:	00a15c03          	lhu	s8,10(sp)
    52f0:	ff9c0c13          	addi	s8,s8,-7
    52f4:	010c1c13          	slli	s8,s8,0x10
    52f8:	410c5c13          	srai	s8,s8,0x10
    52fc:	81cfc06f          	j	1318 <.L1045>

00005300 <.L916>:
    5300:	02700c13          	li	s8,39
    5304:	01cc5463          	bge	s8,t3,530c <.L916+0xc>
    5308:	6b10406f          	j	a1b8 <.L925>
    530c:	00a15c03          	lhu	s8,10(sp)
    5310:	03300c93          	li	s9,51
    5314:	00ac0c13          	addi	s8,s8,10
    5318:	01811523          	sh	s8,10(sp)
    531c:	00fcd463          	bge	s9,a5,5324 <.L923>
    5320:	a89fc06f          	j	1da8 <.L918>

00005324 <.L923>:
    5324:	00900c13          	li	s8,9
    5328:	011c5463          	bge	s8,a7,5330 <.L923+0xc>
    532c:	4640206f          	j	7790 <.L913>
    5330:	00c15c03          	lhu	s8,12(sp)
    5334:	ff8c0c13          	addi	s8,s8,-8
    5338:	01811623          	sh	s8,12(sp)

0000533c <.L928>:
    533c:	01500c13          	li	s8,21
    5340:	006c5463          	bge	s8,t1,5348 <.L928+0xc>
    5344:	e15fb06f          	j	1158 <.L933>
    5348:	01f00c13          	li	s8,31
    534c:	01dc4463          	blt	s8,t4,5354 <.L928+0x18>
    5350:	f89fd06f          	j	32d8 <.L934>
    5354:	00e15c03          	lhu	s8,14(sp)
    5358:	015c0c13          	addi	s8,s8,21
    535c:	01811723          	sh	s8,14(sp)
    5360:	e11fb06f          	j	1170 <.L940>

00005364 <.L2142>:
    5364:	01c51c03          	lh	s8,28(a0)
    5368:	02a00b13          	li	s6,42
    536c:	018b4463          	blt	s6,s8,5374 <.L2142+0x10>
    5370:	3b00206f          	j	7720 <.L2663>
    5374:	00e15b03          	lhu	s6,14(sp)
    5378:	004b0b13          	addi	s6,s6,4
    537c:	010b1b13          	slli	s6,s6,0x10
    5380:	410b5b13          	srai	s6,s6,0x10

00005384 <.L2137>:
    5384:	01611723          	sh	s6,14(sp)
    5388:	00400b13          	li	s6,4
    538c:	3b1b5463          	bge	s6,a7,5734 <.L2147>

00005390 <.L2139>:
    5390:	ff800b13          	li	s6,-8
    5394:	01665463          	bge	a2,s6,539c <.L2139+0xc>
    5398:	c95fd06f          	j	302c <.L2133>
    539c:	0b300b13          	li	s6,179
    53a0:	007b4463          	blt	s6,t2,53a8 <.L2139+0x18>
    53a4:	f14fe06f          	j	3ab8 <.L2153>
    53a8:	00815b03          	lhu	s6,8(sp)
    53ac:	001b0b13          	addi	s6,s6,1
    53b0:	010b1b13          	slli	s6,s6,0x10
    53b4:	410b5b13          	srai	s6,s6,0x10
    53b8:	c91fd06f          	j	3048 <.L2134>

000053bc <.L1100>:
    53bc:	00a15c03          	lhu	s8,10(sp)
    53c0:	04900c93          	li	s9,73
    53c4:	00bc0c13          	addi	s8,s8,11
    53c8:	01811523          	sh	s8,10(sp)
    53cc:	011cc463          	blt	s9,a7,53d4 <.L1105>
    53d0:	c8dfc06f          	j	205c <.L1104>

000053d4 <.L1105>:
    53d4:	08600c13          	li	s8,134
    53d8:	01dc5463          	bge	s8,t4,53e0 <.L1105+0xc>
    53dc:	2a90206f          	j	7e84 <.L1110>
    53e0:	01c51c03          	lh	s8,28(a0)
    53e4:	01804463          	bgtz	s8,53ec <.L1105+0x18>
    53e8:	a58fe06f          	j	3640 <.L2258>
    53ec:	00c15c03          	lhu	s8,12(sp)
    53f0:	e4a00c93          	li	s9,-438
    53f4:	009c0c13          	addi	s8,s8,9
    53f8:	01811623          	sh	s8,12(sp)
    53fc:	0192c463          	blt	t0,s9,5404 <.L1115>
    5400:	c7dfc06f          	j	207c <.L1112>

00005404 <.L1115>:
    5404:	03d00c13          	li	s8,61
    5408:	00fc4463          	blt	s8,a5,5410 <.L1114>
    540c:	01c0206f          	j	7428 <.L1113>

00005410 <.L1114>:
    5410:	00e15c03          	lhu	s8,14(sp)
    5414:	01500c93          	li	s9,21
    5418:	ffbc0c13          	addi	s8,s8,-5
    541c:	01811723          	sh	s8,14(sp)
    5420:	007cc463          	blt	s9,t2,5428 <.L1114+0x18>
    5424:	c85fc06f          	j	20a8 <.L1118>
    5428:	fe1fb06f          	j	1408 <.L2602>

0000542c <.L1739>:
    542c:	07000c13          	li	s8,112
    5430:	012c5463          	bge	s8,s2,5438 <.L1739+0xc>
    5434:	d68fd06f          	j	299c <.L1748>
    5438:	9b9ff06f          	j	4df0 <.L1746>

0000543c <.L2859>:
    543c:	01c51c83          	lh	s9,28(a0)
    5440:	02d00c13          	li	s8,45
    5444:	019c5863          	bge	s8,s9,5454 <.L2036>
    5448:	00a15c03          	lhu	s8,10(sp)
    544c:	ffac0c13          	addi	s8,s8,-6
    5450:	01811523          	sh	s8,10(sp)

00005454 <.L2036>:
    5454:	01500c13          	li	s8,21
    5458:	450c5863          	bge	s8,a6,58a8 <.L2031>

0000545c <.L2038>:
    545c:	03800c13          	li	s8,56
    5460:	00fc4463          	blt	s8,a5,5468 <.L2051>
    5464:	e4dfe06f          	j	42b0 <.L2050>

00005468 <.L2051>:
    5468:	15500c13          	li	s8,341
    546c:	01ec5463          	bge	s8,t5,5474 <.L2051+0xc>
    5470:	7540506f          	j	abc4 <.L2052>
    5474:	00c15c03          	lhu	s8,12(sp)
    5478:	ff9c0c13          	addi	s8,s8,-7
    547c:	01811623          	sh	s8,12(sp)
    5480:	01c05463          	blez	t3,5488 <.L2051+0x20>
    5484:	a1dfd06f          	j	2ea0 <.L2044>
    5488:	00e15c03          	lhu	s8,14(sp)
    548c:	0a900c93          	li	s9,169
    5490:	ffac0c13          	addi	s8,s8,-6
    5494:	01811723          	sh	s8,14(sp)
    5498:	01ecd463          	bge	s9,t5,54a0 <.L2047>
    549c:	e5dfe06f          	j	42f8 <.L2055>

000054a0 <.L2047>:
    54a0:	0ca00b13          	li	s6,202
    54a4:	44eb4a63          	blt	s6,a4,58f8 <.L2659>
    54a8:	00815b03          	lhu	s6,8(sp)
    54ac:	006b0b13          	addi	s6,s6,6
    54b0:	01611423          	sh	s6,8(sp)
    54b4:	a49fd06f          	j	2efc <.L2069>

000054b8 <.L695>:
    54b8:	07200c13          	li	s8,114
    54bc:	00ec4463          	blt	s8,a4,54c4 <.L696>
    54c0:	1810206f          	j	7e40 <.L688>

000054c4 <.L696>:
    54c4:	2aa00c13          	li	s8,682
    54c8:	00dc4463          	blt	s8,a3,54d0 <.L696+0xc>
    54cc:	d3cfc06f          	j	1a08 <.L690>
    54d0:	4be00c13          	li	s8,1214
    54d4:	00ec5463          	bge	s8,a4,54dc <.L696+0x18>
    54d8:	1a80406f          	j	9680 <.L702>
    54dc:	00a15c03          	lhu	s8,10(sp)
    54e0:	ff7c0c13          	addi	s8,s8,-9
    54e4:	010c1c13          	slli	s8,s8,0x10
    54e8:	410c5c13          	srai	s8,s8,0x10
    54ec:	d38fc06f          	j	1a24 <.L701>

000054f0 <.L1858>:
    54f0:	02c00c13          	li	s8,44
    54f4:	011c5463          	bge	s8,a7,54fc <.L1858+0xc>
    54f8:	3980206f          	j	7890 <.L1863>
    54fc:	01889463          	bne	a7,s8,5504 <.L1858+0x14>
    5500:	09c0606f          	j	b59c <.L1864>
    5504:	01f00c13          	li	s8,31
    5508:	033c4c63          	blt	s8,s3,5540 <.L1866>

0000550c <.L1865>:
    550c:	f8b00c13          	li	s8,-117
    5510:	0185d463          	bge	a1,s8,5518 <.L1865+0xc>
    5514:	e84fd06f          	j	2b98 <.L1873>
    5518:	00100c13          	li	s8,1
    551c:	c9cc5463          	bge	s8,t3,49a4 <.L1854>
    5520:	00a15c03          	lhu	s8,10(sp)
    5524:	ff9c0c13          	addi	s8,s8,-7
    5528:	010c1c13          	slli	s8,s8,0x10
    552c:	410c5c13          	srai	s8,s8,0x10
    5530:	01811523          	sh	s8,10(sp)
    5534:	c84ff06f          	j	49b8 <.L2894>

00005538 <.L1870>:
    5538:	03b00c13          	li	s8,59
    553c:	fc6c58e3          	bge	s8,t1,550c <.L1865>

00005540 <.L1866>:
    5540:	00815c03          	lhu	s8,8(sp)
    5544:	ff9c0c13          	addi	s8,s8,-7
    5548:	01811423          	sh	s8,8(sp)
    554c:	fc1ff06f          	j	550c <.L1865>

00005550 <.L1121>:
    5550:	03600c13          	li	s8,54
    5554:	00fc5463          	bge	s8,a5,555c <.L1121+0xc>
    5558:	5fc0406f          	j	9b54 <.L1123>
    555c:	00e15c03          	lhu	s8,14(sp)
    5560:	ffac0c13          	addi	s8,s8,-6
    5564:	01811723          	sh	s8,14(sp)

00005568 <.L1122>:
    5568:	01500c13          	li	s8,21
    556c:	007c4463          	blt	s8,t2,5574 <.L1122+0xc>
    5570:	b39fc06f          	j	20a8 <.L1118>
    5574:	0fd00c13          	li	s8,253
    5578:	007c5463          	bge	s8,t2,5580 <.L1122+0x18>
    557c:	e99fb06f          	j	1414 <.L1120>
    5580:	fa300c13          	li	s8,-93
    5584:	0182cc63          	blt	t0,s8,559c <.L1119>
    5588:	00815c03          	lhu	s8,8(sp)
    558c:	006c0c13          	addi	s8,s8,6
    5590:	010c1c13          	slli	s8,s8,0x10
    5594:	410c5c13          	srai	s8,s8,0x10
    5598:	e99fb06f          	j	1430 <.L1127>

0000559c <.L1119>:
    559c:	00815c03          	lhu	s8,8(sp)
    55a0:	ffdc0c13          	addi	s8,s8,-3
    55a4:	010c1c13          	slli	s8,s8,0x10
    55a8:	410c5c13          	srai	s8,s8,0x10
    55ac:	e85fb06f          	j	1430 <.L1127>

000055b0 <.L2773>:
    55b0:	ff600c13          	li	s8,-10
    55b4:	01865463          	bge	a2,s8,55bc <.L2773+0xc>
    55b8:	945fe06f          	j	3efc <.L1345>
    55bc:	00c15c03          	lhu	s8,12(sp)
    55c0:	03600c93          	li	s9,54
    55c4:	ffbc0c13          	addi	s8,s8,-5
    55c8:	01811623          	sh	s8,12(sp)
    55cc:	00fcd463          	bge	s9,a5,55d4 <.L1340>
    55d0:	e01fc06f          	j	23d0 <.L1354>

000055d4 <.L1340>:
    55d4:	04c00c13          	li	s8,76
    55d8:	016c5463          	bge	s8,s6,55e0 <.L1340+0xc>
    55dc:	0100206f          	j	75ec <.L1352>
    55e0:	00e15c03          	lhu	s8,14(sp)
    55e4:	003c0c13          	addi	s8,s8,3
    55e8:	010c1c13          	slli	s8,s8,0x10
    55ec:	410c5c13          	srai	s8,s8,0x10
    55f0:	dfdfc06f          	j	23ec <.L1365>

000055f4 <.L2208>:
    55f4:	06b00513          	li	a0,107
    55f8:	00954463          	blt	a0,s1,5600 <.L2208+0xc>
    55fc:	dd4fe06f          	j	3bd0 <.L2212>
    5600:	ffc00513          	li	a0,-4
    5604:	00a65463          	bge	a2,a0,560c <.L2208+0x18>
    5608:	b71fd06f          	j	3178 <.L2209>
    560c:	ff968693          	addi	a3,a3,-7
    5610:	00d11723          	sh	a3,14(sp)
    5614:	f7a00693          	li	a3,-134
    5618:	00da4463          	blt	s4,a3,5620 <.L2208+0x2c>
    561c:	b65fd06f          	j	3180 <.L2215>
    5620:	f4000693          	li	a3,-192
    5624:	02da5063          	bge	s4,a3,5644 <.L2227>

00005628 <.L2216>:
    5628:	efb00693          	li	a3,-261
    562c:	00da5463          	bge	s4,a3,5634 <.L2216+0xc>
    5630:	b7dfd06f          	j	31ac <.L2230>
    5634:	00815683          	lhu	a3,8(sp)
    5638:	00468693          	addi	a3,a3,4
    563c:	00d11423          	sh	a3,8(sp)
    5640:	b6dfd06f          	j	31ac <.L2230>

00005644 <.L2227>:
    5644:	00815683          	lhu	a3,8(sp)
    5648:	ff968693          	addi	a3,a3,-7
    564c:	00d11423          	sh	a3,8(sp)
    5650:	b5dfd06f          	j	31ac <.L2230>

00005654 <.L479>:
    5654:	e4e00c13          	li	s8,-434
    5658:	018ac463          	blt	s5,s8,5660 <.L479+0xc>
    565c:	4310306f          	j	928c <.L489>
    5660:	00001c37          	lui	s8,0x1
    5664:	cbbc0c13          	addi	s8,s8,-837 # cbb <.L2778+0x3>
    5668:	00ec4463          	blt	s8,a4,5670 <.L479+0x1c>
    566c:	7a50506f          	j	b610 <.L2895>
    5670:	00c15c03          	lhu	s8,12(sp)
    5674:	e0800c93          	li	s9,-504
    5678:	ffac0c13          	addi	s8,s8,-6
    567c:	01811623          	sh	s8,12(sp)
    5680:	01945463          	bge	s0,s9,5688 <.L491>
    5684:	c2cfb06f          	j	ab0 <.L482>

00005688 <.L491>:
    5688:	03b00c13          	li	s8,59
    568c:	00fc4463          	blt	s8,a5,5694 <.L508>
    5690:	2d00106f          	j	6960 <.L483>

00005694 <.L508>:
    5694:	00e15c03          	lhu	s8,14(sp)
    5698:	ff8c0c13          	addi	s8,s8,-8
    569c:	010c1c13          	slli	s8,s8,0x10
    56a0:	410c5c13          	srai	s8,s8,0x10

000056a4 <.L504>:
    56a4:	01811723          	sh	s8,14(sp)
    56a8:	0a900c13          	li	s8,169
    56ac:	01ec4463          	blt	s8,t5,56b4 <.L504+0x10>
    56b0:	df5fe06f          	j	44a4 <.L501>
    56b4:	01e00c13          	li	s8,30
    56b8:	013c5463          	bge	s8,s3,56c0 <.L504+0x1c>
    56bc:	7000306f          	j	8dbc <.L514>
    56c0:	ea900c13          	li	s8,-343
    56c4:	018a5463          	bge	s4,s8,56cc <.L504+0x28>
    56c8:	c24fb06f          	j	aec <.L502>
    56cc:	00815c03          	lhu	s8,8(sp)
    56d0:	002c0c13          	addi	s8,s8,2
    56d4:	010c1c13          	slli	s8,s8,0x10
    56d8:	410c5c13          	srai	s8,s8,0x10
    56dc:	df1fe06f          	j	44cc <.L512>

000056e0 <.L1778>:
    56e0:	00815c03          	lhu	s8,8(sp)
    56e4:	02e00c93          	li	s9,46
    56e8:	001c0c13          	addi	s8,s8,1
    56ec:	01811423          	sh	s8,8(sp)
    56f0:	01dcc463          	blt	s9,t4,56f8 <.L1783>
    56f4:	b64fd06f          	j	2a58 <.L1782>

000056f8 <.L1783>:
    56f8:	03d00c13          	li	s8,61
    56fc:	00fc4463          	blt	s8,a5,5704 <.L1783+0xc>
    5700:	1590406f          	j	a058 <.L1801>
    5704:	01500c13          	li	s8,21
    5708:	cf0c4863          	blt	s8,a6,4bf8 <.L1795>

0000570c <.L1786>:
    570c:	19800c13          	li	s8,408
    5710:	009c5463          	bge	s8,s1,5718 <.L1786+0xc>
    5714:	2f00206f          	j	7a04 <.L1797>
    5718:	18700c13          	li	s8,391
    571c:	009c4463          	blt	s8,s1,5724 <.L1798>
    5720:	b88fd06f          	j	2aa8 <.L1807>

00005724 <.L1798>:
    5724:	00c15c03          	lhu	s8,12(sp)
    5728:	007c0c13          	addi	s8,s8,7
    572c:	01811623          	sh	s8,12(sp)
    5730:	b78fd06f          	j	2aa8 <.L1807>

00005734 <.L2147>:
    5734:	06a00b13          	li	s6,106
    5738:	012b4463          	blt	s6,s2,5740 <.L2147+0xc>
    573c:	7e90206f          	j	8724 <.L2131>
    5740:	00815b03          	lhu	s6,8(sp)
    5744:	03b00c13          	li	s8,59
    5748:	001b0b13          	addi	s6,s6,1
    574c:	01611423          	sh	s6,8(sp)
    5750:	00fc5463          	bge	s8,a5,5758 <.L2140>
    5754:	b80fe06f          	j	3ad4 <.L2145>

00005758 <.L2140>:
    5758:	33f00b13          	li	s6,831
    575c:	00eb5463          	bge	s6,a4,5764 <.L2150>
    5760:	74d0106f          	j	76ac <.L2148>

00005764 <.L2150>:
    5764:	00a15b03          	lhu	s6,10(sp)
    5768:	001b0b13          	addi	s6,s6,1
    576c:	010b1b13          	slli	s6,s6,0x10
    5770:	410b5b13          	srai	s6,s6,0x10
    5774:	01611523          	sh	s6,10(sp)
    5778:	fdb00b13          	li	s6,-37
    577c:	01674463          	blt	a4,s6,5784 <.L2823>
    5780:	90dfd06f          	j	308c <.L2178>

00005784 <.L2823>:
    5784:	00a00693          	li	a3,10
    5788:	0136d463          	bge	a3,s3,5790 <.L2823+0xc>
    578c:	2300406f          	j	99bc <.L2179>
    5790:	00c15683          	lhu	a3,12(sp)
    5794:	ff868693          	addi	a3,a3,-8
    5798:	00d11623          	sh	a3,12(sp)
    579c:	03100693          	li	a3,49
    57a0:	00f6c463          	blt	a3,a5,57a8 <.L2169>
    57a4:	915fd06f          	j	30b8 <.L2896>

000057a8 <.L2169>:
    57a8:	05800693          	li	a3,88
    57ac:	0096d463          	bge	a3,s1,57b4 <.L2169+0xc>
    57b0:	2340206f          	j	79e4 <.L2183>
    57b4:	f5300693          	li	a3,-173
    57b8:	00d45463          	bge	s0,a3,57c0 <.L2185>
    57bc:	b68fe06f          	j	3b24 <.L2254>

000057c0 <.L2185>:
    57c0:	00e15683          	lhu	a3,14(sp)
    57c4:	00168693          	addi	a3,a3,1
    57c8:	01069693          	slli	a3,a3,0x10
    57cc:	4106d693          	srai	a3,a3,0x10
    57d0:	8f9fd06f          	j	30c8 <.L2182>

000057d4 <.L550>:
    57d4:	0dd00c13          	li	s8,221
    57d8:	006c4463          	blt	s8,t1,57e0 <.L550+0xc>
    57dc:	828fc06f          	j	1804 <.L547>
    57e0:	00815c03          	lhu	s8,8(sp)
    57e4:	0f000c93          	li	s9,240
    57e8:	ff8c0c13          	addi	s8,s8,-8
    57ec:	01811423          	sh	s8,8(sp)
    57f0:	006cc463          	blt	s9,t1,57f8 <.L550+0x24>
    57f4:	81cfc06f          	j	1810 <.L549>
    57f8:	d6c00c13          	li	s8,-660
    57fc:	018ad463          	bge	s5,s8,5804 <.L550+0x30>
    5800:	6100606f          	j	be10 <.L555>
    5804:	18000c13          	li	s8,384
    5808:	009c5863          	bge	s8,s1,5818 <.L575>
    580c:	00a15c03          	lhu	s8,10(sp)
    5810:	007c0c13          	addi	s8,s8,7
    5814:	01811523          	sh	s8,10(sp)

00005818 <.L575>:
    5818:	3fa00c13          	li	s8,1018
    581c:	00ec4463          	blt	s8,a4,5824 <.L572>
    5820:	81cfc06f          	j	183c <.L564>

00005824 <.L572>:
    5824:	ddb00c13          	li	s8,-549
    5828:	018a4463          	blt	s4,s8,5830 <.L572+0xc>
    582c:	6880406f          	j	9eb4 <.L588>
    5830:	00c15c03          	lhu	s8,12(sp)
    5834:	e0800c93          	li	s9,-504
    5838:	005c0c13          	addi	s8,s8,5
    583c:	01811623          	sh	s8,12(sp)
    5840:	01944463          	blt	s0,s9,5848 <.L584>
    5844:	81cfc06f          	j	1860 <.L2375>

00005848 <.L584>:
    5848:	25500c13          	li	s8,597
    584c:	3a9c56e3          	bge	s8,s1,63f8 <.L595>
    5850:	c2600c13          	li	s8,-986
    5854:	0185c463          	blt	a1,s8,585c <.L584+0x14>
    5858:	32d0106f          	j	7384 <.L606>
    585c:	00e15c03          	lhu	s8,14(sp)
    5860:	0a900c93          	li	s9,169
    5864:	006c0c13          	addi	s8,s8,6
    5868:	01811723          	sh	s8,14(sp)
    586c:	01ecc463          	blt	s9,t5,5874 <.L2581>
    5870:	810fc06f          	j	1880 <.L600>

00005874 <.L2581>:
    5874:	10700c13          	li	s8,263
    5878:	687c5ae3          	bge	s8,t2,670c <.L603>

0000587c <.L602>:
    587c:	00815c03          	lhu	s8,8(sp)
    5880:	ff6c0c13          	addi	s8,s8,-10
    5884:	01811423          	sh	s8,8(sp)
    5888:	bd8fb06f          	j	c60 <.L614>

0000588c <.L1082>:
    588c:	e1900c13          	li	s8,-487
    5890:	018a5463          	bge	s4,s8,5898 <.L1082+0xc>
    5894:	f64fc06f          	j	1ff8 <.L1080>
    5898:	00e15c03          	lhu	s8,14(sp)
    589c:	008c0c13          	addi	s8,s8,8
    58a0:	01811723          	sh	s8,14(sp)
    58a4:	f54fc06f          	j	1ff8 <.L1080>

000058a8 <.L2031>:
    58a8:	f6a00c13          	li	s8,-150
    58ac:	0185d463          	bge	a1,s8,58b4 <.L2031+0xc>
    58b0:	dc8fd06f          	j	2e78 <.L2034>
    58b4:	f5b00c13          	li	s8,-165
    58b8:	0182c463          	blt	t0,s8,58c0 <.L2031+0x18>
    58bc:	3280406f          	j	9be4 <.L2043>
    58c0:	00c15c03          	lhu	s8,12(sp)
    58c4:	004c0c13          	addi	s8,s8,4
    58c8:	01811623          	sh	s8,12(sp)
    58cc:	01c05463          	blez	t3,58d4 <.L2658>
    58d0:	dd0fd06f          	j	2ea0 <.L2044>

000058d4 <.L2658>:
    58d4:	00e15c03          	lhu	s8,14(sp)
    58d8:	0a900c93          	li	s9,169
    58dc:	ffac0c13          	addi	s8,s8,-6
    58e0:	01811723          	sh	s8,14(sp)
    58e4:	01ecc463          	blt	s9,t5,58ec <.L2045>
    58e8:	df0fd06f          	j	2ed8 <.L2049>

000058ec <.L2045>:
    58ec:	11500c13          	li	s8,277
    58f0:	016c4463          	blt	s8,s6,58f8 <.L2659>
    58f4:	e08fd06f          	j	2efc <.L2069>

000058f8 <.L2659>:
    58f8:	00815b03          	lhu	s6,8(sp)
    58fc:	ffdb0b13          	addi	s6,s6,-3
    5900:	01611423          	sh	s6,8(sp)
    5904:	df8fd06f          	j	2efc <.L2069>

00005908 <.L725>:
    5908:	10700c13          	li	s8,263
    590c:	007c4463          	blt	s8,t2,5914 <.L725+0xc>
    5910:	2fd0306f          	j	940c <.L2897>
    5914:	e4300c13          	li	s8,-445
    5918:	01844463          	blt	s0,s8,5920 <.L725+0x18>
    591c:	1c50506f          	j	b2e0 <.L734>
    5920:	00815c03          	lhu	s8,8(sp)
    5924:	ff7c0c13          	addi	s8,s8,-9
    5928:	01811423          	sh	s8,8(sp)
    592c:	988fc06f          	j	1ab4 <.L718>

00005930 <.L1785>:
    5930:	00815c03          	lhu	s8,8(sp)
    5934:	02e00c93          	li	s9,46
    5938:	ffec0c13          	addi	s8,s8,-2
    593c:	01811423          	sh	s8,8(sp)
    5940:	a9dcde63          	bge	s9,t4,4bdc <.L1788>

00005944 <.L1779>:
    5944:	03900c13          	li	s8,57
    5948:	dbfc48e3          	blt	s8,t6,56f8 <.L1783>
    594c:	00d00c13          	li	s8,13
    5950:	010c5463          	bge	s8,a6,5958 <.L1779+0x14>
    5954:	2350406f          	j	a388 <.L1796>
    5958:	00a15c03          	lhu	s8,10(sp)
    595c:	19800c93          	li	s9,408
    5960:	003c0c13          	addi	s8,s8,3
    5964:	01811523          	sh	s8,10(sp)
    5968:	009cd463          	bge	s9,s1,5970 <.L1779+0x2c>
    596c:	0980206f          	j	7a04 <.L1797>
    5970:	18700c13          	li	s8,391
    5974:	da9c48e3          	blt	s8,s1,5724 <.L1798>
    5978:	00300c13          	li	s8,3
    597c:	b1cc5463          	bge	s8,t3,4c84 <.L2649>
    5980:	af0ff06f          	j	4c70 <.L1800>

00005984 <.L830>:
    5984:	00a15c03          	lhu	s8,10(sp)
    5988:	27a00c93          	li	s9,634
    598c:	ffbc0c13          	addi	s8,s8,-5
    5990:	01811523          	sh	s8,10(sp)
    5994:	00dcc463          	blt	s9,a3,599c <.L831>
    5998:	3280106f          	j	6cc0 <.L2592>

0000599c <.L831>:
    599c:	00f00c13          	li	s8,15
    59a0:	011c5463          	bge	s8,a7,59a8 <.L831+0xc>
    59a4:	4050306f          	j	95a8 <.L849>
    59a8:	00c15c03          	lhu	s8,12(sp)
    59ac:	d2a00c93          	li	s9,-726
    59b0:	fffc0c13          	addi	s8,s8,-1
    59b4:	01811623          	sh	s8,12(sp)
    59b8:	0195c463          	blt	a1,s9,59c0 <.L850>
    59bc:	ad0fc06f          	j	1c8c <.L2593>

000059c0 <.L850>:
    59c0:	25d00c13          	li	s8,605
    59c4:	009c4463          	blt	s8,s1,59cc <.L850+0xc>
    59c8:	3280106f          	j	6cf0 <.L844>
    59cc:	c2600c13          	li	s8,-986
    59d0:	0185d463          	bge	a1,s8,59d8 <.L850+0x18>
    59d4:	0000206f          	j	79d4 <.L854>
    59d8:	00e15c03          	lhu	s8,14(sp)
    59dc:	ff9c0c13          	addi	s8,s8,-7
    59e0:	01811723          	sh	s8,14(sp)
    59e4:	e2cfb06f          	j	1010 <.L846>

000059e8 <.L544>:
    59e8:	00e15c03          	lhu	s8,14(sp)
    59ec:	ff7c0c13          	addi	s8,s8,-9
    59f0:	01811723          	sh	s8,14(sp)
    59f4:	00084463          	bltz	a6,59fc <.L544+0x14>
    59f8:	994fb06f          	j	b8c <.L546>
    59fc:	d69fb06f          	j	1764 <.L2757>

00005a00 <.L1591>:
    5a00:	00a15c03          	lhu	s8,10(sp)
    5a04:	03c00c93          	li	s9,60
    5a08:	002c0c13          	addi	s8,s8,2
    5a0c:	01811523          	sh	s8,10(sp)
    5a10:	00fcd463          	bge	s9,a5,5a18 <.L1603>
    5a14:	48d0206f          	j	86a0 <.L2713>

00005a18 <.L1603>:
    5a18:	00f00c13          	li	s8,15
    5a1c:	010c4463          	blt	s8,a6,5a24 <.L1603+0xc>
    5a20:	7680206f          	j	8188 <.L1605>
    5a24:	ffb00c13          	li	s8,-5
    5a28:	01864463          	blt	a2,s8,5a30 <.L1603+0x18>
    5a2c:	7840206f          	j	81b0 <.L1615>
    5a30:	00c15c03          	lhu	s8,12(sp)
    5a34:	00300c93          	li	s9,3
    5a38:	005c0c13          	addi	s8,s8,5
    5a3c:	01811623          	sh	s8,12(sp)
    5a40:	01ccc463          	blt	s9,t3,5a48 <.L1619>
    5a44:	bc0fe06f          	j	3e04 <.L1620>

00005a48 <.L1619>:
    5a48:	e4a00c13          	li	s8,-438
    5a4c:	0182d463          	bge	t0,s8,5a54 <.L1626>
    5a50:	5700306f          	j	8fc0 <.L1595>

00005a54 <.L1626>:
    5a54:	00e15c03          	lhu	s8,14(sp)
    5a58:	0009d463          	bgez	s3,5a60 <.L1626+0xc>
    5a5c:	70d0506f          	j	b968 <.L2898>
    5a60:	003c0c13          	addi	s8,s8,3
    5a64:	01811723          	sh	s8,14(sp)
    5a68:	bb4fe06f          	j	3e1c <.L1627>

00005a6c <.L1610>:
    5a6c:	00a15c83          	lhu	s9,10(sp)
    5a70:	ffbc8c93          	addi	s9,s9,-5
    5a74:	01911523          	sh	s9,10(sp)
    5a78:	fafc50e3          	bge	s8,a5,5a18 <.L1603>
    5a7c:	e6500c13          	li	s8,-411
    5a80:	0182d463          	bge	t0,s8,5a88 <.L1610+0x1c>
    5a84:	5700606f          	j	bff4 <.L1616>
    5a88:	00e00c13          	li	s8,14
    5a8c:	01dc5463          	bge	s8,t4,5a94 <.L1617>
    5a90:	4900406f          	j	9f20 <.L1618>

00005a94 <.L1617>:
    5a94:	00e15c03          	lhu	s8,14(sp)
    5a98:	00400c93          	li	s9,4
    5a9c:	0009d463          	bgez	s3,5aa4 <.L1617+0x10>
    5aa0:	3dc0606f          	j	be7c <.L2899>
    5aa4:	003c0c13          	addi	s8,s8,3
    5aa8:	01811723          	sh	s8,14(sp)
    5aac:	011cd463          	bge	s9,a7,5ab4 <.L1642>
    5ab0:	d95fc06f          	j	2844 <.L1645>

00005ab4 <.L1642>:
    5ab4:	03800c13          	li	s8,56
    5ab8:	01fc4463          	blt	s8,t6,5ac0 <.L1642+0xc>
    5abc:	0780106f          	j	6b34 <.L1650>
    5ac0:	00815c03          	lhu	s8,8(sp)
    5ac4:	02e00c93          	li	s9,46
    5ac8:	003c0c13          	addi	s8,s8,3
    5acc:	01811423          	sh	s8,8(sp)
    5ad0:	01dcc463          	blt	s9,t4,5ad8 <.L1642+0x24>
    5ad4:	0ec0206f          	j	7bc0 <.L1640>
    5ad8:	03900c13          	li	s8,57
    5adc:	018f9463          	bne	t6,s8,5ae4 <.L1642+0x30>
    5ae0:	2a10306f          	j	9580 <.L1666>
    5ae4:	03d00c13          	li	s8,61
    5ae8:	00fc5463          	bge	s8,a5,5af0 <.L1689>
    5aec:	7350506f          	j	ba20 <.L2900>

00005af0 <.L1689>:
    5af0:	00a15c03          	lhu	s8,10(sp)
    5af4:	00100c93          	li	s9,1
    5af8:	009c0c13          	addi	s8,s8,9
    5afc:	01811523          	sh	s8,10(sp)
    5b00:	01ccc463          	blt	s9,t3,5b08 <.L1691>
    5b04:	0f80306f          	j	8bfc <.L1693>

00005b08 <.L1691>:
    5b08:	04900c13          	li	s8,73
    5b0c:	011c4463          	blt	s8,a7,5b14 <.L1691+0xc>
    5b10:	05c0106f          	j	6b6c <.L1654>
    5b14:	00c15c03          	lhu	s8,12(sp)
    5b18:	005c0c13          	addi	s8,s8,5
    5b1c:	010c1c13          	slli	s8,s8,0x10
    5b20:	410c5c13          	srai	s8,s8,0x10

00005b24 <.L1683>:
    5b24:	01811623          	sh	s8,12(sp)
    5b28:	ff600c13          	li	s8,-10
    5b2c:	df865063          	bge	a2,s8,510c <.L1682>
    5b30:	03200c13          	li	s8,50
    5b34:	01dc4463          	blt	s8,t4,5b3c <.L1683+0x18>
    5b38:	d6dfc06f          	j	28a4 <.L1681>
    5b3c:	03300c13          	li	s8,51
    5b40:	018e8463          	beq	t4,s8,5b48 <.L1683+0x24>
    5b44:	d81fc06f          	j	28c4 <.L1698>
    5b48:	00e15c03          	lhu	s8,14(sp)
    5b4c:	00bc0c13          	addi	s8,s8,11
    5b50:	01811723          	sh	s8,14(sp)
    5b54:	d71fc06f          	j	28c4 <.L1698>

00005b58 <.L2653>:
    5b58:	00c15c03          	lhu	s8,12(sp)
    5b5c:	ff8c0c13          	addi	s8,s8,-8
    5b60:	010c1c13          	slli	s8,s8,0x10
    5b64:	410c5c13          	srai	s8,s8,0x10
    5b68:	924fd06f          	j	2c8c <.L1921>

00005b6c <.L1814>:
    5b6c:	00e15c03          	lhu	s8,14(sp)
    5b70:	0a900c93          	li	s9,169
    5b74:	002c0c13          	addi	s8,s8,2
    5b78:	01811723          	sh	s8,14(sp)
    5b7c:	01ecc463          	blt	s9,t5,5b84 <.L2650>
    5b80:	f65fc06f          	j	2ae4 <.L1817>

00005b84 <.L2650>:
    5b84:	00815c03          	lhu	s8,8(sp)
    5b88:	fffc0c13          	addi	s8,s8,-1
    5b8c:	010c1c13          	slli	s8,s8,0x10
    5b90:	410c5c13          	srai	s8,s8,0x10
    5b94:	92cff06f          	j	4cc0 <.L1834>

00005b98 <.L1440>:
    5b98:	00e15c03          	lhu	s8,14(sp)
    5b9c:	00400c93          	li	s9,4
    5ba0:	fffc0c13          	addi	s8,s8,-1
    5ba4:	01811723          	sh	s8,14(sp)
    5ba8:	011cc463          	blt	s9,a7,5bb0 <.L1443>
    5bac:	9bdfc06f          	j	2568 <.L1444>

00005bb0 <.L1443>:
    5bb0:	ff800c13          	li	s8,-8
    5bb4:	05865863          	bge	a2,s8,5c04 <.L1448>
    5bb8:	01f00c13          	li	s8,31
    5bbc:	011c5463          	bge	s8,a7,5bc4 <.L1443+0x14>
    5bc0:	6990206f          	j	8a58 <.L1447>
    5bc4:	00815c03          	lhu	s8,8(sp)
    5bc8:	f8b00c93          	li	s9,-117
    5bcc:	004c0c13          	addi	s8,s8,4
    5bd0:	01811423          	sh	s8,8(sp)
    5bd4:	0195d463          	bge	a1,s9,5bdc <.L1467>
    5bd8:	9a9fc06f          	j	2580 <.L2738>

00005bdc <.L1467>:
    5bdc:	00a15c03          	lhu	s8,10(sp)
    5be0:	ff8c0c13          	addi	s8,s8,-8
    5be4:	01811523          	sh	s8,10(sp)
    5be8:	9bdfc06f          	j	25a4 <.L1454>

00005bec <.L2853>:
    5bec:	00e15c03          	lhu	s8,14(sp)
    5bf0:	ff800c93          	li	s9,-8
    5bf4:	00cc0c13          	addi	s8,s8,12
    5bf8:	01811723          	sh	s8,14(sp)
    5bfc:	01965463          	bge	a2,s9,5c04 <.L1448>
    5c00:	6590206f          	j	8a58 <.L1447>

00005c04 <.L1448>:
    5c04:	f5c00c13          	li	s8,-164
    5c08:	01844463          	blt	s0,s8,5c10 <.L1448+0xc>
    5c0c:	5f40506f          	j	b200 <.L1472>
    5c10:	00815c03          	lhu	s8,8(sp)
    5c14:	ffbc0c13          	addi	s8,s8,-5
    5c18:	010c1c13          	slli	s8,s8,0x10
    5c1c:	010c5c13          	srli	s8,s8,0x10

00005c20 <.L1473>:
    5c20:	01811423          	sh	s8,8(sp)
    5c24:	f8b00c13          	li	s8,-117
    5c28:	0185d463          	bge	a1,s8,5c30 <.L1473+0x10>
    5c2c:	21d0106f          	j	7648 <.L1470>
    5c30:	ffe00c13          	li	s8,-2
    5c34:	01865463          	bge	a2,s8,5c3c <.L1473+0x1c>
    5c38:	6390206f          	j	8a70 <.L1485>
    5c3c:	00a15c03          	lhu	s8,10(sp)
    5c40:	ffec0c13          	addi	s8,s8,-2
    5c44:	010c1c13          	slli	s8,s8,0x10
    5c48:	410c5c13          	srai	s8,s8,0x10

00005c4c <.L1471>:
    5c4c:	01811523          	sh	s8,10(sp)
    5c50:	04900c13          	li	s8,73
    5c54:	011c4463          	blt	s8,a7,5c5c <.L1482>
    5c58:	94dfc06f          	j	25a4 <.L1454>

00005c5c <.L1482>:
    5c5c:	08600c13          	li	s8,134
    5c60:	01dc4463          	blt	s8,t4,5c68 <.L1482+0xc>
    5c64:	2090106f          	j	766c <.L1488>
    5c68:	00c15c03          	lhu	s8,12(sp)
    5c6c:	ffbc0c13          	addi	s8,s8,-5
    5c70:	01811623          	sh	s8,12(sp)
    5c74:	955fc06f          	j	25c8 <.L1486>

00005c78 <.L105>:
    5c78:	03700e13          	li	t3,55
    5c7c:	00fe5463          	bge	t3,a5,5c84 <.L105+0xc>
    5c80:	0390506f          	j	b4b8 <.L124>
    5c84:	00c15e03          	lhu	t3,12(sp)
    5c88:	ffae0e13          	addi	t3,t3,-6
    5c8c:	01c11623          	sh	t3,12(sp)

00005c90 <.L125>:
    5c90:	d8200e13          	li	t3,-638
    5c94:	63c5d863          	bge	a1,t3,62c4 <.L123>
    5c98:	0b100e13          	li	t3,177
    5c9c:	00ee5463          	bge	t3,a4,5ca4 <.L125+0x14>
    5ca0:	3590206f          	j	87f8 <.L122>
    5ca4:	00e15e03          	lhu	t3,14(sp)
    5ca8:	012e0e13          	addi	t3,t3,18
    5cac:	010e1e13          	slli	t3,t3,0x10
    5cb0:	410e5e13          	srai	t3,t3,0x10
    5cb4:	ff0fa06f          	j	4a4 <.L129>

00005cb8 <.L295>:
    5cb8:	00815e03          	lhu	t3,8(sp)
    5cbc:	2df00c13          	li	s8,735
    5cc0:	ff8e0e13          	addi	t3,t3,-8
    5cc4:	01c11423          	sh	t3,8(sp)
    5cc8:	5aec4ee3          	blt	s8,a4,6a84 <.L297>

00005ccc <.L305>:
    5ccc:	02051e03          	lh	t3,32(a0)
    5cd0:	00400c13          	li	s8,4
    5cd4:	01cc5463          	bge	s8,t3,5cdc <.L298>
    5cd8:	0a80306f          	j	8d80 <.L299>

00005cdc <.L298>:
    5cdc:	09700c13          	li	s8,151
    5ce0:	006c4463          	blt	s8,t1,5ce8 <.L298+0xc>
    5ce4:	3e90506f          	j	b8cc <.L307>
    5ce8:	00a15c03          	lhu	s8,10(sp)
    5cec:	009c0c13          	addi	s8,s8,9
    5cf0:	010c1c13          	slli	s8,s8,0x10
    5cf4:	410c5c13          	srai	s8,s8,0x10

00005cf8 <.L288>:
    5cf8:	01811523          	sh	s8,10(sp)
    5cfc:	08f00c13          	li	s8,143
    5d00:	00dc5463          	bge	s8,a3,5d08 <.L291>
    5d04:	a7dfa06f          	j	780 <.L317>

00005d08 <.L291>:
    5d08:	03300c13          	li	s8,51
    5d0c:	00fc5463          	bge	s8,a5,5d14 <.L291+0xc>
    5d10:	af5fd06f          	j	3804 <.L313>
    5d14:	efc00c13          	li	s8,-260
    5d18:	5b8a40e3          	blt	s4,s8,6ab8 <.L294>
    5d1c:	00c15c03          	lhu	s8,12(sp)
    5d20:	ff7c0c13          	addi	s8,s8,-9
    5d24:	01811623          	sh	s8,12(sp)

00005d28 <.L319>:
    5d28:	d2500c13          	li	s8,-731
    5d2c:	5b85c0e3          	blt	a1,s8,6acc <.L337>

00005d30 <.L321>:
    5d30:	02400c13          	li	s8,36
    5d34:	00dc5463          	bge	s8,a3,5d3c <.L321+0xc>
    5d38:	a85fa06f          	j	7bc <.L334>
    5d3c:	00e15c03          	lhu	s8,14(sp)
    5d40:	ffbc0c13          	addi	s8,s8,-5
    5d44:	010c1c13          	slli	s8,s8,0x10
    5d48:	410c5c13          	srai	s8,s8,0x10
    5d4c:	a81fa06f          	j	7cc <.L338>

00005d50 <.L1277>:
    5d50:	00a15c03          	lhu	s8,10(sp)
    5d54:	03300c93          	li	s9,51
    5d58:	008c0c13          	addi	s8,s8,8
    5d5c:	01811523          	sh	s8,10(sp)
    5d60:	00fcc463          	blt	s9,a5,5d68 <.L1283>
    5d64:	7c90106f          	j	7d2c <.L2612>

00005d68 <.L1283>:
    5d68:	04700c13          	li	s8,71
    5d6c:	007c4463          	blt	s8,t2,5d74 <.L1283+0xc>
    5d70:	941fb06f          	j	16b0 <.L1265>
    5d74:	01700c13          	li	s8,23
    5d78:	01dc4463          	blt	s8,t4,5d80 <.L1294>
    5d7c:	d94fc06f          	j	2310 <.L1288>

00005d80 <.L1294>:
    5d80:	00c15c03          	lhu	s8,12(sp)
    5d84:	ffec0c13          	addi	s8,s8,-2
    5d88:	010c1c13          	slli	s8,s8,0x10
    5d8c:	410c5c13          	srai	s8,s8,0x10
    5d90:	d90fc06f          	j	2320 <.L1280>

00005d94 <.L150>:
    5d94:	00a15e03          	lhu	t3,10(sp)
    5d98:	10b00c13          	li	s8,267
    5d9c:	ff7e0e13          	addi	t3,t3,-9
    5da0:	01c11523          	sh	t3,10(sp)
    5da4:	00dc5463          	bge	s8,a3,5dac <.L161>
    5da8:	0340106f          	j	6ddc <.L156>

00005dac <.L161>:
    5dac:	03800e13          	li	t3,56
    5db0:	00fe5463          	bge	t3,a5,5db8 <.L161+0xc>
    5db4:	7980506f          	j	b54c <.L169>
    5db8:	efb00e13          	li	t3,-261
    5dbc:	01ca4463          	blt	s4,t3,5dc4 <.L161+0x18>
    5dc0:	5d90406f          	j	ab98 <.L157>
    5dc4:	00c15e03          	lhu	t3,12(sp)
    5dc8:	004e0e13          	addi	t3,t3,4
    5dcc:	01c11623          	sh	t3,12(sp)
    5dd0:	ce400e13          	li	t3,-796
    5dd4:	01c5d463          	bge	a1,t3,5ddc <.L188>
    5dd8:	bb5fd06f          	j	398c <.L2901>

00005ddc <.L188>:
    5ddc:	03400e13          	li	t3,52
    5de0:	013e5463          	bge	t3,s3,5de8 <.L188+0xc>
    5de4:	3350406f          	j	a918 <.L191>
    5de8:	00e15e03          	lhu	t3,14(sp)
    5dec:	ff7e0e13          	addi	t3,t3,-9
    5df0:	010e1e13          	slli	t3,t3,0x10
    5df4:	410e5e13          	srai	t3,t3,0x10
    5df8:	bb1fd06f          	j	39a8 <.L190>

00005dfc <.L992>:
    5dfc:	00e15c03          	lhu	s8,14(sp)
    5e00:	fa300c93          	li	s9,-93
    5e04:	003c0c13          	addi	s8,s8,3
    5e08:	01811723          	sh	s8,14(sp)
    5e0c:	0192c463          	blt	t0,s9,5e14 <.L985>
    5e10:	965fe06f          	j	4774 <.L2596>

00005e14 <.L985>:
    5e14:	fa100c13          	li	s8,-95
    5e18:	0182d463          	bge	t0,s8,5e20 <.L985+0xc>
    5e1c:	bf8fb06f          	j	1214 <.L989>
    5e20:	00815c03          	lhu	s8,8(sp)
    5e24:	feac0c13          	addi	s8,s8,-22
    5e28:	01811423          	sh	s8,8(sp)
    5e2c:	bfcfb06f          	j	1228 <.L1002>

00005e30 <.L231>:
    5e30:	0d500e13          	li	t3,213
    5e34:	009e5463          	bge	t3,s1,5e3c <.L231+0xc>
    5e38:	0250406f          	j	a65c <.L235>
    5e3c:	00a15e03          	lhu	t3,10(sp)
    5e40:	08c00c13          	li	s8,140
    5e44:	ff9e0e13          	addi	t3,t3,-7
    5e48:	01c11523          	sh	t3,10(sp)
    5e4c:	00dc5463          	bge	s8,a3,5e54 <.L239>
    5e50:	875fa06f          	j	6c4 <.L236>

00005e54 <.L239>:
    5e54:	03600e13          	li	t3,54
    5e58:	00fe5463          	bge	t3,a5,5e60 <.L224>
    5e5c:	46d0406f          	j	aac8 <.L243>

00005e60 <.L224>:
    5e60:	efc00e13          	li	t3,-260
    5e64:	01ca4463          	blt	s4,t3,5e6c <.L224+0xc>
    5e68:	41d0406f          	j	aa84 <.L241>
    5e6c:	00c15e03          	lhu	t3,12(sp)
    5e70:	ce400c13          	li	s8,-796
    5e74:	003e0e13          	addi	t3,t3,3
    5e78:	01c11623          	sh	t3,12(sp)
    5e7c:	0185d463          	bge	a1,s8,5e84 <.L253>
    5e80:	87dfa06f          	j	6fc <.L252>

00005e84 <.L253>:
    5e84:	00e15e03          	lhu	t3,14(sp)
    5e88:	ff6e0e13          	addi	t3,t3,-10
    5e8c:	010e1e13          	slli	t3,t3,0x10
    5e90:	410e5e13          	srai	t3,t3,0x10
    5e94:	885fa06f          	j	718 <.L275>

00005e98 <.L1005>:
    5e98:	01400c13          	li	s8,20
    5e9c:	011c5463          	bge	s8,a7,5ea4 <.L1005+0xc>
    5ea0:	75c0306f          	j	95fc <.L1008>
    5ea4:	00a15c03          	lhu	s8,10(sp)
    5ea8:	ffec0c13          	addi	s8,s8,-2
    5eac:	010c1c13          	slli	s8,s8,0x10
    5eb0:	010c5c13          	srli	s8,s8,0x10

00005eb4 <.L1009>:
    5eb4:	01811523          	sh	s8,10(sp)
    5eb8:	03d00c13          	li	s8,61
    5ebc:	00fc5463          	bge	s8,a5,5ec4 <.L1016>
    5ec0:	844fc06f          	j	1f04 <.L1017>

00005ec4 <.L1016>:
    5ec4:	02700c13          	li	s8,39
    5ec8:	01dc5463          	bge	s8,t4,5ed0 <.L1016+0xc>
    5ecc:	6080306f          	j	94d4 <.L1020>
    5ed0:	00c15c03          	lhu	s8,12(sp)
    5ed4:	03900c93          	li	s9,57
    5ed8:	003c0c13          	addi	s8,s8,3
    5edc:	01811623          	sh	s8,12(sp)
    5ee0:	00fcd463          	bge	s9,a5,5ee8 <.L1026>
    5ee4:	844fc06f          	j	1f28 <.L1014>

00005ee8 <.L1026>:
    5ee8:	06200c13          	li	s8,98
    5eec:	016c5463          	bge	s8,s6,5ef4 <.L1026+0xc>
    5ef0:	0700406f          	j	9f60 <.L2902>
    5ef4:	00e15c03          	lhu	s8,14(sp)
    5ef8:	001c0c13          	addi	s8,s8,1
    5efc:	010c1c13          	slli	s8,s8,0x10
    5f00:	410c5c13          	srai	s8,s8,0x10
    5f04:	bbcfb06f          	j	12c0 <.L1028>

00005f08 <.L1142>:
    5f08:	01f00c13          	li	s8,31
    5f0c:	071c4863          	blt	s8,a7,5f7c <.L1144>
    5f10:	00c15c03          	lhu	s8,12(sp)
    5f14:	ff9c0c13          	addi	s8,s8,-7
    5f18:	010c1c13          	slli	s8,s8,0x10
    5f1c:	410c5c13          	srai	s8,s8,0x10
    5f20:	d78fb06f          	j	1498 <.L1140>

00005f24 <.L2577>:
    5f24:	00815c03          	lhu	s8,8(sp)
    5f28:	fffc0c13          	addi	s8,s8,-1
    5f2c:	010c1c13          	slli	s8,s8,0x10
    5f30:	410c5c13          	srai	s8,s8,0x10
    5f34:	c7dfa06f          	j	bb0 <.L552>

00005f38 <.L678>:
    5f38:	ea900c13          	li	s8,-343
    5f3c:	0182c463          	blt	t0,s8,5f44 <.L678+0xc>
    5f40:	2690306f          	j	99a8 <.L680>
    5f44:	00e15c03          	lhu	s8,14(sp)
    5f48:	ffbc0c13          	addi	s8,s8,-5
    5f4c:	010c1c13          	slli	s8,s8,0x10
    5f50:	010c5c13          	srli	s8,s8,0x10

00005f54 <.L681>:
    5f54:	01811723          	sh	s8,14(sp)
    5f58:	00085463          	bgez	a6,5f60 <.L693>
    5f5c:	a81fb06f          	j	19dc <.L2269>

00005f60 <.L693>:
    5f60:	ff700c13          	li	s8,-9
    5f64:	d5864a63          	blt	a2,s8,54b8 <.L695>
    5f68:	00815c03          	lhu	s8,8(sp)
    5f6c:	ffbc0c13          	addi	s8,s8,-5
    5f70:	010c1c13          	slli	s8,s8,0x10
    5f74:	410c5c13          	srai	s8,s8,0x10
    5f78:	e35fa06f          	j	dac <.L692>

00005f7c <.L1144>:
    5f7c:	00c15c03          	lhu	s8,12(sp)
    5f80:	001c0c13          	addi	s8,s8,1
    5f84:	010c1c13          	slli	s8,s8,0x10
    5f88:	410c5c13          	srai	s8,s8,0x10
    5f8c:	d0cfb06f          	j	1498 <.L1140>

00005f90 <.L1856>:
    5f90:	eea00c13          	li	s8,-278
    5f94:	018a5463          	bge	s4,s8,5f9c <.L1856+0xc>
    5f98:	bc1fc06f          	j	2b58 <.L1855>
    5f9c:	00c15c03          	lhu	s8,12(sp)
    5fa0:	ff8c0c13          	addi	s8,s8,-8
    5fa4:	01811623          	sh	s8,12(sp)
    5fa8:	bb1fc06f          	j	2b58 <.L1855>

00005fac <.L2654>:
    5fac:	00e15c03          	lhu	s8,14(sp)
    5fb0:	004c0c13          	addi	s8,s8,4
    5fb4:	01811723          	sh	s8,14(sp)
    5fb8:	d09fc06f          	j	2cc0 <.L1933>

00005fbc <.L1350>:
    5fbc:	00a15c03          	lhu	s8,10(sp)
    5fc0:	02a00c93          	li	s9,42
    5fc4:	ffcc0c13          	addi	s8,s8,-4
    5fc8:	01811523          	sh	s8,10(sp)
    5fcc:	00dcd463          	bge	s9,a3,5fd4 <.L1350+0x18>
    5fd0:	f6cfb06f          	j	173c <.L1327>
    5fd4:	fba00c13          	li	s8,-70
    5fd8:	0185d463          	bge	a1,s8,5fe0 <.L1350+0x24>
    5fdc:	5ec0106f          	j	75c8 <.L1336>
    5fe0:	00c15c03          	lhu	s8,12(sp)
    5fe4:	03600c93          	li	s9,54
    5fe8:	00dc0c13          	addi	s8,s8,13
    5fec:	01811623          	sh	s8,12(sp)
    5ff0:	00fcc463          	blt	s9,a5,5ff8 <.L1350+0x3c>
    5ff4:	5f80106f          	j	75ec <.L1352>
    5ff8:	ff600c13          	li	s8,-10
    5ffc:	01864463          	blt	a2,s8,6004 <.L1353>
    6000:	bd0fc06f          	j	23d0 <.L1354>

00006004 <.L1353>:
    6004:	00e15c03          	lhu	s8,14(sp)
    6008:	fa300c93          	li	s9,-93
    600c:	002c0c13          	addi	s8,s8,2
    6010:	01811723          	sh	s8,14(sp)
    6014:	0192c463          	blt	t0,s9,601c <.L1353+0x18>
    6018:	f29fd06f          	j	3f40 <.L1366>
    601c:	fa100c13          	li	s8,-95
    6020:	0182c463          	blt	t0,s8,6028 <.L1353+0x24>
    6024:	6990106f          	j	7ebc <.L1368>
    6028:	03900c13          	li	s8,57
    602c:	006c4463          	blt	s8,t1,6034 <.L1353+0x30>
    6030:	fecfe06f          	j	481c <.L1371>
    6034:	ff800c13          	li	s8,-8
    6038:	01865463          	bge	a2,s8,6040 <.L1353+0x3c>
    603c:	becfc06f          	j	2428 <.L1372>
    6040:	ea900c13          	li	s8,-343
    6044:	0182c463          	blt	t0,s8,604c <.L1373>
    6048:	f39fd06f          	j	3f80 <.L2626>

0000604c <.L1373>:
    604c:	00a15c03          	lhu	s8,10(sp)
    6050:	00100c93          	li	s9,1
    6054:	007c0c13          	addi	s8,s8,7
    6058:	01811523          	sh	s8,10(sp)
    605c:	01ccd463          	bge	s9,t3,6064 <.L1374>
    6060:	f21fd06f          	j	3f80 <.L2626>

00006064 <.L1374>:
    6064:	01100c13          	li	s8,17
    6068:	011c4463          	blt	s8,a7,6070 <.L1374+0xc>
    606c:	3010206f          	j	8b6c <.L1394>
    6070:	02400c13          	li	s8,36
    6074:	00ec4463          	blt	s8,a4,607c <.L1374+0x18>
    6078:	4750106f          	j	7cec <.L1404>
    607c:	00c15c03          	lhu	s8,12(sp)
    6080:	ff9c0c13          	addi	s8,s8,-7
    6084:	01811623          	sh	s8,12(sp)
    6088:	f05fd06f          	j	3f8c <.L1393>

0000608c <.L144>:
    608c:	38100e13          	li	t3,897
    6090:	00de4463          	blt	t3,a3,6098 <.L144+0xc>
    6094:	6480406f          	j	a6dc <.L2903>
    6098:	2ff00e13          	li	t3,767
    609c:	54ee50e3          	bge	t3,a4,6ddc <.L156>
    60a0:	00001e37          	lui	t3,0x1
    60a4:	85be0e13          	addi	t3,t3,-1957 # 85b <.L352+0xf>
    60a8:	00de4463          	blt	t3,a3,60b0 <.L144+0x24>
    60ac:	6540406f          	j	a700 <.L163>
    60b0:	00c15e03          	lhu	t3,12(sp)
    60b4:	03d00c13          	li	s8,61
    60b8:	00ae0e13          	addi	t3,t3,10
    60bc:	01c11623          	sh	t3,12(sp)
    60c0:	01879463          	bne	a5,s8,60c8 <.L183>
    60c4:	6540406f          	j	a718 <.L184>

000060c8 <.L183>:
    60c8:	ce400e13          	li	t3,-796
    60cc:	d1c5d8e3          	bge	a1,t3,5ddc <.L188>

000060d0 <.L189>:
    60d0:	00e15e03          	lhu	t3,14(sp)
    60d4:	ffae0e13          	addi	t3,t3,-6
    60d8:	010e1e13          	slli	t3,t3,0x10
    60dc:	410e5e13          	srai	t3,t3,0x10
    60e0:	8c9fd06f          	j	39a8 <.L190>

000060e4 <.L2754>:
    60e4:	00c15e03          	lhu	t3,12(sp)
    60e8:	00be0e13          	addi	t3,t3,11
    60ec:	01c11623          	sh	t3,12(sp)

000060f0 <.L172>:
    60f0:	bba00e13          	li	t3,-1094
    60f4:	01c5c463          	blt	a1,t3,60fc <.L172+0xc>
    60f8:	0a50106f          	j	799c <.L199>
    60fc:	00e15e03          	lhu	t3,14(sp)
    6100:	07a00c13          	li	s8,122
    6104:	00fe0e13          	addi	t3,t3,15
    6108:	01c11723          	sh	t3,14(sp)
    610c:	006c4463          	blt	s8,t1,6114 <.L201>
    6110:	0a50106f          	j	79b4 <.L196>

00006114 <.L201>:
    6114:	00815e03          	lhu	t3,8(sp)
    6118:	ff8e0e13          	addi	t3,t3,-8
    611c:	010e1e13          	slli	t3,t3,0x10
    6120:	410e5e13          	srai	t3,t3,0x10

00006124 <.L220>:
    6124:	01c11423          	sh	t3,8(sp)
    6128:	08000e13          	li	t3,128
    612c:	00ee4463          	blt	t3,a4,6134 <.L220+0x10>
    6130:	d64fa06f          	j	694 <.L215>
    6134:	03d00e13          	li	t3,61
    6138:	00fe4463          	blt	t3,a5,6140 <.L220+0x1c>
    613c:	2f80306f          	j	9434 <.L211>
    6140:	35d00e13          	li	t3,861
    6144:	01ee4463          	blt	t3,t5,614c <.L220+0x28>
    6148:	dd4fd06f          	j	371c <.L213>
    614c:	00a15e03          	lhu	t3,10(sp)
    6150:	08c00c13          	li	s8,140
    6154:	003e0e13          	addi	t3,t3,3
    6158:	01c11523          	sh	t3,10(sp)
    615c:	00dc4463          	blt	s8,a3,6164 <.L2728>
    6160:	dd4fd06f          	j	3734 <.L249>

00006164 <.L2728>:
    6164:	2df00e13          	li	t3,735
    6168:	00ee4463          	blt	t3,a4,6170 <.L2540>
    616c:	d58fa06f          	j	6c4 <.L236>

00006170 <.L2540>:
    6170:	7e700e13          	li	t3,2023
    6174:	00de5463          	bge	t3,a3,617c <.L2540+0xc>
    6178:	7b40506f          	j	b92c <.L264>
    617c:	00c15e03          	lhu	t3,12(sp)
    6180:	ff6e0e13          	addi	t3,t3,-10
    6184:	01c11623          	sh	t3,12(sp)
    6188:	dc8fd06f          	j	3750 <.L259>

0000618c <.L664>:
    618c:	1dc00c13          	li	s8,476
    6190:	016c5463          	bge	s8,s6,6198 <.L664+0xc>
    6194:	4f80406f          	j	a68c <.L666>
    6198:	00a15c03          	lhu	s8,10(sp)
    619c:	ffac0c13          	addi	s8,s8,-6
    61a0:	010c1c13          	slli	s8,s8,0x10
    61a4:	410c5c13          	srai	s8,s8,0x10
    61a8:	b75fa06f          	j	d1c <.L662>

000061ac <.L346>:
    61ac:	01f00c13          	li	s8,31
    61b0:	013c5463          	bge	s8,s3,61b8 <.L346+0xc>
    61b4:	5000406f          	j	a6b4 <.L347>
    61b8:	00815c03          	lhu	s8,8(sp)
    61bc:	fffc0c13          	addi	s8,s8,-1
    61c0:	01811423          	sh	s8,8(sp)
    61c4:	e3cfa06f          	j	800 <.L344>

000061c8 <.L834>:
    61c8:	31000c13          	li	s8,784
    61cc:	00dc5463          	bge	s8,a3,61d4 <.L834+0xc>
    61d0:	6480306f          	j	9818 <.L836>
    61d4:	00a15c03          	lhu	s8,10(sp)
    61d8:	007c0c13          	addi	s8,s8,7
    61dc:	010c1c13          	slli	s8,s8,0x10
    61e0:	410c5c13          	srai	s8,s8,0x10
    61e4:	de1fa06f          	j	fc4 <.L829>

000061e8 <.L653>:
    61e8:	00815c03          	lhu	s8,8(sp)
    61ec:	ff7c0c13          	addi	s8,s8,-9
    61f0:	01811423          	sh	s8,8(sp)
    61f4:	af9fa06f          	j	cec <.L649>

000061f8 <.L1075>:
    61f8:	02f00c13          	li	s8,47
    61fc:	007c5463          	bge	s8,t2,6204 <.L1075+0xc>
    6200:	6000406f          	j	a800 <.L1081>
    6204:	00c15c03          	lhu	s8,12(sp)
    6208:	ffac0c13          	addi	s8,s8,-6
    620c:	010c1c13          	slli	s8,s8,0x10
    6210:	410c5c13          	srai	s8,s8,0x10
    6214:	da5fb06f          	j	1fb8 <.L1074>

00006218 <.L674>:
    6218:	c2600c13          	li	s8,-986
    621c:	0185c463          	blt	a1,s8,6224 <.L674+0xc>
    6220:	5e40306f          	j	9804 <.L677>
    6224:	00e15c03          	lhu	s8,14(sp)
    6228:	004c0c13          	addi	s8,s8,4
    622c:	010c1c13          	slli	s8,s8,0x10
    6230:	410c5c13          	srai	s8,s8,0x10
    6234:	b49fa06f          	j	d7c <.L676>

00006238 <.L2892>:
    6238:	01900c13          	li	s8,25
    623c:	1b0c5663          	bge	s8,a6,63e8 <.L1049>
    6240:	00815c03          	lhu	s8,8(sp)
    6244:	03100c93          	li	s9,49
    6248:	ffdc0c13          	addi	s8,s8,-3
    624c:	01811423          	sh	s8,8(sp)
    6250:	01fcd463          	bge	s9,t6,6258 <.L1044>
    6254:	2850206f          	j	8cd8 <.L1040>

00006258 <.L1044>:
    6258:	1f500c13          	li	s8,501
    625c:	00ec4463          	blt	s8,a4,6264 <.L1042>
    6260:	0f40306f          	j	9354 <.L1041>

00006264 <.L1042>:
    6264:	ddc00c13          	li	s8,-548
    6268:	018a4463          	blt	s4,s8,6270 <.L1042+0xc>
    626c:	3ac0406f          	j	a618 <.L1053>
    6270:	00a15c03          	lhu	s8,10(sp)
    6274:	ffac0c13          	addi	s8,s8,-6
    6278:	010c1c13          	slli	s8,s8,0x10
    627c:	410c5c13          	srai	s8,s8,0x10
    6280:	898fb06f          	j	1318 <.L1045>

00006284 <.L561>:
    6284:	46700c13          	li	s8,1127
    6288:	007c5463          	bge	s8,t2,6290 <.L561+0xc>
    628c:	6040306f          	j	9890 <.L566>
    6290:	00a15c03          	lhu	s8,10(sp)
    6294:	ff8c0c13          	addi	s8,s8,-8
    6298:	010c1c13          	slli	s8,s8,0x10
    629c:	410c5c13          	srai	s8,s8,0x10
    62a0:	939fa06f          	j	bd8 <.L2578>

000062a4 <.L430>:
    62a4:	f9f00c13          	li	s8,-97
    62a8:	0185c463          	blt	a1,s8,62b0 <.L430+0xc>
    62ac:	5210306f          	j	9fcc <.L448>
    62b0:	00c15c03          	lhu	s8,12(sp)
    62b4:	ff8c0c13          	addi	s8,s8,-8
    62b8:	010c1c13          	slli	s8,s8,0x10
    62bc:	410c5c13          	srai	s8,s8,0x10
    62c0:	f1cfa06f          	j	9dc <.L431>

000062c4 <.L123>:
    62c4:	1ca00e13          	li	t3,458
    62c8:	012e5463          	bge	t3,s2,62d0 <.L123+0xc>
    62cc:	5700306f          	j	983c <.L130>
    62d0:	00e15e03          	lhu	t3,14(sp)
    62d4:	ff7e0e13          	addi	t3,t3,-9
    62d8:	010e1e13          	slli	t3,t3,0x10
    62dc:	410e5e13          	srai	t3,t3,0x10
    62e0:	9c4fa06f          	j	4a4 <.L129>

000062e4 <.L468>:
    62e4:	19e00c13          	li	s8,414
    62e8:	01ec5463          	bge	s8,t5,62f0 <.L468+0xc>
    62ec:	5fc0306f          	j	98e8 <.L471>
    62f0:	00a15c03          	lhu	s8,10(sp)
    62f4:	ff7c0c13          	addi	s8,s8,-9
    62f8:	010c1c13          	slli	s8,s8,0x10
    62fc:	410c5c13          	srai	s8,s8,0x10
    6300:	f70fa06f          	j	a70 <.L470>

00006304 <.L2832>:
    6304:	efc00c13          	li	s8,-260
    6308:	018a4463          	blt	s4,s8,6310 <.L2832+0xc>
    630c:	4dc0306f          	j	97e8 <.L441>
    6310:	00c15c03          	lhu	s8,12(sp)
    6314:	e2500c93          	li	s9,-475
    6318:	002c0c13          	addi	s8,s8,2
    631c:	01811623          	sh	s8,12(sp)
    6320:	01944463          	blt	s0,s9,6328 <.L442>
    6324:	b88fd06f          	j	36ac <.L443>

00006328 <.L442>:
    6328:	25500c13          	li	s8,597
    632c:	069c5863          	bge	s8,s1,639c <.L444>

00006330 <.L445>:
    6330:	00e15c03          	lhu	s8,14(sp)
    6334:	ff6c0c13          	addi	s8,s8,-10
    6338:	01811723          	sh	s8,14(sp)
    633c:	02200c13          	li	s8,34
    6340:	010c4463          	blt	s8,a6,6348 <.L457>
    6344:	ed8fa06f          	j	a1c <.L2904>

00006348 <.L457>:
    6348:	00815c03          	lhu	s8,8(sp)
    634c:	00095463          	bgez	s2,6354 <.L457+0xc>
    6350:	1080506f          	j	b458 <.L2905>
    6354:	ff6c0c13          	addi	s8,s8,-10
    6358:	010c1c13          	slli	s8,s8,0x10
    635c:	410c5c13          	srai	s8,s8,0x10
    6360:	01811423          	sh	s8,8(sp)
    6364:	0b500c13          	li	s8,181
    6368:	006c4463          	blt	s8,t1,6370 <.L460>
    636c:	edcfa06f          	j	a48 <.L465>

00006370 <.L460>:
    6370:	e0d00c13          	li	s8,-499
    6374:	01844463          	blt	s0,s8,637c <.L460+0xc>
    6378:	a10fd06f          	j	3588 <.L472>
    637c:	27d00c13          	li	s8,637
    6380:	016c5463          	bge	s8,s6,6388 <.L460+0x18>
    6384:	58c0306f          	j	9910 <.L473>
    6388:	00a15c03          	lhu	s8,10(sp)
    638c:	ff6c0c13          	addi	s8,s8,-10
    6390:	010c1c13          	slli	s8,s8,0x10
    6394:	410c5c13          	srai	s8,s8,0x10
    6398:	ed8fa06f          	j	a70 <.L470>

0000639c <.L444>:
    639c:	df400c13          	li	s8,-524
    63a0:	0182c463          	blt	t0,s8,63a8 <.L444+0xc>
    63a4:	51c0306f          	j	98c0 <.L450>
    63a8:	00e15c03          	lhu	s8,14(sp)
    63ac:	ff7c0c13          	addi	s8,s8,-9
    63b0:	010c1c13          	slli	s8,s8,0x10
    63b4:	010c5c13          	srli	s8,s8,0x10
    63b8:	e54fa06f          	j	a0c <.L2571>

000063bc <.L1030>:
    63bc:	01800c13          	li	s8,24
    63c0:	010c5463          	bge	s8,a6,63c8 <.L1030+0xc>
    63c4:	0d90206f          	j	8c9c <.L1035>
    63c8:	00e15c03          	lhu	s8,14(sp)
    63cc:	01f00c93          	li	s9,31
    63d0:	ff8c0c13          	addi	s8,s8,-8
    63d4:	01811723          	sh	s8,14(sp)
    63d8:	013cd463          	bge	s9,s3,63e0 <.L1030+0x24>
    63dc:	ef5fa06f          	j	12d0 <.L1037>
    63e0:	01c05463          	blez	t3,63e8 <.L1049>
    63e4:	ecdfe06f          	j	52b0 <.L1034>

000063e8 <.L1049>:
    63e8:	00815c03          	lhu	s8,8(sp)
    63ec:	009c0c13          	addi	s8,s8,9
    63f0:	01811423          	sh	s8,8(sp)
    63f4:	ef1fa06f          	j	12e4 <.L1043>

000063f8 <.L595>:
    63f8:	de700c13          	li	s8,-537
    63fc:	0182c463          	blt	t0,s8,6404 <.L595+0xc>
    6400:	6450306f          	j	a244 <.L598>
    6404:	00e15c03          	lhu	s8,14(sp)
    6408:	0a900c93          	li	s9,169
    640c:	ff8c0c13          	addi	s8,s8,-8
    6410:	01811723          	sh	s8,14(sp)
    6414:	01ecc463          	blt	s9,t5,641c <.L595+0x24>
    6418:	c68fb06f          	j	1880 <.L600>
    641c:	c58ff06f          	j	5874 <.L2581>

00006420 <.L2789>:
    6420:	04200c13          	li	s8,66
    6424:	007c5463          	bge	s8,t2,642c <.L2789+0xc>
    6428:	0080506f          	j	b430 <.L862>
    642c:	00815c03          	lhu	s8,8(sp)
    6430:	005c0c13          	addi	s8,s8,5
    6434:	010c1c13          	slli	s8,s8,0x10
    6438:	010c5c13          	srli	s8,s8,0x10

0000643c <.L863>:
    643c:	01811423          	sh	s8,8(sp)
    6440:	0b500c13          	li	s8,181
    6444:	006c5463          	bge	s8,t1,644c <.L2261>
    6448:	88dfb06f          	j	1cd4 <.L865>

0000644c <.L2261>:
    644c:	02c00c13          	li	s8,44
    6450:	00dc5463          	bge	s8,a3,6458 <.L2261+0xc>
    6454:	2d40306f          	j	9728 <.L867>
    6458:	00a15c03          	lhu	s8,10(sp)
    645c:	f6a00c93          	li	s9,-150
    6460:	004c0c13          	addi	s8,s8,4
    6464:	01811523          	sh	s8,10(sp)
    6468:	0195d463          	bge	a1,s9,6470 <.L2261+0x24>
    646c:	0d90206f          	j	8d44 <.L885>
    6470:	f5b00c13          	li	s8,-165
    6474:	0582c263          	blt	t0,s8,64b8 <.L871>

00006478 <.L894>:
    6478:	00c15c03          	lhu	s8,12(sp)
    647c:	ff8c0c13          	addi	s8,s8,-8
    6480:	01811623          	sh	s8,12(sp)

00006484 <.L870>:
    6484:	02f00c13          	li	s8,47
    6488:	010c5463          	bge	s8,a6,6490 <.L886>
    648c:	899fb06f          	j	1d24 <.L889>

00006490 <.L886>:
    6490:	03800c13          	li	s8,56
    6494:	05fc5463          	bge	s8,t6,64dc <.L895>

00006498 <.L881>:
    6498:	03d00c13          	li	s8,61
    649c:	00fc5463          	bge	s8,a5,64a4 <.L881+0xc>
    64a0:	2c40306f          	j	9764 <.L897>
    64a4:	00e15c03          	lhu	s8,14(sp)
    64a8:	ffac0c13          	addi	s8,s8,-6
    64ac:	010c1c13          	slli	s8,s8,0x10
    64b0:	410c5c13          	srai	s8,s8,0x10
    64b4:	c05fa06f          	j	10b8 <.L896>

000064b8 <.L871>:
    64b8:	03200c13          	li	s8,50
    64bc:	01fc5463          	bge	s8,t6,64c4 <.L871+0xc>
    64c0:	03c0506f          	j	b4fc <.L2906>
    64c4:	00c15c03          	lhu	s8,12(sp)
    64c8:	02f00c93          	li	s9,47
    64cc:	015c0c13          	addi	s8,s8,21
    64d0:	01811623          	sh	s8,12(sp)
    64d4:	010cd463          	bge	s9,a6,64dc <.L895>
    64d8:	84dfb06f          	j	1d24 <.L889>

000064dc <.L895>:
    64dc:	08d00c13          	li	s8,141
    64e0:	00dc5463          	bge	s8,a3,64e8 <.L895+0xc>
    64e4:	bc5fa06f          	j	10a8 <.L890>
    64e8:	00e15c03          	lhu	s8,14(sp)
    64ec:	005c0c13          	addi	s8,s8,5
    64f0:	010c1c13          	slli	s8,s8,0x10
    64f4:	410c5c13          	srai	s8,s8,0x10
    64f8:	bc1fa06f          	j	10b8 <.L896>

000064fc <.L876>:
    64fc:	03800c13          	li	s8,56
    6500:	01fc4463          	blt	s8,t6,6508 <.L876+0xc>
    6504:	b65fa06f          	j	1068 <.L874>
    6508:	00a15c03          	lhu	s8,10(sp)
    650c:	f6a00c93          	li	s9,-150
    6510:	ff5c0c13          	addi	s8,s8,-11
    6514:	01811523          	sh	s8,10(sp)
    6518:	0195c463          	blt	a1,s9,6520 <.L876+0x24>
    651c:	2600506f          	j	b77c <.L879>
    6520:	17000c13          	li	s8,368
    6524:	00dc5463          	bge	s8,a3,652c <.L876+0x30>
    6528:	fdcfb06f          	j	1d04 <.L880>
    652c:	01500c13          	li	s8,21
    6530:	f50c4ae3          	blt	s8,a6,6484 <.L870>
    6534:	00c15c03          	lhu	s8,12(sp)
    6538:	ffac0c13          	addi	s8,s8,-6
    653c:	01811623          	sh	s8,12(sp)
    6540:	f59ff06f          	j	6498 <.L881>

00006544 <.L903>:
    6544:	00e15c03          	lhu	s8,14(sp)
    6548:	009c0c13          	addi	s8,s8,9
    654c:	010c1c13          	slli	s8,s8,0x10
    6550:	410c5c13          	srai	s8,s8,0x10
    6554:	b65fa06f          	j	10b8 <.L896>

00006558 <.L462>:
    6558:	03200c13          	li	s8,50
    655c:	01fc5463          	bge	s8,t6,6564 <.L462+0xc>
    6560:	26c0306f          	j	97cc <.L467>
    6564:	00815c03          	lhu	s8,8(sp)
    6568:	0b500c93          	li	s9,181
    656c:	00cc0c13          	addi	s8,s8,12
    6570:	01811423          	sh	s8,8(sp)
    6574:	006cc463          	blt	s9,t1,657c <.L462+0x24>
    6578:	cd0fa06f          	j	a48 <.L465>
    657c:	80cfd06f          	j	3588 <.L472>

00006580 <.L435>:
    6580:	ff700c13          	li	s8,-9
    6584:	01864463          	blt	a2,s8,658c <.L435+0xc>
    6588:	0050406f          	j	ad8c <.L438>
    658c:	00a15c03          	lhu	s8,10(sp)
    6590:	001c0c13          	addi	s8,s8,1
    6594:	010c1c13          	slli	s8,s8,0x10
    6598:	410c5c13          	srai	s8,s8,0x10
    659c:	f55fc06f          	j	34f0 <.L437>

000065a0 <.L64>:
    65a0:	00c15e03          	lhu	t3,12(sp)
    65a4:	03d00393          	li	t2,61
    65a8:	ff5e0e13          	addi	t3,t3,-11
    65ac:	01c11623          	sh	t3,12(sp)
    65b0:	00f3c463          	blt	t2,a5,65b8 <.L67>
    65b4:	e15f906f          	j	3c8 <.L66>

000065b8 <.L67>:
    65b8:	01f00e13          	li	t3,31
    65bc:	010e5463          	bge	t3,a6,65c4 <.L67+0xc>
    65c0:	0200406f          	j	a5e0 <.L78>
    65c4:	00e15e03          	lhu	t3,14(sp)
    65c8:	0d900393          	li	t2,217
    65cc:	00ce0e13          	addi	t3,t3,12
    65d0:	01c11723          	sh	t3,14(sp)
    65d4:	01e3c463          	blt	t2,t5,65dc <.L67+0x24>
    65d8:	e29f906f          	j	400 <.L76>
    65dc:	c25f906f          	j	200 <.L2344>

000065e0 <.L13>:
    65e0:	00651a83          	lh	s5,6(a0)
    65e4:	f4700793          	li	a5,-185
    65e8:	00fac463          	blt	s5,a5,65f0 <.L13+0x10>
    65ec:	29c0206f          	j	8888 <.L15>
    65f0:	01f00793          	li	a5,31
    65f4:	00f11523          	sh	a5,10(sp)
    65f8:	d5c00793          	li	a5,-676
    65fc:	00fac463          	blt	s5,a5,6604 <.L13+0x24>
    6600:	2900206f          	j	8890 <.L17>
    6604:	01251483          	lh	s1,18(a0)

00006608 <.L16>:
    6608:	26a00793          	li	a5,618
    660c:	00e7d463          	bge	a5,a4,6614 <.L16+0xc>
    6610:	2c90506f          	j	c0d8 <.L2907>
    6614:	00051783          	lh	a5,0(a0)
    6618:	00b00693          	li	a3,11
    661c:	00d11623          	sh	a3,12(sp)
    6620:	03e00693          	li	a3,62
    6624:	00f6c463          	blt	a3,a5,662c <.L16+0x24>
    6628:	1400506f          	j	b768 <.L2315>
    662c:	00a51683          	lh	a3,10(a0)
    6630:	01051b03          	lh	s6,16(a0)
    6634:	02851e83          	lh	t4,40(a0)
    6638:	01451283          	lh	t0,20(a0)
    663c:	ae5f906f          	j	120 <.L27>

00006640 <.L45>:
    6640:	00851803          	lh	a6,8(a0)
    6644:	00815883          	lhu	a7,8(sp)
    6648:	00085463          	bgez	a6,6650 <.L45+0x10>
    664c:	5c10406f          	j	b40c <.L2908>
    6650:	ff688893          	addi	a7,a7,-10
    6654:	01089893          	slli	a7,a7,0x10
    6658:	4108d893          	srai	a7,a7,0x10
    665c:	b0df906f          	j	168 <.L47>

00006660 <.L619>:
    6660:	1ab00c13          	li	s8,427
    6664:	007c5463          	bge	s8,t2,666c <.L619+0xc>
    6668:	3d80106f          	j	7a40 <.L625>
    666c:	00a15c03          	lhu	s8,10(sp)
    6670:	08900c93          	li	s9,137
    6674:	ff7c0c13          	addi	s8,s8,-9
    6678:	01811523          	sh	s8,10(sp)
    667c:	00dcd463          	bge	s9,a3,6684 <.L626>
    6680:	3d80106f          	j	7a58 <.L2582>

00006684 <.L626>:
    6684:	03700c13          	li	s8,55
    6688:	00fc4463          	blt	s8,a5,6690 <.L634>
    668c:	a68fb06f          	j	18f4 <.L635>

00006690 <.L634>:
    6690:	23000c13          	li	s8,560
    6694:	01ec5463          	bge	s8,t5,669c <.L634+0xc>
    6698:	5f50406f          	j	b48c <.L637>
    669c:	00c15c03          	lhu	s8,12(sp)
    66a0:	ff8c0c13          	addi	s8,s8,-8
    66a4:	010c1c13          	slli	s8,s8,0x10
    66a8:	410c5c13          	srai	s8,s8,0x10

000066ac <.L623>:
    66ac:	01811623          	sh	s8,12(sp)
    66b0:	03a00c13          	li	s8,58
    66b4:	00fc4463          	blt	s8,a5,66bc <.L643>
    66b8:	df8fa06f          	j	cb0 <.L636>

000066bc <.L643>:
    66bc:	e4a00c13          	li	s8,-438
    66c0:	0182c463          	blt	t0,s8,66c8 <.L643+0xc>
    66c4:	2200106f          	j	78e4 <.L655>
    66c8:	de700c13          	li	s8,-537
    66cc:	0185c863          	blt	a1,s8,66dc <.L641>

000066d0 <.L656>:
    66d0:	00e15c03          	lhu	s8,14(sp)
    66d4:	ff7c0c13          	addi	s8,s8,-9
    66d8:	01811723          	sh	s8,14(sp)

000066dc <.L641>:
    66dc:	0a900c13          	li	s8,169
    66e0:	01ec4463          	blt	s8,t5,66e8 <.L2270>
    66e4:	a44fb06f          	j	1928 <.L648>

000066e8 <.L2270>:
    66e8:	01e00c13          	li	s8,30
    66ec:	af3c4ee3          	blt	s8,s3,61e8 <.L653>
    66f0:	03c00c13          	li	s8,60
    66f4:	00fc4463          	blt	s8,a5,66fc <.L2270+0x14>
    66f8:	de8fa06f          	j	ce0 <.L652>
    66fc:	00815c03          	lhu	s8,8(sp)
    6700:	006c0c13          	addi	s8,s8,6
    6704:	01811423          	sh	s8,8(sp)
    6708:	de4fa06f          	j	cec <.L649>

0000670c <.L603>:
    670c:	00b00c13          	li	s8,11
    6710:	013c4463          	blt	s8,s3,6718 <.L603+0xc>
    6714:	d4cfa06f          	j	c60 <.L614>
    6718:	00815c03          	lhu	s8,8(sp)
    671c:	ff9c0c13          	addi	s8,s8,-7
    6720:	01811423          	sh	s8,8(sp)
    6724:	d3cfa06f          	j	c60 <.L614>

00006728 <.L627>:
    6728:	03c00c13          	li	s8,60
    672c:	00fc5463          	bge	s8,a5,6734 <.L627+0xc>
    6730:	5fc0406f          	j	ad2c <.L630>
    6734:	00a15c03          	lhu	s8,10(sp)
    6738:	009c0c13          	addi	s8,s8,9
    673c:	010c1c13          	slli	s8,s8,0x10
    6740:	410c5c13          	srai	s8,s8,0x10
    6744:	01811523          	sh	s8,10(sp)
    6748:	08900c13          	li	s8,137
    674c:	00dc4463          	blt	s8,a3,6754 <.L633>
    6750:	990fb06f          	j	18e0 <.L2909>

00006754 <.L633>:
    6754:	e9b00c13          	li	s8,-357
    6758:	018ac463          	blt	s5,s8,6760 <.L633+0xc>
    675c:	3340206f          	j	8a90 <.L622>
    6760:	27200c13          	li	s8,626
    6764:	00ec4463          	blt	s8,a4,676c <.L633+0x18>
    6768:	2fc0106f          	j	7a64 <.L624>
    676c:	00c15c03          	lhu	s8,12(sp)
    6770:	fffc0c13          	addi	s8,s8,-1
    6774:	010c1c13          	slli	s8,s8,0x10
    6778:	410c5c13          	srai	s8,s8,0x10
    677c:	f31ff06f          	j	66ac <.L623>

00006780 <.L71>:
    6780:	0de00e13          	li	t3,222
    6784:	012e5463          	bge	t3,s2,678c <.L71+0xc>
    6788:	01c0306f          	j	97a4 <.L75>
    678c:	00e15e03          	lhu	t3,14(sp)
    6790:	ff6e0e13          	addi	t3,t3,-10
    6794:	010e1e13          	slli	t3,t3,0x10
    6798:	410e5e13          	srai	t3,t3,0x10
    679c:	01c11723          	sh	t3,14(sp)
    67a0:	0d900e13          	li	t3,217
    67a4:	01ee4463          	blt	t3,t5,67ac <.L74>
    67a8:	c59f906f          	j	400 <.L76>

000067ac <.L74>:
    67ac:	05700e13          	li	t3,87
    67b0:	006e4463          	blt	t3,t1,67b8 <.L74+0xc>
    67b4:	7940206f          	j	8f48 <.L83>
    67b8:	02800e13          	li	t3,40
    67bc:	00fe5463          	bge	t3,a5,67c4 <.L74+0x18>
    67c0:	a4df906f          	j	20c <.L82>
    67c4:	00815e03          	lhu	t3,8(sp)
    67c8:	1de00393          	li	t2,478
    67cc:	005e0e13          	addi	t3,t3,5
    67d0:	01c11423          	sh	t3,8(sp)
    67d4:	00e3d463          	bge	t2,a4,67dc <.L74+0x30>
    67d8:	7b50106f          	j	878c <.L2346>
    67dc:	02651383          	lh	t2,38(a0)
    67e0:	c45f906f          	j	424 <.L90>

000067e4 <.L55>:
    67e4:	6ca00893          	li	a7,1738
    67e8:	00e8d463          	bge	a7,a4,67f0 <.L55+0xc>
    67ec:	2950306f          	j	a280 <.L61>
    67f0:	00a15883          	lhu	a7,10(sp)
    67f4:	df700e13          	li	t3,-521
    67f8:	ff688893          	addi	a7,a7,-10
    67fc:	01111523          	sh	a7,10(sp)
    6800:	01ca5463          	bge	s4,t3,6808 <.L2548>
    6804:	8e0fd06f          	j	38e4 <.L60>

00006808 <.L2548>:
    6808:	02a51883          	lh	a7,42(a0)

0000680c <.L2951>:
    680c:	eef00e13          	li	t3,-273
    6810:	01c2d463          	bge	t0,t3,6818 <.L68>
    6814:	b9df906f          	j	3b0 <.L2910>

00006818 <.L68>:
    6818:	ef500e13          	li	t3,-267
    681c:	01c2c463          	blt	t0,t3,6824 <.L68+0xc>
    6820:	2600306f          	j	9a80 <.L53>
    6824:	00c15e03          	lhu	t3,12(sp)
    6828:	ff9e0e13          	addi	t3,t3,-7
    682c:	010e1e13          	slli	t3,t3,0x10
    6830:	410e5e13          	srai	t3,t3,0x10
    6834:	9a1f906f          	j	1d4 <.L65>

00006838 <.L379>:
    6838:	01c51c83          	lh	s9,28(a0)
    683c:	03800c13          	li	s8,56
    6840:	019c5463          	bge	s8,s9,6848 <.L379+0x10>
    6844:	69c0306f          	j	9ee0 <.L390>
    6848:	00815c03          	lhu	s8,8(sp)
    684c:	0b500c93          	li	s9,181
    6850:	ff7c0c13          	addi	s8,s8,-9
    6854:	01811423          	sh	s8,8(sp)
    6858:	006cc463          	blt	s9,t1,6860 <.L381>
    685c:	868fa06f          	j	8c4 <.L2566>

00006860 <.L381>:
    6860:	e2700c13          	li	s8,-473
    6864:	05845a63          	bge	s0,s8,68b8 <.L386>

00006868 <.L389>:
    6868:	00a15c03          	lhu	s8,10(sp)
    686c:	ff9c0c13          	addi	s8,s8,-7
    6870:	010c1c13          	slli	s8,s8,0x10
    6874:	410c5c13          	srai	s8,s8,0x10
    6878:	868fa06f          	j	8e0 <.L383>

0000687c <.L382>:
    687c:	01a00c13          	li	s8,26
    6880:	013c5463          	bge	s8,s3,6888 <.L382+0xc>
    6884:	1510306f          	j	a1d4 <.L2911>
    6888:	00a15c03          	lhu	s8,10(sp)
    688c:	ffbc0c13          	addi	s8,s8,-5
    6890:	010c1c13          	slli	s8,s8,0x10
    6894:	410c5c13          	srai	s8,s8,0x10
    6898:	848fa06f          	j	8e0 <.L383>

0000689c <.L2190>:
    689c:	17300f13          	li	t5,371
    68a0:	007f5463          	bge	t5,t2,68a8 <.L2190+0xc>
    68a4:	1450306f          	j	a1e8 <.L2191>
    68a8:	00815f03          	lhu	t5,8(sp)
    68ac:	ffbf0f13          	addi	t5,t5,-5
    68b0:	01e11423          	sh	t5,8(sp)
    68b4:	841fc06f          	j	30f4 <.L2188>

000068b8 <.L386>:
    68b8:	0ce00c13          	li	s8,206
    68bc:	016c5463          	bge	s8,s6,68c4 <.L386+0xc>
    68c0:	2490306f          	j	a308 <.L399>
    68c4:	00a15c03          	lhu	s8,10(sp)
    68c8:	ff8c0c13          	addi	s8,s8,-8
    68cc:	010c1c13          	slli	s8,s8,0x10
    68d0:	410c5c13          	srai	s8,s8,0x10
    68d4:	80cfa06f          	j	8e0 <.L383>

000068d8 <.L401>:
    68d8:	efc00c13          	li	s8,-260
    68dc:	018a4463          	blt	s4,s8,68e4 <.L401+0xc>
    68e0:	4850106f          	j	8564 <.L404>
    68e4:	00c15c03          	lhu	s8,12(sp)
    68e8:	03b00c93          	li	s9,59
    68ec:	003c0c13          	addi	s8,s8,3
    68f0:	01811623          	sh	s8,12(sp)
    68f4:	00fcc463          	blt	s9,a5,68fc <.L2569>
    68f8:	4850106f          	j	857c <.L405>

000068fc <.L2569>:
    68fc:	e4700c13          	li	s8,-441
    6900:	0782de63          	bge	t0,s8,697c <.L407>

00006904 <.L406>:
    6904:	00e15c03          	lhu	s8,14(sp)
    6908:	ff9c0c13          	addi	s8,s8,-7
    690c:	010c1c13          	slli	s8,s8,0x10
    6910:	410c5c13          	srai	s8,s8,0x10
    6914:	830fa06f          	j	944 <.L412>

00006918 <.L474>:
    6918:	00a15c03          	lhu	s8,10(sp)
    691c:	2be00c93          	li	s9,702
    6920:	006c0c13          	addi	s8,s8,6
    6924:	01811523          	sh	s8,10(sp)
    6928:	00dcd463          	bge	s9,a3,6930 <.L474+0x18>
    692c:	7c50406f          	j	b8f0 <.L477>
    6930:	0a300c13          	li	s8,163
    6934:	00ec5463          	bge	s8,a4,693c <.L475>
    6938:	4540506f          	j	bd8c <.L2912>

0000693c <.L475>:
    693c:	04d00c13          	li	s8,77
    6940:	00dc4463          	blt	s8,a3,6948 <.L475+0xc>
    6944:	0780506f          	j	b9bc <.L2913>
    6948:	00c15c03          	lhu	s8,12(sp)
    694c:	006c0c13          	addi	s8,s8,6
    6950:	01811623          	sh	s8,12(sp)

00006954 <.L2289>:
    6954:	03b00c13          	li	s8,59
    6958:	00fc5463          	bge	s8,a5,6960 <.L483>
    695c:	09d0206f          	j	91f8 <.L484>

00006960 <.L483>:
    6960:	03800c13          	li	s8,56
    6964:	05fc4e63          	blt	s8,t6,69c0 <.L507>
    6968:	00e15c03          	lhu	s8,14(sp)
    696c:	ffac0c13          	addi	s8,s8,-6
    6970:	010c1c13          	slli	s8,s8,0x10
    6974:	410c5c13          	srai	s8,s8,0x10
    6978:	d2dfe06f          	j	56a4 <.L504>

0000697c <.L407>:
    697c:	01800c13          	li	s8,24
    6980:	010c5463          	bge	s8,a6,6988 <.L407+0xc>
    6984:	0750306f          	j	a1f8 <.L414>
    6988:	00e15c03          	lhu	s8,14(sp)
    698c:	0a900c93          	li	s9,169
    6990:	001c0c13          	addi	s8,s8,1
    6994:	01811723          	sh	s8,14(sp)
    6998:	01ecd463          	bge	s9,t5,69a0 <.L418>
    699c:	af5fc06f          	j	3490 <.L415>

000069a0 <.L418>:
    69a0:	11800c13          	li	s8,280
    69a4:	012c5463          	bge	s8,s2,69ac <.L418+0xc>
    69a8:	1250306f          	j	a2cc <.L2914>
    69ac:	00815c03          	lhu	s8,8(sp)
    69b0:	00ac0c13          	addi	s8,s8,10
    69b4:	010c1c13          	slli	s8,s8,0x10
    69b8:	410c5c13          	srai	s8,s8,0x10
    69bc:	fc5f906f          	j	980 <.L420>

000069c0 <.L507>:
    69c0:	00e15c03          	lhu	s8,14(sp)
    69c4:	ff6c0c13          	addi	s8,s8,-10
    69c8:	010c1c13          	slli	s8,s8,0x10
    69cc:	410c5c13          	srai	s8,s8,0x10
    69d0:	cd5fe06f          	j	56a4 <.L504>

000069d4 <.L672>:
    69d4:	00c15c03          	lhu	s8,12(sp)
    69d8:	ff8c0c13          	addi	s8,s8,-8
    69dc:	01811623          	sh	s8,12(sp)
    69e0:	b6cfa06f          	j	d4c <.L670>

000069e4 <.L309>:
    69e4:	00a15c03          	lhu	s8,10(sp)
    69e8:	02051e03          	lh	t3,32(a0)
    69ec:	ff5c0c13          	addi	s8,s8,-11
    69f0:	01811523          	sh	s8,10(sp)

000069f4 <.L315>:
    69f4:	ddb00c13          	li	s8,-549
    69f8:	018ac463          	blt	s5,s8,6a00 <.L2950>
    69fc:	4800306f          	j	9e7c <.L330>

00006a00 <.L2950>:
    6a00:	00c15c03          	lhu	s8,12(sp)
    6a04:	03c00c93          	li	s9,60
    6a08:	005c0c13          	addi	s8,s8,5
    6a0c:	01811623          	sh	s8,12(sp)
    6a10:	00fcd463          	bge	s9,a5,6a18 <.L331>
    6a14:	e21fc06f          	j	3834 <.L325>

00006a18 <.L331>:
    6a18:	d2500c13          	li	s8,-731
    6a1c:	0185c463          	blt	a1,s8,6a24 <.L320>
    6a20:	d9df906f          	j	7bc <.L334>

00006a24 <.L320>:
    6a24:	00e15c03          	lhu	s8,14(sp)
    6a28:	ffac0c13          	addi	s8,s8,-6
    6a2c:	010c1c13          	slli	s8,s8,0x10
    6a30:	410c5c13          	srai	s8,s8,0x10
    6a34:	d99f906f          	j	7cc <.L338>

00006a38 <.L324>:
    6a38:	00c15c03          	lhu	s8,12(sp)
    6a3c:	03c00c93          	li	s9,60
    6a40:	ff8c0c13          	addi	s8,s8,-8
    6a44:	01811623          	sh	s8,12(sp)
    6a48:	00fcc463          	blt	s9,a5,6a50 <.L329>
    6a4c:	d65f906f          	j	7b0 <.L2563>

00006a50 <.L329>:
    6a50:	01f00c13          	li	s8,31
    6a54:	090c4063          	blt	s8,a6,6ad4 <.L340>
    6a58:	00e15c03          	lhu	s8,14(sp)
    6a5c:	003c0c13          	addi	s8,s8,3
    6a60:	010c1c13          	slli	s8,s8,0x10
    6a64:	410c5c13          	srai	s8,s8,0x10
    6a68:	d65f906f          	j	7cc <.L338>

00006a6c <.L282>:
    6a6c:	00815e03          	lhu	t3,8(sp)
    6a70:	2df00c13          	li	s8,735
    6a74:	ff6e0e13          	addi	t3,t3,-10
    6a78:	01c11423          	sh	t3,8(sp)
    6a7c:	00ec4463          	blt	s8,a4,6a84 <.L297>
    6a80:	cd9f906f          	j	758 <.L2685>

00006a84 <.L297>:
    6a84:	00001e37          	lui	t3,0x1
    6a88:	bace0e13          	addi	t3,t3,-1108 # bac <.L546+0x20>
    6a8c:	f4de4ce3          	blt	t3,a3,69e4 <.L309>
    6a90:	00a15e03          	lhu	t3,10(sp)
    6a94:	08f00c13          	li	s8,143
    6a98:	00be0e13          	addi	t3,t3,11
    6a9c:	01c11523          	sh	t3,10(sp)
    6aa0:	00dc5463          	bge	s8,a3,6aa8 <.L297+0x24>
    6aa4:	3c80306f          	j	9e6c <.L2564>
    6aa8:	03300e13          	li	t3,51
    6aac:	00fe5463          	bge	t3,a5,6ab4 <.L297+0x30>
    6ab0:	d51fc06f          	j	3800 <.L2562>
    6ab4:	02051e03          	lh	t3,32(a0)

00006ab8 <.L294>:
    6ab8:	00c15c03          	lhu	s8,12(sp)
    6abc:	007c0c13          	addi	s8,s8,7
    6ac0:	01811623          	sh	s8,12(sp)
    6ac4:	d2500c13          	li	s8,-731
    6ac8:	a785d463          	bge	a1,s8,5d30 <.L321>

00006acc <.L337>:
    6acc:	19c00c13          	li	s8,412
    6ad0:	f4ec4ae3          	blt	s8,a4,6a24 <.L320>

00006ad4 <.L340>:
    6ad4:	00e15c03          	lhu	s8,14(sp)
    6ad8:	00dc0c13          	addi	s8,s8,13
    6adc:	010c1c13          	slli	s8,s8,0x10
    6ae0:	410c5c13          	srai	s8,s8,0x10
    6ae4:	ce9f906f          	j	7cc <.L338>

00006ae8 <.L281>:
    6ae8:	09900e13          	li	t3,153
    6aec:	9c9e4663          	blt	t3,s1,5cb8 <.L295>
    6af0:	00815e03          	lhu	t3,8(sp)
    6af4:	2df00c13          	li	s8,735
    6af8:	007e0e13          	addi	t3,t3,7
    6afc:	01c11423          	sh	t3,8(sp)
    6b00:	f8ec42e3          	blt	s8,a4,6a84 <.L297>
    6b04:	02051e03          	lh	t3,32(a0)
    6b08:	00400c13          	li	s8,4
    6b0c:	9dcc5863          	bge	s8,t3,5cdc <.L298>
    6b10:	00a15c03          	lhu	s8,10(sp)
    6b14:	08f00c93          	li	s9,143
    6b18:	ff6c0c13          	addi	s8,s8,-10
    6b1c:	01811523          	sh	s8,10(sp)
    6b20:	00dcd463          	bge	s9,a3,6b28 <.L2560>
    6b24:	c5df906f          	j	780 <.L317>

00006b28 <.L2560>:
    6b28:	03300c13          	li	s8,51
    6b2c:	f8fc56e3          	bge	s8,a5,6ab8 <.L294>
    6b30:	cd5fc06f          	j	3804 <.L313>

00006b34 <.L1650>:
    6b34:	00815c03          	lhu	s8,8(sp)
    6b38:	02e00c93          	li	s9,46
    6b3c:	00ac0c13          	addi	s8,s8,10
    6b40:	01811423          	sh	s8,8(sp)
    6b44:	01dcc463          	blt	s9,t4,6b4c <.L1650+0x18>
    6b48:	0780106f          	j	7bc0 <.L1640>
    6b4c:	00e00c13          	li	s8,14
    6b50:	010c4463          	blt	s8,a6,6b58 <.L1650+0x24>
    6b54:	48d0406f          	j	b7e0 <.L1652>
    6b58:	00a15c03          	lhu	s8,10(sp)
    6b5c:	00100c93          	li	s9,1
    6b60:	ff6c0c13          	addi	s8,s8,-10
    6b64:	01811523          	sh	s8,10(sp)
    6b68:	03ccd863          	bge	s9,t3,6b98 <.L1653>

00006b6c <.L1654>:
    6b6c:	00c15c03          	lhu	s8,12(sp)
    6b70:	ffbc0c13          	addi	s8,s8,-5
    6b74:	010c1c13          	slli	s8,s8,0x10
    6b78:	410c5c13          	srai	s8,s8,0x10
    6b7c:	fa9fe06f          	j	5b24 <.L1683>

00006b80 <.L2925>:
    6b80:	00a15c03          	lhu	s8,10(sp)
    6b84:	00100c93          	li	s9,1
    6b88:	ffec0c13          	addi	s8,s8,-2
    6b8c:	01811523          	sh	s8,10(sp)
    6b90:	01ccd463          	bge	s9,t3,6b98 <.L1653>
    6b94:	cedfb06f          	j	2880 <.L1658>

00006b98 <.L1653>:
    6b98:	00c15c03          	lhu	s8,12(sp)
    6b9c:	ff8c0c13          	addi	s8,s8,-8
    6ba0:	010c1c13          	slli	s8,s8,0x10
    6ba4:	410c5c13          	srai	s8,s8,0x10
    6ba8:	f7dfe06f          	j	5b24 <.L1683>

00006bac <.L1775>:
    6bac:	00200c13          	li	s8,2
    6bb0:	010c5463          	bge	s8,a6,6bb8 <.L1775+0xc>
    6bb4:	e75fb06f          	j	2a28 <.L1774>
    6bb8:	00e15c03          	lhu	s8,14(sp)
    6bbc:	ffbc0c13          	addi	s8,s8,-5
    6bc0:	01811723          	sh	s8,14(sp)
    6bc4:	e65fb06f          	j	2a28 <.L1774>

00006bc8 <.L1756>:
    6bc8:	1fa00c13          	li	s8,506
    6bcc:	016c5463          	bge	s8,s6,6bd4 <.L1756+0xc>
    6bd0:	0040306f          	j	9bd4 <.L1766>
    6bd4:	00a15c03          	lhu	s8,10(sp)
    6bd8:	ff6c0c13          	addi	s8,s8,-10
    6bdc:	01811523          	sh	s8,10(sp)
    6be0:	dedfb06f          	j	29cc <.L1755>

00006be4 <.L723>:
    6be4:	03800c13          	li	s8,56
    6be8:	00ec5463          	bge	s8,a4,6bf0 <.L723+0xc>
    6bec:	e9dfa06f          	j	1a88 <.L722>
    6bf0:	00e15c03          	lhu	s8,14(sp)
    6bf4:	007c0c13          	addi	s8,s8,7
    6bf8:	01811723          	sh	s8,14(sp)
    6bfc:	e8dfa06f          	j	1a88 <.L722>

00006c00 <.L545>:
    6c00:	03600c13          	li	s8,54
    6c04:	00fc4463          	blt	s8,a5,6c0c <.L545+0xc>
    6c08:	de1fe06f          	j	59e8 <.L544>
    6c0c:	00e15c03          	lhu	s8,14(sp)
    6c10:	003c0c13          	addi	s8,s8,3
    6c14:	01811723          	sh	s8,14(sp)
    6c18:	00084463          	bltz	a6,6c20 <.L545+0x20>
    6c1c:	f71f906f          	j	b8c <.L546>
    6c20:	b45fa06f          	j	1764 <.L2757>

00006c24 <.L2731>:
    6c24:	01a00c13          	li	s8,26
    6c28:	010c5463          	bge	s8,a6,6c30 <.L2731+0xc>
    6c2c:	2a90406f          	j	b6d4 <.L716>
    6c30:	11800c13          	li	s8,280
    6c34:	012c4463          	blt	s8,s2,6c3c <.L2731+0x18>
    6c38:	10c0506f          	j	bd44 <.L2915>
    6c3c:	00200c13          	li	s8,2
    6c40:	01cc4463          	blt	s8,t3,6c48 <.L736>
    6c44:	7080306f          	j	a34c <.L2265>

00006c48 <.L736>:
    6c48:	12800c13          	li	s8,296
    6c4c:	029c5e63          	bge	s8,s1,6c88 <.L2590>
    6c50:	00a15c03          	lhu	s8,10(sp)
    6c54:	ffec0c13          	addi	s8,s8,-2
    6c58:	010c1c13          	slli	s8,s8,0x10
    6c5c:	410c5c13          	srai	s8,s8,0x10
    6c60:	a30fa06f          	j	e90 <.L745>

00006c64 <.L542>:
    6c64:	ac400c13          	li	s8,-1340
    6c68:	0185c463          	blt	a1,s8,6c70 <.L542+0xc>
    6c6c:	d7dfe06f          	j	59e8 <.L544>
    6c70:	00e15c03          	lhu	s8,14(sp)
    6c74:	00bc0c13          	addi	s8,s8,11
    6c78:	01811723          	sh	s8,14(sp)
    6c7c:	00084463          	bltz	a6,6c84 <.L542+0x20>
    6c80:	f0df906f          	j	b8c <.L546>
    6c84:	ae1fa06f          	j	1764 <.L2757>

00006c88 <.L2590>:
    6c88:	00a15c03          	lhu	s8,10(sp)
    6c8c:	ff7c0c13          	addi	s8,s8,-9
    6c90:	010c1c13          	slli	s8,s8,0x10
    6c94:	410c5c13          	srai	s8,s8,0x10
    6c98:	9f8fa06f          	j	e90 <.L745>

00006c9c <.L827>:
    6c9c:	03b00c13          	li	s8,59
    6ca0:	00fc5463          	bge	s8,a5,6ca8 <.L827+0xc>
    6ca4:	ce1fe06f          	j	5984 <.L830>
    6ca8:	00a15c03          	lhu	s8,10(sp)
    6cac:	27a00c93          	li	s9,634
    6cb0:	005c0c13          	addi	s8,s8,5
    6cb4:	01811523          	sh	s8,10(sp)
    6cb8:	00dcd463          	bge	s9,a3,6cc0 <.L2592>
    6cbc:	ce1fe06f          	j	599c <.L831>

00006cc0 <.L2592>:
    6cc0:	02200c13          	li	s8,34
    6cc4:	01dc4463          	blt	s8,t4,6ccc <.L833>
    6cc8:	b28fa06f          	j	ff0 <.L838>

00006ccc <.L833>:
    6ccc:	15300c13          	li	s8,339
    6cd0:	009c5463          	bge	s8,s1,6cd8 <.L833+0xc>
    6cd4:	4190306f          	j	a8ec <.L839>
    6cd8:	00c15c03          	lhu	s8,12(sp)
    6cdc:	d2a00c93          	li	s9,-726
    6ce0:	ffdc0c13          	addi	s8,s8,-3
    6ce4:	01811623          	sh	s8,12(sp)
    6ce8:	0195c463          	blt	a1,s9,6cf0 <.L844>
    6cec:	b10fa06f          	j	ffc <.L840>

00006cf0 <.L844>:
    6cf0:	e2c00c13          	li	s8,-468
    6cf4:	0182c463          	blt	t0,s8,6cfc <.L844+0xc>
    6cf8:	2e80406f          	j	afe0 <.L2916>
    6cfc:	00e15c03          	lhu	s8,14(sp)
    6d00:	fffc0c13          	addi	s8,s8,-1
    6d04:	01811723          	sh	s8,14(sp)
    6d08:	b08fa06f          	j	1010 <.L846>

00006d0c <.L845>:
    6d0c:	03600c13          	li	s8,54
    6d10:	4cfc42e3          	blt	s8,a5,79d4 <.L854>
    6d14:	00e15c03          	lhu	s8,14(sp)
    6d18:	0a900c93          	li	s9,169
    6d1c:	ff9c0c13          	addi	s8,s8,-7
    6d20:	01811723          	sh	s8,14(sp)
    6d24:	01ecc463          	blt	s9,t5,6d2c <.L845+0x20>
    6d28:	f85fa06f          	j	1cac <.L860>
    6d2c:	01e00c13          	li	s8,30
    6d30:	013c4463          	blt	s8,s3,6d38 <.L858>
    6d34:	0690106f          	j	859c <.L864>

00006d38 <.L858>:
    6d38:	00815c03          	lhu	s8,8(sp)
    6d3c:	ff7c0c13          	addi	s8,s8,-9
    6d40:	01811423          	sh	s8,8(sp)
    6d44:	af8fa06f          	j	103c <.L859>

00006d48 <.L2231>:
    6d48:	f8d00693          	li	a3,-115
    6d4c:	00dac463          	blt	s5,a3,6d54 <.L2231+0xc>
    6d50:	6c50306f          	j	ac14 <.L2234>
    6d54:	00815683          	lhu	a3,8(sp)
    6d58:	00468693          	addi	a3,a3,4
    6d5c:	01069693          	slli	a3,a3,0x10
    6d60:	4106d693          	srai	a3,a3,0x10
    6d64:	c44fc06f          	j	31a8 <.L2233>

00006d68 <.L984>:
    6d68:	f1900c13          	li	s8,-231
    6d6c:	0182c463          	blt	t0,s8,6d74 <.L984+0xc>
    6d70:	0bc0206f          	j	8e2c <.L996>
    6d74:	00e15c03          	lhu	s8,14(sp)
    6d78:	fffc0c13          	addi	s8,s8,-1
    6d7c:	01811723          	sh	s8,14(sp)
    6d80:	c94fa06f          	j	1214 <.L989>

00006d84 <.L1154>:
    6d84:	00815c03          	lhu	s8,8(sp)
    6d88:	1b900c93          	li	s9,441
    6d8c:	006c0c13          	addi	s8,s8,6
    6d90:	01811423          	sh	s8,8(sp)
    6d94:	01ecd463          	bge	s9,t5,6d9c <.L1158>
    6d98:	f74fa06f          	j	150c <.L1155>

00006d9c <.L1158>:
    6d9c:	03200c13          	li	s8,50
    6da0:	01fc4463          	blt	s8,t6,6da8 <.L1158+0xc>
    6da4:	6e00206f          	j	9484 <.L1181>
    6da8:	00a15c03          	lhu	s8,10(sp)
    6dac:	002c0c13          	addi	s8,s8,2
    6db0:	01811523          	sh	s8,10(sp)
    6db4:	cddfc06f          	j	3a90 <.L1167>

00006db8 <.L149>:
    6db8:	f8c00e13          	li	t3,-116
    6dbc:	01ca4463          	blt	s4,t3,6dc4 <.L149+0xc>
    6dc0:	5b50306f          	j	ab74 <.L154>
    6dc4:	00a15e03          	lhu	t3,10(sp)
    6dc8:	10b00c13          	li	s8,267
    6dcc:	00fe0e13          	addi	t3,t3,15
    6dd0:	01c11523          	sh	t3,10(sp)
    6dd4:	00dc4463          	blt	s8,a3,6ddc <.L156>
    6dd8:	fd5fe06f          	j	5dac <.L161>

00006ddc <.L156>:
    6ddc:	eef00e13          	li	t3,-273
    6de0:	01c2d463          	bge	t0,t3,6de8 <.L181>
    6de4:	b7dfc06f          	j	3960 <.L152>

00006de8 <.L181>:
    6de8:	00c15e03          	lhu	t3,12(sp)
    6dec:	ff6e0e13          	addi	t3,t3,-10
    6df0:	010e1e13          	slli	t3,t3,0x10
    6df4:	410e5e13          	srai	t3,t3,0x10
    6df8:	b79fc06f          	j	3970 <.L175>

00006dfc <.L1057>:
    6dfc:	00c15c03          	lhu	s8,12(sp)
    6e00:	ff7c0c13          	addi	s8,s8,-9
    6e04:	010c1c13          	slli	s8,s8,0x10
    6e08:	410c5c13          	srai	s8,s8,0x10
    6e0c:	9acfb06f          	j	1fb8 <.L1074>

00006e10 <.L361>:
    6e10:	00a15c03          	lhu	s8,10(sp)
    6e14:	17000c93          	li	s9,368
    6e18:	008c0c13          	addi	s8,s8,8
    6e1c:	01811523          	sh	s8,10(sp)
    6e20:	00dcc463          	blt	s9,a3,6e28 <.L362>
    6e24:	1450306f          	j	a768 <.L363>

00006e28 <.L362>:
    6e28:	3fa00c13          	li	s8,1018
    6e2c:	1cec5ae3          	bge	s8,a4,7800 <.L359>
    6e30:	00001c37          	lui	s8,0x1
    6e34:	bd5c0c13          	addi	s8,s8,-1067 # bd5 <.L552+0x25>
    6e38:	00dc5463          	bge	s8,a3,6e40 <.L362+0x18>
    6e3c:	2f00306f          	j	a12c <.L367>
    6e40:	00c15c03          	lhu	s8,12(sp)
    6e44:	e9900c93          	li	s9,-359
    6e48:	ff7c0c13          	addi	s8,s8,-9
    6e4c:	01811623          	sh	s8,12(sp)
    6e50:	0195d463          	bge	a1,s9,6e58 <.L2366>
    6e54:	d24fc06f          	j	3378 <.L368>

00006e58 <.L2366>:
    6e58:	03d00c13          	li	s8,61
    6e5c:	0efc4263          	blt	s8,a5,6f40 <.L371>

00006e60 <.L370>:
    6e60:	00e15c03          	lhu	s8,14(sp)
    6e64:	ff6c0c13          	addi	s8,s8,-10
    6e68:	010c1c13          	slli	s8,s8,0x10
    6e6c:	410c5c13          	srai	s8,s8,0x10
    6e70:	a15f906f          	j	884 <.L375>

00006e74 <.L2870>:
    6e74:	32100c13          	li	s8,801
    6e78:	00dc5463          	bge	s8,a3,6e80 <.L2870+0xc>
    6e7c:	2080406f          	j	b084 <.L968>
    6e80:	00a15c03          	lhu	s8,10(sp)
    6e84:	ff5c0c13          	addi	s8,s8,-11
    6e88:	010c1c13          	slli	s8,s8,0x10
    6e8c:	410c5c13          	srai	s8,s8,0x10
    6e90:	01811523          	sh	s8,10(sp)
    6e94:	03900c13          	li	s8,57
    6e98:	00dc4463          	blt	s8,a3,6ea0 <.L970>
    6e9c:	b38fa06f          	j	11d4 <.L960>

00006ea0 <.L970>:
    6ea0:	02700c13          	li	s8,39
    6ea4:	00ec4463          	blt	s8,a4,6eac <.L970+0xc>
    6ea8:	0140206f          	j	8ebc <.L972>
    6eac:	ff600c13          	li	s8,-10
    6eb0:	01865463          	bge	a2,s8,6eb8 <.L970+0x18>
    6eb4:	901fd06f          	j	47b4 <.L966>
    6eb8:	00c15c03          	lhu	s8,12(sp)
    6ebc:	cf000c93          	li	s9,-784
    6ec0:	ffac0c13          	addi	s8,s8,-6
    6ec4:	01811623          	sh	s8,12(sp)
    6ec8:	0195d463          	bge	a1,s9,6ed0 <.L970+0x30>
    6ecc:	879fd06f          	j	4744 <.L962>
    6ed0:	8f9fd06f          	j	47c8 <.L2408>

00006ed4 <.L952>:
    6ed4:	00815c03          	lhu	s8,8(sp)
    6ed8:	fffc0c13          	addi	s8,s8,-1
    6edc:	010c1c13          	slli	s8,s8,0x10
    6ee0:	410c5c13          	srai	s8,s8,0x10
    6ee4:	f45fa06f          	j	1e28 <.L948>

00006ee8 <.L360>:
    6ee8:	f2b00c13          	li	s8,-213
    6eec:	018ac463          	blt	s5,s8,6ef4 <.L360+0xc>
    6ef0:	26d0306f          	j	a95c <.L364>
    6ef4:	00a15c03          	lhu	s8,10(sp)
    6ef8:	00cc0c13          	addi	s8,s8,12
    6efc:	010c1c13          	slli	s8,s8,0x10
    6f00:	010c5c13          	srli	s8,s8,0x10

00006f04 <.L365>:
    6f04:	01811523          	sh	s8,10(sp)
    6f08:	17000c13          	li	s8,368
    6f0c:	f0dc4ee3          	blt	s8,a3,6e28 <.L362>

00006f10 <.L351>:
    6f10:	ffa00c13          	li	s8,-6
    6f14:	01865463          	bge	a2,s8,6f1c <.L354>
    6f18:	c34fc06f          	j	334c <.L353>

00006f1c <.L354>:
    6f1c:	01c51c83          	lh	s9,28(a0)
    6f20:	03c00c13          	li	s8,60
    6f24:	019c5463          	bge	s8,s9,6f2c <.L354+0x10>
    6f28:	0550306f          	j	a77c <.L2917>
    6f2c:	00c15c03          	lhu	s8,12(sp)
    6f30:	ff6c0c13          	addi	s8,s8,-10
    6f34:	010c1c13          	slli	s8,s8,0x10
    6f38:	410c5c13          	srai	s8,s8,0x10
    6f3c:	911f906f          	j	84c <.L352>

00006f40 <.L371>:
    6f40:	0b300c13          	li	s8,179
    6f44:	007c5463          	bge	s8,t2,6f4c <.L371+0xc>
    6f48:	23d0306f          	j	a984 <.L377>
    6f4c:	00e15c03          	lhu	s8,14(sp)
    6f50:	00bc0c13          	addi	s8,s8,11
    6f54:	010c1c13          	slli	s8,s8,0x10
    6f58:	410c5c13          	srai	s8,s8,0x10
    6f5c:	929f906f          	j	884 <.L375>

00006f60 <.L953>:
    6f60:	13100c13          	li	s8,305
    6f64:	016c5463          	bge	s8,s6,6f6c <.L953+0xc>
    6f68:	2450306f          	j	a9ac <.L955>
    6f6c:	00815c03          	lhu	s8,8(sp)
    6f70:	008c0c13          	addi	s8,s8,8
    6f74:	010c1c13          	slli	s8,s8,0x10
    6f78:	410c5c13          	srai	s8,s8,0x10
    6f7c:	eadfa06f          	j	1e28 <.L948>

00006f80 <.L146>:
    6f80:	00815e03          	lhu	t3,8(sp)
    6f84:	ff6e0e13          	addi	t3,t3,-10
    6f88:	010e1e13          	slli	t3,t3,0x10
    6f8c:	410e5e13          	srai	t3,t3,0x10
    6f90:	e68f906f          	j	5f8 <.L147>

00006f94 <.L1882>:
    6f94:	00c15c03          	lhu	s8,12(sp)
    6f98:	05800c93          	li	s9,88
    6f9c:	fffc0c13          	addi	s8,s8,-1
    6fa0:	01811623          	sh	s8,12(sp)
    6fa4:	009cd463          	bge	s9,s1,6fac <.L1882+0x18>
    6fa8:	9a4fe06f          	j	514c <.L1883>
    6fac:	f5300c13          	li	s8,-173
    6fb0:	01845463          	bge	s0,s8,6fb8 <.L1882+0x24>
    6fb4:	6ec0406f          	j	b6a0 <.L1892>
    6fb8:	00e15c03          	lhu	s8,14(sp)
    6fbc:	07300c93          	li	s9,115
    6fc0:	003c0c13          	addi	s8,s8,3
    6fc4:	01811723          	sh	s8,14(sp)
    6fc8:	012cc463          	blt	s9,s2,6fd0 <.L1894>
    6fcc:	a59fd06f          	j	4a24 <.L1893>

00006fd0 <.L1894>:
    6fd0:	00a00c13          	li	s8,10
    6fd4:	010c5463          	bge	s8,a6,6fdc <.L1894+0xc>
    6fd8:	6480206f          	j	9620 <.L1909>
    6fdc:	00815c03          	lhu	s8,8(sp)
    6fe0:	007c0c13          	addi	s8,s8,7
    6fe4:	01811423          	sh	s8,8(sp)
    6fe8:	c51fb06f          	j	2c38 <.L1908>

00006fec <.L1945>:
    6fec:	01400c13          	li	s8,20
    6ff0:	010c5463          	bge	s8,a6,6ff8 <.L1945+0xc>
    6ff4:	2ec0306f          	j	a2e0 <.L1953>
    6ff8:	00a15c03          	lhu	s8,10(sp)
    6ffc:	00ac0c13          	addi	s8,s8,10
    7000:	010c1c13          	slli	s8,s8,0x10
    7004:	010c5c13          	srli	s8,s8,0x10

00007008 <.L1954>:
    7008:	01811523          	sh	s8,10(sp)
    700c:	03c00c13          	li	s8,60
    7010:	00fc4463          	blt	s8,a5,7018 <.L1952>
    7014:	b0dfd06f          	j	4b20 <.L1962>

00007018 <.L1952>:
    7018:	f0000c13          	li	s8,-256
    701c:	0185d463          	bge	a1,s8,7024 <.L1952+0xc>
    7020:	2480106f          	j	8268 <.L1985>
    7024:	05800c13          	li	s8,88
    7028:	009c4463          	blt	s8,s1,7030 <.L1952+0x18>
    702c:	2540106f          	j	8280 <.L1981>
    7030:	1a500c13          	li	s8,421
    7034:	007c4463          	blt	s8,t2,703c <.L1952+0x24>
    7038:	d35fb06f          	j	2d6c <.L1982>
    703c:	00e15c03          	lhu	s8,14(sp)
    7040:	ffcc0c13          	addi	s8,s8,-4
    7044:	01811723          	sh	s8,14(sp)

00007048 <.L1987>:
    7048:	00815c03          	lhu	s8,8(sp)
    704c:	004c0c13          	addi	s8,s8,4
    7050:	01811423          	sh	s8,8(sp)
    7054:	d45fb06f          	j	2d98 <.L1971>

00007058 <.L2193>:
    7058:	01100513          	li	a0,17
    705c:	01d55463          	bge	a0,t4,7064 <.L2193+0xc>
    7060:	3990306f          	j	abf8 <.L2196>
    7064:	25b00513          	li	a0,603
    7068:	00e54463          	blt	a0,a4,7070 <.L2197>
    706c:	8c8fc06f          	j	3134 <.L2200>

00007070 <.L2197>:
    7070:	eb700513          	li	a0,-329
    7074:	24a5c263          	blt	a1,a0,72b8 <.L2667>
    7078:	00c15503          	lhu	a0,12(sp)
    707c:	ff850513          	addi	a0,a0,-8
    7080:	01051513          	slli	a0,a0,0x10
    7084:	41055513          	srai	a0,a0,0x10
    7088:	8d4fc06f          	j	315c <.L2206>

0000708c <.L2078>:
    708c:	00a15b03          	lhu	s6,10(sp)
    7090:	02700c13          	li	s8,39
    7094:	ffcb0b13          	addi	s6,s6,-4
    7098:	01611523          	sh	s6,10(sp)
    709c:	006c5463          	bge	s8,t1,70a4 <.L2079>
    70a0:	fc5fd06f          	j	5064 <.L2660>

000070a4 <.L2079>:
    70a4:	ff800b13          	li	s6,-8
    70a8:	01661463          	bne	a2,s6,70b0 <.L2088>
    70ac:	5800106f          	j	862c <.L2084>

000070b0 <.L2088>:
    70b0:	06c00b13          	li	s6,108
    70b4:	00db5463          	bge	s6,a3,70bc <.L2088+0xc>
    70b8:	2950306f          	j	ab4c <.L2918>
    70bc:	00c15b03          	lhu	s6,12(sp)
    70c0:	ff9b0b13          	addi	s6,s6,-7
    70c4:	010b1b13          	slli	s6,s6,0x10
    70c8:	410b5b13          	srai	s6,s6,0x10
    70cc:	e7dfb06f          	j	2f48 <.L2081>

000070d0 <.L302>:
    70d0:	00815e03          	lhu	t3,8(sp)
    70d4:	ff6e0e13          	addi	t3,t3,-10
    70d8:	010e1e13          	slli	t3,t3,0x10
    70dc:	410e5e13          	srai	t3,t3,0x10
    70e0:	ed0fc06f          	j	37b0 <.L304>

000070e4 <.L342>:
    70e4:	ffa00c13          	li	s8,-6
    70e8:	01894463          	blt	s2,s8,70f0 <.L342+0xc>
    70ec:	7f10306f          	j	b0dc <.L345>
    70f0:	00815c03          	lhu	s8,8(sp)
    70f4:	006c0c13          	addi	s8,s8,6
    70f8:	01811423          	sh	s8,8(sp)
    70fc:	f04f906f          	j	800 <.L344>

00007100 <.L824>:
    7100:	00815c03          	lhu	s8,8(sp)
    7104:	ffcc0c13          	addi	s8,s8,-4
    7108:	01811423          	sh	s8,8(sp)
    710c:	e89f906f          	j	f94 <.L825>

00007110 <.L660>:
    7110:	ecc00c13          	li	s8,-308
    7114:	018a4463          	blt	s4,s8,711c <.L660+0xc>
    7118:	2010306f          	j	ab18 <.L663>
    711c:	00a15c03          	lhu	s8,10(sp)
    7120:	ffdc0c13          	addi	s8,s8,-3
    7124:	010c1c13          	slli	s8,s8,0x10
    7128:	410c5c13          	srai	s8,s8,0x10
    712c:	bf1f906f          	j	d1c <.L662>

00007130 <.L611>:
    7130:	00400c13          	li	s8,4
    7134:	01cc5463          	bge	s8,t3,713c <.L611+0xc>
    7138:	b1df906f          	j	c54 <.L617>
    713c:	00815c03          	lhu	s8,8(sp)
    7140:	ff7c0c13          	addi	s8,s8,-9
    7144:	01811423          	sh	s8,8(sp)
    7148:	b19f906f          	j	c60 <.L614>

0000714c <.L748>:
    714c:	00a15c03          	lhu	s8,10(sp)
    7150:	0dd00c93          	li	s9,221
    7154:	005c0c13          	addi	s8,s8,5
    7158:	01811523          	sh	s8,10(sp)
    715c:	00dcc463          	blt	s9,a3,7164 <.L748+0x18>
    7160:	84cfe06f          	j	51ac <.L749>
    7164:	25b00c13          	li	s8,603
    7168:	00ec4463          	blt	s8,a4,7170 <.L748+0x24>
    716c:	1a10406f          	j	bb0c <.L757>
    7170:	00c15c03          	lhu	s8,12(sp)
    7174:	03e00c93          	li	s9,62
    7178:	004c0c13          	addi	s8,s8,4
    717c:	01811623          	sh	s8,12(sp)
    7180:	00fcc463          	blt	s9,a5,7188 <.L748+0x3c>
    7184:	9a5fa06f          	j	1b28 <.L751>
    7188:	00e15c03          	lhu	s8,14(sp)
    718c:	ffe00c93          	li	s9,-2
    7190:	009c0c13          	addi	s8,s8,9
    7194:	01811723          	sh	s8,14(sp)
    7198:	01984463          	blt	a6,s9,71a0 <.L748+0x54>
    719c:	d55fd06f          	j	4ef0 <.L2387>
    71a0:	00815c03          	lhu	s8,8(sp)
    71a4:	03300c93          	li	s9,51
    71a8:	ff9c0c13          	addi	s8,s8,-7
    71ac:	01811423          	sh	s8,8(sp)
    71b0:	01fcd463          	bge	s9,t6,71b8 <.L795>
    71b4:	c9dfd06f          	j	4e50 <.L789>

000071b8 <.L795>:
    71b8:	64b00c13          	li	s8,1611
    71bc:	00ec5463          	bge	s8,a4,71c4 <.L795+0xc>
    71c0:	72d0306f          	j	b0ec <.L799>
    71c4:	00a15c03          	lhu	s8,10(sp)
    71c8:	ff6c0c13          	addi	s8,s8,-10
    71cc:	010c1c13          	slli	s8,s8,0x10
    71d0:	410c5c13          	srai	s8,s8,0x10
    71d4:	c99fd06f          	j	4e6c <.L800>

000071d8 <.L2863>:
    71d8:	0a000b13          	li	s6,160
    71dc:	00db4463          	blt	s6,a3,71e4 <.L2863+0xc>
    71e0:	e09fb06f          	j	2fe8 <.L2123>
    71e4:	00c15b03          	lhu	s6,12(sp)
    71e8:	005b0b13          	addi	s6,s6,5
    71ec:	01611623          	sh	s6,12(sp)
    71f0:	a20fd06f          	j	4410 <.L2127>

000071f4 <.L1256>:
    71f4:	02e00c13          	li	s8,46
    71f8:	00ec5463          	bge	s8,a4,7200 <.L1256+0xc>
    71fc:	78d0206f          	j	a188 <.L1260>
    7200:	00e15c03          	lhu	s8,14(sp)
    7204:	004c0c13          	addi	s8,s8,4
    7208:	010c1c13          	slli	s8,s8,0x10
    720c:	410c5c13          	srai	s8,s8,0x10
    7210:	c2cfa06f          	j	163c <.L1258>

00007214 <.L1449>:
    7214:	fe400c13          	li	s8,-28
    7218:	01874463          	blt	a4,s8,7220 <.L1449+0xc>
    721c:	6e50306f          	j	b100 <.L1458>
    7220:	00815c03          	lhu	s8,8(sp)
    7224:	f8b00c93          	li	s9,-117
    7228:	006c0c13          	addi	s8,s8,6
    722c:	01811423          	sh	s8,8(sp)
    7230:	0195c463          	blt	a1,s9,7238 <.L1449+0x24>
    7234:	e59fc06f          	j	408c <.L1463>
    7238:	b48fb06f          	j	2580 <.L2738>

0000723c <.L1426>:
    723c:	0ea00c13          	li	s8,234
    7240:	006c5463          	bge	s8,t1,7248 <.L1426+0xc>
    7244:	7250206f          	j	a168 <.L1429>
    7248:	00a15c03          	lhu	s8,10(sp)
    724c:	ff9c0c13          	addi	s8,s8,-7
    7250:	01811523          	sh	s8,10(sp)
    7254:	aacfb06f          	j	2500 <.L1428>

00007258 <.L1827>:
    7258:	04c00c13          	li	s8,76
    725c:	016c5463          	bge	s8,s6,7264 <.L1827+0xc>
    7260:	6bd0306f          	j	b11c <.L1833>
    7264:	00815c03          	lhu	s8,8(sp)
    7268:	ffec0c13          	addi	s8,s8,-2
    726c:	010c1c13          	slli	s8,s8,0x10
    7270:	410c5c13          	srai	s8,s8,0x10
    7274:	a4dfd06f          	j	4cc0 <.L1834>

00007278 <.L1422>:
    7278:	07100c13          	li	s8,113
    727c:	012c5463          	bge	s8,s2,7284 <.L1422+0xc>
    7280:	6f90206f          	j	a178 <.L1424>
    7284:	00815c03          	lhu	s8,8(sp)
    7288:	00cc0c13          	addi	s8,s8,12
    728c:	01811423          	sh	s8,8(sp)
    7290:	03b00c13          	li	s8,59
    7294:	00fc4463          	blt	s8,a5,729c <.L1430>
    7298:	d5dfc06f          	j	3ff4 <.L2919>

0000729c <.L1430>:
    729c:	17900c13          	li	s8,377
    72a0:	009c5463          	bge	s8,s1,72a8 <.L1430+0xc>
    72a4:	4c10306f          	j	af64 <.L1431>
    72a8:	00a15c03          	lhu	s8,10(sp)
    72ac:	ff8c0c13          	addi	s8,s8,-8
    72b0:	01811523          	sh	s8,10(sp)
    72b4:	a4cfb06f          	j	2500 <.L1428>

000072b8 <.L2667>:
    72b8:	00c15503          	lhu	a0,12(sp)
    72bc:	fff50513          	addi	a0,a0,-1
    72c0:	01051513          	slli	a0,a0,0x10
    72c4:	41055513          	srai	a0,a0,0x10
    72c8:	e95fb06f          	j	315c <.L2206>

000072cc <.L1165>:
    72cc:	00815c03          	lhu	s8,8(sp)
    72d0:	ff7c0c13          	addi	s8,s8,-9
    72d4:	010c1c13          	slli	s8,s8,0x10
    72d8:	010c5c13          	srli	s8,s8,0x10
    72dc:	dd4fd06f          	j	48b0 <.L1166>

000072e0 <.L1514>:
    72e0:	00300c13          	li	s8,3
    72e4:	010c5463          	bge	s8,a6,72ec <.L1514+0xc>
    72e8:	44c0306f          	j	a734 <.L1517>
    72ec:	00a15c03          	lhu	s8,10(sp)
    72f0:	f9800c93          	li	s9,-104
    72f4:	003c0c13          	addi	s8,s8,3
    72f8:	01811523          	sh	s8,10(sp)
    72fc:	01944463          	blt	s0,s9,7304 <.L1514+0x24>
    7300:	accfd06f          	j	45cc <.L1506>
    7304:	0c700c13          	li	s8,199
    7308:	016c5463          	bge	s8,s6,7310 <.L1514+0x30>
    730c:	e5dfc06f          	j	4168 <.L1528>
    7310:	ea900c13          	li	s8,-343
    7314:	018a4463          	blt	s4,s8,731c <.L1529>
    7318:	3810206f          	j	9e98 <.L1522>

0000731c <.L1529>:
    731c:	11a00c13          	li	s8,282
    7320:	007c5463          	bge	s8,t2,7328 <.L1546>
    7324:	ae4fd06f          	j	4608 <.L1535>

00007328 <.L1546>:
    7328:	00e15c03          	lhu	s8,14(sp)
    732c:	003c0c13          	addi	s8,s8,3
    7330:	01811723          	sh	s8,14(sp)
    7334:	b70fb06f          	j	26a4 <.L1538>

00007338 <.L510>:
    7338:	fb100c13          	li	s8,-79
    733c:	0182c463          	blt	t0,s8,7344 <.L510+0xc>
    7340:	0010206f          	j	9b40 <.L513>
    7344:	00815c03          	lhu	s8,8(sp)
    7348:	ff8c0c13          	addi	s8,s8,-8
    734c:	010c1c13          	slli	s8,s8,0x10
    7350:	410c5c13          	srai	s8,s8,0x10
    7354:	978fd06f          	j	44cc <.L512>

00007358 <.L576>:
    7358:	efc00c13          	li	s8,-260
    735c:	018a4463          	blt	s4,s8,7364 <.L576+0xc>
    7360:	5280306f          	j	a888 <.L579>
    7364:	00c15c03          	lhu	s8,12(sp)
    7368:	e0800c93          	li	s9,-504
    736c:	009c0c13          	addi	s8,s8,9
    7370:	01811623          	sh	s8,12(sp)
    7374:	01944463          	blt	s0,s9,737c <.L580>
    7378:	8a9f906f          	j	c20 <.L581>

0000737c <.L580>:
    737c:	25500c13          	li	s8,597
    7380:	869c5c63          	bge	s8,s1,63f8 <.L595>

00007384 <.L606>:
    7384:	00e15c03          	lhu	s8,14(sp)
    7388:	0a900c93          	li	s9,169
    738c:	ff7c0c13          	addi	s8,s8,-9
    7390:	01811723          	sh	s8,14(sp)
    7394:	01ecc463          	blt	s9,t5,739c <.L606+0x18>
    7398:	ce8fa06f          	j	1880 <.L600>
    739c:	cd8fe06f          	j	5874 <.L2581>

000073a0 <.L1436>:
    73a0:	fa700c13          	li	s8,-89
    73a4:	01844463          	blt	s0,s8,73ac <.L1436+0xc>
    73a8:	59d0306f          	j	b144 <.L1438>
    73ac:	00c15c03          	lhu	s8,12(sp)
    73b0:	003c0c13          	addi	s8,s8,3
    73b4:	01811623          	sh	s8,12(sp)
    73b8:	974fb06f          	j	252c <.L1434>

000073bc <.L1955>:
    73bc:	0b100c93          	li	s9,177
    73c0:	687cd6e3          	bge	s9,t2,824c <.L1957>
    73c4:	00a15c83          	lhu	s9,10(sp)
    73c8:	ff7c8c93          	addi	s9,s9,-9
    73cc:	01911523          	sh	s9,10(sp)
    73d0:	00fc5463          	bge	s8,a5,73d8 <.L1955+0x1c>
    73d4:	95dfb06f          	j	2d30 <.L1958>
    73d8:	42200c13          	li	s8,1058
    73dc:	007c5463          	bge	s8,t2,73e4 <.L1959>
    73e0:	f4cfd06f          	j	4b2c <.L1950>

000073e4 <.L1959>:
    73e4:	00c15c03          	lhu	s8,12(sp)
    73e8:	05800c93          	li	s9,88
    73ec:	003c0c13          	addi	s8,s8,3
    73f0:	01811623          	sh	s8,12(sp)
    73f4:	6c9cc6e3          	blt	s9,s1,82c0 <.L1972>
    73f8:	f5300c13          	li	s8,-173
    73fc:	01845463          	bge	s0,s8,7404 <.L1974>
    7400:	1350406f          	j	bd34 <.L2920>

00007404 <.L1974>:
    7404:	16200c13          	li	s8,354
    7408:	007c5463          	bge	s8,t2,7410 <.L1966>
    740c:	f50fd06f          	j	4b5c <.L1994>

00007410 <.L1966>:
    7410:	03b00c13          	li	s8,59
    7414:	6cfc58e3          	bge	s8,a5,82e4 <.L1968>
    7418:	00815c03          	lhu	s8,8(sp)
    741c:	001c0c13          	addi	s8,s8,1
    7420:	01811423          	sh	s8,8(sp)
    7424:	975fb06f          	j	2d98 <.L1971>

00007428 <.L1113>:
    7428:	bf300c13          	li	s8,-1037
    742c:	0185c463          	blt	a1,s8,7434 <.L1113+0xc>
    7430:	42c0306f          	j	a85c <.L1117>
    7434:	00e15c03          	lhu	s8,14(sp)
    7438:	01500c93          	li	s9,21
    743c:	005c0c13          	addi	s8,s8,5
    7440:	01811723          	sh	s8,14(sp)
    7444:	007cc463          	blt	s9,t2,744c <.L1113+0x24>
    7448:	c61fa06f          	j	20a8 <.L1118>
    744c:	fbdf906f          	j	1408 <.L2602>

00007450 <.L520>:
    7450:	f2000c13          	li	s8,-224
    7454:	0182c463          	blt	t0,s8,745c <.L520+0xc>
    7458:	3d80306f          	j	a830 <.L524>
    745c:	00a15c03          	lhu	s8,10(sp)
    7460:	17000c93          	li	s9,368
    7464:	009c0c13          	addi	s8,s8,9
    7468:	01811523          	sh	s8,10(sp)
    746c:	00dcd463          	bge	s9,a3,7474 <.L525>
    7470:	5310106f          	j	91a0 <.L526>

00007474 <.L525>:
    7474:	02200c13          	li	s8,34
    7478:	01dc4463          	blt	s8,t4,7480 <.L536>
    747c:	5f10106f          	j	926c <.L530>

00007480 <.L536>:
    7480:	fda00c13          	li	s8,-38
    7484:	01874463          	blt	a4,s8,748c <.L536+0xc>
    7488:	b2cfa06f          	j	17b4 <.L531>
    748c:	00c15c03          	lhu	s8,12(sp)
    7490:	006c0c13          	addi	s8,s8,6
    7494:	010c1c13          	slli	s8,s8,0x10
    7498:	410c5c13          	srai	s8,s8,0x10
    749c:	ec0f906f          	j	b5c <.L538>

000074a0 <.L1498>:
    74a0:	02500c13          	li	s8,37
    74a4:	01fc5463          	bge	s8,t6,74ac <.L1498+0xc>
    74a8:	4a10206f          	j	a148 <.L1499>
    74ac:	00e15c03          	lhu	s8,14(sp)
    74b0:	00ac0c13          	addi	s8,s8,10
    74b4:	01811723          	sh	s8,14(sp)
    74b8:	c3dfc06f          	j	40f4 <.L1496>

000074bc <.L2241>:
    74bc:	00c15783          	lhu	a5,12(sp)
    74c0:	00f78793          	addi	a5,a5,15
    74c4:	01079793          	slli	a5,a5,0x10
    74c8:	4107d793          	srai	a5,a5,0x10
    74cc:	d35fb06f          	j	3200 <.L2242>

000074d0 <.L1010>:
    74d0:	d5d00c13          	li	s8,-675
    74d4:	3b8ad463          	bge	s5,s8,787c <.L1012>
    74d8:	00a15c03          	lhu	s8,10(sp)
    74dc:	03d00c93          	li	s9,61
    74e0:	ffdc0c13          	addi	s8,s8,-3
    74e4:	01811523          	sh	s8,10(sp)
    74e8:	00fcc463          	blt	s9,a5,74f0 <.L1024>
    74ec:	d79f906f          	j	1264 <.L1013>

000074f0 <.L1024>:
    74f0:	00c15c03          	lhu	s8,12(sp)
    74f4:	007c0c13          	addi	s8,s8,7
    74f8:	01811623          	sh	s8,12(sp)
    74fc:	a2dfa06f          	j	1f28 <.L1014>

00007500 <.L1187>:
    7500:	3ce00c13          	li	s8,974
    7504:	016c5463          	bge	s8,s6,750c <.L1187+0xc>
    7508:	5140306f          	j	aa1c <.L2921>
    750c:	00c15c03          	lhu	s8,12(sp)
    7510:	007c0c13          	addi	s8,s8,7
    7514:	010c1c13          	slli	s8,s8,0x10
    7518:	410c5c13          	srai	s8,s8,0x10
    751c:	cb9fa06f          	j	21d4 <.L1189>

00007520 <.L1554>:
    7520:	00d00c13          	li	s8,13
    7524:	013c5463          	bge	s8,s3,752c <.L1554+0xc>
    7528:	5300306f          	j	aa58 <.L1555>
    752c:	00815c03          	lhu	s8,8(sp)
    7530:	003c0c13          	addi	s8,s8,3
    7534:	010c1c13          	slli	s8,s8,0x10
    7538:	410c5c13          	srai	s8,s8,0x10
    753c:	99cfb06f          	j	26d8 <.L1552>

00007540 <.L2248>:
    7540:	00c15783          	lhu	a5,12(sp)
    7544:	ff978793          	addi	a5,a5,-7
    7548:	01079793          	slli	a5,a5,0x10
    754c:	4107d793          	srai	a5,a5,0x10
    7550:	cb1fb06f          	j	3200 <.L2242>

00007554 <.L2156>:
    7554:	06f00b13          	li	s6,111
    7558:	00db4463          	blt	s6,a3,7560 <.L2156+0xc>
    755c:	4450306f          	j	b1a0 <.L2166>
    7560:	00a15b03          	lhu	s6,10(sp)
    7564:	fdb00c13          	li	s8,-37
    7568:	ff7b0b13          	addi	s6,s6,-9
    756c:	01611523          	sh	s6,10(sp)
    7570:	01875463          	bge	a4,s8,7578 <.L2156+0x24>
    7574:	4150306f          	j	b188 <.L2722>
    7578:	02600b13          	li	s6,38
    757c:	00eb4463          	blt	s6,a4,7584 <.L2156+0x30>
    7580:	b21fb06f          	j	30a0 <.L2170>
    7584:	08600b13          	li	s6,134
    7588:	14db5463          	bge	s6,a3,76d0 <.L2180>
    758c:	a1cfe06f          	j	57a8 <.L2169>

00007590 <.L2848>:
    7590:	e2c00c13          	li	s8,-468
    7594:	0182c463          	blt	t0,s8,759c <.L2848+0xc>
    7598:	3310306f          	j	b0c8 <.L1347>
    759c:	00a15c03          	lhu	s8,10(sp)
    75a0:	006c0c13          	addi	s8,s8,6
    75a4:	010c1c13          	slli	s8,s8,0x10
    75a8:	010c5c13          	srli	s8,s8,0x10

000075ac <.L1348>:
    75ac:	01811523          	sh	s8,10(sp)
    75b0:	02a00c13          	li	s8,42
    75b4:	00dc5463          	bge	s8,a3,75bc <.L1344>
    75b8:	984fa06f          	j	173c <.L1327>

000075bc <.L1344>:
    75bc:	fba00c13          	li	s8,-70
    75c0:	0185c463          	blt	a1,s8,75c8 <.L1336>
    75c4:	4f10106f          	j	92b4 <.L1337>

000075c8 <.L1336>:
    75c8:	25400c13          	li	s8,596
    75cc:	016c4463          	blt	s8,s6,75d4 <.L1336+0xc>
    75d0:	dddfa06f          	j	23ac <.L1356>
    75d4:	00c15c03          	lhu	s8,12(sp)
    75d8:	03600c93          	li	s9,54
    75dc:	005c0c13          	addi	s8,s8,5
    75e0:	01811623          	sh	s8,12(sp)
    75e4:	00fcd463          	bge	s9,a5,75ec <.L1352>
    75e8:	dddfa06f          	j	23c4 <.L1355>

000075ec <.L1352>:
    75ec:	00e15c03          	lhu	s8,14(sp)
    75f0:	ff8c0c13          	addi	s8,s8,-8
    75f4:	010c1c13          	slli	s8,s8,0x10
    75f8:	410c5c13          	srai	s8,s8,0x10
    75fc:	df1fa06f          	j	23ec <.L1365>

00007600 <.L1491>:
    7600:	f4200c13          	li	s8,-190
    7604:	0182c463          	blt	t0,s8,760c <.L1491+0xc>
    7608:	2a10306f          	j	b0a8 <.L1497>
    760c:	00e15c03          	lhu	s8,14(sp)
    7610:	014c0c13          	addi	s8,s8,20
    7614:	01811723          	sh	s8,14(sp)
    7618:	addfc06f          	j	40f4 <.L1496>

0000761c <.L2825>:
    761c:	03b00513          	li	a0,59
    7620:	c8f54ce3          	blt	a0,a5,72b8 <.L2667>
    7624:	00c15503          	lhu	a0,12(sp)
    7628:	02800e93          	li	t4,40
    762c:	00450513          	addi	a0,a0,4
    7630:	00a11623          	sh	a0,12(sp)
    7634:	007ed463          	bge	t4,t2,763c <.L2221>
    7638:	fbdfd06f          	j	55f4 <.L2208>

0000763c <.L2221>:
    763c:	ff968693          	addi	a3,a3,-7
    7640:	00d11723          	sh	a3,14(sp)
    7644:	b35fb06f          	j	3178 <.L2209>

00007648 <.L1470>:
    7648:	00c00c13          	li	s8,12
    764c:	01cc5463          	bge	s8,t3,7654 <.L1470+0xc>
    7650:	6910306f          	j	b4e0 <.L2922>
    7654:	02700c13          	li	s8,39
    7658:	01dc5463          	bge	s8,t4,7660 <.L1470+0x18>
    765c:	3700406f          	j	b9cc <.L1477>
    7660:	04900c13          	li	s8,73
    7664:	011c4463          	blt	s8,a7,766c <.L1488>
    7668:	f49fa06f          	j	25b0 <.L1475>

0000766c <.L1488>:
    766c:	01c51c03          	lh	s8,28(a0)
    7670:	01804463          	bgtz	s8,7678 <.L1488+0xc>
    7674:	f55fa06f          	j	25c8 <.L1486>
    7678:	00c15c03          	lhu	s8,12(sp)
    767c:	009c0c13          	addi	s8,s8,9
    7680:	01811623          	sh	s8,12(sp)
    7684:	f45fa06f          	j	25c8 <.L1486>

00007688 <.L2822>:
    7688:	00815b03          	lhu	s6,8(sp)
    768c:	03b00c13          	li	s8,59
    7690:	fffb0b13          	addi	s6,s6,-1
    7694:	01611423          	sh	s6,8(sp)
    7698:	00fc5463          	bge	s8,a5,76a0 <.L2822+0x18>
    769c:	c38fc06f          	j	3ad4 <.L2145>
    76a0:	33f00b13          	li	s6,831
    76a4:	00eb4463          	blt	s6,a4,76ac <.L2148>
    76a8:	9c5fb06f          	j	306c <.L2152>

000076ac <.L2148>:
    76ac:	ddf00b13          	li	s6,-545
    76b0:	016a4463          	blt	s4,s6,76b8 <.L2148+0xc>
    76b4:	3180206f          	j	99cc <.L2154>
    76b8:	00a15b03          	lhu	s6,10(sp)
    76bc:	fffb0b13          	addi	s6,s6,-1
    76c0:	01611523          	sh	s6,10(sp)

000076c4 <.L2155>:
    76c4:	08600b13          	li	s6,134
    76c8:	00db5463          	bge	s6,a3,76d0 <.L2180>
    76cc:	9e1fb06f          	j	30ac <.L2163>

000076d0 <.L2180>:
    76d0:	00c15683          	lhu	a3,12(sp)
    76d4:	ffc68693          	addi	a3,a3,-4
    76d8:	00d11623          	sh	a3,12(sp)
    76dc:	9d1fb06f          	j	30ac <.L2163>

000076e0 <.L2201>:
    76e0:	3fb00513          	li	a0,1019
    76e4:	00e55463          	bge	a0,a4,76ec <.L2201+0xc>
    76e8:	1510306f          	j	b038 <.L2203>
    76ec:	00a15503          	lhu	a0,10(sp)
    76f0:	ff850513          	addi	a0,a0,-8
    76f4:	01051513          	slli	a0,a0,0x10
    76f8:	41055513          	srai	a0,a0,0x10
    76fc:	a2dfb06f          	j	3128 <.L2195>

00007700 <.L2122>:
    7700:	00c15b03          	lhu	s6,12(sp)
    7704:	02600c13          	li	s8,38
    7708:	002b0b13          	addi	s6,s6,2
    770c:	01611623          	sh	s6,12(sp)
    7710:	00dc5463          	bge	s8,a3,7718 <.L2122+0x18>
    7714:	cfdfc06f          	j	4410 <.L2127>
    7718:	01300b13          	li	s6,19
    771c:	7edb42e3          	blt	s6,a3,8700 <.L2126>

00007720 <.L2663>:
    7720:	00e15b03          	lhu	s6,14(sp)
    7724:	ffcb0b13          	addi	s6,s6,-4
    7728:	010b1b13          	slli	s6,s6,0x10
    772c:	410b5b13          	srai	s6,s6,0x10
    7730:	c55fd06f          	j	5384 <.L2137>

00007734 <.L80>:
    7734:	02651383          	lh	t2,38(a0)
    7738:	fe800e13          	li	t3,-24
    773c:	01c3c463          	blt	t2,t3,7744 <.L80+0x10>
    7740:	6210206f          	j	a560 <.L87>
    7744:	00815e03          	lhu	t3,8(sp)
    7748:	011e0e13          	addi	t3,t3,17
    774c:	010e1e13          	slli	t3,t3,0x10
    7750:	010e5e13          	srli	t3,t3,0x10
    7754:	ac5f806f          	j	218 <.L2549>

00007758 <.L910>:
    7758:	ea700c13          	li	s8,-345
    775c:	0182c463          	blt	t0,s8,7764 <.L910+0xc>
    7760:	5080306f          	j	ac68 <.L915>
    7764:	00a15c03          	lhu	s8,10(sp)
    7768:	007c0c13          	addi	s8,s8,7
    776c:	010c1c13          	slli	s8,s8,0x10
    7770:	410c5c13          	srai	s8,s8,0x10
    7774:	9a5f906f          	j	1118 <.L912>

00007778 <.L911>:
    7778:	00a15c03          	lhu	s8,10(sp)
    777c:	03300c93          	li	s9,51
    7780:	ff6c0c13          	addi	s8,s8,-10
    7784:	01811523          	sh	s8,10(sp)
    7788:	00fcd463          	bge	s9,a5,7790 <.L913>
    778c:	99df906f          	j	1128 <.L914>

00007790 <.L913>:
    7790:	00c15c03          	lhu	s8,12(sp)
    7794:	00085463          	bgez	a6,779c <.L913+0xc>
    7798:	3690306f          	j	b300 <.L2923>
    779c:	008c0c13          	addi	s8,s8,8
    77a0:	01811623          	sh	s8,12(sp)
    77a4:	b99fd06f          	j	533c <.L928>

000077a8 <.L499>:
    77a8:	c2600c13          	li	s8,-986
    77ac:	a185da63          	bge	a1,s8,69c0 <.L507>
    77b0:	00e15c03          	lhu	s8,14(sp)
    77b4:	008c0c13          	addi	s8,s8,8
    77b8:	010c1c13          	slli	s8,s8,0x10
    77bc:	410c5c13          	srai	s8,s8,0x10
    77c0:	ee5fd06f          	j	56a4 <.L504>

000077c4 <.L747>:
    77c4:	0bb00c13          	li	s8,187
    77c8:	cd6c5063          	bge	s8,s6,6c88 <.L2590>
    77cc:	00a15c03          	lhu	s8,10(sp)
    77d0:	004c0c13          	addi	s8,s8,4
    77d4:	010c1c13          	slli	s8,s8,0x10
    77d8:	410c5c13          	srai	s8,s8,0x10
    77dc:	eb4f906f          	j	e90 <.L745>

000077e0 <.L349>:
    77e0:	09900c13          	li	s8,153
    77e4:	01ec5463          	bge	s8,t5,77ec <.L349+0xc>
    77e8:	1290206f          	j	a110 <.L357>
    77ec:	00a15c03          	lhu	s8,10(sp)
    77f0:	17000c93          	li	s9,368
    77f4:	ff6c0c13          	addi	s8,s8,-10
    77f8:	01811523          	sh	s8,10(sp)
    77fc:	f2dcd063          	bge	s9,a3,6f1c <.L354>

00007800 <.L359>:
    7800:	ef700c13          	li	s8,-265
    7804:	0182d463          	bge	t0,s8,780c <.L359+0xc>
    7808:	834f906f          	j	83c <.L355>
    780c:	00c15c03          	lhu	s8,12(sp)
    7810:	ff7c0c13          	addi	s8,s8,-9
    7814:	010c1c13          	slli	s8,s8,0x10
    7818:	410c5c13          	srai	s8,s8,0x10
    781c:	830f906f          	j	84c <.L352>

00007820 <.L2095>:
    7820:	e1500b13          	li	s6,-491
    7824:	01645463          	bge	s0,s6,782c <.L2095+0xc>
    7828:	f3cfb06f          	j	2f64 <.L2094>
    782c:	00e15b03          	lhu	s6,14(sp)
    7830:	ff7b0b13          	addi	s6,s6,-9
    7834:	01611723          	sh	s6,14(sp)
    7838:	f2cfb06f          	j	2f64 <.L2094>

0000783c <.L2861>:
    783c:	e2c00b13          	li	s6,-468
    7840:	0162c463          	blt	t0,s6,7848 <.L2861+0xc>
    7844:	3e40306f          	j	ac28 <.L2115>
    7848:	00a15b03          	lhu	s6,10(sp)
    784c:	25b00c13          	li	s8,603
    7850:	004b0b13          	addi	s6,s6,4
    7854:	01611523          	sh	s6,10(sp)
    7858:	00ec4463          	blt	s8,a4,7860 <.L2116>
    785c:	b85fc06f          	j	43e0 <.L2119>

00007860 <.L2116>:
    7860:	e9800b13          	li	s6,-360
    7864:	0165c463          	blt	a1,s6,786c <.L2116+0xc>
    7868:	0fd0306f          	j	b164 <.L2129>
    786c:	00c15b03          	lhu	s6,12(sp)
    7870:	fffb0b13          	addi	s6,s6,-1
    7874:	01611623          	sh	s6,12(sp)
    7878:	f70fb06f          	j	2fe8 <.L2123>

0000787c <.L1012>:
    787c:	00a15c03          	lhu	s8,10(sp)
    7880:	005c0c13          	addi	s8,s8,5
    7884:	010c1c13          	slli	s8,s8,0x10
    7888:	410c5c13          	srai	s8,s8,0x10
    788c:	9cdf906f          	j	1258 <.L1007>

00007890 <.L1863>:
    7890:	e0800c13          	li	s8,-504
    7894:	01844463          	blt	s0,s8,789c <.L1863+0xc>
    7898:	0dd0306f          	j	b174 <.L1868>
    789c:	00e15c03          	lhu	s8,14(sp)
    78a0:	002c0c13          	addi	s8,s8,2
    78a4:	010c1c13          	slli	s8,s8,0x10
    78a8:	010c5c13          	srli	s8,s8,0x10

000078ac <.L1869>:
    78ac:	01811723          	sh	s8,14(sp)
    78b0:	01f00c13          	li	s8,31
    78b4:	013c5463          	bge	s8,s3,78bc <.L1869+0x10>
    78b8:	c89fd06f          	j	5540 <.L1866>
    78bc:	04600c13          	li	s8,70
    78c0:	011c5463          	bge	s8,a7,78c8 <.L1869+0x1c>
    78c4:	c75fd06f          	j	5538 <.L1870>
    78c8:	03300c13          	li	s8,51
    78cc:	011c4463          	blt	s8,a7,78d4 <.L1869+0x28>
    78d0:	c3dfd06f          	j	550c <.L1865>
    78d4:	00815c03          	lhu	s8,8(sp)
    78d8:	006c0c13          	addi	s8,s8,6
    78dc:	01811423          	sh	s8,8(sp)
    78e0:	c2dfd06f          	j	550c <.L1865>

000078e4 <.L655>:
    78e4:	01f00c13          	li	s8,31
    78e8:	010c4463          	blt	s8,a6,78f0 <.L655+0xc>
    78ec:	1b50206f          	j	a2a0 <.L2271>
    78f0:	00e15c03          	lhu	s8,14(sp)
    78f4:	0a900c93          	li	s9,169
    78f8:	009c0c13          	addi	s8,s8,9
    78fc:	01811723          	sh	s8,14(sp)
    7900:	01ecd463          	bge	s9,t5,7908 <.L651>
    7904:	de5fe06f          	j	66e8 <.L2270>

00007908 <.L651>:
    7908:	ff500c13          	li	s8,-11
    790c:	01864463          	blt	a2,s8,7914 <.L651+0xc>
    7910:	4880206f          	j	9d98 <.L658>
    7914:	00815c03          	lhu	s8,8(sp)
    7918:	009c0c13          	addi	s8,s8,9
    791c:	01811423          	sh	s8,8(sp)
    7920:	bccf906f          	j	cec <.L649>

00007924 <.L1784>:
    7924:	f5c00c13          	li	s8,-164
    7928:	01844463          	blt	s0,s8,7930 <.L1784+0xc>
    792c:	3190206f          	j	a444 <.L1789>
    7930:	00815c03          	lhu	s8,8(sp)
    7934:	ffcc0c13          	addi	s8,s8,-4
    7938:	010c1c13          	slli	s8,s8,0x10
    793c:	010c5c13          	srli	s8,s8,0x10

00007940 <.L1790>:
    7940:	01811423          	sh	s8,8(sp)
    7944:	02e00c13          	li	s8,46
    7948:	01dc5463          	bge	s8,t4,7950 <.L1790+0x10>
    794c:	ff9fd06f          	j	5944 <.L1779>
    7950:	01700c13          	li	s8,23
    7954:	011c4463          	blt	s8,a7,795c <.L1790+0x1c>
    7958:	900fb06f          	j	2a58 <.L1782>
    795c:	ffa00c13          	li	s8,-6
    7960:	01865463          	bge	a2,s8,7968 <.L1790+0x28>
    7964:	a78fd06f          	j	4bdc <.L1788>
    7968:	00a15c03          	lhu	s8,10(sp)
    796c:	005c0c13          	addi	s8,s8,5
    7970:	010c1c13          	slli	s8,s8,0x10
    7974:	410c5c13          	srai	s8,s8,0x10
    7978:	8fcfb06f          	j	2a74 <.L1792>

0000797c <.L927>:
    797c:	02200c13          	li	s8,34
    7980:	013c5463          	bge	s8,s3,7988 <.L927+0xc>
    7984:	4c00306f          	j	ae44 <.L2924>
    7988:	00c15c03          	lhu	s8,12(sp)
    798c:	009c0c13          	addi	s8,s8,9
    7990:	010c1c13          	slli	s8,s8,0x10
    7994:	410c5c13          	srai	s8,s8,0x10
    7998:	c2cfa06f          	j	1dc4 <.L931>

0000799c <.L199>:
    799c:	00e15e03          	lhu	t3,14(sp)
    79a0:	07a00c13          	li	s8,122
    79a4:	ff7e0e13          	addi	t3,t3,-9
    79a8:	01c11723          	sh	t3,14(sp)
    79ac:	006c5463          	bge	s8,t1,79b4 <.L196>
    79b0:	f64fe06f          	j	6114 <.L201>

000079b4 <.L196>:
    79b4:	01800e13          	li	t3,24
    79b8:	010e5463          	bge	t3,a6,79c0 <.L196+0xc>
    79bc:	2980306f          	j	ac54 <.L219>
    79c0:	00815e03          	lhu	t3,8(sp)
    79c4:	006e0e13          	addi	t3,t3,6
    79c8:	010e1e13          	slli	t3,t3,0x10
    79cc:	410e5e13          	srai	t3,t3,0x10
    79d0:	f54fe06f          	j	6124 <.L220>

000079d4 <.L854>:
    79d4:	00e15c03          	lhu	s8,14(sp)
    79d8:	003c0c13          	addi	s8,s8,3
    79dc:	01811723          	sh	s8,14(sp)
    79e0:	e30f906f          	j	1010 <.L846>

000079e4 <.L2183>:
    79e4:	03c00693          	li	a3,60
    79e8:	00f6d463          	bge	a3,a5,79f0 <.L2183+0xc>
    79ec:	dd5fd06f          	j	57c0 <.L2185>
    79f0:	00e15683          	lhu	a3,14(sp)
    79f4:	fff68693          	addi	a3,a3,-1
    79f8:	01069693          	slli	a3,a3,0x10
    79fc:	4106d693          	srai	a3,a3,0x10
    7a00:	ec8fb06f          	j	30c8 <.L2182>

00007a04 <.L1797>:
    7a04:	27600c13          	li	s8,630
    7a08:	009c5463          	bge	s8,s1,7a10 <.L1797+0xc>
    7a0c:	63c0306f          	j	b048 <.L1804>
    7a10:	00c15c03          	lhu	s8,12(sp)
    7a14:	ff9c0c13          	addi	s8,s8,-7
    7a18:	01811623          	sh	s8,12(sp)
    7a1c:	88cfb06f          	j	2aa8 <.L1807>

00007a20 <.L1234>:
    7a20:	04700c13          	li	s8,71
    7a24:	007c5463          	bge	s8,t2,7a2c <.L1234+0xc>
    7a28:	7b50106f          	j	99dc <.L1242>
    7a2c:	00c15c03          	lhu	s8,12(sp)
    7a30:	ffcc0c13          	addi	s8,s8,-4
    7a34:	010c1c13          	slli	s8,s8,0x10
    7a38:	410c5c13          	srai	s8,s8,0x10
    7a3c:	84dfa06f          	j	2288 <.L1239>

00007a40 <.L625>:
    7a40:	00a15c03          	lhu	s8,10(sp)
    7a44:	08900c93          	li	s9,137
    7a48:	fffc0c13          	addi	s8,s8,-1
    7a4c:	01811523          	sh	s8,10(sp)
    7a50:	00dcc463          	blt	s9,a3,7a58 <.L2582>
    7a54:	c31fe06f          	j	6684 <.L626>

00007a58 <.L2582>:
    7a58:	e9b00c13          	li	s8,-357
    7a5c:	018ac463          	blt	s5,s8,7a64 <.L624>
    7a60:	0300106f          	j	8a90 <.L622>

00007a64 <.L624>:
    7a64:	00c15c03          	lhu	s8,12(sp)
    7a68:	008c0c13          	addi	s8,s8,8
    7a6c:	010c1c13          	slli	s8,s8,0x10
    7a70:	410c5c13          	srai	s8,s8,0x10
    7a74:	c39fe06f          	j	66ac <.L623>

00007a78 <.L1126>:
    7a78:	00815c03          	lhu	s8,8(sp)
    7a7c:	03300c93          	li	s9,51
    7a80:	fffc0c13          	addi	s8,s8,-1
    7a84:	01811423          	sh	s8,8(sp)
    7a88:	01fcd463          	bge	s9,t6,7a90 <.L1128>
    7a8c:	e50fa06f          	j	20dc <.L1129>

00007a90 <.L1128>:
    7a90:	32100c13          	li	s8,801
    7a94:	00dc5463          	bge	s8,a3,7a9c <.L1128+0xc>
    7a98:	4900306f          	j	af28 <.L1134>
    7a9c:	00a15c03          	lhu	s8,10(sp)
    7aa0:	ff6c0c13          	addi	s8,s8,-10
    7aa4:	010c1c13          	slli	s8,s8,0x10
    7aa8:	410c5c13          	srai	s8,s8,0x10
    7aac:	9b9f906f          	j	1464 <.L1133>

00007ab0 <.L1202>:
    7ab0:	f0100c13          	li	s8,-255
    7ab4:	0182d463          	bge	t0,s8,7abc <.L1202+0xc>
    7ab8:	c60fd06f          	j	4f18 <.L1210>
    7abc:	00400c13          	li	s8,4
    7ac0:	011c4463          	blt	s8,a7,7ac8 <.L2607>
    7ac4:	c6cfd06f          	j	4f30 <.L1208>

00007ac8 <.L2607>:
    7ac8:	00e00c13          	li	s8,14
    7acc:	01dc4463          	blt	s8,t4,7ad4 <.L1216>
    7ad0:	f08fc06f          	j	41d8 <.L1217>

00007ad4 <.L1216>:
    7ad4:	0ac00c13          	li	s8,172
    7ad8:	01ec5463          	bge	s8,t5,7ae0 <.L1218>
    7adc:	f5cfa06f          	j	2238 <.L1209>

00007ae0 <.L1218>:
    7ae0:	00815c03          	lhu	s8,8(sp)
    7ae4:	03500c93          	li	s9,53
    7ae8:	007c0c13          	addi	s8,s8,7
    7aec:	01811423          	sh	s8,8(sp)
    7af0:	00ecc463          	blt	s9,a4,7af8 <.L2608>
    7af4:	ac5f906f          	j	15b8 <.L1214>

00007af8 <.L2608>:
    7af8:	0e100c13          	li	s8,225
    7afc:	00dc4463          	blt	s8,a3,7b04 <.L1220>
    7b00:	f4cfa06f          	j	224c <.L1219>

00007b04 <.L1220>:
    7b04:	00a15c03          	lhu	s8,10(sp)
    7b08:	ffbc0c13          	addi	s8,s8,-5
    7b0c:	01811523          	sh	s8,10(sp)

00007b10 <.L1233>:
    7b10:	0c100c13          	li	s8,193
    7b14:	009c4463          	blt	s8,s1,7b1c <.L1233+0xc>
    7b18:	ac9f906f          	j	15e0 <.L1227>
    7b1c:	f6900c13          	li	s8,-151
    7b20:	f185d0e3          	bge	a1,s8,7a20 <.L1234>
    7b24:	27a00c13          	li	s8,634
    7b28:	00dc4463          	blt	s8,a3,7b30 <.L1233+0x20>
    7b2c:	f4cfa06f          	j	2278 <.L1229>
    7b30:	00c15c03          	lhu	s8,12(sp)
    7b34:	004c0c13          	addi	s8,s8,4
    7b38:	010c1c13          	slli	s8,s8,0x10
    7b3c:	410c5c13          	srai	s8,s8,0x10
    7b40:	f48fa06f          	j	2288 <.L1239>

00007b44 <.L1939>:
    7b44:	fd600c13          	li	s8,-42
    7b48:	01874463          	blt	a4,s8,7b50 <.L1939+0xc>
    7b4c:	50c0306f          	j	b058 <.L1941>
    7b50:	00815c03          	lhu	s8,8(sp)
    7b54:	005c0c13          	addi	s8,s8,5
    7b58:	01811423          	sh	s8,8(sp)
    7b5c:	990fb06f          	j	2cec <.L1940>

00007b60 <.L1561>:
    7b60:	4b400c13          	li	s8,1204
    7b64:	00ec5463          	bge	s8,a4,7b6c <.L1561+0xc>
    7b68:	3840306f          	j	aeec <.L1565>
    7b6c:	00a15c03          	lhu	s8,10(sp)
    7b70:	10b00c93          	li	s9,267
    7b74:	ffdc0c13          	addi	s8,s8,-3
    7b78:	01811523          	sh	s8,10(sp)
    7b7c:	00dcd463          	bge	s9,a3,7b84 <.L1561+0x24>
    7b80:	b99fa06f          	j	2718 <.L1567>
    7b84:	06a00c13          	li	s8,106
    7b88:	02ec5263          	bge	s8,a4,7bac <.L1572>

00007b8c <.L1559>:
    7b8c:	02800c13          	li	s8,40
    7b90:	006c5463          	bge	s8,t1,7b98 <.L1559+0xc>
    7b94:	3740306f          	j	af08 <.L1574>
    7b98:	00c15c03          	lhu	s8,12(sp)
    7b9c:	005c0c13          	addi	s8,s8,5
    7ba0:	010c1c13          	slli	s8,s8,0x10
    7ba4:	410c5c13          	srai	s8,s8,0x10
    7ba8:	b99fa06f          	j	2740 <.L1573>

00007bac <.L1572>:
    7bac:	00c15c03          	lhu	s8,12(sp)
    7bb0:	004c0c13          	addi	s8,s8,4
    7bb4:	010c1c13          	slli	s8,s8,0x10
    7bb8:	410c5c13          	srai	s8,s8,0x10
    7bbc:	b85fa06f          	j	2740 <.L1573>

00007bc0 <.L1640>:
    7bc0:	01200c13          	li	s8,18
    7bc4:	01dc4463          	blt	s8,t4,7bcc <.L1640+0xc>
    7bc8:	fb9fe06f          	j	6b80 <.L2925>
    7bcc:	00a15c03          	lhu	s8,10(sp)
    7bd0:	00100c93          	li	s9,1
    7bd4:	002c0c13          	addi	s8,s8,2
    7bd8:	01811523          	sh	s8,10(sp)
    7bdc:	01ccc463          	blt	s9,t3,7be4 <.L1679>
    7be0:	3300406f          	j	bf10 <.L1678>

00007be4 <.L1679>:
    7be4:	02000c13          	li	s8,32
    7be8:	01dc4463          	blt	s8,t4,7bf0 <.L1679+0xc>
    7bec:	c95fa06f          	j	2880 <.L1658>
    7bf0:	00c15c03          	lhu	s8,12(sp)
    7bf4:	ff600c93          	li	s9,-10
    7bf8:	ffbc0c13          	addi	s8,s8,-5
    7bfc:	01811623          	sh	s8,12(sp)
    7c00:	01965463          	bge	a2,s9,7c08 <.L1679+0x24>
    7c04:	ca1fa06f          	j	28a4 <.L1681>
    7c08:	d04fd06f          	j	510c <.L1682>

00007c0c <.L1224>:
    7c0c:	ffe00c13          	li	s8,-2
    7c10:	f18650e3          	bge	a2,s8,7b10 <.L1233>
    7c14:	00a15c03          	lhu	s8,10(sp)
    7c18:	ff7c0c13          	addi	s8,s8,-9
    7c1c:	01811523          	sh	s8,10(sp)
    7c20:	ef1ff06f          	j	7b10 <.L1233>

00007c24 <.L2869>:
    7c24:	00700c13          	li	s8,7
    7c28:	01cc5463          	bge	s8,t3,7c30 <.L2869+0xc>
    7c2c:	7390106f          	j	9b64 <.L1262>
    7c30:	00815c03          	lhu	s8,8(sp)
    7c34:	08c00c93          	li	s9,140
    7c38:	ffdc0c13          	addi	s8,s8,-3
    7c3c:	01811423          	sh	s8,8(sp)
    7c40:	006cc463          	blt	s9,t1,7c48 <.L2869+0x24>
    7c44:	e98fa06f          	j	22dc <.L1249>
    7c48:	01700c13          	li	s8,23
    7c4c:	01dc5463          	bge	s8,t4,7c54 <.L2869+0x30>
    7c50:	0c80406f          	j	bd18 <.L2926>
    7c54:	03300c13          	li	s8,51
    7c58:	00fc4463          	blt	s8,a5,7c60 <.L2869+0x3c>
    7c5c:	a2dfc06f          	j	4688 <.L2735>
    7c60:	a51f906f          	j	16b0 <.L1265>

00007c64 <.L1541>:
    7c64:	02600c13          	li	s8,38
    7c68:	007c5463          	bge	s8,t2,7c70 <.L1541+0xc>
    7c6c:	7bc0206f          	j	a428 <.L1545>
    7c70:	00c15c03          	lhu	s8,12(sp)
    7c74:	01800c93          	li	s9,24
    7c78:	003c0c13          	addi	s8,s8,3
    7c7c:	01811623          	sh	s8,12(sp)
    7c80:	010cd463          	bge	s9,a6,7c88 <.L1536>
    7c84:	82cfc06f          	j	3cb0 <.L1544>

00007c88 <.L1536>:
    7c88:	12700c13          	li	s8,295
    7c8c:	e96c5e63          	bge	s8,s6,7328 <.L1546>

00007c90 <.L1534>:
    7c90:	00e15c03          	lhu	s8,14(sp)
    7c94:	ffcc0c13          	addi	s8,s8,-4
    7c98:	01811723          	sh	s8,14(sp)
    7c9c:	a09fa06f          	j	26a4 <.L1538>

00007ca0 <.L1897>:
    7ca0:	1a500c13          	li	s8,421
    7ca4:	007c5463          	bge	s8,t2,7cac <.L1897+0xc>
    7ca8:	d5dfc06f          	j	4a04 <.L1898>
    7cac:	00e15c03          	lhu	s8,14(sp)
    7cb0:	001c0c13          	addi	s8,s8,1
    7cb4:	010c1c13          	slli	s8,s8,0x10
    7cb8:	410c5c13          	srai	s8,s8,0x10
    7cbc:	f4dfa06f          	j	2c08 <.L1896>

00007cc0 <.L2871>:
    7cc0:	ff600c13          	li	s8,-10
    7cc4:	01874463          	blt	a4,s8,7ccc <.L2871+0xc>
    7cc8:	1650206f          	j	a62c <.L1396>
    7ccc:	00a15c03          	lhu	s8,10(sp)
    7cd0:	00100c93          	li	s9,1
    7cd4:	002c0c13          	addi	s8,s8,2
    7cd8:	01811523          	sh	s8,10(sp)
    7cdc:	01ccd463          	bge	s9,t3,7ce4 <.L2871+0x24>
    7ce0:	f78fa06f          	j	2458 <.L1395>
    7ce4:	01100c13          	li	s8,17
    7ce8:	691c52e3          	bge	s8,a7,8b6c <.L1394>

00007cec <.L1404>:
    7cec:	00c15c03          	lhu	s8,12(sp)
    7cf0:	03c00c93          	li	s9,60
    7cf4:	004c0c13          	addi	s8,s8,4
    7cf8:	01811623          	sh	s8,12(sp)
    7cfc:	00fcc463          	blt	s9,a5,7d04 <.L1404+0x18>
    7d00:	a94fc06f          	j	3f94 <.L1402>
    7d04:	0a100c13          	li	s8,161
    7d08:	007c4463          	blt	s8,t2,7d10 <.L1404+0x24>
    7d0c:	1380406f          	j	be44 <.L1406>
    7d10:	01f00c13          	li	s8,31
    7d14:	013c4463          	blt	s8,s3,7d1c <.L1408>
    7d18:	fa0fa06f          	j	24b8 <.L1407>

00007d1c <.L1408>:
    7d1c:	00815c03          	lhu	s8,8(sp)
    7d20:	ff8c0c13          	addi	s8,s8,-8
    7d24:	01811423          	sh	s8,8(sp)
    7d28:	facfa06f          	j	24d4 <.L1423>

00007d2c <.L2612>:
    7d2c:	00c15c03          	lhu	s8,12(sp)
    7d30:	ff8c0c13          	addi	s8,s8,-8
    7d34:	010c1c13          	slli	s8,s8,0x10
    7d38:	410c5c13          	srai	s8,s8,0x10
    7d3c:	01811623          	sh	s8,12(sp)
    7d40:	f3900c13          	li	s8,-199
    7d44:	018a4463          	blt	s4,s8,7d4c <.L2615>
    7d48:	971fc06f          	j	46b8 <.L1298>

00007d4c <.L2615>:
    7d4c:	00e15c03          	lhu	s8,14(sp)
    7d50:	ffe00c93          	li	s9,-2
    7d54:	ff8c0c13          	addi	s8,s8,-8
    7d58:	01811723          	sh	s8,14(sp)
    7d5c:	01985463          	bge	a6,s9,7d64 <.L2615+0x18>
    7d60:	995f906f          	j	16f4 <.L1299>
    7d64:	979fc06f          	j	46dc <.L1300>

00007d68 <.L2802>:
    7d68:	ea700c13          	li	s8,-345
    7d6c:	018a4463          	blt	s4,s8,7d74 <.L2802+0xc>
    7d70:	6e80206f          	j	a458 <.L1284>
    7d74:	00a15c03          	lhu	s8,10(sp)
    7d78:	03300c93          	li	s9,51
    7d7c:	001c0c13          	addi	s8,s8,1
    7d80:	01811523          	sh	s8,10(sp)
    7d84:	00fcd463          	bge	s9,a5,7d8c <.L2802+0x24>
    7d88:	fe1fd06f          	j	5d68 <.L1283>
    7d8c:	00300c13          	li	s8,3
    7d90:	010c4463          	blt	s8,a6,7d98 <.L1290>
    7d94:	7a00106f          	j	9534 <.L2927>

00007d98 <.L1290>:
    7d98:	00c15c03          	lhu	s8,12(sp)
    7d9c:	f3900c93          	li	s9,-199
    7da0:	007c0c13          	addi	s8,s8,7
    7da4:	01811623          	sh	s8,12(sp)
    7da8:	019a5463          	bge	s4,s9,7db0 <.L1290+0x18>
    7dac:	3910306f          	j	b93c <.L2928>
    7db0:	01800c13          	li	s8,24
    7db4:	012c5463          	bge	s8,s2,7dbc <.L2616>
    7db8:	4c50306f          	j	ba7c <.L1312>

00007dbc <.L2616>:
    7dbc:	00e15c03          	lhu	s8,14(sp)
    7dc0:	ff8c0c13          	addi	s8,s8,-8
    7dc4:	01811723          	sh	s8,14(sp)
    7dc8:	915fc06f          	j	46dc <.L1300>

00007dcc <.L410>:
    7dcc:	00c15c03          	lhu	s8,12(sp)
    7dd0:	008c0c13          	addi	s8,s8,8
    7dd4:	010c1c13          	slli	s8,s8,0x10
    7dd8:	410c5c13          	srai	s8,s8,0x10
    7ddc:	b3df806f          	j	918 <.L403>

00007de0 <.L408>:
    7de0:	03b00c13          	li	s8,59
    7de4:	feec54e3          	bge	s8,a4,7dcc <.L410>
    7de8:	00c15c03          	lhu	s8,12(sp)
    7dec:	ff7c0c13          	addi	s8,s8,-9
    7df0:	010c1c13          	slli	s8,s8,0x10
    7df4:	410c5c13          	srai	s8,s8,0x10
    7df8:	b21f806f          	j	918 <.L403>

00007dfc <.L1325>:
    7dfc:	02500c13          	li	s8,37
    7e00:	01cc5463          	bge	s8,t3,7e08 <.L1325+0xc>
    7e04:	9b8fe06f          	j	5fbc <.L1350>
    7e08:	00a15c03          	lhu	s8,10(sp)
    7e0c:	02a00c93          	li	s9,42
    7e10:	009c0c13          	addi	s8,s8,9
    7e14:	01811523          	sh	s8,10(sp)
    7e18:	00dcd463          	bge	s9,a3,7e20 <.L1325+0x24>
    7e1c:	921f906f          	j	173c <.L1327>
    7e20:	fba00c13          	li	s8,-70
    7e24:	fb85c263          	blt	a1,s8,75c8 <.L1336>

00007e28 <.L1358>:
    7e28:	00c15c03          	lhu	s8,12(sp)
    7e2c:	03600c93          	li	s9,54
    7e30:	00dc0c13          	addi	s8,s8,13
    7e34:	01811623          	sh	s8,12(sp)
    7e38:	fafcda63          	bge	s9,a5,75ec <.L1352>
    7e3c:	d88fa06f          	j	23c4 <.L1355>

00007e40 <.L688>:
    7e40:	1ab00c13          	li	s8,427
    7e44:	007c5463          	bge	s8,t2,7e4c <.L688+0xc>
    7e48:	be9f906f          	j	1a30 <.L2268>
    7e4c:	00a15c03          	lhu	s8,10(sp)
    7e50:	ff7c0c13          	addi	s8,s8,-9
    7e54:	01811523          	sh	s8,10(sp)
    7e58:	01000c13          	li	s8,16
    7e5c:	01dc4463          	blt	s8,t4,7e64 <.L704>
    7e60:	bddf906f          	j	1a3c <.L2929>

00007e64 <.L704>:
    7e64:	eb900c13          	li	s8,-327
    7e68:	018a4463          	blt	s4,s8,7e70 <.L704+0xc>
    7e6c:	6f10106f          	j	9d5c <.L707>
    7e70:	00c15c03          	lhu	s8,12(sp)
    7e74:	002c0c13          	addi	s8,s8,2
    7e78:	010c1c13          	slli	s8,s8,0x10
    7e7c:	410c5c13          	srai	s8,s8,0x10
    7e80:	f95f806f          	j	e14 <.L706>

00007e84 <.L1110>:
    7e84:	00c15c03          	lhu	s8,12(sp)
    7e88:	e4a00c93          	li	s9,-438
    7e8c:	ffac0c13          	addi	s8,s8,-6
    7e90:	01811623          	sh	s8,12(sp)
    7e94:	0192c463          	blt	t0,s9,7e9c <.L1110+0x18>
    7e98:	9e4fa06f          	j	207c <.L1112>
    7e9c:	d68fd06f          	j	5404 <.L1115>

00007ea0 <.L1103>:
    7ea0:	1a300c13          	li	s8,419
    7ea4:	007c5463          	bge	s8,t2,7eac <.L1103+0xc>
    7ea8:	d2cf906f          	j	13d4 <.L1108>
    7eac:	00c15c03          	lhu	s8,12(sp)
    7eb0:	ff7c0c13          	addi	s8,s8,-9
    7eb4:	01811623          	sh	s8,12(sp)
    7eb8:	d1cf906f          	j	13d4 <.L1108>

00007ebc <.L1368>:
    7ebc:	fa100c13          	li	s8,-95
    7ec0:	01828463          	beq	t0,s8,7ec8 <.L1368+0xc>
    7ec4:	945fc06f          	j	4808 <.L1375>
    7ec8:	00815c03          	lhu	s8,8(sp)
    7ecc:	03900c93          	li	s9,57
    7ed0:	feac0c13          	addi	s8,s8,-22
    7ed4:	01811423          	sh	s8,8(sp)
    7ed8:	006cd463          	bge	s9,t1,7ee0 <.L1368+0x24>
    7edc:	88cfc06f          	j	3f68 <.L2621>
    7ee0:	93dfc06f          	j	481c <.L1371>

00007ee4 <.L1237>:
    7ee4:	fa800c13          	li	s8,-88
    7ee8:	01844463          	blt	s0,s8,7ef0 <.L1237+0xc>
    7eec:	3d10106f          	j	9abc <.L1240>
    7ef0:	00c15c03          	lhu	s8,12(sp)
    7ef4:	016c0c13          	addi	s8,s8,22
    7ef8:	010c1c13          	slli	s8,s8,0x10
    7efc:	410c5c13          	srai	s8,s8,0x10
    7f00:	b88fa06f          	j	2288 <.L1239>

00007f04 <.L393>:
    7f04:	16600c13          	li	s8,358
    7f08:	007c5463          	bge	s8,t2,7f10 <.L393+0xc>
    7f0c:	4910106f          	j	9b9c <.L396>
    7f10:	00815c03          	lhu	s8,8(sp)
    7f14:	ffec0c13          	addi	s8,s8,-2
    7f18:	010c1c13          	slli	s8,s8,0x10
    7f1c:	410c5c13          	srai	s8,s8,0x10
    7f20:	01811423          	sh	s8,8(sp)
    7f24:	0b500c13          	li	s8,181
    7f28:	006c4463          	blt	s8,t1,7f30 <.L397>
    7f2c:	cbcfb06f          	j	33e8 <.L2930>

00007f30 <.L397>:
    7f30:	e2700c13          	li	s8,-473
    7f34:	01844463          	blt	s0,s8,7f3c <.L397+0xc>
    7f38:	981fe06f          	j	68b8 <.L386>
    7f3c:	36200c13          	li	s8,866
    7f40:	01ec4463          	blt	s8,t5,7f48 <.L397+0x18>
    7f44:	925fe06f          	j	6868 <.L389>
    7f48:	00a15c03          	lhu	s8,10(sp)
    7f4c:	009c0c13          	addi	s8,s8,9
    7f50:	010c1c13          	slli	s8,s8,0x10
    7f54:	410c5c13          	srai	s8,s8,0x10
    7f58:	989f806f          	j	8e0 <.L383>

00007f5c <.L1705>:
    7f5c:	00815c03          	lhu	s8,8(sp)
    7f60:	03b00c93          	li	s9,59
    7f64:	ff8c0c13          	addi	s8,s8,-8
    7f68:	01811423          	sh	s8,8(sp)
    7f6c:	00fcc463          	blt	s9,a5,7f74 <.L1707>
    7f70:	870fd06f          	j	4fe0 <.L1711>

00007f74 <.L1707>:
    7f74:	f0100c13          	li	s8,-255
    7f78:	018ac463          	blt	s5,s8,7f80 <.L1707+0xc>
    7f7c:	37d0106f          	j	9af8 <.L1723>
    7f80:	00a15c03          	lhu	s8,10(sp)
    7f84:	003c0c13          	addi	s8,s8,3
    7f88:	010c1c13          	slli	s8,s8,0x10
    7f8c:	410c5c13          	srai	s8,s8,0x10
    7f90:	98dfa06f          	j	291c <.L1720>

00007f94 <.L1146>:
    7f94:	f0600c13          	li	s8,-250
    7f98:	018ac463          	blt	s5,s8,7fa0 <.L1146+0xc>
    7f9c:	7640106f          	j	9700 <.L1149>
    7fa0:	00e15c03          	lhu	s8,14(sp)
    7fa4:	ffac0c13          	addi	s8,s8,-6
    7fa8:	010c1c13          	slli	s8,s8,0x10
    7fac:	410c5c13          	srai	s8,s8,0x10
    7fb0:	d1cf906f          	j	14cc <.L1148>

00007fb4 <.L1713>:
    7fb4:	25b00c13          	li	s8,603
    7fb8:	00ec5463          	bge	s8,a4,7fc0 <.L1713+0xc>
    7fbc:	43c0206f          	j	a3f8 <.L1716>
    7fc0:	00815c03          	lhu	s8,8(sp)
    7fc4:	001c0c13          	addi	s8,s8,1
    7fc8:	010c1c13          	slli	s8,s8,0x10
    7fcc:	010c5c13          	srli	s8,s8,0x10

00007fd0 <.L1717>:
    7fd0:	01811423          	sh	s8,8(sp)
    7fd4:	ec100c13          	li	s8,-319
    7fd8:	f9844ee3          	blt	s0,s8,7f74 <.L1707>
    7fdc:	07500c13          	li	s8,117
    7fe0:	00dc5463          	bge	s8,a3,7fe8 <.L1717+0x18>
    7fe4:	db5fc06f          	j	4d98 <.L1724>
    7fe8:	00a15c03          	lhu	s8,10(sp)
    7fec:	fffc0c13          	addi	s8,s8,-1
    7ff0:	010c1c13          	slli	s8,s8,0x10
    7ff4:	410c5c13          	srai	s8,s8,0x10
    7ff8:	925fa06f          	j	291c <.L1720>

00007ffc <.L2013>:
    7ffc:	00e15c03          	lhu	s8,14(sp)
    8000:	001c0c13          	addi	s8,s8,1
    8004:	010c1c13          	slli	s8,s8,0x10
    8008:	410c5c13          	srai	s8,s8,0x10
    800c:	e09fa06f          	j	2e14 <.L2014>

00008010 <.L2019>:
    8010:	00815c83          	lhu	s9,8(sp)
    8014:	0f000d13          	li	s10,240
    8018:	002c8c93          	addi	s9,s9,2
    801c:	01911423          	sh	s9,8(sp)
    8020:	006d4463          	blt	s10,t1,8028 <.L2019+0x18>
    8024:	a5cfc06f          	j	4280 <.L2028>
    8028:	f5200c93          	li	s9,-174
    802c:	0595d863          	bge	a1,s9,807c <.L2025>
    8030:	00a15c83          	lhu	s9,10(sp)
    8034:	01500d13          	li	s10,21
    8038:	004c8c93          	addi	s9,s9,4
    803c:	01911523          	sh	s9,10(sp)
    8040:	010d5463          	bge	s10,a6,8048 <.L2039>
    8044:	5ed0106f          	j	9e30 <.L2931>

00008048 <.L2039>:
    8048:	00c15c03          	lhu	s8,12(sp)
    804c:	ffbc0c13          	addi	s8,s8,-5
    8050:	010c1c13          	slli	s8,s8,0x10
    8054:	410c5c13          	srai	s8,s8,0x10
    8058:	e3dfa06f          	j	2e94 <.L2042>

0000805c <.L2026>:
    805c:	01c51c83          	lh	s9,28(a0)
    8060:	03400c13          	li	s8,52
    8064:	019c4463          	blt	s8,s9,806c <.L2027>
    8068:	dd5fa06f          	j	2e3c <.L2020>

0000806c <.L2027>:
    806c:	00815c03          	lhu	s8,8(sp)
    8070:	005c0c13          	addi	s8,s8,5
    8074:	01811423          	sh	s8,8(sp)
    8078:	dc5fa06f          	j	2e3c <.L2020>

0000807c <.L2025>:
    807c:	21200c13          	li	s8,530
    8080:	006c5463          	bge	s8,t1,8088 <.L2025+0xc>
    8084:	3500206f          	j	a3d4 <.L2041>
    8088:	00a15c03          	lhu	s8,10(sp)
    808c:	ff8c0c13          	addi	s8,s8,-8
    8090:	01811523          	sh	s8,10(sp)
    8094:	bc0fd06f          	j	5454 <.L2036>

00008098 <.L2792>:
    8098:	0b900c13          	li	s8,185
    809c:	012c5463          	bge	s8,s2,80a4 <.L2792+0xc>
    80a0:	cc5f906f          	j	1d64 <.L907>
    80a4:	838f906f          	j	10dc <.L2595>

000080a8 <.L2015>:
    80a8:	01600c13          	li	s8,22
    80ac:	010c5463          	bge	s8,a6,80b4 <.L2015+0xc>
    80b0:	2210106f          	j	9ad0 <.L2017>
    80b4:	00e15c03          	lhu	s8,14(sp)
    80b8:	fffc0c13          	addi	s8,s8,-1
    80bc:	010c1c13          	slli	s8,s8,0x10
    80c0:	410c5c13          	srai	s8,s8,0x10
    80c4:	d51fa06f          	j	2e14 <.L2014>

000080c8 <.L2008>:
    80c8:	00c15c03          	lhu	s8,12(sp)
    80cc:	006c0c13          	addi	s8,s8,6
    80d0:	01811623          	sh	s8,12(sp)
    80d4:	d19fa06f          	j	2dec <.L2009>

000080d8 <.L1875>:
    80d8:	ea700c13          	li	s8,-345
    80dc:	0182c463          	blt	t0,s8,80e4 <.L1875+0xc>
    80e0:	addfa06f          	j	2bbc <.L1879>
    80e4:	00a15c03          	lhu	s8,10(sp)
    80e8:	007c0c13          	addi	s8,s8,7
    80ec:	01811523          	sh	s8,10(sp)
    80f0:	acdfa06f          	j	2bbc <.L1879>

000080f4 <.L2880>:
    80f4:	3b500c13          	li	s8,949
    80f8:	00ec5463          	bge	s8,a4,8100 <.L2880+0xc>
    80fc:	8ecfc06f          	j	41e8 <.L2003>
    8100:	00a15c03          	lhu	s8,10(sp)
    8104:	ff8c0c13          	addi	s8,s8,-8
    8108:	01811523          	sh	s8,10(sp)
    810c:	cb1fa06f          	j	2dbc <.L1998>

00008110 <.L1588>:
    8110:	00815c83          	lhu	s9,8(sp)
    8114:	ff8c8c93          	addi	s9,s9,-8
    8118:	01911423          	sh	s9,8(sp)
    811c:	e84fa06f          	j	27a0 <.L1583>

00008120 <.L1942>:
    8120:	04100c13          	li	s8,65
    8124:	00dc5463          	bge	s8,a3,812c <.L1942+0xc>
    8128:	4f90206f          	j	ae20 <.L1943>
    812c:	00815c03          	lhu	s8,8(sp)
    8130:	006c0c13          	addi	s8,s8,6
    8134:	01811423          	sh	s8,8(sp)
    8138:	bb5fa06f          	j	2cec <.L1940>

0000813c <.L1582>:
    813c:	e0d00c93          	li	s9,-499
    8140:	539ad663          	bge	s5,s9,866c <.L1584>
    8144:	00815c83          	lhu	s9,8(sp)
    8148:	e2c00d13          	li	s10,-468
    814c:	ffbc8c93          	addi	s9,s9,-5
    8150:	01911423          	sh	s9,8(sp)
    8154:	01a2d463          	bge	t0,s10,815c <.L1585>
    8158:	c4dfb06f          	j	3da4 <.L1589>

0000815c <.L1585>:
    815c:	fff00c13          	li	s8,-1
    8160:	01865463          	bge	a2,s8,8168 <.L1585+0xc>
    8164:	1f40306f          	j	b358 <.L2932>
    8168:	00a15c03          	lhu	s8,10(sp)
    816c:	03c00c93          	li	s9,60
    8170:	004c0c13          	addi	s8,s8,4
    8174:	01811523          	sh	s8,10(sp)
    8178:	00fcd463          	bge	s9,a5,8180 <.L1585+0x24>
    817c:	e68fa06f          	j	27e4 <.L1614>
    8180:	00f00c13          	li	s8,15
    8184:	030c4663          	blt	s8,a6,81b0 <.L1615>

00008188 <.L1605>:
    8188:	f6300c13          	li	s8,-157
    818c:	0185c463          	blt	a1,s8,8194 <.L1605+0xc>
    8190:	0e80306f          	j	b278 <.L2933>
    8194:	00c15c03          	lhu	s8,12(sp)
    8198:	00300c93          	li	s9,3
    819c:	ffcc0c13          	addi	s8,s8,-4
    81a0:	01811623          	sh	s8,12(sp)
    81a4:	01ccc463          	blt	s9,t3,81ac <.L1605+0x24>
    81a8:	c5dfb06f          	j	3e04 <.L1620>
    81ac:	89dfd06f          	j	5a48 <.L1619>

000081b0 <.L1615>:
    81b0:	00c15c03          	lhu	s8,12(sp)
    81b4:	00300c93          	li	s9,3
    81b8:	ff9c0c13          	addi	s8,s8,-7
    81bc:	01811623          	sh	s8,12(sp)
    81c0:	01ccc463          	blt	s9,t3,81c8 <.L1615+0x18>
    81c4:	c41fb06f          	j	3e04 <.L1620>
    81c8:	881fd06f          	j	5a48 <.L1619>

000081cc <.L42>:
    81cc:	f4100e13          	li	t3,-191
    81d0:	01c2c463          	blt	t0,t3,81d8 <.L42+0xc>
    81d4:	0950106f          	j	9a68 <.L50>
    81d8:	00a15e03          	lhu	t3,10(sp)
    81dc:	014e0e13          	addi	t3,t3,20
    81e0:	010e1e13          	slli	t3,t3,0x10
    81e4:	410e5e13          	srai	t3,t3,0x10
    81e8:	fb9f706f          	j	1a0 <.L51>

000081ec <.L2251>:
    81ec:	e1500793          	li	a5,-491
    81f0:	00f45463          	bge	s0,a5,81f8 <.L2251+0xc>
    81f4:	824fb06f          	j	3218 <.L2250>
    81f8:	00e15783          	lhu	a5,14(sp)
    81fc:	ff778793          	addi	a5,a5,-9
    8200:	00f11723          	sh	a5,14(sp)
    8204:	814fb06f          	j	3218 <.L2250>

00008208 <.L1578>:
    8208:	00e15c83          	lhu	s9,14(sp)
    820c:	fffc8c93          	addi	s9,s9,-1
    8210:	01911723          	sh	s9,14(sp)
    8214:	d60fa06f          	j	2774 <.L1579>

00008218 <.L1577>:
    8218:	00e15c83          	lhu	s9,14(sp)
    821c:	003c8c93          	addi	s9,s9,3
    8220:	01911723          	sh	s9,14(sp)
    8224:	d50fa06f          	j	2774 <.L1579>

00008228 <.L1708>:
    8228:	01c51c83          	lh	s9,28(a0)
    822c:	03500c13          	li	s8,53
    8230:	019c5463          	bge	s8,s9,8238 <.L1708+0x10>
    8234:	5090206f          	j	af3c <.L1719>
    8238:	00a15c03          	lhu	s8,10(sp)
    823c:	001c0c13          	addi	s8,s8,1
    8240:	010c1c13          	slli	s8,s8,0x10
    8244:	410c5c13          	srai	s8,s8,0x10
    8248:	ed4fa06f          	j	291c <.L1720>

0000824c <.L1957>:
    824c:	4afc58e3          	bge	s8,a5,8efc <.L1949>
    8250:	daa00c13          	li	s8,-598
    8254:	018ad463          	bge	s5,s8,825c <.L1957+0x10>
    8258:	7ac0306f          	j	ba04 <.L2934>
    825c:	f0000c13          	li	s8,-256
    8260:	0185c463          	blt	a1,s8,8268 <.L1985>
    8264:	7ac0306f          	j	ba10 <.L2655>

00008268 <.L1985>:
    8268:	00c15c03          	lhu	s8,12(sp)
    826c:	05800c93          	li	s9,88
    8270:	ffac0c13          	addi	s8,s8,-6
    8274:	01811623          	sh	s8,12(sp)
    8278:	009cd463          	bge	s9,s1,8280 <.L1981>
    827c:	ae5fa06f          	j	2d60 <.L1983>

00008280 <.L1981>:
    8280:	f5300c13          	li	s8,-173
    8284:	01844463          	blt	s0,s8,828c <.L1981+0xc>
    8288:	af1fa06f          	j	2d78 <.L1967>
    828c:	00e15c03          	lhu	s8,14(sp)
    8290:	00ec0c13          	addi	s8,s8,14
    8294:	01811723          	sh	s8,14(sp)
    8298:	ae1fa06f          	j	2d78 <.L1967>

0000829c <.L2324>:
    829c:	02a51883          	lh	a7,42(a0)

000082a0 <.L58>:
    82a0:	df800e13          	li	t3,-520
    82a4:	01cac463          	blt	s5,t3,82ac <.L58+0xc>
    82a8:	af8fe06f          	j	65a0 <.L64>
    82ac:	00c15e03          	lhu	t3,12(sp)
    82b0:	016e0e13          	addi	t3,t3,22
    82b4:	010e1e13          	slli	t3,t3,0x10
    82b8:	410e5e13          	srai	t3,t3,0x10
    82bc:	f19f706f          	j	1d4 <.L65>

000082c0 <.L1972>:
    82c0:	03600c13          	li	s8,54
    82c4:	00fc5463          	bge	s8,a5,82cc <.L1972+0xc>
    82c8:	6610306f          	j	c128 <.L1991>
    82cc:	00e15c03          	lhu	s8,14(sp)
    82d0:	16200c93          	li	s9,354
    82d4:	ff9c0c13          	addi	s8,s8,-7
    82d8:	01811723          	sh	s8,14(sp)
    82dc:	007cd463          	bge	s9,t2,82e4 <.L1968>
    82e0:	87dfc06f          	j	4b5c <.L1994>

000082e4 <.L1968>:
    82e4:	00815c03          	lhu	s8,8(sp)
    82e8:	02e00c93          	li	s9,46
    82ec:	ffec0c13          	addi	s8,s8,-2
    82f0:	01811423          	sh	s8,8(sp)
    82f4:	01dcc463          	blt	s9,t4,82fc <.L1968+0x18>
    82f8:	889fc06f          	j	4b80 <.L1992>
    82fc:	03900c13          	li	s8,57
    8300:	01fc5463          	bge	s8,t6,8308 <.L1997>
    8304:	7540106f          	j	9a58 <.L2005>

00008308 <.L1997>:
    8308:	00e00c13          	li	s8,14
    830c:	010c5463          	bge	s8,a6,8314 <.L1997+0xc>
    8310:	889fc06f          	j	4b98 <.L2501>
    8314:	00a15c03          	lhu	s8,10(sp)
    8318:	004c0c13          	addi	s8,s8,4
    831c:	01811523          	sh	s8,10(sp)
    8320:	a9dfa06f          	j	2dbc <.L1998>

00008324 <.L206>:
    8324:	0fd00e13          	li	t3,253
    8328:	00de5463          	bge	t3,a3,8330 <.L206+0xc>
    832c:	1bd0106f          	j	9ce8 <.L212>
    8330:	00815e03          	lhu	t3,8(sp)
    8334:	08000c13          	li	s8,128
    8338:	ff8e0e13          	addi	t3,t3,-8
    833c:	01c11423          	sh	t3,8(sp)
    8340:	00ec4463          	blt	s8,a4,8348 <.L206+0x24>
    8344:	b50f806f          	j	694 <.L215>
    8348:	bc8fb06f          	j	3710 <.L2557>

0000834c <.L277>:
    834c:	bba00e13          	li	t3,-1094
    8350:	01c5c463          	blt	a1,t3,8358 <.L277+0xc>
    8354:	7400106f          	j	9a94 <.L279>
    8358:	00e15e03          	lhu	t3,14(sp)
    835c:	00de0e13          	addi	t3,t3,13
    8360:	010e1e13          	slli	t3,t3,0x10
    8364:	410e5e13          	srai	t3,t3,0x10
    8368:	bb0f806f          	j	718 <.L275>

0000836c <.L1580>:
    836c:	03600c93          	li	s9,54
    8370:	00fcd463          	bge	s9,a5,8378 <.L1580+0xc>
    8374:	c00fa06f          	j	2774 <.L1579>
    8378:	00e15c83          	lhu	s9,14(sp)
    837c:	ff8c8c93          	addi	s9,s9,-8
    8380:	01911723          	sh	s9,14(sp)
    8384:	bf0fa06f          	j	2774 <.L1579>

00008388 <.L1887>:
    8388:	0fe00c13          	li	s8,254
    838c:	00dc5463          	bge	s8,a3,8394 <.L1887+0xc>
    8390:	da5fc06f          	j	5134 <.L1889>
    8394:	00c15c03          	lhu	s8,12(sp)
    8398:	05800c93          	li	s9,88
    839c:	ffcc0c13          	addi	s8,s8,-4
    83a0:	01811623          	sh	s8,12(sp)
    83a4:	009cd463          	bge	s9,s1,83ac <.L1890>
    83a8:	da5fc06f          	j	514c <.L1883>

000083ac <.L1890>:
    83ac:	f5300c13          	li	s8,-173
    83b0:	01844463          	blt	s0,s8,83b8 <.L1884>
    83b4:	e50fc06f          	j	4a04 <.L1898>

000083b8 <.L1884>:
    83b8:	00e15c03          	lhu	s8,14(sp)
    83bc:	010c0c13          	addi	s8,s8,16
    83c0:	010c1c13          	slli	s8,s8,0x10
    83c4:	410c5c13          	srai	s8,s8,0x10
    83c8:	841fa06f          	j	2c08 <.L1896>

000083cc <.L1557>:
    83cc:	00a15c03          	lhu	s8,10(sp)
    83d0:	10b00c93          	li	s9,267
    83d4:	005c0c13          	addi	s8,s8,5
    83d8:	01811523          	sh	s8,10(sp)
    83dc:	fadcd863          	bge	s9,a3,7b8c <.L1559>

000083e0 <.L2633>:
    83e0:	e8500c13          	li	s8,-379
    83e4:	038acc63          	blt	s5,s8,841c <.L1571>

000083e8 <.L1568>:
    83e8:	00c15c03          	lhu	s8,12(sp)
    83ec:	ff6c0c13          	addi	s8,s8,-10
    83f0:	010c1c13          	slli	s8,s8,0x10
    83f4:	410c5c13          	srai	s8,s8,0x10
    83f8:	b48fa06f          	j	2740 <.L1573>

000083fc <.L1550>:
    83fc:	05500c13          	li	s8,85
    8400:	009c5463          	bge	s8,s1,8408 <.L1550+0xc>
    8404:	1f90206f          	j	adfc <.L1553>
    8408:	00815c03          	lhu	s8,8(sp)
    840c:	ffec0c13          	addi	s8,s8,-2
    8410:	010c1c13          	slli	s8,s8,0x10
    8414:	410c5c13          	srai	s8,s8,0x10
    8418:	ac0fa06f          	j	26d8 <.L1552>

0000841c <.L1571>:
    841c:	01c51c83          	lh	s9,28(a0)
    8420:	00300c13          	li	s8,3
    8424:	019c5463          	bge	s8,s9,842c <.L1571+0x10>
    8428:	7980106f          	j	9bc0 <.L2935>
    842c:	00c15c03          	lhu	s8,12(sp)
    8430:	ffcc0c13          	addi	s8,s8,-4
    8434:	010c1c13          	slli	s8,s8,0x10
    8438:	410c5c13          	srai	s8,s8,0x10
    843c:	b04fa06f          	j	2740 <.L1573>

00008440 <.L2885>:
    8440:	00c15c03          	lhu	s8,12(sp)
    8444:	02700c93          	li	s9,39
    8448:	ffbc0c13          	addi	s8,s8,-5
    844c:	01811623          	sh	s8,12(sp)
    8450:	007cd463          	bge	s9,t2,8458 <.L1761>
    8454:	8c5fc06f          	j	4d18 <.L1762>

00008458 <.L1761>:
    8458:	00e15c03          	lhu	s8,14(sp)
    845c:	002c0c13          	addi	s8,s8,2
    8460:	01811723          	sh	s8,14(sp)
    8464:	dc4fa06f          	j	2a28 <.L1774>

00008468 <.L31>:
    8468:	00c51903          	lh	s2,12(a0)
    846c:	17c00893          	li	a7,380
    8470:	ff600813          	li	a6,-10
    8474:	0128c463          	blt	a7,s2,847c <.L31+0x14>
    8478:	ec1f706f          	j	338 <.L32>
    847c:	00700813          	li	a6,7
    8480:	eb9f706f          	j	338 <.L32>

00008484 <.L668>:
    8484:	fda00c13          	li	s8,-38
    8488:	01874463          	blt	a4,s8,8490 <.L668+0xc>
    848c:	0090106f          	j	9c94 <.L671>
    8490:	00c15c03          	lhu	s8,12(sp)
    8494:	004c0c13          	addi	s8,s8,4
    8498:	01811623          	sh	s8,12(sp)
    849c:	8b1f806f          	j	d4c <.L670>

000084a0 <.L145>:
    84a0:	00d00e13          	li	t3,13
    84a4:	013e5463          	bge	t3,s3,84ac <.L145+0xc>
    84a8:	ad9fe06f          	j	6f80 <.L146>
    84ac:	00815e03          	lhu	t3,8(sp)
    84b0:	ffde0e13          	addi	t3,t3,-3
    84b4:	010e1e13          	slli	t3,t3,0x10
    84b8:	410e5e13          	srai	t3,t3,0x10
    84bc:	93cf806f          	j	5f8 <.L147>

000084c0 <.L1914>:
    84c0:	00a15c03          	lhu	s8,10(sp)
    84c4:	fffc0c13          	addi	s8,s8,-1
    84c8:	01811523          	sh	s8,10(sp)
    84cc:	f8cfa06f          	j	2c58 <.L1913>

000084d0 <.L1135>:
    84d0:	00200c13          	li	s8,2
    84d4:	01cc5463          	bge	s8,t3,84dc <.L1135+0xc>
    84d8:	17c0106f          	j	9654 <.L1137>
    84dc:	00a15c03          	lhu	s8,10(sp)
    84e0:	004c0c13          	addi	s8,s8,4
    84e4:	010c1c13          	slli	s8,s8,0x10
    84e8:	410c5c13          	srai	s8,s8,0x10
    84ec:	f79f806f          	j	1464 <.L1133>

000084f0 <.L1726>:
    84f0:	f6e00c13          	li	s8,-146
    84f4:	0185c463          	blt	a1,s8,84fc <.L1726+0xc>
    84f8:	10d0106f          	j	9e04 <.L1731>
    84fc:	00c15c03          	lhu	s8,12(sp)
    8500:	ff8c0c13          	addi	s8,s8,-8
    8504:	010c1c13          	slli	s8,s8,0x10
    8508:	010c5c13          	srli	s8,s8,0x10
    850c:	01811623          	sh	s8,12(sp)
    8510:	c3cfa06f          	j	294c <.L1730>

00008514 <.L2768>:
    8514:	00c15c03          	lhu	s8,12(sp)
    8518:	0d800c93          	li	s9,216
    851c:	005c0c13          	addi	s8,s8,5
    8520:	01811623          	sh	s8,12(sp)
    8524:	012cd463          	bge	s9,s2,852c <.L1194>
    8528:	83cf906f          	j	1564 <.L1195>

0000852c <.L1194>:
    852c:	0cc00c13          	li	s8,204
    8530:	006c4463          	blt	s8,t1,8538 <.L1194+0xc>
    8534:	cd9f906f          	j	220c <.L1200>
    8538:	00e15c03          	lhu	s8,14(sp)
    853c:	ff9c0c13          	addi	s8,s8,-7
    8540:	cc9f906f          	j	2208 <.L2606>

00008544 <.L373>:
    8544:	ac400c13          	li	s8,-1340
    8548:	0185c463          	blt	a1,s8,8550 <.L373+0xc>
    854c:	915fe06f          	j	6e60 <.L370>
    8550:	00e15c03          	lhu	s8,14(sp)
    8554:	00dc0c13          	addi	s8,s8,13
    8558:	010c1c13          	slli	s8,s8,0x10
    855c:	410c5c13          	srai	s8,s8,0x10
    8560:	b24f806f          	j	884 <.L375>

00008564 <.L404>:
    8564:	00c15c03          	lhu	s8,12(sp)
    8568:	03b00c93          	li	s9,59
    856c:	ff7c0c13          	addi	s8,s8,-9
    8570:	01811623          	sh	s8,12(sp)
    8574:	00fcd463          	bge	s9,a5,857c <.L405>
    8578:	b84fe06f          	j	68fc <.L2569>

0000857c <.L405>:
    857c:	03800c13          	li	s8,56
    8580:	01fc4463          	blt	s8,t6,8588 <.L405+0xc>
    8584:	b80fe06f          	j	6904 <.L406>
    8588:	00e15c03          	lhu	s8,14(sp)
    858c:	ff6c0c13          	addi	s8,s8,-10
    8590:	010c1c13          	slli	s8,s8,0x10
    8594:	410c5c13          	srai	s8,s8,0x10
    8598:	bacf806f          	j	944 <.L412>

0000859c <.L864>:
    859c:	00815c03          	lhu	s8,8(sp)
    85a0:	fffc0c13          	addi	s8,s8,-1
    85a4:	01811423          	sh	s8,8(sp)
    85a8:	a95f806f          	j	103c <.L859>

000085ac <.L1415>:
    85ac:	00e15c03          	lhu	s8,14(sp)
    85b0:	003c0c13          	addi	s8,s8,3
    85b4:	01811723          	sh	s8,14(sp)
    85b8:	ef5f906f          	j	24ac <.L1410>

000085bc <.L422>:
    85bc:	00815c03          	lhu	s8,8(sp)
    85c0:	ff6c0c13          	addi	s8,s8,-10
    85c4:	010c1c13          	slli	s8,s8,0x10
    85c8:	410c5c13          	srai	s8,s8,0x10
    85cc:	bb4f806f          	j	980 <.L420>

000085d0 <.L2083>:
    85d0:	00a15b03          	lhu	s6,10(sp)
    85d4:	02700c13          	li	s8,39
    85d8:	004b0b13          	addi	s6,s6,4
    85dc:	01611523          	sh	s6,10(sp)
    85e0:	046c5663          	bge	s8,t1,862c <.L2084>

000085e4 <.L2512>:
    85e4:	ecb00b13          	li	s6,-309
    85e8:	016ad463          	bge	s5,s6,85f0 <.L2080>
    85ec:	d65fb06f          	j	4350 <.L2086>

000085f0 <.L2080>:
    85f0:	00900b13          	li	s6,9
    85f4:	01db5463          	bge	s6,t4,85fc <.L2080+0xc>
    85f8:	6840206f          	j	ac7c <.L2092>
    85fc:	00c15b03          	lhu	s6,12(sp)
    8600:	005b0b13          	addi	s6,s6,5
    8604:	010b1b13          	slli	s6,s6,0x10
    8608:	410b5b13          	srai	s6,s6,0x10
    860c:	93dfa06f          	j	2f48 <.L2081>

00008610 <.L2077>:
    8610:	ffe00b13          	li	s6,-2
    8614:	fb685ee3          	bge	a6,s6,85d0 <.L2083>
    8618:	00a15b03          	lhu	s6,10(sp)
    861c:	02700c13          	li	s8,39
    8620:	ffab0b13          	addi	s6,s6,-6
    8624:	01611523          	sh	s6,10(sp)
    8628:	fa6c4ee3          	blt	s8,t1,85e4 <.L2512>

0000862c <.L2084>:
    862c:	0c100b13          	li	s6,193
    8630:	009b4463          	blt	s6,s1,8638 <.L2084+0xc>
    8634:	905fa06f          	j	2f38 <.L2091>
    8638:	00c15b03          	lhu	s6,12(sp)
    863c:	00db0b13          	addi	s6,s6,13
    8640:	010b1b13          	slli	s6,s6,0x10
    8644:	410b5b13          	srai	s6,s6,0x10
    8648:	901fa06f          	j	2f48 <.L2081>

0000864c <.L586>:
    864c:	ea900c13          	li	s8,-343
    8650:	7f82d6e3          	bge	t0,s8,963c <.L608>
    8654:	00e15c03          	lhu	s8,14(sp)
    8658:	ffac0c13          	addi	s8,s8,-6
    865c:	010c1c13          	slli	s8,s8,0x10
    8660:	010c5c13          	srli	s8,s8,0x10
    8664:	01811723          	sh	s8,14(sp)
    8668:	dccf806f          	j	c34 <.L607>

0000866c <.L1584>:
    866c:	00815c03          	lhu	s8,8(sp)
    8670:	e2c00c93          	li	s9,-468
    8674:	009c0c13          	addi	s8,s8,9
    8678:	01811423          	sh	s8,8(sp)
    867c:	af92d0e3          	bge	t0,s9,815c <.L1585>

00008680 <.L1587>:
    8680:	16900c13          	li	s8,361
    8684:	7fec40e3          	blt	s8,t5,9664 <.L1607>
    8688:	00a15c03          	lhu	s8,10(sp)
    868c:	03c00c93          	li	s9,60
    8690:	fffc0c13          	addi	s8,s8,-1
    8694:	01811523          	sh	s8,10(sp)
    8698:	00fcc463          	blt	s9,a5,86a0 <.L2713>
    869c:	b7cfd06f          	j	5a18 <.L1603>

000086a0 <.L2713>:
    86a0:	ec100c13          	li	s8,-319
    86a4:	01845463          	bge	s0,s8,86ac <.L2713+0xc>
    86a8:	5e80206f          	j	ac90 <.L1593>
    86ac:	00c15c03          	lhu	s8,12(sp)
    86b0:	00300c93          	li	s9,3
    86b4:	006c0c13          	addi	s8,s8,6
    86b8:	01811623          	sh	s8,12(sp)
    86bc:	11ccc2e3          	blt	s9,t3,8fc0 <.L1595>

000086c0 <.L1594>:
    86c0:	0c100c13          	li	s8,193
    86c4:	012c4463          	blt	s8,s2,86cc <.L1594+0xc>
    86c8:	94cfa06f          	j	2814 <.L1634>
    86cc:	00e15c03          	lhu	s8,14(sp)
    86d0:	007c0c13          	addi	s8,s8,7
    86d4:	01811723          	sh	s8,14(sp)
    86d8:	f44fb06f          	j	3e1c <.L1627>

000086dc <.L946>:
    86dc:	01c51c83          	lh	s9,28(a0)
    86e0:	01900c13          	li	s8,25
    86e4:	019c4463          	blt	s8,s9,86ec <.L946+0x10>
    86e8:	fecfe06f          	j	6ed4 <.L952>
    86ec:	00815c03          	lhu	s8,8(sp)
    86f0:	00dc0c13          	addi	s8,s8,13
    86f4:	010c1c13          	slli	s8,s8,0x10
    86f8:	410c5c13          	srai	s8,s8,0x10
    86fc:	f2cf906f          	j	1e28 <.L948>

00008700 <.L2126>:
    8700:	ff800b13          	li	s6,-8
    8704:	01694463          	blt	s2,s6,870c <.L2126+0xc>
    8708:	33c0106f          	j	9a44 <.L2138>
    870c:	00e15b03          	lhu	s6,14(sp)
    8710:	00400c13          	li	s8,4
    8714:	ffcb0b13          	addi	s6,s6,-4
    8718:	01611723          	sh	s6,14(sp)
    871c:	011c5463          	bge	s8,a7,8724 <.L2131>
    8720:	c71fc06f          	j	5390 <.L2139>

00008724 <.L2131>:
    8724:	00815b03          	lhu	s6,8(sp)
    8728:	03b00c13          	li	s8,59
    872c:	008b0b13          	addi	s6,s6,8
    8730:	01611423          	sh	s6,8(sp)
    8734:	00fc4463          	blt	s8,a5,873c <.L2131+0x18>
    8738:	820fd06f          	j	5758 <.L2140>
    873c:	b98fb06f          	j	3ad4 <.L2145>

00008740 <.L94>:
    8740:	f1900e13          	li	t3,-231
    8744:	01cac463          	blt	s5,t3,874c <.L94+0xc>
    8748:	0dd0106f          	j	a024 <.L99>
    874c:	00a15e03          	lhu	t3,10(sp)
    8750:	31a00c13          	li	s8,794
    8754:	012e0e13          	addi	t3,t3,18
    8758:	01c11523          	sh	t3,10(sp)
    875c:	00dc5463          	bge	s8,a3,8764 <.L96>
    8760:	cf5f706f          	j	454 <.L2349>

00008764 <.L96>:
    8764:	ea700e13          	li	t3,-345
    8768:	01ca4463          	blt	s4,t3,8770 <.L96+0xc>
    876c:	d0cfd06f          	j	5c78 <.L105>
    8770:	11d00e13          	li	t3,285
    8774:	12ee4ee3          	blt	t3,a4,90b0 <.L104>
    8778:	00c15e03          	lhu	t3,12(sp)
    877c:	005e0e13          	addi	t3,t3,5
    8780:	010e1e13          	slli	t3,t3,0x10
    8784:	410e5e13          	srai	t3,t3,0x10
    8788:	ce9f706f          	j	470 <.L120>

0000878c <.L2346>:
    878c:	4ae00e13          	li	t3,1198
    8790:	02651383          	lh	t2,38(a0)
    8794:	0ede5ee3          	bge	t3,a3,9090 <.L91>

00008798 <.L92>:
    8798:	00001e37          	lui	t3,0x1
    879c:	9f8e0e13          	addi	t3,t3,-1544 # 9f8 <.L446+0xc>
    87a0:	00ee5463          	bge	t3,a4,87a8 <.L92+0x10>
    87a4:	7ec0106f          	j	9f90 <.L110>
    87a8:	00a15e03          	lhu	t3,10(sp)
    87ac:	31a00c13          	li	s8,794
    87b0:	ff6e0e13          	addi	t3,t3,-10
    87b4:	01c11523          	sh	t3,10(sp)
    87b8:	0edc56e3          	bge	s8,a3,90a4 <.L111>

000087bc <.L2351>:
    87bc:	e4e00e13          	li	t3,-434
    87c0:	01cac463          	blt	s5,t3,87c8 <.L2351+0xc>
    87c4:	7ec0106f          	j	9fb0 <.L107>
    87c8:	6c100e13          	li	t3,1729
    87cc:	00ee4463          	blt	t3,a4,87d4 <.L114>
    87d0:	c91f706f          	j	460 <.L119>

000087d4 <.L114>:
    87d4:	00c15e03          	lhu	t3,12(sp)
    87d8:	03d00c13          	li	s8,61
    87dc:	fffe0e13          	addi	t3,t3,-1
    87e0:	01c11623          	sh	t3,12(sp)
    87e4:	00fc5463          	bge	s8,a5,87ec <.L128>
    87e8:	c99f706f          	j	480 <.L121>

000087ec <.L128>:
    87ec:	d8200e13          	li	t3,-638
    87f0:	01c5c463          	blt	a1,t3,87f8 <.L122>
    87f4:	ad1fd06f          	j	62c4 <.L123>

000087f8 <.L122>:
    87f8:	00e15e03          	lhu	t3,14(sp)
    87fc:	ffae0e13          	addi	t3,t3,-6
    8800:	010e1e13          	slli	t3,t3,0x10
    8804:	410e5e13          	srai	t3,t3,0x10
    8808:	c9df706f          	j	4a4 <.L129>

0000880c <.L18>:
    880c:	02851e83          	lh	t4,40(a0)
    8810:	06a00793          	li	a5,106
    8814:	00651a83          	lh	s5,6(a0)
    8818:	01d7d463          	bge	a5,t4,8820 <.L18+0x14>
    881c:	4a10106f          	j	a4bc <.L23>
    8820:	ff400793          	li	a5,-12
    8824:	00f11523          	sh	a5,10(sp)
    8828:	d5c00613          	li	a2,-676
    882c:	00cad463          	bge	s5,a2,8834 <.L18+0x28>
    8830:	68d0206f          	j	b6bc <.L24>
    8834:	01851603          	lh	a2,24(a0)
    8838:	01251483          	lh	s1,18(a0)
    883c:	01051b03          	lh	s6,16(a0)

00008840 <.L20>:
    8840:	ea700793          	li	a5,-345
    8844:	06fa5463          	bge	s4,a5,88ac <.L29>
    8848:	ff700593          	li	a1,-9
    884c:	01451283          	lh	t0,20(a0)
    8850:	00b65463          	bge	a2,a1,8858 <.L28>
    8854:	00600593          	li	a1,6

00008858 <.L28>:
    8858:	00051783          	lh	a5,0(a0)
    885c:	00b11623          	sh	a1,12(sp)
    8860:	03e00593          	li	a1,62
    8864:	00f5c463          	blt	a1,a5,886c <.L28+0x14>
    8868:	aadf706f          	j	314 <.L26>
    886c:	d8400593          	li	a1,-636
    8870:	00bad463          	bge	s5,a1,8878 <.L28+0x20>
    8874:	8adf706f          	j	120 <.L27>
    8878:	01e51583          	lh	a1,30(a0)
    887c:	00c51903          	lh	s2,12(a0)
    8880:	02600813          	li	a6,38
    8884:	ab5f706f          	j	338 <.L32>

00008888 <.L15>:
    8888:	ff600793          	li	a5,-10
    888c:	00f11523          	sh	a5,10(sp)

00008890 <.L17>:
    8890:	ea700793          	li	a5,-345
    8894:	00fa5463          	bge	s4,a5,889c <.L17+0xc>
    8898:	6240306f          	j	bebc <.L2296>
    889c:	01251483          	lh	s1,18(a0)
    88a0:	00a51683          	lh	a3,10(a0)
    88a4:	01051b03          	lh	s6,16(a0)
    88a8:	02851e83          	lh	t4,40(a0)

000088ac <.L29>:
    88ac:	01451283          	lh	t0,20(a0)
    88b0:	ef52a593          	slti	a1,t0,-267
    88b4:	40b005b3          	neg	a1,a1
    88b8:	0055f593          	andi	a1,a1,5
    88bc:	ff458593          	addi	a1,a1,-12
    88c0:	f99ff06f          	j	8858 <.L28>

000088c4 <.L708>:
    88c4:	00c15c03          	lhu	s8,12(sp)
    88c8:	00ec0c13          	addi	s8,s8,14
    88cc:	010c1c13          	slli	s8,s8,0x10
    88d0:	410c5c13          	srai	s8,s8,0x10
    88d4:	d40f806f          	j	e14 <.L706>

000088d8 <.L711>:
    88d8:	06200c13          	li	s8,98
    88dc:	016c5463          	bge	s8,s6,88e4 <.L711+0xc>
    88e0:	2d10106f          	j	a3b0 <.L721>
    88e4:	00e15c03          	lhu	s8,14(sp)
    88e8:	fffc0c13          	addi	s8,s8,-1
    88ec:	01811723          	sh	s8,14(sp)
    88f0:	998f906f          	j	1a88 <.L722>

000088f4 <.L1737>:
    88f4:	f6900c13          	li	s8,-151
    88f8:	01844463          	blt	s0,s8,8900 <.L1747>
    88fc:	925fc06f          	j	5220 <.L2647>

00008900 <.L1747>:
    8900:	00e15c03          	lhu	s8,14(sp)
    8904:	009c0c13          	addi	s8,s8,9
    8908:	010c1c13          	slli	s8,s8,0x10
    890c:	410c5c13          	srai	s8,s8,0x10
    8910:	921fc06f          	j	5230 <.L1743>

00008914 <.L2010>:
    8914:	e7600c13          	li	s8,-394
    8918:	0185d463          	bge	a1,s8,8920 <.L2010+0xc>
    891c:	cd0fa06f          	j	2dec <.L2009>
    8920:	00c15c03          	lhu	s8,12(sp)
    8924:	ff7c0c13          	addi	s8,s8,-9
    8928:	01811623          	sh	s8,12(sp)
    892c:	cc0fa06f          	j	2dec <.L2009>

00008930 <.L2007>:
    8930:	ef800c13          	li	s8,-264
    8934:	f98a4a63          	blt	s4,s8,80c8 <.L2008>
    8938:	00c15c03          	lhu	s8,12(sp)
    893c:	ff9c0c13          	addi	s8,s8,-7
    8940:	01811623          	sh	s8,12(sp)
    8944:	ca8fa06f          	j	2dec <.L2009>

00008948 <.L808>:
    8948:	eb900c13          	li	s8,-327
    894c:	018a4463          	blt	s4,s8,8954 <.L808+0xc>
    8950:	01c0106f          	j	996c <.L811>
    8954:	00c15c03          	lhu	s8,12(sp)
    8958:	001c0c13          	addi	s8,s8,1
    895c:	010c1c13          	slli	s8,s8,0x10
    8960:	410c5c13          	srai	s8,s8,0x10
    8964:	a74f906f          	j	1bd8 <.L810>

00008968 <.L1213>:
    8968:	00815c03          	lhu	s8,8(sp)
    896c:	03500c93          	li	s9,53
    8970:	001c0c13          	addi	s8,s8,1
    8974:	01811423          	sh	s8,8(sp)
    8978:	00ecc463          	blt	s9,a4,8980 <.L1213+0x18>
    897c:	c3df806f          	j	15b8 <.L1214>
    8980:	0e100c13          	li	s8,225
    8984:	64dc4c63          	blt	s8,a3,8fdc <.L1222>

00008988 <.L1221>:
    8988:	00a15c03          	lhu	s8,10(sp)
    898c:	0c100c93          	li	s9,193
    8990:	004c0c13          	addi	s8,s8,4
    8994:	01811523          	sh	s8,10(sp)
    8998:	009cc463          	blt	s9,s1,89a0 <.L1221+0x18>
    899c:	c45f806f          	j	15e0 <.L1227>
    89a0:	8cdf906f          	j	226c <.L2609>

000089a4 <.L1840>:
    89a4:	ddc00c13          	li	s8,-548
    89a8:	018a4463          	blt	s4,s8,89b0 <.L1840+0xc>
    89ac:	3fc0106f          	j	9da8 <.L1843>
    89b0:	00a15c03          	lhu	s8,10(sp)
    89b4:	ffbc0c13          	addi	s8,s8,-5
    89b8:	010c1c13          	slli	s8,s8,0x10
    89bc:	410c5c13          	srai	s8,s8,0x10
    89c0:	01811523          	sh	s8,10(sp)
    89c4:	f8dfb06f          	j	4950 <.L2884>

000089c8 <.L1757>:
    89c8:	00a15c03          	lhu	s8,10(sp)
    89cc:	f9800c93          	li	s9,-104
    89d0:	004c0c13          	addi	s8,s8,4
    89d4:	01811523          	sh	s8,10(sp)
    89d8:	01944463          	blt	s0,s9,89e0 <.L1757+0x18>
    89dc:	b18fc06f          	j	4cf4 <.L1758>
    89e0:	f6600c13          	li	s8,-154
    89e4:	01845463          	bge	s0,s8,89ec <.L1759>
    89e8:	14c0306f          	j	bb34 <.L2936>

000089ec <.L1759>:
    89ec:	01a00c13          	li	s8,26
    89f0:	013c5463          	bge	s8,s3,89f8 <.L1759+0xc>
    89f4:	1180106f          	j	9b0c <.L1770>
    89f8:	00c15c03          	lhu	s8,12(sp)
    89fc:	ff8c0c13          	addi	s8,s8,-8
    8a00:	01811623          	sh	s8,12(sp)
    8a04:	ff5f906f          	j	29f8 <.L1769>

00008a08 <.L1753>:
    8a08:	12800c13          	li	s8,296
    8a0c:	009c5463          	bge	s8,s1,8a14 <.L1753+0xc>
    8a10:	fbdf906f          	j	29cc <.L1755>
    8a14:	00a15c03          	lhu	s8,10(sp)
    8a18:	ff9c0c13          	addi	s8,s8,-7
    8a1c:	01811523          	sh	s8,10(sp)
    8a20:	fadf906f          	j	29cc <.L1755>

00008a24 <.L1433>:
    8a24:	00e00c13          	li	s8,14
    8a28:	010c5463          	bge	s8,a6,8a30 <.L1433+0xc>
    8a2c:	0f00106f          	j	9b1c <.L1435>
    8a30:	00c15c03          	lhu	s8,12(sp)
    8a34:	ffec0c13          	addi	s8,s8,-2
    8a38:	01811623          	sh	s8,12(sp)
    8a3c:	af1f906f          	j	252c <.L1434>

00008a40 <.L1445>:
    8a40:	00e15c03          	lhu	s8,14(sp)
    8a44:	ff800c93          	li	s9,-8
    8a48:	ff6c0c13          	addi	s8,s8,-10
    8a4c:	01811723          	sh	s8,14(sp)
    8a50:	01964463          	blt	a2,s9,8a58 <.L1447>
    8a54:	9b0fd06f          	j	5c04 <.L1448>

00008a58 <.L1447>:
    8a58:	00815c03          	lhu	s8,8(sp)
    8a5c:	f8b00c93          	li	s9,-117
    8a60:	ffec0c13          	addi	s8,s8,-2
    8a64:	01811423          	sh	s8,8(sp)
    8a68:	0195d463          	bge	a1,s9,8a70 <.L1485>
    8a6c:	bddfe06f          	j	7648 <.L1470>

00008a70 <.L1485>:
    8a70:	00a15c03          	lhu	s8,10(sp)
    8a74:	ff8c0c13          	addi	s8,s8,-8
    8a78:	010c1c13          	slli	s8,s8,0x10
    8a7c:	410c5c13          	srai	s8,s8,0x10
    8a80:	9ccfd06f          	j	5c4c <.L1471>

00008a84 <.L2953>:
    8a84:	e9b00c13          	li	s8,-357
    8a88:	018ad463          	bge	s5,s8,8a90 <.L622>
    8a8c:	1080306f          	j	bb94 <.L2937>

00008a90 <.L622>:
    8a90:	01000c13          	li	s8,16
    8a94:	01dc5463          	bge	s8,t4,8a9c <.L622+0xc>
    8a98:	4b10106f          	j	a748 <.L644>
    8a9c:	00c15c03          	lhu	s8,12(sp)
    8aa0:	007c0c13          	addi	s8,s8,7
    8aa4:	010c1c13          	slli	s8,s8,0x10
    8aa8:	410c5c13          	srai	s8,s8,0x10
    8aac:	c01fd06f          	j	66ac <.L623>

00008ab0 <.L1058>:
    8ab0:	00c15c83          	lhu	s9,12(sp)
    8ab4:	02f00d13          	li	s10,47
    8ab8:	ffbc8c93          	addi	s9,s9,-5
    8abc:	01911623          	sh	s9,12(sp)
    8ac0:	010d4463          	blt	s10,a6,8ac8 <.L1058+0x18>
    8ac4:	b05fa06f          	j	35c8 <.L2732>
    8ac8:	e1900c13          	li	s8,-487
    8acc:	018a5463          	bge	s4,s8,8ad4 <.L1058+0x24>
    8ad0:	2ac0306f          	j	bd7c <.L1071>
    8ad4:	00e15c03          	lhu	s8,14(sp)
    8ad8:	00300c93          	li	s9,3
    8adc:	008c0c13          	addi	s8,s8,8
    8ae0:	01811723          	sh	s8,14(sp)
    8ae4:	00dcd463          	bge	s9,a3,8aec <.L1072>
    8ae8:	5e10106f          	j	a8c8 <.L1073>

00008aec <.L1072>:
    8aec:	00815c03          	lhu	s8,8(sp)
    8af0:	30000c93          	li	s9,768
    8af4:	003c0c13          	addi	s8,s8,3
    8af8:	01811423          	sh	s8,8(sp)
    8afc:	01ecd463          	bge	s9,t5,8b04 <.L1096>
    8b00:	d2cf906f          	j	202c <.L1095>

00008b04 <.L1096>:
    8b04:	ea900c13          	li	s8,-343
    8b08:	0182c463          	blt	t0,s8,8b10 <.L1096+0xc>
    8b0c:	0800106f          	j	9b8c <.L1098>
    8b10:	00a15c03          	lhu	s8,10(sp)
    8b14:	007c0c13          	addi	s8,s8,7
    8b18:	01811523          	sh	s8,10(sp)
    8b1c:	88df806f          	j	13a8 <.L1097>

00008b20 <.L1244>:
    8b20:	00e15c03          	lhu	s8,14(sp)
    8b24:	01500c93          	li	s9,21
    8b28:	ff8c0c13          	addi	s8,s8,-8
    8b2c:	01811723          	sh	s8,14(sp)
    8b30:	007cc463          	blt	s9,t2,8b38 <.L1244+0x18>
    8b34:	af1fb06f          	j	4624 <.L1253>
    8b38:	11d00c13          	li	s8,285
    8b3c:	7a7c4663          	blt	s8,t2,92e8 <.L1255>

00008b40 <.L1254>:
    8b40:	00815c03          	lhu	s8,8(sp)
    8b44:	ffdc0c13          	addi	s8,s8,-3
    8b48:	010c1c13          	slli	s8,s8,0x10
    8b4c:	410c5c13          	srai	s8,s8,0x10
    8b50:	af1fb06f          	j	4640 <.L1252>

00008b54 <.L1386>:
    8b54:	00a15c03          	lhu	s8,10(sp)
    8b58:	00100c93          	li	s9,1
    8b5c:	007c0c13          	addi	s8,s8,7
    8b60:	01811523          	sh	s8,10(sp)
    8b64:	01ccd463          	bge	s9,t3,8b6c <.L1394>
    8b68:	8f1f906f          	j	2458 <.L1395>

00008b6c <.L1394>:
    8b6c:	00c15c03          	lhu	s8,12(sp)
    8b70:	ff7c0c13          	addi	s8,s8,-9
    8b74:	01811623          	sh	s8,12(sp)
    8b78:	c14fb06f          	j	3f8c <.L1393>

00008b7c <.L1150>:
    8b7c:	00e15c03          	lhu	s8,14(sp)
    8b80:	01f00c93          	li	s9,31
    8b84:	009c0c13          	addi	s8,s8,9
    8b88:	01811723          	sh	s8,14(sp)
    8b8c:	013cd463          	bge	s9,s3,8b94 <.L1153>
    8b90:	d05fb06f          	j	4894 <.L1152>

00008b94 <.L1153>:
    8b94:	e2100c13          	li	s8,-479
    8b98:	0182c463          	blt	t0,s8,8ba0 <.L1153+0xc>
    8b9c:	3910206f          	j	b72c <.L1163>
    8ba0:	00815c03          	lhu	s8,8(sp)
    8ba4:	1b900c93          	li	s9,441
    8ba8:	ff7c0c13          	addi	s8,s8,-9
    8bac:	01811423          	sh	s8,8(sp)
    8bb0:	01ecc463          	blt	s9,t5,8bb8 <.L1153+0x24>
    8bb4:	d19fb06f          	j	48cc <.L1164>
    8bb8:	dc8f906f          	j	2180 <.L1162>

00008bbc <.L815>:
    8bbc:	f5100c13          	li	s8,-175
    8bc0:	018ac463          	blt	s5,s8,8bc8 <.L815+0xc>
    8bc4:	dd4fc06f          	j	5198 <.L821>
    8bc8:	00e15c03          	lhu	s8,14(sp)
    8bcc:	ffac0c13          	addi	s8,s8,-6
    8bd0:	010c1c13          	slli	s8,s8,0x10
    8bd4:	410c5c13          	srai	s8,s8,0x10
    8bd8:	b90f806f          	j	f68 <.L820>

00008bdc <.L1673>:
    8bdc:	03900c13          	li	s8,57
    8be0:	1bfc50e3          	bge	s8,t6,9580 <.L1666>
    8be4:	03d00c13          	li	s8,61
    8be8:	00fc4463          	blt	s8,a5,8bf0 <.L1673+0x14>
    8bec:	f05fc06f          	j	5af0 <.L1689>
    8bf0:	00100c13          	li	s8,1
    8bf4:	01cc5463          	bge	s8,t3,8bfc <.L1693>
    8bf8:	f11fc06f          	j	5b08 <.L1691>

00008bfc <.L1693>:
    8bfc:	01100c13          	li	s8,17
    8c00:	011c4463          	blt	s8,a7,8c08 <.L1692>
    8c04:	f95fd06f          	j	6b98 <.L1653>

00008c08 <.L1692>:
    8c08:	00c15c03          	lhu	s8,12(sp)
    8c0c:	ffac0c13          	addi	s8,s8,-6
    8c10:	010c1c13          	slli	s8,s8,0x10
    8c14:	410c5c13          	srai	s8,s8,0x10
    8c18:	f0dfc06f          	j	5b24 <.L1683>

00008c1c <.L2762>:
    8c1c:	00e15c03          	lhu	s8,14(sp)
    8c20:	ffe00c93          	li	s9,-2
    8c24:	009c0c13          	addi	s8,s8,9
    8c28:	01811723          	sh	s8,14(sp)
    8c2c:	01984463          	blt	a6,s9,8c34 <.L776>
    8c30:	ac0fc06f          	j	4ef0 <.L2387>

00008c34 <.L776>:
    8c34:	0dd00c13          	li	s8,221
    8c38:	006c5463          	bge	s8,t1,8c40 <.L776+0xc>
    8c3c:	5d80206f          	j	b214 <.L791>
    8c40:	00815c03          	lhu	s8,8(sp)
    8c44:	03300c93          	li	s9,51
    8c48:	006c0c13          	addi	s8,s8,6
    8c4c:	01811423          	sh	s8,8(sp)
    8c50:	01fcc463          	blt	s9,t6,8c58 <.L776+0x24>
    8c54:	f31f806f          	j	1b84 <.L788>
    8c58:	9f8fc06f          	j	4e50 <.L789>

00008c5c <.L2758>:
    8c5c:	01600c13          	li	s8,22
    8c60:	011c5463          	bge	s8,a7,8c68 <.L2758+0xc>
    8c64:	ac0fd06f          	j	5f24 <.L2577>
    8c68:	00815c03          	lhu	s8,8(sp)
    8c6c:	00bc0c13          	addi	s8,s8,11
    8c70:	010c1c13          	slli	s8,s8,0x10
    8c74:	410c5c13          	srai	s8,s8,0x10
    8c78:	f39f706f          	j	bb0 <.L552>

00008c7c <.L2245>:
    8c7c:	1fa00693          	li	a3,506
    8c80:	00e6d463          	bge	a3,a4,8c88 <.L2245+0xc>
    8c84:	6b50106f          	j	ab38 <.L2237>
    8c88:	00a15703          	lhu	a4,10(sp)
    8c8c:	ffa70713          	addi	a4,a4,-6
    8c90:	01071713          	slli	a4,a4,0x10
    8c94:	41075713          	srai	a4,a4,0x10
    8c98:	fa9fa06f          	j	3c40 <.L2247>

00008c9c <.L1035>:
    8c9c:	00e15c03          	lhu	s8,14(sp)
    8ca0:	01f00c93          	li	s9,31
    8ca4:	003c0c13          	addi	s8,s8,3
    8ca8:	01811723          	sh	s8,14(sp)
    8cac:	013cc463          	blt	s9,s3,8cb4 <.L1035+0x18>
    8cb0:	dfcfc06f          	j	52ac <.L1038>
    8cb4:	00600c13          	li	s8,6
    8cb8:	011c4463          	blt	s8,a7,8cc0 <.L1035+0x24>
    8cbc:	0b00306f          	j	bd6c <.L1039>
    8cc0:	00815c03          	lhu	s8,8(sp)
    8cc4:	03100c93          	li	s9,49
    8cc8:	ff7c0c13          	addi	s8,s8,-9
    8ccc:	01811423          	sh	s8,8(sp)
    8cd0:	01fcc463          	blt	s9,t6,8cd8 <.L1040>
    8cd4:	d84fd06f          	j	6258 <.L1044>

00008cd8 <.L1040>:
    8cd8:	00b00c13          	li	s8,11
    8cdc:	011c4463          	blt	s8,a7,8ce4 <.L1040+0xc>
    8ce0:	a94f906f          	j	1f74 <.L1054>
    8ce4:	00a15c03          	lhu	s8,10(sp)
    8ce8:	ffcc0c13          	addi	s8,s8,-4
    8cec:	010c1c13          	slli	s8,s8,0x10
    8cf0:	410c5c13          	srai	s8,s8,0x10
    8cf4:	e24f806f          	j	1318 <.L1045>

00008cf8 <.L2759>:
    8cf8:	ff400c13          	li	s8,-12
    8cfc:	01864463          	blt	a2,s8,8d04 <.L2759+0xc>
    8d00:	5300206f          	j	b230 <.L569>
    8d04:	00a15c03          	lhu	s8,10(sp)
    8d08:	17000c93          	li	s9,368
    8d0c:	ff6c0c13          	addi	s8,s8,-10
    8d10:	01811523          	sh	s8,10(sp)
    8d14:	00dcc463          	blt	s9,a3,8d1c <.L2288>
    8d18:	ed1f706f          	j	be8 <.L563>

00008d1c <.L2288>:
    8d1c:	3fa00c13          	li	s8,1018
    8d20:	00ec5463          	bge	s8,a4,8d28 <.L571>
    8d24:	b01fc06f          	j	5824 <.L572>

00008d28 <.L571>:
    8d28:	00c15c03          	lhu	s8,12(sp)
    8d2c:	e0800c93          	li	s9,-504
    8d30:	00ac0c13          	addi	s8,s8,10
    8d34:	01811623          	sh	s8,12(sp)
    8d38:	01945463          	bge	s0,s9,8d40 <.L571+0x18>
    8d3c:	b0dfc06f          	j	5848 <.L584>
    8d40:	b21f806f          	j	1860 <.L2375>

00008d44 <.L885>:
    8d44:	01500c13          	li	s8,21
    8d48:	010c5463          	bge	s8,a6,8d50 <.L885+0xc>
    8d4c:	f38fd06f          	j	6484 <.L870>
    8d50:	00c15c03          	lhu	s8,12(sp)
    8d54:	ffac0c13          	addi	s8,s8,-6
    8d58:	01811623          	sh	s8,12(sp)
    8d5c:	f34fd06f          	j	6490 <.L886>

00008d60 <.L2819>:
    8d60:	ed600c13          	li	s8,-298
    8d64:	0182c463          	blt	t0,s8,8d6c <.L2819+0xc>
    8d68:	7100206f          	j	b478 <.L2067>
    8d6c:	00e15c03          	lhu	s8,14(sp)
    8d70:	ffdc0c13          	addi	s8,s8,-3
    8d74:	010c1c13          	slli	s8,s8,0x10
    8d78:	410c5c13          	srai	s8,s8,0x10
    8d7c:	94cfa06f          	j	2ec8 <.L2057>

00008d80 <.L299>:
    8d80:	1a600c13          	li	s8,422
    8d84:	009c4463          	blt	s8,s1,8d8c <.L299+0xc>
    8d88:	7440206f          	j	b4cc <.L2938>
    8d8c:	00a15c03          	lhu	s8,10(sp)
    8d90:	001c0c13          	addi	s8,s8,1
    8d94:	010c1c13          	slli	s8,s8,0x10
    8d98:	410c5c13          	srai	s8,s8,0x10
    8d9c:	f5dfc06f          	j	5cf8 <.L288>

00008da0 <.L943>:
    8da0:	03d00c13          	li	s8,61
    8da4:	00fc5463          	bge	s8,a5,8dac <.L943+0xc>
    8da8:	5280206f          	j	b2d0 <.L2939>
    8dac:	00e15c03          	lhu	s8,14(sp)
    8db0:	ff8c0c13          	addi	s8,s8,-8
    8db4:	01811723          	sh	s8,14(sp)
    8db8:	bb8f806f          	j	1170 <.L940>

00008dbc <.L514>:
    8dbc:	00815c03          	lhu	s8,8(sp)
    8dc0:	ff6c0c13          	addi	s8,s8,-10
    8dc4:	010c1c13          	slli	s8,s8,0x10
    8dc8:	410c5c13          	srai	s8,s8,0x10
    8dcc:	f00fb06f          	j	44cc <.L512>

00008dd0 <.L1527>:
    8dd0:	ea900c13          	li	s8,-343
    8dd4:	018a4463          	blt	s4,s8,8ddc <.L1527+0xc>
    8dd8:	0c00106f          	j	9e98 <.L1522>
    8ddc:	01800c13          	li	s8,24
    8de0:	010c5463          	bge	s8,a6,8de8 <.L1527+0x18>
    8de4:	bacfb06f          	j	4190 <.L1531>
    8de8:	d34fe06f          	j	731c <.L1529>

00008dec <.L1736>:
    8dec:	e9800c13          	li	s8,-360
    8df0:	0185c463          	blt	a1,s8,8df8 <.L1735>
    8df4:	b59f906f          	j	294c <.L1730>

00008df8 <.L1735>:
    8df8:	00c15c03          	lhu	s8,12(sp)
    8dfc:	ff8c0c13          	addi	s8,s8,-8
    8e00:	01811623          	sh	s8,12(sp)
    8e04:	b49f906f          	j	294c <.L1730>

00008e08 <.L1820>:
    8e08:	16c00c13          	li	s8,364
    8e0c:	00dc5463          	bge	s8,a3,8e14 <.L1820+0xc>
    8e10:	4500206f          	j	b260 <.L1823>
    8e14:	00e15c03          	lhu	s8,14(sp)
    8e18:	003c0c13          	addi	s8,s8,3
    8e1c:	010c1c13          	slli	s8,s8,0x10
    8e20:	010c5c13          	srli	s8,s8,0x10
    8e24:	01811723          	sh	s8,14(sp)
    8e28:	e69fb06f          	j	4c90 <.L1821>

00008e2c <.L996>:
    8e2c:	00e15c03          	lhu	s8,14(sp)
    8e30:	fa300c93          	li	s9,-93
    8e34:	008c0c13          	addi	s8,s8,8
    8e38:	01811723          	sh	s8,14(sp)
    8e3c:	0192d463          	bge	t0,s9,8e44 <.L996+0x18>
    8e40:	fd5fc06f          	j	5e14 <.L985>
    8e44:	11c00c13          	li	s8,284
    8e48:	012c4463          	blt	s8,s2,8e50 <.L991>
    8e4c:	864f906f          	j	1eb0 <.L994>

00008e50 <.L991>:
    8e50:	02300c13          	li	s8,35
    8e54:	00dc5463          	bge	s8,a3,8e5c <.L991+0xc>
    8e58:	9a1fb06f          	j	47f8 <.L995>
    8e5c:	00815c03          	lhu	s8,8(sp)
    8e60:	ff8c0c13          	addi	s8,s8,-8
    8e64:	01811423          	sh	s8,8(sp)
    8e68:	bc0f806f          	j	1228 <.L1002>

00008e6c <.L1306>:
    8e6c:	01f00c13          	li	s8,31
    8e70:	010c4463          	blt	s8,a6,8e78 <.L1306+0xc>
    8e74:	2140106f          	j	a088 <.L2940>
    8e78:	00e15c03          	lhu	s8,14(sp)
    8e7c:	006c0c13          	addi	s8,s8,6
    8e80:	01811723          	sh	s8,14(sp)
    8e84:	ec700c13          	li	s8,-313
    8e88:	01845463          	bge	s0,s8,8e90 <.L1332>
    8e8c:	cccf906f          	j	2358 <.L2941>

00008e90 <.L1332>:
    8e90:	00815c03          	lhu	s8,8(sp)
    8e94:	008c0c13          	addi	s8,s8,8
    8e98:	010c1c13          	slli	s8,s8,0x10
    8e9c:	410c5c13          	srai	s8,s8,0x10
    8ea0:	cc8f906f          	j	2368 <.L1331>

00008ea4 <.L971>:
    8ea4:	00a15c03          	lhu	s8,10(sp)
    8ea8:	03900c93          	li	s9,57
    8eac:	ffbc0c13          	addi	s8,s8,-5
    8eb0:	01811523          	sh	s8,10(sp)
    8eb4:	00dcc463          	blt	s9,a3,8ebc <.L972>
    8eb8:	b1cf806f          	j	11d4 <.L960>

00008ebc <.L972>:
    8ebc:	ea600c13          	li	s8,-346
    8ec0:	01845463          	bge	s0,s8,8ec8 <.L972+0xc>
    8ec4:	86dfb06f          	j	4730 <.L961>
    8ec8:	00c15c03          	lhu	s8,12(sp)
    8ecc:	cf000c93          	li	s9,-784
    8ed0:	00bc0c13          	addi	s8,s8,11
    8ed4:	01811623          	sh	s8,12(sp)
    8ed8:	0195d463          	bge	a1,s9,8ee0 <.L972+0x24>
    8edc:	869fb06f          	j	4744 <.L962>
    8ee0:	8e9fb06f          	j	47c8 <.L2408>

00008ee4 <.L908>:
    8ee4:	03b00c13          	li	s8,59
    8ee8:	0afc46e3          	blt	s8,a5,9794 <.L902>
    8eec:	00815c03          	lhu	s8,8(sp)
    8ef0:	fffc0c13          	addi	s8,s8,-1
    8ef4:	01811423          	sh	s8,8(sp)
    8ef8:	9f0f806f          	j	10e8 <.L906>

00008efc <.L1949>:
    8efc:	07100c13          	li	s8,113
    8f00:	007c5463          	bge	s8,t2,8f08 <.L1949+0xc>
    8f04:	ce0fe06f          	j	73e4 <.L1959>
    8f08:	00c15c03          	lhu	s8,12(sp)
    8f0c:	05800c93          	li	s9,88
    8f10:	fffc0c13          	addi	s8,s8,-1
    8f14:	01811623          	sh	s8,12(sp)
    8f18:	009cd463          	bge	s9,s1,8f20 <.L1949+0x24>
    8f1c:	1010206f          	j	b81c <.L1963>
    8f20:	f5300c13          	li	s8,-173
    8f24:	01844463          	blt	s0,s8,8f2c <.L1949+0x30>
    8f28:	3950206f          	j	babc <.L1964>
    8f2c:	00e15c03          	lhu	s8,14(sp)
    8f30:	01500c93          	li	s9,21
    8f34:	00ec0c13          	addi	s8,s8,14
    8f38:	01811723          	sh	s8,14(sp)
    8f3c:	007cc463          	blt	s9,t2,8f44 <.L1949+0x48>
    8f40:	e45f906f          	j	2d84 <.L1965>
    8f44:	cccfe06f          	j	7410 <.L1966>

00008f48 <.L83>:
    8f48:	01800e13          	li	t3,24
    8f4c:	010e5463          	bge	t3,a6,8f54 <.L83+0xc>
    8f50:	6b40106f          	j	a604 <.L81>
    8f54:	00815e03          	lhu	t3,8(sp)
    8f58:	02651383          	lh	t2,38(a0)
    8f5c:	00ae0e13          	addi	t3,t3,10
    8f60:	01c11423          	sh	t3,8(sp)
    8f64:	ab8f706f          	j	21c <.L85>

00008f68 <.L2891>:
    8f68:	f5c00c13          	li	s8,-164
    8f6c:	01844463          	blt	s0,s8,8f74 <.L2891+0xc>
    8f70:	3300206f          	j	b2a0 <.L766>
    8f74:	00c15c03          	lhu	s8,12(sp)
    8f78:	03e00c93          	li	s9,62
    8f7c:	009c0c13          	addi	s8,s8,9
    8f80:	01811623          	sh	s8,12(sp)
    8f84:	00fcd463          	bge	s9,a5,8f8c <.L764>
    8f88:	f49fb06f          	j	4ed0 <.L752>

00008f8c <.L764>:
    8f8c:	03800c13          	li	s8,56
    8f90:	00ec4463          	blt	s8,a4,8f98 <.L767>
    8f94:	a58fc06f          	j	51ec <.L770>

00008f98 <.L767>:
    8f98:	00e15c03          	lhu	s8,14(sp)
    8f9c:	ffac0c13          	addi	s8,s8,-6
    8fa0:	010c1c13          	slli	s8,s8,0x10
    8fa4:	410c5c13          	srai	s8,s8,0x10
    8fa8:	b9df806f          	j	1b44 <.L779>

00008fac <.L1598>:
    8fac:	005c0c13          	addi	s8,s8,5
    8fb0:	01811623          	sh	s8,12(sp)
    8fb4:	00300c13          	li	s8,3
    8fb8:	01cc4463          	blt	s8,t3,8fc0 <.L1595>
    8fbc:	e49fa06f          	j	3e04 <.L1620>

00008fc0 <.L1595>:
    8fc0:	de700c13          	li	s8,-537
    8fc4:	0185d463          	bge	a1,s8,8fcc <.L1621>
    8fc8:	e55fa06f          	j	3e1c <.L1627>

00008fcc <.L1621>:
    8fcc:	00e15c03          	lhu	s8,14(sp)
    8fd0:	ff8c0c13          	addi	s8,s8,-8
    8fd4:	01811723          	sh	s8,14(sp)
    8fd8:	e45fa06f          	j	3e1c <.L1627>

00008fdc <.L1222>:
    8fdc:	22f00c13          	li	s8,559
    8fe0:	01ec4463          	blt	s8,t5,8fe8 <.L1222+0xc>
    8fe4:	b21fe06f          	j	7b04 <.L1220>
    8fe8:	00a15c03          	lhu	s8,10(sp)
    8fec:	004c0c13          	addi	s8,s8,4
    8ff0:	01811523          	sh	s8,10(sp)
    8ff4:	b1dfe06f          	j	7b10 <.L1233>

00008ff8 <.L1139>:
    8ff8:	0aa00c13          	li	s8,170
    8ffc:	01ec5463          	bge	s8,t5,9004 <.L1139+0xc>
    9000:	3440206f          	j	b344 <.L1141>
    9004:	00c15c03          	lhu	s8,12(sp)
    9008:	ffec0c13          	addi	s8,s8,-2
    900c:	010c1c13          	slli	s8,s8,0x10
    9010:	410c5c13          	srai	s8,s8,0x10
    9014:	c84f806f          	j	1498 <.L1140>

00009018 <.L1849>:
    9018:	00c15c03          	lhu	s8,12(sp)
    901c:	fffc0c13          	addi	s8,s8,-1
    9020:	01811623          	sh	s8,12(sp)
    9024:	b35f906f          	j	2b58 <.L1855>

00009028 <.L683>:
    9028:	0dd00c13          	li	s8,221
    902c:	006c5463          	bge	s8,t1,9034 <.L683+0xc>
    9030:	3c80206f          	j	b3f8 <.L691>
    9034:	00815c03          	lhu	s8,8(sp)
    9038:	007c0c13          	addi	s8,s8,7
    903c:	010c1c13          	slli	s8,s8,0x10
    9040:	410c5c13          	srai	s8,s8,0x10
    9044:	d69f706f          	j	dac <.L692>

00009048 <.L2824>:
    9048:	00815f03          	lhu	t5,8(sp)
    904c:	ffaf0f13          	addi	t5,t5,-6
    9050:	01e11423          	sh	t5,8(sp)
    9054:	8a0fa06f          	j	30f4 <.L2188>

00009058 <.L2763>:
    9058:	01900c13          	li	s8,25
    905c:	010c5463          	bge	s8,a6,9064 <.L2763+0xc>
    9060:	8a0fe06f          	j	7100 <.L824>
    9064:	00815c03          	lhu	s8,8(sp)
    9068:	00ac0c13          	addi	s8,s8,10
    906c:	01811423          	sh	s8,8(sp)
    9070:	f25f706f          	j	f94 <.L825>

00009074 <.L2873>:
    9074:	0a100c13          	li	s8,161
    9078:	007c5463          	bge	s8,t2,9080 <.L2873+0xc>
    907c:	c30f906f          	j	24ac <.L1410>
    9080:	00e15c03          	lhu	s8,14(sp)
    9084:	008c0c13          	addi	s8,s8,8
    9088:	01811723          	sh	s8,14(sp)
    908c:	c20f906f          	j	24ac <.L1410>

00009090 <.L91>:
    9090:	00a15e03          	lhu	t3,10(sp)
    9094:	31a00c13          	li	s8,794
    9098:	010e0e13          	addi	t3,t3,16
    909c:	01c11523          	sh	t3,10(sp)
    90a0:	f0dc4e63          	blt	s8,a3,87bc <.L2351>

000090a4 <.L111>:
    90a4:	ea700e13          	li	t3,-345
    90a8:	01ca4463          	blt	s4,t3,90b0 <.L104>
    90ac:	bcdfc06f          	j	5c78 <.L105>

000090b0 <.L104>:
    90b0:	00c15e03          	lhu	t3,12(sp)
    90b4:	03d00c13          	li	s8,61
    90b8:	ff6e0e13          	addi	t3,t3,-10
    90bc:	01c11623          	sh	t3,12(sp)
    90c0:	f2fc5663          	bge	s8,a5,87ec <.L128>
    90c4:	bbcf706f          	j	480 <.L121>

000090c8 <.L2821>:
    90c8:	01c05463          	blez	t3,90d0 <.L2821+0x8>
    90cc:	e95fb06f          	j	4f60 <.L2101>
    90d0:	00815b03          	lhu	s6,8(sp)
    90d4:	004b0b13          	addi	s6,s6,4
    90d8:	01611423          	sh	s6,8(sp)
    90dc:	e85fb06f          	j	4f60 <.L2101>

000090e0 <.L273>:
    90e0:	03a00e13          	li	t3,58
    90e4:	00fe4463          	blt	t3,a5,90ec <.L273+0xc>
    90e8:	d9dfc06f          	j	5e84 <.L253>
    90ec:	00e15e03          	lhu	t3,14(sp)
    90f0:	ffae0e13          	addi	t3,t3,-6
    90f4:	010e1e13          	slli	t3,t3,0x10
    90f8:	410e5e13          	srai	t3,t3,0x10
    90fc:	e1cf706f          	j	718 <.L275>

00009100 <.L1076>:
    9100:	00c15c03          	lhu	s8,12(sp)
    9104:	02f00c93          	li	s9,47
    9108:	003c0c13          	addi	s8,s8,3
    910c:	01811623          	sh	s8,12(sp)
    9110:	010cd463          	bge	s9,a6,9118 <.L1076+0x18>
    9114:	f78fc06f          	j	588c <.L1082>
    9118:	03800c13          	li	s8,56
    911c:	01fc4463          	blt	s8,t6,9124 <.L1078>
    9120:	7840106f          	j	a8a4 <.L1067>

00009124 <.L1078>:
    9124:	03b00c13          	li	s8,59
    9128:	00fc4463          	blt	s8,a5,9130 <.L1078+0xc>
    912c:	0700106f          	j	a19c <.L1070>
    9130:	00e15c03          	lhu	s8,14(sp)
    9134:	ffe00c93          	li	s9,-2
    9138:	fffc0c13          	addi	s8,s8,-1
    913c:	01811723          	sh	s8,14(sp)
    9140:	01984463          	blt	a6,s9,9148 <.L1061>
    9144:	eb5f806f          	j	1ff8 <.L1080>

00009148 <.L1061>:
    9148:	0a400c13          	li	s8,164
    914c:	02dc5063          	bge	s8,a3,916c <.L2942>
    9150:	0c100c13          	li	s8,193
    9154:	026c4063          	blt	s8,t1,9174 <.L1093>
    9158:	00815c03          	lhu	s8,8(sp)
    915c:	005c0c13          	addi	s8,s8,5
    9160:	010c1c13          	slli	s8,s8,0x10
    9164:	410c5c13          	srai	s8,s8,0x10
    9168:	a14f806f          	j	137c <.L1092>

0000916c <.L2942>:
    916c:	de600c13          	li	s8,-538
    9170:	458a58e3          	bge	s4,s8,9dc0 <.L2943>

00009174 <.L1093>:
    9174:	00815c03          	lhu	s8,8(sp)
    9178:	ffac0c13          	addi	s8,s8,-6
    917c:	010c1c13          	slli	s8,s8,0x10
    9180:	410c5c13          	srai	s8,s8,0x10
    9184:	9f8f806f          	j	137c <.L1092>

00009188 <.L521>:
    9188:	00a15c03          	lhu	s8,10(sp)
    918c:	17000c93          	li	s9,368
    9190:	ff7c0c13          	addi	s8,s8,-9
    9194:	01811523          	sh	s8,10(sp)
    9198:	00dcc463          	blt	s9,a3,91a0 <.L526>
    919c:	ae8fb06f          	j	4484 <.L522>

000091a0 <.L526>:
    91a0:	eef00c13          	li	s8,-273
    91a4:	0182c463          	blt	t0,s8,91ac <.L526+0xc>
    91a8:	6a00106f          	j	a848 <.L527>
    91ac:	00c15c03          	lhu	s8,12(sp)
    91b0:	00ac0c13          	addi	s8,s8,10
    91b4:	010c1c13          	slli	s8,s8,0x10
    91b8:	410c5c13          	srai	s8,s8,0x10
    91bc:	9a1f706f          	j	b5c <.L538>

000091c0 <.L480>:
    91c0:	00f00c13          	li	s8,15
    91c4:	01dc5863          	bge	s8,t4,91d4 <.L485>
    91c8:	00c15c03          	lhu	s8,12(sp)
    91cc:	ff8c0c13          	addi	s8,s8,-8
    91d0:	01811623          	sh	s8,12(sp)

000091d4 <.L485>:
    91d4:	e0800c13          	li	s8,-504
    91d8:	01845463          	bge	s0,s8,91e0 <.L498>
    91dc:	8d5f706f          	j	ab0 <.L482>

000091e0 <.L498>:
    91e0:	03b00c13          	li	s8,59
    91e4:	00fc4463          	blt	s8,a5,91ec <.L498+0xc>
    91e8:	f78fd06f          	j	6960 <.L483>
    91ec:	0d400c13          	li	s8,212
    91f0:	00ec5463          	bge	s8,a4,91f8 <.L484>
    91f4:	ca0fc06f          	j	5694 <.L508>

000091f8 <.L484>:
    91f8:	00e15c03          	lhu	s8,14(sp)
    91fc:	005c0c13          	addi	s8,s8,5
    9200:	010c1c13          	slli	s8,s8,0x10
    9204:	410c5c13          	srai	s8,s8,0x10
    9208:	c9cfc06f          	j	56a4 <.L504>

0000920c <.L1562>:
    920c:	00a15c03          	lhu	s8,10(sp)
    9210:	004c0c13          	addi	s8,s8,4
    9214:	01811523          	sh	s8,10(sp)

00009218 <.L1564>:
    9218:	06a00c13          	li	s8,106
    921c:	00ec4463          	blt	s8,a4,9224 <.L1564+0xc>
    9220:	b05fa06f          	j	3d24 <.L1563>
    9224:	969fe06f          	j	7b8c <.L1559>

00009228 <.L1178>:
    9228:	f1200c13          	li	s8,-238
    922c:	01844463          	blt	s0,s8,9234 <.L1178+0xc>
    9230:	2f00206f          	j	b520 <.L1182>
    9234:	00a15c03          	lhu	s8,10(sp)
    9238:	03c00c93          	li	s9,60
    923c:	007c0c13          	addi	s8,s8,7
    9240:	01811523          	sh	s8,10(sp)
    9244:	00fcc463          	blt	s9,a5,924c <.L2603>
    9248:	849fa06f          	j	3a90 <.L1167>

0000924c <.L2603>:
    924c:	daa00c13          	li	s8,-598
    9250:	018ad463          	bge	s5,s8,9258 <.L1184>
    9254:	aacfe06f          	j	7500 <.L1187>

00009258 <.L1184>:
    9258:	00c15c03          	lhu	s8,12(sp)
    925c:	ff9c0c13          	addi	s8,s8,-7
    9260:	010c1c13          	slli	s8,s8,0x10
    9264:	410c5c13          	srai	s8,s8,0x10
    9268:	f6df806f          	j	21d4 <.L1189>

0000926c <.L530>:
    926c:	ffa00c13          	li	s8,-6
    9270:	01865463          	bge	a2,s8,9278 <.L530+0xc>
    9274:	a1cfb06f          	j	4490 <.L2277>
    9278:	00c15c03          	lhu	s8,12(sp)
    927c:	ff8c0c13          	addi	s8,s8,-8
    9280:	010c1c13          	slli	s8,s8,0x10
    9284:	410c5c13          	srai	s8,s8,0x10
    9288:	8d5f706f          	j	b5c <.L538>

0000928c <.L489>:
    928c:	30200c13          	li	s8,770
    9290:	00ec4463          	blt	s8,a4,9298 <.L489+0xc>
    9294:	36c0206f          	j	b600 <.L2944>
    9298:	00c15c03          	lhu	s8,12(sp)
    929c:	e0800c93          	li	s9,-504
    92a0:	ff7c0c13          	addi	s8,s8,-9
    92a4:	01811623          	sh	s8,12(sp)
    92a8:	01945463          	bge	s0,s9,92b0 <.L489+0x24>
    92ac:	805f706f          	j	ab0 <.L482>
    92b0:	bd8fc06f          	j	5688 <.L491>

000092b4 <.L1337>:
    92b4:	07a00c13          	li	s8,122
    92b8:	016c4463          	blt	s8,s6,92c0 <.L1337+0xc>
    92bc:	8fcf906f          	j	23b8 <.L1359>
    92c0:	b69fe06f          	j	7e28 <.L1358>

000092c4 <.L1257>:
    92c4:	00e15c03          	lhu	s8,14(sp)
    92c8:	01500c93          	li	s9,21
    92cc:	003c0c13          	addi	s8,s8,3
    92d0:	01811723          	sh	s8,14(sp)
    92d4:	007cc463          	blt	s9,t2,92dc <.L1257+0x18>
    92d8:	b4cfb06f          	j	4624 <.L1253>
    92dc:	11d00c13          	li	s8,285
    92e0:	007c4463          	blt	s8,t2,92e8 <.L1255>
    92e4:	b80f806f          	j	1664 <.L1259>

000092e8 <.L1255>:
    92e8:	2ad00c13          	li	s8,685
    92ec:	006c4463          	blt	s8,t1,92f4 <.L1255+0xc>
    92f0:	6d50106f          	j	b1c4 <.L1271>
    92f4:	00815c03          	lhu	s8,8(sp)
    92f8:	00c00c93          	li	s9,12
    92fc:	019c0c33          	add	s8,s8,s9
    9300:	01811423          	sh	s8,8(sp)
    9304:	01ccd463          	bge	s9,t3,930c <.L1255+0x24>
    9308:	b54fb06f          	j	465c <.L1274>
    930c:	01700c13          	li	s8,23
    9310:	01dc5463          	bge	s8,t4,9318 <.L1255+0x30>
    9314:	b78f806f          	j	168c <.L1267>
    9318:	03300c13          	li	s8,51
    931c:	00fc4463          	blt	s8,a5,9324 <.L1255+0x3c>
    9320:	b68fb06f          	j	4688 <.L2735>
    9324:	fedf806f          	j	2310 <.L1288>

00009328 <.L726>:
    9328:	01c51c83          	lh	s9,28(a0)
    932c:	03400c13          	li	s8,52
    9330:	019c4a63          	blt	s8,s9,9344 <.L2587>
    9334:	00815c03          	lhu	s8,8(sp)
    9338:	ff8c0c13          	addi	s8,s8,-8
    933c:	01811423          	sh	s8,8(sp)
    9340:	f74f806f          	j	1ab4 <.L718>

00009344 <.L2587>:
    9344:	00815c03          	lhu	s8,8(sp)
    9348:	004c0c13          	addi	s8,s8,4
    934c:	01811423          	sh	s8,8(sp)
    9350:	f64f806f          	j	1ab4 <.L718>

00009354 <.L1041>:
    9354:	00a15c03          	lhu	s8,10(sp)
    9358:	ff5c0c13          	addi	s8,s8,-11
    935c:	010c1c13          	slli	s8,s8,0x10
    9360:	410c5c13          	srai	s8,s8,0x10
    9364:	fb5f706f          	j	1318 <.L1045>

00009368 <.L1667>:
    9368:	00815c03          	lhu	s8,8(sp)
    936c:	01d00c93          	li	s9,29
    9370:	005c0c13          	addi	s8,s8,5
    9374:	01811423          	sh	s8,8(sp)
    9378:	011cc463          	blt	s9,a7,9380 <.L1668>
    937c:	cecf906f          	j	2868 <.L2718>

00009380 <.L1668>:
    9380:	3b500c13          	li	s8,949
    9384:	00ec5463          	bge	s8,a4,938c <.L1668+0xc>
    9388:	1f80206f          	j	b580 <.L1685>
    938c:	00a15c03          	lhu	s8,10(sp)
    9390:	00100c93          	li	s9,1
    9394:	ff7c0c13          	addi	s8,s8,-9
    9398:	01811523          	sh	s8,10(sp)
    939c:	01ccd463          	bge	s9,t3,93a4 <.L1669>
    93a0:	ce0f906f          	j	2880 <.L1658>

000093a4 <.L1669>:
    93a4:	00c15c03          	lhu	s8,12(sp)
    93a8:	ff600c93          	li	s9,-10
    93ac:	004c0c13          	addi	s8,s8,4
    93b0:	01811623          	sh	s8,12(sp)
    93b4:	01965463          	bge	a2,s9,93bc <.L1669+0x18>
    93b8:	cecf906f          	j	28a4 <.L1681>
    93bc:	d51fb06f          	j	510c <.L1682>

000093c0 <.L1701>:
    93c0:	00815c03          	lhu	s8,8(sp)
    93c4:	03b00c93          	li	s9,59
    93c8:	ffbc0c13          	addi	s8,s8,-5
    93cc:	01811423          	sh	s8,8(sp)
    93d0:	00fcd463          	bge	s9,a5,93d8 <.L1701+0x18>
    93d4:	ba1fe06f          	j	7f74 <.L1707>
    93d8:	d28f906f          	j	2900 <.L2645>

000093dc <.L2876>:
    93dc:	11b00c13          	li	s8,283
    93e0:	01ec5463          	bge	s8,t5,93e8 <.L2876+0xc>
    93e4:	ec8fb06f          	j	4aac <.L1936>
    93e8:	00e15c03          	lhu	s8,14(sp)
    93ec:	00cc0c13          	addi	s8,s8,12
    93f0:	01811723          	sh	s8,14(sp)
    93f4:	8cdf906f          	j	2cc0 <.L1933>

000093f8 <.L1703>:
    93f8:	00e15c03          	lhu	s8,14(sp)
    93fc:	004c0c13          	addi	s8,s8,4
    9400:	010c1c13          	slli	s8,s8,0x10
    9404:	010c5c13          	srli	s8,s8,0x10
    9408:	cb8f906f          	j	28c0 <.L1696>

0000940c <.L2897>:
    940c:	02400c13          	li	s8,36
    9410:	f27c5ae3          	bge	s8,t2,9344 <.L2587>
    9414:	00815c03          	lhu	s8,8(sp)
    9418:	ffcc0c13          	addi	s8,s8,-4
    941c:	01811423          	sh	s8,8(sp)
    9420:	e94f806f          	j	1ab4 <.L718>

00009424 <.L2755>:
    9424:	03d00e13          	li	t3,61
    9428:	01c78463          	beq	a5,t3,9430 <.L2755+0xc>
    942c:	af0fa06f          	j	371c <.L213>
    9430:	03d00793          	li	a5,61

00009434 <.L211>:
    9434:	f2000e13          	li	t3,-224
    9438:	01ca4463          	blt	s4,t3,9440 <.L211+0xc>
    943c:	66c0106f          	j	aaa8 <.L238>
    9440:	00a15e03          	lhu	t3,10(sp)
    9444:	08c00c13          	li	s8,140
    9448:	009e0e13          	addi	t3,t3,9
    944c:	01c11523          	sh	t3,10(sp)
    9450:	00dc4463          	blt	s8,a3,9458 <.L211+0x24>
    9454:	a01fc06f          	j	5e54 <.L239>
    9458:	db0fa06f          	j	3a08 <.L240>

0000945c <.L1452>:
    945c:	02700c13          	li	s8,39
    9460:	01dc4463          	blt	s8,t4,9468 <.L1452+0xc>
    9464:	94cf906f          	j	25b0 <.L1475>
    9468:	00a15c03          	lhu	s8,10(sp)
    946c:	007c0c13          	addi	s8,s8,7
    9470:	01811523          	sh	s8,10(sp)
    9474:	c3dfa06f          	j	40b0 <.L1476>

00009478 <.L1176>:
    9478:	f1200c13          	li	s8,-238
    947c:	01845463          	bge	s0,s8,9484 <.L1181>
    9480:	64c0206f          	j	bacc <.L2945>

00009484 <.L1181>:
    9484:	00a15c03          	lhu	s8,10(sp)
    9488:	ff6c0c13          	addi	s8,s8,-10
    948c:	01811523          	sh	s8,10(sp)
    9490:	e00fa06f          	j	3a90 <.L1167>

00009494 <.L2889>:
    9494:	00c15c03          	lhu	s8,12(sp)
    9498:	ff600c93          	li	s9,-10
    949c:	003c0c13          	addi	s8,s8,3
    94a0:	01811623          	sh	s8,12(sp)
    94a4:	01965463          	bge	a2,s9,94ac <.L2889+0x18>
    94a8:	c3dfb06f          	j	50e4 <.L1930>
    94ac:	de8fb06f          	j	4a94 <.L1929>

000094b0 <.L2189>:
    94b0:	00815f03          	lhu	t5,8(sp)
    94b4:	005f0f13          	addi	t5,t5,5
    94b8:	01e11423          	sh	t5,8(sp)
    94bc:	c39f906f          	j	30f4 <.L2188>

000094c0 <.L694>:
    94c0:	00815c03          	lhu	s8,8(sp)
    94c4:	ff7c0c13          	addi	s8,s8,-9
    94c8:	010c1c13          	slli	s8,s8,0x10
    94cc:	410c5c13          	srai	s8,s8,0x10
    94d0:	8ddf706f          	j	dac <.L692>

000094d4 <.L1020>:
    94d4:	00c15c03          	lhu	s8,12(sp)
    94d8:	ffdc0c13          	addi	s8,s8,-3
    94dc:	010c1c13          	slli	s8,s8,0x10
    94e0:	410c5c13          	srai	s8,s8,0x10
    94e4:	da9f706f          	j	128c <.L1019>

000094e8 <.L1413>:
    94e8:	00c15c03          	lhu	s8,12(sp)
    94ec:	03c00c93          	li	s9,60
    94f0:	003c0c13          	addi	s8,s8,3
    94f4:	01811623          	sh	s8,12(sp)
    94f8:	00fcd463          	bge	s9,a5,9500 <.L1413+0x18>
    94fc:	b70fb06f          	j	486c <.L1389>
    9500:	f89f806f          	j	2488 <.L2627>

00009504 <.L1050>:
    9504:	00815c03          	lhu	s8,8(sp)
    9508:	001c0c13          	addi	s8,s8,1
    950c:	01811423          	sh	s8,8(sp)
    9510:	dd5f706f          	j	12e4 <.L1043>

00009514 <.L1857>:
    9514:	00c15c03          	lhu	s8,12(sp)
    9518:	009c0c13          	addi	s8,s8,9
    951c:	01811623          	sh	s8,12(sp)
    9520:	e38f906f          	j	2b58 <.L1855>

00009524 <.L2806>:
    9524:	ff000c13          	li	s8,-16
    9528:	01865463          	bge	a2,s8,9530 <.L2806+0xc>
    952c:	b2cfb06f          	j	4858 <.L1388>
    9530:	a5dfa06f          	j	3f8c <.L1393>

00009534 <.L2927>:
    9534:	00c15c03          	lhu	s8,12(sp)
    9538:	ffec0c13          	addi	s8,s8,-2
    953c:	01811623          	sh	s8,12(sp)

00009540 <.L1301>:
    9540:	02a00c13          	li	s8,42
    9544:	011c4463          	blt	s8,a7,954c <.L1301+0xc>
    9548:	805fe06f          	j	7d4c <.L2615>
    954c:	00e15c03          	lhu	s8,14(sp)
    9550:	ffe00c93          	li	s9,-2
    9554:	002c0c13          	addi	s8,s8,2
    9558:	01811723          	sh	s8,14(sp)
    955c:	01985463          	bge	a6,s9,9564 <.L1301+0x24>
    9560:	994f806f          	j	16f4 <.L1299>
    9564:	978fb06f          	j	46dc <.L1300>

00009568 <.L2811>:
    9568:	ffc00c13          	li	s8,-4
    956c:	01864463          	blt	a2,s8,9574 <.L2811+0xc>
    9570:	8cdfa06f          	j	3e3c <.L1664>
    9574:	02e00c13          	li	s8,46
    9578:	01dc4463          	blt	s8,t4,9580 <.L1666>
    957c:	8d9fa06f          	j	3e54 <.L1665>

00009580 <.L1666>:
    9580:	00e00c13          	li	s8,14
    9584:	010c5463          	bge	s8,a6,958c <.L1666+0xc>
    9588:	2200206f          	j	b7a8 <.L2946>
    958c:	00a15c03          	lhu	s8,10(sp)
    9590:	00100c93          	li	s9,1
    9594:	004c0c13          	addi	s8,s8,4
    9598:	01811523          	sh	s8,10(sp)
    959c:	01ccd463          	bge	s9,t3,95a4 <.L1666+0x24>
    95a0:	d68fc06f          	j	5b08 <.L1691>
    95a4:	e58ff06f          	j	8bfc <.L1693>

000095a8 <.L849>:
    95a8:	00c15c03          	lhu	s8,12(sp)
    95ac:	d2a00c93          	li	s9,-726
    95b0:	ff8c0c13          	addi	s8,s8,-8
    95b4:	01811623          	sh	s8,12(sp)
    95b8:	0195d463          	bge	a1,s9,95c0 <.L849+0x18>
    95bc:	c04fc06f          	j	59c0 <.L850>
    95c0:	eccf806f          	j	1c8c <.L2593>

000095c4 <.L1695>:
    95c4:	00e15c03          	lhu	s8,14(sp)
    95c8:	003c0c13          	addi	s8,s8,3
    95cc:	010c1c13          	slli	s8,s8,0x10
    95d0:	010c5c13          	srli	s8,s8,0x10
    95d4:	aecf906f          	j	28c0 <.L1696>

000095d8 <.L2887>:
    95d8:	00a15b03          	lhu	s6,10(sp)
    95dc:	ff9b0b13          	addi	s6,s6,-7
    95e0:	01611523          	sh	s6,10(sp)
    95e4:	9d5f906f          	j	2fb8 <.L2114>

000095e8 <.L954>:
    95e8:	00815c03          	lhu	s8,8(sp)
    95ec:	ffbc0c13          	addi	s8,s8,-5
    95f0:	010c1c13          	slli	s8,s8,0x10
    95f4:	410c5c13          	srai	s8,s8,0x10
    95f8:	831f806f          	j	1e28 <.L948>

000095fc <.L1008>:
    95fc:	00a15c03          	lhu	s8,10(sp)
    9600:	ff7c0c13          	addi	s8,s8,-9
    9604:	010c1c13          	slli	s8,s8,0x10
    9608:	010c5c13          	srli	s8,s8,0x10
    960c:	8a9fc06f          	j	5eb4 <.L1009>

00009610 <.L2120>:
    9610:	00a15b03          	lhu	s6,10(sp)
    9614:	001b0b13          	addi	s6,s6,1
    9618:	01611523          	sh	s6,10(sp)
    961c:	99df906f          	j	2fb8 <.L2114>

00009620 <.L1909>:
    9620:	00815c03          	lhu	s8,8(sp)
    9624:	fffc0c13          	addi	s8,s8,-1
    9628:	01811423          	sh	s8,8(sp)
    962c:	02b00c13          	li	s8,43
    9630:	010c5463          	bge	s8,a6,9638 <.L1909+0x18>
    9634:	a71fb06f          	j	50a4 <.L1902>
    9638:	e00f906f          	j	2c38 <.L1908>

0000963c <.L608>:
    963c:	00e15c03          	lhu	s8,14(sp)
    9640:	009c0c13          	addi	s8,s8,9
    9644:	010c1c13          	slli	s8,s8,0x10
    9648:	010c5c13          	srli	s8,s8,0x10
    964c:	01811723          	sh	s8,14(sp)
    9650:	de4f706f          	j	c34 <.L607>

00009654 <.L1137>:
    9654:	00a15c03          	lhu	s8,10(sp)
    9658:	ffcc0c13          	addi	s8,s8,-4
    965c:	01811523          	sh	s8,10(sp)
    9660:	e11f706f          	j	1470 <.L1138>

00009664 <.L1607>:
    9664:	00a15c03          	lhu	s8,10(sp)
    9668:	03c00c93          	li	s9,60
    966c:	00ac0c13          	addi	s8,s8,10
    9670:	01811523          	sh	s8,10(sp)
    9674:	00fcc463          	blt	s9,a5,967c <.L1607+0x18>
    9678:	ba0fc06f          	j	5a18 <.L1603>
    967c:	824ff06f          	j	86a0 <.L2713>

00009680 <.L702>:
    9680:	00a15c03          	lhu	s8,10(sp)
    9684:	003c0c13          	addi	s8,s8,3
    9688:	010c1c13          	slli	s8,s8,0x10
    968c:	410c5c13          	srai	s8,s8,0x10
    9690:	b94f806f          	j	1a24 <.L701>

00009694 <.L2354>:
    9694:	2ff00e13          	li	t3,767
    9698:	00ee4463          	blt	t3,a4,96a0 <.L2354+0xc>
    969c:	f40fd06f          	j	6ddc <.L156>
    96a0:	00001e37          	lui	t3,0x1
    96a4:	85be0e13          	addi	t3,t3,-1957 # 85b <.L352+0xf>
    96a8:	00de4463          	blt	t3,a3,96b0 <.L2354+0x1c>
    96ac:	2ac0206f          	j	b958 <.L2947>
    96b0:	00c15e03          	lhu	t3,12(sp)
    96b4:	00ae0e13          	addi	t3,t3,10
    96b8:	01c11623          	sh	t3,12(sp)
    96bc:	f85f606f          	j	640 <.L174>

000096c0 <.L942>:
    96c0:	00e15c03          	lhu	s8,14(sp)
    96c4:	002c0c13          	addi	s8,s8,2
    96c8:	01811723          	sh	s8,14(sp)
    96cc:	aa5f706f          	j	1170 <.L940>

000096d0 <.L804>:
    96d0:	00a15c03          	lhu	s8,10(sp)
    96d4:	ffc00c93          	li	s9,-4
    96d8:	ffbc0c13          	addi	s8,s8,-5
    96dc:	01811523          	sh	s8,10(sp)
    96e0:	01964463          	blt	a2,s9,96e8 <.L804+0x18>
    96e4:	85df706f          	j	f40 <.L812>
    96e8:	cc8f806f          	j	1bb0 <.L797>

000096ec <.L423>:
    96ec:	00815c03          	lhu	s8,8(sp)
    96f0:	002c0c13          	addi	s8,s8,2
    96f4:	010c1c13          	slli	s8,s8,0x10
    96f8:	410c5c13          	srai	s8,s8,0x10
    96fc:	a84f706f          	j	980 <.L420>

00009700 <.L1149>:
    9700:	00e15c03          	lhu	s8,14(sp)
    9704:	001c0c13          	addi	s8,s8,1
    9708:	010c1c13          	slli	s8,s8,0x10
    970c:	410c5c13          	srai	s8,s8,0x10
    9710:	dbdf706f          	j	14cc <.L1148>

00009714 <.L665>:
    9714:	00a15c03          	lhu	s8,10(sp)
    9718:	008c0c13          	addi	s8,s8,8
    971c:	010c1c13          	slli	s8,s8,0x10
    9720:	410c5c13          	srai	s8,s8,0x10
    9724:	df8f706f          	j	d1c <.L662>

00009728 <.L867>:
    9728:	00a15c03          	lhu	s8,10(sp)
    972c:	ffdc0c13          	addi	s8,s8,-3
    9730:	01811523          	sh	s8,10(sp)
    9734:	935f706f          	j	1068 <.L874>

00009738 <.L463>:
    9738:	00815c03          	lhu	s8,8(sp)
    973c:	0b500c93          	li	s9,181
    9740:	ffbc0c13          	addi	s8,s8,-5
    9744:	01811423          	sh	s8,8(sp)
    9748:	006cc463          	blt	s9,t1,9750 <.L463+0x18>
    974c:	afcf706f          	j	a48 <.L465>
    9750:	e39f906f          	j	3588 <.L472>

00009754 <.L877>:
    9754:	00a15c03          	lhu	s8,10(sp)
    9758:	005c0c13          	addi	s8,s8,5
    975c:	01811523          	sh	s8,10(sp)
    9760:	d98f806f          	j	1cf8 <.L878>

00009764 <.L897>:
    9764:	00e15c03          	lhu	s8,14(sp)
    9768:	ec600c93          	li	s9,-314
    976c:	001c0c13          	addi	s8,s8,1
    9770:	01811723          	sh	s8,14(sp)
    9774:	01945463          	bge	s0,s9,977c <.L897+0x18>
    9778:	dd4f806f          	j	1d4c <.L904>
    977c:	ebf00c13          	li	s8,-321
    9780:	0185da63          	bge	a1,s8,9794 <.L902>

00009784 <.L901>:
    9784:	00815c03          	lhu	s8,8(sp)
    9788:	019c0c13          	addi	s8,s8,25
    978c:	01811423          	sh	s8,8(sp)
    9790:	959f706f          	j	10e8 <.L906>

00009794 <.L902>:
    9794:	00815c03          	lhu	s8,8(sp)
    9798:	004c0c13          	addi	s8,s8,4
    979c:	01811423          	sh	s8,8(sp)
    97a0:	949f706f          	j	10e8 <.L906>

000097a4 <.L75>:
    97a4:	00e15e03          	lhu	t3,14(sp)
    97a8:	fffe0e13          	addi	t3,t3,-1
    97ac:	010e1e13          	slli	t3,t3,0x10
    97b0:	410e5e13          	srai	t3,t3,0x10
    97b4:	c3df606f          	j	3f0 <.L73>

000097b8 <.L436>:
    97b8:	00a15c03          	lhu	s8,10(sp)
    97bc:	ff9c0c13          	addi	s8,s8,-7
    97c0:	010c1c13          	slli	s8,s8,0x10
    97c4:	410c5c13          	srai	s8,s8,0x10
    97c8:	d29f906f          	j	34f0 <.L437>

000097cc <.L467>:
    97cc:	00815c03          	lhu	s8,8(sp)
    97d0:	0b500c93          	li	s9,181
    97d4:	ff8c0c13          	addi	s8,s8,-8
    97d8:	01811423          	sh	s8,8(sp)
    97dc:	006cc463          	blt	s9,t1,97e4 <.L467+0x18>
    97e0:	a68f706f          	j	a48 <.L465>
    97e4:	da5f906f          	j	3588 <.L472>

000097e8 <.L441>:
    97e8:	00c15c03          	lhu	s8,12(sp)
    97ec:	e2500c93          	li	s9,-475
    97f0:	ff8c0c13          	addi	s8,s8,-8
    97f4:	01811623          	sh	s8,12(sp)
    97f8:	01944463          	blt	s0,s9,9800 <.L441+0x18>
    97fc:	eb1f906f          	j	36ac <.L443>
    9800:	b29fc06f          	j	6328 <.L442>

00009804 <.L677>:
    9804:	00e15c03          	lhu	s8,14(sp)
    9808:	ff7c0c13          	addi	s8,s8,-9
    980c:	010c1c13          	slli	s8,s8,0x10
    9810:	410c5c13          	srai	s8,s8,0x10
    9814:	d68f706f          	j	d7c <.L676>

00009818 <.L836>:
    9818:	00a15c03          	lhu	s8,10(sp)
    981c:	fffc0c13          	addi	s8,s8,-1
    9820:	01811523          	sh	s8,10(sp)
    9824:	c38f806f          	j	1c5c <.L837>

00009828 <.L469>:
    9828:	00a15c03          	lhu	s8,10(sp)
    982c:	007c0c13          	addi	s8,s8,7
    9830:	010c1c13          	slli	s8,s8,0x10
    9834:	410c5c13          	srai	s8,s8,0x10
    9838:	a38f706f          	j	a70 <.L470>

0000983c <.L130>:
    983c:	00e15e03          	lhu	t3,14(sp)
    9840:	006e0e13          	addi	t3,t3,6
    9844:	010e1e13          	slli	t3,t3,0x10
    9848:	410e5e13          	srai	t3,t3,0x10
    984c:	c59f606f          	j	4a4 <.L129>

00009850 <.L458>:
    9850:	00815c03          	lhu	s8,8(sp)
    9854:	ffbc0c13          	addi	s8,s8,-5
    9858:	01811423          	sh	s8,8(sp)
    985c:	b15fc06f          	j	6370 <.L460>

00009860 <.L434>:
    9860:	00a15c03          	lhu	s8,10(sp)
    9864:	06300c93          	li	s9,99
    9868:	001c0c13          	addi	s8,s8,1
    986c:	01811523          	sh	s8,10(sp)
    9870:	00dcc463          	blt	s9,a3,9878 <.L434+0x18>
    9874:	e01f906f          	j	3674 <.L432>
    9878:	948f706f          	j	9c0 <.L427>

0000987c <.L1094>:
    987c:	00815c03          	lhu	s8,8(sp)
    9880:	006c0c13          	addi	s8,s8,6
    9884:	010c1c13          	slli	s8,s8,0x10
    9888:	410c5c13          	srai	s8,s8,0x10
    988c:	af1f706f          	j	137c <.L1092>

00009890 <.L566>:
    9890:	00a15c03          	lhu	s8,10(sp)
    9894:	003c0c13          	addi	s8,s8,3
    9898:	010c1c13          	slli	s8,s8,0x10
    989c:	410c5c13          	srai	s8,s8,0x10
    98a0:	b38f706f          	j	bd8 <.L2578>

000098a4 <.L426>:
    98a4:	00a15c03          	lhu	s8,10(sp)
    98a8:	06300c93          	li	s9,99
    98ac:	009c0c13          	addi	s8,s8,9
    98b0:	01811523          	sh	s8,10(sp)
    98b4:	00dcc463          	blt	s9,a3,98bc <.L426+0x18>
    98b8:	dbdf906f          	j	3674 <.L432>
    98bc:	904f706f          	j	9c0 <.L427>

000098c0 <.L450>:
    98c0:	00e15c03          	lhu	s8,14(sp)
    98c4:	00ac0c13          	addi	s8,s8,10
    98c8:	010c1c13          	slli	s8,s8,0x10
    98cc:	010c5c13          	srli	s8,s8,0x10
    98d0:	93cf706f          	j	a0c <.L2571>

000098d4 <.L440>:
    98d4:	00c15c03          	lhu	s8,12(sp)
    98d8:	ffec0c13          	addi	s8,s8,-2
    98dc:	010c1c13          	slli	s8,s8,0x10
    98e0:	410c5c13          	srai	s8,s8,0x10
    98e4:	8f8f706f          	j	9dc <.L431>

000098e8 <.L471>:
    98e8:	00a15c03          	lhu	s8,10(sp)
    98ec:	ffec0c13          	addi	s8,s8,-2
    98f0:	010c1c13          	slli	s8,s8,0x10
    98f4:	410c5c13          	srai	s8,s8,0x10
    98f8:	978f706f          	j	a70 <.L470>

000098fc <.L1031>:
    98fc:	00e15c03          	lhu	s8,14(sp)
    9900:	ffdc0c13          	addi	s8,s8,-3
    9904:	010c1c13          	slli	s8,s8,0x10
    9908:	410c5c13          	srai	s8,s8,0x10
    990c:	9b5f706f          	j	12c0 <.L1028>

00009910 <.L473>:
    9910:	00a15c03          	lhu	s8,10(sp)
    9914:	004c0c13          	addi	s8,s8,4
    9918:	010c1c13          	slli	s8,s8,0x10
    991c:	410c5c13          	srai	s8,s8,0x10
    9920:	950f706f          	j	a70 <.L470>

00009924 <.L1441>:
    9924:	00400c13          	li	s8,4
    9928:	011c5463          	bge	s8,a7,9930 <.L1441+0xc>
    992c:	a84fc06f          	j	5bb0 <.L1443>
    9930:	c39f806f          	j	2568 <.L1444>

00009934 <.L1131>:
    9934:	00815c03          	lhu	s8,8(sp)
    9938:	03300c93          	li	s9,51
    993c:	003c0c13          	addi	s8,s8,3
    9940:	01811423          	sh	s8,8(sp)
    9944:	01fcd463          	bge	s9,t6,994c <.L1131+0x18>
    9948:	f94f806f          	j	20dc <.L1129>
    994c:	fe200c13          	li	s8,-30
    9950:	01864463          	blt	a2,s8,9958 <.L1132>
    9954:	93cfe06f          	j	7a90 <.L1128>

00009958 <.L1132>:
    9958:	00a15c03          	lhu	s8,10(sp)
    995c:	005c0c13          	addi	s8,s8,5
    9960:	010c1c13          	slli	s8,s8,0x10
    9964:	410c5c13          	srai	s8,s8,0x10
    9968:	afdf706f          	j	1464 <.L1133>

0000996c <.L811>:
    996c:	00c15c03          	lhu	s8,12(sp)
    9970:	ff9c0c13          	addi	s8,s8,-7
    9974:	010c1c13          	slli	s8,s8,0x10
    9978:	410c5c13          	srai	s8,s8,0x10
    997c:	a5cf806f          	j	1bd8 <.L810>

00009980 <.L675>:
    9980:	00e15c03          	lhu	s8,14(sp)
    9984:	ffac0c13          	addi	s8,s8,-6
    9988:	010c1c13          	slli	s8,s8,0x10
    998c:	410c5c13          	srai	s8,s8,0x10
    9990:	becf706f          	j	d7c <.L676>

00009994 <.L705>:
    9994:	00c15c03          	lhu	s8,12(sp)
    9998:	00dc0c13          	addi	s8,s8,13
    999c:	010c1c13          	slli	s8,s8,0x10
    99a0:	410c5c13          	srai	s8,s8,0x10
    99a4:	c70f706f          	j	e14 <.L706>

000099a8 <.L680>:
    99a8:	00e15c03          	lhu	s8,14(sp)
    99ac:	008c0c13          	addi	s8,s8,8
    99b0:	010c1c13          	slli	s8,s8,0x10
    99b4:	010c5c13          	srli	s8,s8,0x10
    99b8:	d9cfc06f          	j	5f54 <.L681>

000099bc <.L2179>:
    99bc:	00c15683          	lhu	a3,12(sp)
    99c0:	ffe68693          	addi	a3,a3,-2
    99c4:	00d11623          	sh	a3,12(sp)
    99c8:	ee4f906f          	j	30ac <.L2163>

000099cc <.L2154>:
    99cc:	00a15b03          	lhu	s6,10(sp)
    99d0:	007b0b13          	addi	s6,s6,7
    99d4:	01611523          	sh	s6,10(sp)
    99d8:	cedfd06f          	j	76c4 <.L2155>

000099dc <.L1242>:
    99dc:	00c15c03          	lhu	s8,12(sp)
    99e0:	009c0c13          	addi	s8,s8,9
    99e4:	010c1c13          	slli	s8,s8,0x10
    99e8:	410c5c13          	srai	s8,s8,0x10
    99ec:	89df806f          	j	2288 <.L1239>

000099f0 <.L1975>:
    99f0:	00c15c03          	lhu	s8,12(sp)
    99f4:	05800c93          	li	s9,88
    99f8:	ff7c0c13          	addi	s8,s8,-9
    99fc:	01811623          	sh	s8,12(sp)
    9a00:	009cca63          	blt	s9,s1,9a14 <.L1976>
    9a04:	f5300c13          	li	s8,-173
    9a08:	01844463          	blt	s0,s8,9a10 <.L1975+0x20>
    9a0c:	950fb06f          	j	4b5c <.L1994>
    9a10:	940fb06f          	j	4b50 <.L2657>

00009a14 <.L1976>:
    9a14:	03600c13          	li	s8,54
    9a18:	00fc5463          	bge	s8,a5,9a20 <.L1976+0xc>
    9a1c:	24d0106f          	j	b468 <.L1989>
    9a20:	00e15c03          	lhu	s8,14(sp)
    9a24:	ff9c0c13          	addi	s8,s8,-7
    9a28:	01811723          	sh	s8,14(sp)
    9a2c:	930fb06f          	j	4b5c <.L1994>

00009a30 <.L1515>:
    9a30:	00a15c03          	lhu	s8,10(sp)
    9a34:	007c0c13          	addi	s8,s8,7
    9a38:	010c1c13          	slli	s8,s8,0x10
    9a3c:	410c5c13          	srai	s8,s8,0x10
    9a40:	f10fa06f          	j	4150 <.L1516>

00009a44 <.L2138>:
    9a44:	00e15b03          	lhu	s6,14(sp)
    9a48:	009b0b13          	addi	s6,s6,9
    9a4c:	010b1b13          	slli	s6,s6,0x10
    9a50:	410b5b13          	srai	s6,s6,0x10
    9a54:	931fb06f          	j	5384 <.L2137>

00009a58 <.L2005>:
    9a58:	00a15c03          	lhu	s8,10(sp)
    9a5c:	008c0c13          	addi	s8,s8,8
    9a60:	01811523          	sh	s8,10(sp)
    9a64:	b58f906f          	j	2dbc <.L1998>

00009a68 <.L50>:
    9a68:	00a15e03          	lhu	t3,10(sp)
    9a6c:	df700393          	li	t2,-521
    9a70:	ff9e0e13          	addi	t3,t3,-7
    9a74:	01c11523          	sh	t3,10(sp)
    9a78:	007a5463          	bge	s4,t2,9a80 <.L53>
    9a7c:	f30f606f          	j	1ac <.L52>

00009a80 <.L53>:
    9a80:	00c15e03          	lhu	t3,12(sp)
    9a84:	ff5e0e13          	addi	t3,t3,-11
    9a88:	010e1e13          	slli	t3,t3,0x10
    9a8c:	410e5e13          	srai	t3,t3,0x10
    9a90:	f44f606f          	j	1d4 <.L65>

00009a94 <.L279>:
    9a94:	00e15e03          	lhu	t3,14(sp)
    9a98:	ff7e0e13          	addi	t3,t3,-9
    9a9c:	010e1e13          	slli	t3,t3,0x10
    9aa0:	410e5e13          	srai	t3,t3,0x10
    9aa4:	c75f606f          	j	718 <.L275>

00009aa8 <.L394>:
    9aa8:	00815c03          	lhu	s8,8(sp)
    9aac:	ff6c0c13          	addi	s8,s8,-10
    9ab0:	010c1c13          	slli	s8,s8,0x10
    9ab4:	410c5c13          	srai	s8,s8,0x10
    9ab8:	921f906f          	j	33d8 <.L395>

00009abc <.L1240>:
    9abc:	00c15c03          	lhu	s8,12(sp)
    9ac0:	ffac0c13          	addi	s8,s8,-6
    9ac4:	010c1c13          	slli	s8,s8,0x10
    9ac8:	410c5c13          	srai	s8,s8,0x10
    9acc:	fbcf806f          	j	2288 <.L1239>

00009ad0 <.L2017>:
    9ad0:	00e15c03          	lhu	s8,14(sp)
    9ad4:	002c0c13          	addi	s8,s8,2
    9ad8:	010c1c13          	slli	s8,s8,0x10
    9adc:	410c5c13          	srai	s8,s8,0x10
    9ae0:	b34f906f          	j	2e14 <.L2014>

00009ae4 <.L1147>:
    9ae4:	00e15c03          	lhu	s8,14(sp)
    9ae8:	ffbc0c13          	addi	s8,s8,-5
    9aec:	010c1c13          	slli	s8,s8,0x10
    9af0:	410c5c13          	srai	s8,s8,0x10
    9af4:	9d9f706f          	j	14cc <.L1148>

00009af8 <.L1723>:
    9af8:	00a15c03          	lhu	s8,10(sp)
    9afc:	ff7c0c13          	addi	s8,s8,-9
    9b00:	010c1c13          	slli	s8,s8,0x10
    9b04:	410c5c13          	srai	s8,s8,0x10
    9b08:	e15f806f          	j	291c <.L1720>

00009b0c <.L1770>:
    9b0c:	00c15c03          	lhu	s8,12(sp)
    9b10:	002c0c13          	addi	s8,s8,2
    9b14:	01811623          	sh	s8,12(sp)
    9b18:	ee1f806f          	j	29f8 <.L1769>

00009b1c <.L1435>:
    9b1c:	00c15c03          	lhu	s8,12(sp)
    9b20:	002c0c13          	addi	s8,s8,2
    9b24:	01811623          	sh	s8,12(sp)
    9b28:	a05f806f          	j	252c <.L1434>

00009b2c <.L322>:
    9b2c:	00c15c03          	lhu	s8,12(sp)
    9b30:	014c0c13          	addi	s8,s8,20
    9b34:	010c1c13          	slli	s8,s8,0x10
    9b38:	010c5c13          	srli	s8,s8,0x10
    9b3c:	ce9f906f          	j	3824 <.L323>

00009b40 <.L513>:
    9b40:	00815c03          	lhu	s8,8(sp)
    9b44:	004c0c13          	addi	s8,s8,4
    9b48:	010c1c13          	slli	s8,s8,0x10
    9b4c:	410c5c13          	srai	s8,s8,0x10
    9b50:	97dfa06f          	j	44cc <.L512>

00009b54 <.L1123>:
    9b54:	00e15c03          	lhu	s8,14(sp)
    9b58:	003c0c13          	addi	s8,s8,3
    9b5c:	01811723          	sh	s8,14(sp)
    9b60:	a09fb06f          	j	5568 <.L1122>

00009b64 <.L1262>:
    9b64:	00815c03          	lhu	s8,8(sp)
    9b68:	004c0c13          	addi	s8,s8,4
    9b6c:	010c1c13          	slli	s8,s8,0x10
    9b70:	410c5c13          	srai	s8,s8,0x10
    9b74:	acdfa06f          	j	4640 <.L1252>

00009b78 <.L1330>:
    9b78:	00815c03          	lhu	s8,8(sp)
    9b7c:	ffec0c13          	addi	s8,s8,-2
    9b80:	010c1c13          	slli	s8,s8,0x10
    9b84:	410c5c13          	srai	s8,s8,0x10
    9b88:	fe0f806f          	j	2368 <.L1331>

00009b8c <.L1098>:
    9b8c:	00a15c03          	lhu	s8,10(sp)
    9b90:	fffc0c13          	addi	s8,s8,-1
    9b94:	01811523          	sh	s8,10(sp)
    9b98:	811f706f          	j	13a8 <.L1097>

00009b9c <.L396>:
    9b9c:	00815c03          	lhu	s8,8(sp)
    9ba0:	00bc0c13          	addi	s8,s8,11
    9ba4:	010c1c13          	slli	s8,s8,0x10
    9ba8:	410c5c13          	srai	s8,s8,0x10
    9bac:	82df906f          	j	33d8 <.L395>

00009bb0 <.L1773>:
    9bb0:	00e15c03          	lhu	s8,14(sp)
    9bb4:	ffec0c13          	addi	s8,s8,-2
    9bb8:	01811723          	sh	s8,14(sp)
    9bbc:	e6df806f          	j	2a28 <.L1774>

00009bc0 <.L2935>:
    9bc0:	00c15c03          	lhu	s8,12(sp)
    9bc4:	006c0c13          	addi	s8,s8,6
    9bc8:	010c1c13          	slli	s8,s8,0x10
    9bcc:	410c5c13          	srai	s8,s8,0x10
    9bd0:	b71f806f          	j	2740 <.L1573>

00009bd4 <.L1766>:
    9bd4:	00a15c03          	lhu	s8,10(sp)
    9bd8:	001c0c13          	addi	s8,s8,1
    9bdc:	01811523          	sh	s8,10(sp)
    9be0:	dedf806f          	j	29cc <.L1755>

00009be4 <.L2043>:
    9be4:	00c15c03          	lhu	s8,12(sp)
    9be8:	ffcc0c13          	addi	s8,s8,-4
    9bec:	01811623          	sh	s8,12(sp)
    9bf0:	01c04463          	bgtz	t3,9bf8 <.L2043+0x14>
    9bf4:	ce1fb06f          	j	58d4 <.L2658>
    9bf8:	ff600c13          	li	s8,-10
    9bfc:	01864463          	blt	a2,s8,9c04 <.L2043+0x20>
    9c00:	6490106f          	j	ba48 <.L2058>
    9c04:	02900c13          	li	s8,41
    9c08:	01dc5463          	bge	s8,t4,9c10 <.L2043+0x2c>
    9c0c:	3200206f          	j	bf2c <.L2059>
    9c10:	00e15c03          	lhu	s8,14(sp)
    9c14:	0a900c93          	li	s9,169
    9c18:	ffbc0c13          	addi	s8,s8,-5
    9c1c:	01811723          	sh	s8,14(sp)
    9c20:	01ecc463          	blt	s9,t5,9c28 <.L2043+0x44>
    9c24:	ab4f906f          	j	2ed8 <.L2049>
    9c28:	cc5fb06f          	j	58ec <.L2045>

00009c2c <.L724>:
    9c2c:	00e15c03          	lhu	s8,14(sp)
    9c30:	003c0c13          	addi	s8,s8,3
    9c34:	01811723          	sh	s8,14(sp)
    9c38:	e51f706f          	j	1a88 <.L722>

00009c3c <.L2341>:
    9c3c:	00851803          	lh	a6,8(a0)
    9c40:	02200593          	li	a1,34
    9c44:	0105c463          	blt	a1,a6,9c4c <.L2341+0x10>
    9c48:	c4df906f          	j	3894 <.L2318>
    9c4c:	01e51583          	lh	a1,30(a0)
    9c50:	00c51903          	lh	s2,12(a0)

00009c54 <.L35>:
    9c54:	00815883          	lhu	a7,8(sp)
    9c58:	1b500e13          	li	t3,437
    9c5c:	ff488893          	addi	a7,a7,-12
    9c60:	01111423          	sh	a7,8(sp)
    9c64:	00ee5463          	bge	t3,a4,9c6c <.L35+0x18>
    9c68:	c4df906f          	j	38b4 <.L44>
    9c6c:	f0cf606f          	j	378 <.L2544>

00009c70 <.L669>:
    9c70:	00c15c03          	lhu	s8,12(sp)
    9c74:	ffec0c13          	addi	s8,s8,-2
    9c78:	01811623          	sh	s8,12(sp)
    9c7c:	8d0f706f          	j	d4c <.L670>

00009c80 <.L679>:
    9c80:	00e15c03          	lhu	s8,14(sp)
    9c84:	008c0c13          	addi	s8,s8,8
    9c88:	010c1c13          	slli	s8,s8,0x10
    9c8c:	410c5c13          	srai	s8,s8,0x10
    9c90:	8ecf706f          	j	d7c <.L676>

00009c94 <.L671>:
    9c94:	00c15c03          	lhu	s8,12(sp)
    9c98:	ff7c0c13          	addi	s8,s8,-9
    9c9c:	01811623          	sh	s8,12(sp)
    9ca0:	8acf706f          	j	d4c <.L670>

00009ca4 <.L562>:
    9ca4:	00a15c03          	lhu	s8,10(sp)
    9ca8:	006c0c13          	addi	s8,s8,6
    9cac:	010c1c13          	slli	s8,s8,0x10
    9cb0:	410c5c13          	srai	s8,s8,0x10
    9cb4:	f25f606f          	j	bd8 <.L2578>

00009cb8 <.L887>:
    9cb8:	00c15c03          	lhu	s8,12(sp)
    9cbc:	02f00c93          	li	s9,47
    9cc0:	fffc0c13          	addi	s8,s8,-1
    9cc4:	01811623          	sh	s8,12(sp)
    9cc8:	010cd463          	bge	s9,a6,9cd0 <.L887+0x18>
    9ccc:	858f806f          	j	1d24 <.L889>
    9cd0:	bccf706f          	j	109c <.L888>

00009cd4 <.L278>:
    9cd4:	00e15e03          	lhu	t3,14(sp)
    9cd8:	002e0e13          	addi	t3,t3,2
    9cdc:	010e1e13          	slli	t3,t3,0x10
    9ce0:	410e5e13          	srai	t3,t3,0x10
    9ce4:	a35f606f          	j	718 <.L275>

00009ce8 <.L212>:
    9ce8:	00815e03          	lhu	t3,8(sp)
    9cec:	08000c13          	li	s8,128
    9cf0:	008e0e13          	addi	t3,t3,8
    9cf4:	01c11423          	sh	t3,8(sp)
    9cf8:	00ec4463          	blt	s8,a4,9d00 <.L212+0x18>
    9cfc:	999f606f          	j	694 <.L215>
    9d00:	03d00e13          	li	t3,61
    9d04:	00fe5463          	bge	t3,a5,9d0c <.L212+0x24>
    9d08:	6590106f          	j	bb60 <.L2948>
    9d0c:	f2000e13          	li	t3,-224
    9d10:	01ca4463          	blt	s4,t3,9d18 <.L212+0x30>
    9d14:	2a00206f          	j	bfb4 <.L2949>
    9d18:	00a15e03          	lhu	t3,10(sp)
    9d1c:	009e0e13          	addi	t3,t3,9
    9d20:	01c11523          	sh	t3,10(sp)
    9d24:	ce5f906f          	j	3a08 <.L240>

00009d28 <.L1248>:
    9d28:	2ad00c13          	li	s8,685
    9d2c:	006c4463          	blt	s8,t1,9d34 <.L1248+0xc>
    9d30:	4940106f          	j	b1c4 <.L1271>
    9d34:	00815c03          	lhu	s8,8(sp)
    9d38:	00c00c93          	li	s9,12
    9d3c:	019c0c33          	add	s8,s8,s9
    9d40:	01811423          	sh	s8,8(sp)
    9d44:	25ccdae3          	bge	s9,t3,a798 <.L1250>

00009d48 <.L1251>:
    9d48:	00a15c03          	lhu	s8,10(sp)
    9d4c:	ff5c0c13          	addi	s8,s8,-11
    9d50:	010c1c13          	slli	s8,s8,0x10
    9d54:	010c5c13          	srli	s8,s8,0x10
    9d58:	921fa06f          	j	4678 <.L1296>

00009d5c <.L707>:
    9d5c:	00c15c03          	lhu	s8,12(sp)
    9d60:	ff8c0c13          	addi	s8,s8,-8
    9d64:	010c1c13          	slli	s8,s8,0x10
    9d68:	410c5c13          	srai	s8,s8,0x10
    9d6c:	8a8f706f          	j	e14 <.L706>

00009d70 <.L2782>:
    9d70:	00a15c03          	lhu	s8,10(sp)
    9d74:	005c0c13          	addi	s8,s8,5
    9d78:	010c1c13          	slli	s8,s8,0x10
    9d7c:	410c5c13          	srai	s8,s8,0x10
    9d80:	ca5f706f          	j	1a24 <.L701>

00009d84 <.L1136>:
    9d84:	00a15c03          	lhu	s8,10(sp)
    9d88:	003c0c13          	addi	s8,s8,3
    9d8c:	010c1c13          	slli	s8,s8,0x10
    9d90:	410c5c13          	srai	s8,s8,0x10
    9d94:	ed0f706f          	j	1464 <.L1133>

00009d98 <.L658>:
    9d98:	00815c03          	lhu	s8,8(sp)
    9d9c:	ffbc0c13          	addi	s8,s8,-5
    9da0:	01811423          	sh	s8,8(sp)
    9da4:	f49f606f          	j	cec <.L649>

00009da8 <.L1843>:
    9da8:	00a15c03          	lhu	s8,10(sp)
    9dac:	004c0c13          	addi	s8,s8,4
    9db0:	010c1c13          	slli	s8,s8,0x10
    9db4:	410c5c13          	srai	s8,s8,0x10
    9db8:	01811523          	sh	s8,10(sp)
    9dbc:	b95fa06f          	j	4950 <.L2884>

00009dc0 <.L2943>:
    9dc0:	00815c03          	lhu	s8,8(sp)
    9dc4:	009c0c13          	addi	s8,s8,9
    9dc8:	010c1c13          	slli	s8,s8,0x10
    9dcc:	410c5c13          	srai	s8,s8,0x10
    9dd0:	dacf706f          	j	137c <.L1092>

00009dd4 <.L374>:
    9dd4:	00e15c03          	lhu	s8,14(sp)
    9dd8:	00ac0c13          	addi	s8,s8,10
    9ddc:	010c1c13          	slli	s8,s8,0x10
    9de0:	410c5c13          	srai	s8,s8,0x10
    9de4:	aa1f606f          	j	884 <.L375>

00009de8 <.L1106>:
    9de8:	00a15c03          	lhu	s8,10(sp)
    9dec:	04900c93          	li	s9,73
    9df0:	006c0c13          	addi	s8,s8,6
    9df4:	01811523          	sh	s8,10(sp)
    9df8:	011cd463          	bge	s9,a7,9e00 <.L1106+0x18>
    9dfc:	dd8fb06f          	j	53d4 <.L1105>
    9e00:	a5cf806f          	j	205c <.L1104>

00009e04 <.L1731>:
    9e04:	00c15c03          	lhu	s8,12(sp)
    9e08:	005c0c13          	addi	s8,s8,5
    9e0c:	010c1c13          	slli	s8,s8,0x10
    9e10:	010c5c13          	srli	s8,s8,0x10
    9e14:	01811623          	sh	s8,12(sp)
    9e18:	b35f806f          	j	294c <.L1730>

00009e1c <.L1198>:
    9e1c:	00e15c03          	lhu	s8,14(sp)
    9e20:	008c0c13          	addi	s8,s8,8
    9e24:	010c1c13          	slli	s8,s8,0x10
    9e28:	010c5c13          	srli	s8,s8,0x10
    9e2c:	bdcf806f          	j	2208 <.L2606>

00009e30 <.L2931>:
    9e30:	00fc5463          	bge	s8,a5,9e38 <.L2032>
    9e34:	e34fb06f          	j	5468 <.L2051>

00009e38 <.L2032>:
    9e38:	00c15c03          	lhu	s8,12(sp)
    9e3c:	ffcc0c13          	addi	s8,s8,-4
    9e40:	010c1c13          	slli	s8,s8,0x10
    9e44:	410c5c13          	srai	s8,s8,0x10
    9e48:	84cf906f          	j	2e94 <.L2042>

00009e4c <.L2071>:
    9e4c:	00815b03          	lhu	s6,8(sp)
    9e50:	ffab0b13          	addi	s6,s6,-6
    9e54:	01611423          	sh	s6,8(sp)
    9e58:	8a4f906f          	j	2efc <.L2069>

00009e5c <.L1513>:
    9e5c:	00815c03          	lhu	s8,8(sp)
    9e60:	012c0c13          	addi	s8,s8,18
    9e64:	01811423          	sh	s8,8(sp)
    9e68:	fc0f806f          	j	2628 <.L1510>

00009e6c <.L2564>:
    9e6c:	ddb00c13          	li	s8,-549
    9e70:	02051e03          	lh	t3,32(a0)
    9e74:	018ad463          	bge	s5,s8,9e7c <.L330>
    9e78:	b89fc06f          	j	6a00 <.L2950>

00009e7c <.L330>:
    9e7c:	00c15c03          	lhu	s8,12(sp)
    9e80:	03c00c93          	li	s9,60
    9e84:	ff6c0c13          	addi	s8,s8,-10
    9e88:	01811623          	sh	s8,12(sp)
    9e8c:	00fcd463          	bge	s9,a5,9e94 <.L330+0x18>
    9e90:	9a5f906f          	j	3834 <.L325>
    9e94:	b85fc06f          	j	6a18 <.L331>

00009e98 <.L1522>:
    9e98:	00c15c03          	lhu	s8,12(sp)
    9e9c:	01800c93          	li	s9,24
    9ea0:	ff7c0c13          	addi	s8,s8,-9
    9ea4:	01811623          	sh	s8,12(sp)
    9ea8:	010cc463          	blt	s9,a6,9eb0 <.L1522+0x18>
    9eac:	c70fd06f          	j	731c <.L1529>
    9eb0:	ae0fa06f          	j	4190 <.L1531>

00009eb4 <.L588>:
    9eb4:	00c15c03          	lhu	s8,12(sp)
    9eb8:	e0800c93          	li	s9,-504
    9ebc:	ff6c0c13          	addi	s8,s8,-10
    9ec0:	01811623          	sh	s8,12(sp)
    9ec4:	01945463          	bge	s0,s9,9ecc <.L588+0x18>
    9ec8:	981fb06f          	j	5848 <.L584>
    9ecc:	995f706f          	j	1860 <.L2375>

00009ed0 <.L343>:
    9ed0:	00815c03          	lhu	s8,8(sp)
    9ed4:	ffac0c13          	addi	s8,s8,-6
    9ed8:	01811423          	sh	s8,8(sp)
    9edc:	925f606f          	j	800 <.L344>

00009ee0 <.L390>:
    9ee0:	00815c03          	lhu	s8,8(sp)
    9ee4:	0b500c93          	li	s9,181
    9ee8:	006c0c13          	addi	s8,s8,6
    9eec:	01811423          	sh	s8,8(sp)
    9ef0:	006cd463          	bge	s9,t1,9ef8 <.L390+0x18>
    9ef4:	96dfc06f          	j	6860 <.L381>
    9ef8:	9cdf606f          	j	8c4 <.L2566>

00009efc <.L339>:
    9efc:	00e15c03          	lhu	s8,14(sp)
    9f00:	007c0c13          	addi	s8,s8,7
    9f04:	010c1c13          	slli	s8,s8,0x10
    9f08:	410c5c13          	srai	s8,s8,0x10
    9f0c:	8c1f606f          	j	7cc <.L338>

00009f10 <.L2810>:
    9f10:	00e15c03          	lhu	s8,14(sp)
    9f14:	ff9c0c13          	addi	s8,s8,-7
    9f18:	01811723          	sh	s8,14(sp)
    9f1c:	f01f906f          	j	3e1c <.L1627>

00009f20 <.L1618>:
    9f20:	00c15c03          	lhu	s8,12(sp)
    9f24:	00300c93          	li	s9,3
    9f28:	ff8c0c13          	addi	s8,s8,-8
    9f2c:	01811623          	sh	s8,12(sp)
    9f30:	01ccd463          	bge	s9,t3,9f38 <.L1618+0x18>
    9f34:	1790106f          	j	b8ac <.L1633>
    9f38:	0c100c13          	li	s8,193
    9f3c:	012c4463          	blt	s8,s2,9f44 <.L1618+0x24>
    9f40:	8d5f806f          	j	2814 <.L1634>
    9f44:	00e15c03          	lhu	s8,14(sp)
    9f48:	00400c93          	li	s9,4
    9f4c:	007c0c13          	addi	s8,s8,7
    9f50:	01811723          	sh	s8,14(sp)
    9f54:	011cc463          	blt	s9,a7,9f5c <.L1618+0x3c>
    9f58:	b5dfb06f          	j	5ab4 <.L1642>
    9f5c:	ed9f906f          	j	3e34 <.L1644>

00009f60 <.L2902>:
    9f60:	00e15c03          	lhu	s8,14(sp)
    9f64:	ff7c0c13          	addi	s8,s8,-9
    9f68:	010c1c13          	slli	s8,s8,0x10
    9f6c:	410c5c13          	srai	s8,s8,0x10
    9f70:	b50f706f          	j	12c0 <.L1028>

00009f74 <.L207>:
    9f74:	00815e03          	lhu	t3,8(sp)
    9f78:	08000c13          	li	s8,128
    9f7c:	00ce0e13          	addi	t3,t3,12
    9f80:	01c11423          	sh	t3,8(sp)
    9f84:	00ec4463          	blt	s8,a4,9f8c <.L207+0x18>
    9f88:	f0cf606f          	j	694 <.L215>
    9f8c:	f84f906f          	j	3710 <.L2557>

00009f90 <.L110>:
    9f90:	00a15e03          	lhu	t3,10(sp)
    9f94:	31a00c13          	li	s8,794
    9f98:	00ee0e13          	addi	t3,t3,14
    9f9c:	01c11523          	sh	t3,10(sp)
    9fa0:	90dc5263          	bge	s8,a3,90a4 <.L111>
    9fa4:	e4e00e13          	li	t3,-434
    9fa8:	01cad463          	bge	s5,t3,9fb0 <.L107>
    9fac:	829fe06f          	j	87d4 <.L114>

00009fb0 <.L107>:
    9fb0:	00c15e03          	lhu	t3,12(sp)
    9fb4:	03d00c13          	li	s8,61
    9fb8:	ff7e0e13          	addi	t3,t3,-9
    9fbc:	01c11623          	sh	t3,12(sp)
    9fc0:	00fc4463          	blt	s8,a5,9fc8 <.L107+0x18>
    9fc4:	829fe06f          	j	87ec <.L128>
    9fc8:	cb8f606f          	j	480 <.L121>

00009fcc <.L448>:
    9fcc:	00c15c03          	lhu	s8,12(sp)
    9fd0:	e2500c93          	li	s9,-475
    9fd4:	00ac0c13          	addi	s8,s8,10
    9fd8:	01811623          	sh	s8,12(sp)
    9fdc:	01944463          	blt	s0,s9,9fe4 <.L448+0x18>
    9fe0:	eccf906f          	j	36ac <.L443>
    9fe4:	b44fc06f          	j	6328 <.L442>

00009fe8 <.L1551>:
    9fe8:	00815c03          	lhu	s8,8(sp)
    9fec:	fefc0c13          	addi	s8,s8,-17
    9ff0:	010c1c13          	slli	s8,s8,0x10
    9ff4:	410c5c13          	srai	s8,s8,0x10
    9ff8:	ee0f806f          	j	26d8 <.L1552>

00009ffc <.L2299>:
    9ffc:	00c51903          	lh	s2,12(a0)
    a000:	02400813          	li	a6,36
    a004:	b34f606f          	j	338 <.L32>

0000a008 <.L37>:
    a008:	00815883          	lhu	a7,8(sp)
    a00c:	1b500e13          	li	t3,437
    a010:	01488893          	addi	a7,a7,20
    a014:	01111423          	sh	a7,8(sp)
    a018:	00ee5463          	bge	t3,a4,a020 <.L37+0x18>
    a01c:	899f906f          	j	38b4 <.L44>
    a020:	b58f606f          	j	378 <.L2544>

0000a024 <.L99>:
    a024:	00a15e03          	lhu	t3,10(sp)
    a028:	31a00c13          	li	s8,794
    a02c:	ff9e0e13          	addi	t3,t3,-7
    a030:	01c11523          	sh	t3,10(sp)
    a034:	00dc4463          	blt	s8,a3,a03c <.L101>
    a038:	f2cfe06f          	j	8764 <.L96>

0000a03c <.L101>:
    a03c:	1a100e13          	li	t3,417
    a040:	f6ee48e3          	blt	t3,a4,9fb0 <.L107>
    a044:	00c15e03          	lhu	t3,12(sp)
    a048:	00de0e13          	addi	t3,t3,13
    a04c:	010e1e13          	slli	t3,t3,0x10
    a050:	410e5e13          	srai	t3,t3,0x10
    a054:	c1cf606f          	j	470 <.L120>

0000a058 <.L1801>:
    a058:	00a15c03          	lhu	s8,10(sp)
    a05c:	009c0c13          	addi	s8,s8,9
    a060:	010c1c13          	slli	s8,s8,0x10
    a064:	410c5c13          	srai	s8,s8,0x10
    a068:	a0df806f          	j	2a74 <.L1792>

0000a06c <.L95>:
    a06c:	00a15e03          	lhu	t3,10(sp)
    a070:	31a00c13          	li	s8,794
    a074:	001e0e13          	addi	t3,t3,1
    a078:	01c11523          	sh	t3,10(sp)
    a07c:	00dc4463          	blt	s8,a3,a084 <.L95+0x18>
    a080:	ee4fe06f          	j	8764 <.L96>
    a084:	bd0f606f          	j	454 <.L2349>

0000a088 <.L2940>:
    a088:	00e15c03          	lhu	s8,14(sp)
    a08c:	ffe00c93          	li	s9,-2
    a090:	ff7c0c13          	addi	s8,s8,-9
    a094:	01811723          	sh	s8,14(sp)
    a098:	01985463          	bge	a6,s9,a0a0 <.L2940+0x18>
    a09c:	e58f706f          	j	16f4 <.L1299>
    a0a0:	aacf806f          	j	234c <.L1320>

0000a0a4 <.L796>:
    a0a4:	00a15c03          	lhu	s8,10(sp)
    a0a8:	006c0c13          	addi	s8,s8,6
    a0ac:	010c1c13          	slli	s8,s8,0x10
    a0b0:	010c5c13          	srli	s8,s8,0x10
    a0b4:	01811523          	sh	s8,10(sp)
    a0b8:	af9f706f          	j	1bb0 <.L797>

0000a0bc <.L738>:
    a0bc:	25b00c13          	li	s8,603
    a0c0:	00ec5463          	bge	s8,a4,a0c8 <.L753>
    a0c4:	2e90106f          	j	bbac <.L744>

0000a0c8 <.L753>:
    a0c8:	00c15c03          	lhu	s8,12(sp)
    a0cc:	007c0c13          	addi	s8,s8,7
    a0d0:	01811623          	sh	s8,12(sp)
    a0d4:	90cfb06f          	j	51e0 <.L741>

0000a0d8 <.L782>:
    a0d8:	00e15c03          	lhu	s8,14(sp)
    a0dc:	ffe00c93          	li	s9,-2
    a0e0:	004c0c13          	addi	s8,s8,4
    a0e4:	01811723          	sh	s8,14(sp)
    a0e8:	01985463          	bge	a6,s9,a0f0 <.L782+0x18>
    a0ec:	d35fa06f          	j	4e20 <.L783>
    a0f0:	e01fa06f          	j	4ef0 <.L2387>

0000a0f4 <.L2110>:
    a0f4:	00815b03          	lhu	s6,8(sp)
    a0f8:	02e00c13          	li	s8,46
    a0fc:	ffeb0b13          	addi	s6,s6,-2
    a100:	01611423          	sh	s6,8(sp)
    a104:	01dc4463          	blt	s8,t4,a10c <.L2110+0x18>
    a108:	aa8fa06f          	j	43b0 <.L2098>
    a10c:	e95f806f          	j	2fa0 <.L2111>

0000a110 <.L357>:
    a110:	00a15c03          	lhu	s8,10(sp)
    a114:	17000c93          	li	s9,368
    a118:	00bc0c13          	addi	s8,s8,11
    a11c:	01811523          	sh	s8,10(sp)
    a120:	00dcc463          	blt	s9,a3,a128 <.L357+0x18>
    a124:	df9fc06f          	j	6f1c <.L354>
    a128:	ed8fd06f          	j	7800 <.L359>

0000a12c <.L367>:
    a12c:	00c15c03          	lhu	s8,12(sp)
    a130:	e9900c93          	li	s9,-359
    a134:	00ac0c13          	addi	s8,s8,10
    a138:	01811623          	sh	s8,12(sp)
    a13c:	0195d463          	bge	a1,s9,a144 <.L367+0x18>
    a140:	a38f906f          	j	3378 <.L368>
    a144:	d15fc06f          	j	6e58 <.L2366>

0000a148 <.L1499>:
    a148:	00e15c03          	lhu	s8,14(sp)
    a14c:	ffbc0c13          	addi	s8,s8,-5
    a150:	01811723          	sh	s8,14(sp)
    a154:	fa1f906f          	j	40f4 <.L1496>

0000a158 <.L1025>:
    a158:	00c15c03          	lhu	s8,12(sp)
    a15c:	003c0c13          	addi	s8,s8,3
    a160:	01811623          	sh	s8,12(sp)
    a164:	dc5f706f          	j	1f28 <.L1014>

0000a168 <.L1429>:
    a168:	00a15c03          	lhu	s8,10(sp)
    a16c:	004c0c13          	addi	s8,s8,4
    a170:	01811523          	sh	s8,10(sp)
    a174:	b8cf806f          	j	2500 <.L1428>

0000a178 <.L1424>:
    a178:	00815c03          	lhu	s8,8(sp)
    a17c:	ffec0c13          	addi	s8,s8,-2
    a180:	01811423          	sh	s8,8(sp)
    a184:	e65f906f          	j	3fe8 <.L1425>

0000a188 <.L1260>:
    a188:	00e15c03          	lhu	s8,14(sp)
    a18c:	fffc0c13          	addi	s8,s8,-1
    a190:	010c1c13          	slli	s8,s8,0x10
    a194:	410c5c13          	srai	s8,s8,0x10
    a198:	ca4f706f          	j	163c <.L1258>

0000a19c <.L1070>:
    a19c:	00e15c03          	lhu	s8,14(sp)
    a1a0:	ffe00c93          	li	s9,-2
    a1a4:	ff8c0c13          	addi	s8,s8,-8
    a1a8:	01811723          	sh	s8,14(sp)
    a1ac:	01985463          	bge	a6,s9,a1b4 <.L1070+0x18>
    a1b0:	f99fe06f          	j	9148 <.L1061>
    a1b4:	9acf706f          	j	1360 <.L1062>

0000a1b8 <.L925>:
    a1b8:	00a15c03          	lhu	s8,10(sp)
    a1bc:	03300c93          	li	s9,51
    a1c0:	ffac0c13          	addi	s8,s8,-6
    a1c4:	01811523          	sh	s8,10(sp)
    a1c8:	00fcc463          	blt	s9,a5,a1d0 <.L925+0x18>
    a1cc:	958fb06f          	j	5324 <.L923>
    a1d0:	bd9f706f          	j	1da8 <.L918>

0000a1d4 <.L2911>:
    a1d4:	00a15c03          	lhu	s8,10(sp)
    a1d8:	00bc0c13          	addi	s8,s8,11
    a1dc:	010c1c13          	slli	s8,s8,0x10
    a1e0:	410c5c13          	srai	s8,s8,0x10
    a1e4:	efcf606f          	j	8e0 <.L383>

0000a1e8 <.L2191>:
    a1e8:	00815f03          	lhu	t5,8(sp)
    a1ec:	002f0f13          	addi	t5,t5,2
    a1f0:	01e11423          	sh	t5,8(sp)
    a1f4:	f01f806f          	j	30f4 <.L2188>

0000a1f8 <.L414>:
    a1f8:	00e15c03          	lhu	s8,14(sp)
    a1fc:	00bc0c13          	addi	s8,s8,11
    a200:	010c1c13          	slli	s8,s8,0x10
    a204:	410c5c13          	srai	s8,s8,0x10
    a208:	f3cf606f          	j	944 <.L412>

0000a20c <.L2143>:
    a20c:	00e15b03          	lhu	s6,14(sp)
    a210:	ff8b0b13          	addi	s6,s6,-8
    a214:	010b1b13          	slli	s6,s6,0x10
    a218:	410b5b13          	srai	s6,s6,0x10
    a21c:	968fb06f          	j	5384 <.L2137>

0000a220 <.L577>:
    a220:	00c15c03          	lhu	s8,12(sp)
    a224:	ffac0c13          	addi	s8,s8,-6
    a228:	010c1c13          	slli	s8,s8,0x10
    a22c:	010c5c13          	srli	s8,s8,0x10
    a230:	9e1f606f          	j	c10 <.L578>

0000a234 <.L2030>:
    a234:	00a15c03          	lhu	s8,10(sp)
    a238:	ffdc0c13          	addi	s8,s8,-3
    a23c:	01811523          	sh	s8,10(sp)
    a240:	a14fb06f          	j	5454 <.L2036>

0000a244 <.L598>:
    a244:	00e15c03          	lhu	s8,14(sp)
    a248:	0a900c93          	li	s9,169
    a24c:	00ac0c13          	addi	s8,s8,10
    a250:	01811723          	sh	s8,14(sp)
    a254:	01ecc463          	blt	s9,t5,a25c <.L598+0x18>
    a258:	e28f706f          	j	1880 <.L600>
    a25c:	e18fb06f          	j	5874 <.L2581>

0000a260 <.L56>:
    a260:	00a15883          	lhu	a7,10(sp)
    a264:	df700e13          	li	t3,-521
    a268:	01688893          	addi	a7,a7,22
    a26c:	01111523          	sh	a7,10(sp)
    a270:	01ca5463          	bge	s4,t3,a278 <.L56+0x18>
    a274:	e70f906f          	j	38e4 <.L60>
    a278:	02a51883          	lh	a7,42(a0)
    a27c:	d90fc06f          	j	680c <.L2951>

0000a280 <.L61>:
    a280:	00a15883          	lhu	a7,10(sp)
    a284:	df700e13          	li	t3,-521
    a288:	01188893          	addi	a7,a7,17
    a28c:	01111523          	sh	a7,10(sp)
    a290:	01ca5463          	bge	s4,t3,a298 <.L61+0x18>
    a294:	e50f906f          	j	38e4 <.L60>
    a298:	02a51883          	lh	a7,42(a0)
    a29c:	d70fc06f          	j	680c <.L2951>

0000a2a0 <.L2271>:
    a2a0:	00e15c03          	lhu	s8,14(sp)
    a2a4:	001c0c13          	addi	s8,s8,1
    a2a8:	01811723          	sh	s8,14(sp)
    a2ac:	c30fc06f          	j	66dc <.L641>

0000a2b0 <.L380>:
    a2b0:	00815c03          	lhu	s8,8(sp)
    a2b4:	0b500c93          	li	s9,181
    a2b8:	fffc0c13          	addi	s8,s8,-1
    a2bc:	01811423          	sh	s8,8(sp)
    a2c0:	006cd463          	bge	s9,t1,a2c8 <.L380+0x18>
    a2c4:	d9cfc06f          	j	6860 <.L381>
    a2c8:	dfcf606f          	j	8c4 <.L2566>

0000a2cc <.L2914>:
    a2cc:	00815c03          	lhu	s8,8(sp)
    a2d0:	ffec0c13          	addi	s8,s8,-2
    a2d4:	010c1c13          	slli	s8,s8,0x10
    a2d8:	410c5c13          	srai	s8,s8,0x10
    a2dc:	ea4f606f          	j	980 <.L420>

0000a2e0 <.L1953>:
    a2e0:	00a15c03          	lhu	s8,10(sp)
    a2e4:	003c0c13          	addi	s8,s8,3
    a2e8:	010c1c13          	slli	s8,s8,0x10
    a2ec:	010c5c13          	srli	s8,s8,0x10
    a2f0:	d19fc06f          	j	7008 <.L1954>

0000a2f4 <.L402>:
    a2f4:	00c15c03          	lhu	s8,12(sp)
    a2f8:	ffcc0c13          	addi	s8,s8,-4
    a2fc:	010c1c13          	slli	s8,s8,0x10
    a300:	410c5c13          	srai	s8,s8,0x10
    a304:	e14f606f          	j	918 <.L403>

0000a308 <.L399>:
    a308:	00a15c03          	lhu	s8,10(sp)
    a30c:	008c0c13          	addi	s8,s8,8
    a310:	010c1c13          	slli	s8,s8,0x10
    a314:	410c5c13          	srai	s8,s8,0x10
    a318:	dc8f606f          	j	8e0 <.L383>

0000a31c <.L2246>:
    a31c:	00a15703          	lhu	a4,10(sp)
    a320:	ffe70713          	addi	a4,a4,-2
    a324:	01071713          	slli	a4,a4,0x10
    a328:	41075713          	srai	a4,a4,0x10
    a32c:	915f906f          	j	3c40 <.L2247>

0000a330 <.L2244>:
    a330:	00a15703          	lhu	a4,10(sp)
    a334:	f5b00693          	li	a3,-165
    a338:	00370713          	addi	a4,a4,3
    a33c:	00e11523          	sh	a4,10(sp)
    a340:	00d2c463          	blt	t0,a3,a348 <.L2244+0x18>
    a344:	a24fa06f          	j	4568 <.L2240>
    a348:	e9df806f          	j	31e4 <.L2671>

0000a34c <.L2265>:
    a34c:	00a15c03          	lhu	s8,10(sp)
    a350:	0dd00c93          	li	s9,221
    a354:	006c0c13          	addi	s8,s8,6
    a358:	01811523          	sh	s8,10(sp)
    a35c:	d6dcc0e3          	blt	s9,a3,a0bc <.L738>
    a360:	f5000c13          	li	s8,-176
    a364:	0185c463          	blt	a1,s8,a36c <.L2265+0x20>
    a368:	1ed0106f          	j	bd54 <.L739>
    a36c:	00f00c13          	li	s8,15
    a370:	010c5463          	bge	s8,a6,a378 <.L2265+0x2c>
    a374:	3f50106f          	j	bf68 <.L740>
    a378:	00c15c03          	lhu	s8,12(sp)
    a37c:	ff8c0c13          	addi	s8,s8,-8
    a380:	01811623          	sh	s8,12(sp)
    a384:	e5dfa06f          	j	51e0 <.L741>

0000a388 <.L1796>:
    a388:	00a15c03          	lhu	s8,10(sp)
    a38c:	ff8c0c13          	addi	s8,s8,-8
    a390:	010c1c13          	slli	s8,s8,0x10
    a394:	410c5c13          	srai	s8,s8,0x10
    a398:	edcf806f          	j	2a74 <.L1792>

0000a39c <.L453>:
    a39c:	00e15c03          	lhu	s8,14(sp)
    a3a0:	008c0c13          	addi	s8,s8,8
    a3a4:	010c1c13          	slli	s8,s8,0x10
    a3a8:	410c5c13          	srai	s8,s8,0x10
    a3ac:	99cf906f          	j	3548 <.L454>

0000a3b0 <.L721>:
    a3b0:	00e15c03          	lhu	s8,14(sp)
    a3b4:	ff7c0c13          	addi	s8,s8,-9
    a3b8:	01811723          	sh	s8,14(sp)
    a3bc:	eccf706f          	j	1a88 <.L722>

0000a3c0 <.L1714>:
    a3c0:	00815c03          	lhu	s8,8(sp)
    a3c4:	fffc0c13          	addi	s8,s8,-1
    a3c8:	010c1c13          	slli	s8,s8,0x10
    a3cc:	010c5c13          	srli	s8,s8,0x10
    a3d0:	c0dfa06f          	j	4fdc <.L1715>

0000a3d4 <.L2041>:
    a3d4:	00a15c03          	lhu	s8,10(sp)
    a3d8:	003c0c13          	addi	s8,s8,3
    a3dc:	01811523          	sh	s8,10(sp)
    a3e0:	874fb06f          	j	5454 <.L2036>

0000a3e4 <.L2016>:
    a3e4:	00e15c03          	lhu	s8,14(sp)
    a3e8:	ffec0c13          	addi	s8,s8,-2
    a3ec:	010c1c13          	slli	s8,s8,0x10
    a3f0:	410c5c13          	srai	s8,s8,0x10
    a3f4:	a21f806f          	j	2e14 <.L2014>

0000a3f8 <.L1716>:
    a3f8:	00815c03          	lhu	s8,8(sp)
    a3fc:	00cc0c13          	addi	s8,s8,12
    a400:	010c1c13          	slli	s8,s8,0x10
    a404:	010c5c13          	srli	s8,s8,0x10
    a408:	bc9fd06f          	j	7fd0 <.L1717>

0000a40c <.L2771>:
    a40c:	00c15c03          	lhu	s8,12(sp)
    a410:	03c00c93          	li	s9,60
    a414:	007c0c13          	addi	s8,s8,7
    a418:	01811623          	sh	s8,12(sp)
    a41c:	00fcc463          	blt	s9,a5,a424 <.L2771+0x18>
    a420:	a8cfa06f          	j	46ac <.L1291>
    a424:	ab0f706f          	j	16d4 <.L2613>

0000a428 <.L1545>:
    a428:	00c15c03          	lhu	s8,12(sp)
    a42c:	01800c93          	li	s9,24
    a430:	ffac0c13          	addi	s8,s8,-6
    a434:	01811623          	sh	s8,12(sp)
    a438:	010cc463          	blt	s9,a6,a440 <.L1545+0x18>
    a43c:	9c0fa06f          	j	45fc <.L1543>
    a440:	871f906f          	j	3cb0 <.L1544>

0000a444 <.L1789>:
    a444:	00815c03          	lhu	s8,8(sp)
    a448:	001c0c13          	addi	s8,s8,1
    a44c:	010c1c13          	slli	s8,s8,0x10
    a450:	010c5c13          	srli	s8,s8,0x10
    a454:	cecfd06f          	j	7940 <.L1790>

0000a458 <.L1284>:
    a458:	00a15c03          	lhu	s8,10(sp)
    a45c:	03300c93          	li	s9,51
    a460:	ff8c0c13          	addi	s8,s8,-8
    a464:	01811523          	sh	s8,10(sp)
    a468:	00fcc463          	blt	s9,a5,a470 <.L1284+0x18>
    a46c:	a28fa06f          	j	4694 <.L1286>
    a470:	8f9fb06f          	j	5d68 <.L1283>

0000a474 <.L2157>:
    a474:	00a15b03          	lhu	s6,10(sp)
    a478:	fdb00c13          	li	s8,-37
    a47c:	ff9b0b13          	addi	s6,s6,-7
    a480:	01611523          	sh	s6,10(sp)
    a484:	01874463          	blt	a4,s8,a48c <.L2164>
    a488:	e7cf906f          	j	3b04 <.L2158>

0000a48c <.L2164>:
    a48c:	00a00693          	li	a3,10
    a490:	0136d463          	bge	a3,s3,a498 <.L2164+0xc>
    a494:	2880106f          	j	b71c <.L2176>
    a498:	00c15683          	lhu	a3,12(sp)
    a49c:	ff868693          	addi	a3,a3,-8
    a4a0:	00d11623          	sh	a3,12(sp)
    a4a4:	e74f906f          	j	3b18 <.L2160>

0000a4a8 <.L1745>:
    a4a8:	00e15c03          	lhu	s8,14(sp)
    a4ac:	ffbc0c13          	addi	s8,s8,-5
    a4b0:	010c1c13          	slli	s8,s8,0x10
    a4b4:	410c5c13          	srai	s8,s8,0x10
    a4b8:	d79fa06f          	j	5230 <.L1743>

0000a4bc <.L23>:
    a4bc:	01a00793          	li	a5,26
    a4c0:	00f11523          	sh	a5,10(sp)
    a4c4:	d5c00793          	li	a5,-676
    a4c8:	01851603          	lh	a2,24(a0)
    a4cc:	0cfacae3          	blt	s5,a5,ada0 <.L2338>
    a4d0:	01251483          	lh	s1,18(a0)
    a4d4:	01051b03          	lh	s6,16(a0)
    a4d8:	b68fe06f          	j	8840 <.L20>

0000a4dc <.L19>:
    a4dc:	02400793          	li	a5,36
    a4e0:	00f11523          	sh	a5,10(sp)
    a4e4:	d5c00793          	li	a5,-676
    a4e8:	01851603          	lh	a2,24(a0)
    a4ec:	00fad463          	bge	s5,a5,a4f4 <.L2543>
    a4f0:	dfdf506f          	j	2ec <.L2337>

0000a4f4 <.L2543>:
    a4f4:	01251483          	lh	s1,18(a0)
    a4f8:	02851e83          	lh	t4,40(a0)
    a4fc:	b44fe06f          	j	8840 <.L20>

0000a500 <.L2194>:
    a500:	00a15503          	lhu	a0,10(sp)
    a504:	ffd50513          	addi	a0,a0,-3
    a508:	01051513          	slli	a0,a0,0x10
    a50c:	41055513          	srai	a0,a0,0x10
    a510:	c19f806f          	j	3128 <.L2195>

0000a514 <.L500>:
    a514:	00e15c03          	lhu	s8,14(sp)
    a518:	00ac0c13          	addi	s8,s8,10
    a51c:	010c1c13          	slli	s8,s8,0x10
    a520:	410c5c13          	srai	s8,s8,0x10
    a524:	980fb06f          	j	56a4 <.L504>

0000a528 <.L2011>:
    a528:	00c15c03          	lhu	s8,12(sp)
    a52c:	ffbc0c13          	addi	s8,s8,-5
    a530:	01811623          	sh	s8,12(sp)
    a534:	8b9f806f          	j	2dec <.L2009>

0000a538 <.L709>:
    a538:	00c15c03          	lhu	s8,12(sp)
    a53c:	ff7c0c13          	addi	s8,s8,-9
    a540:	010c1c13          	slli	s8,s8,0x10
    a544:	410c5c13          	srai	s8,s8,0x10
    a548:	8cdf606f          	j	e14 <.L706>

0000a54c <.L2232>:
    a54c:	00815683          	lhu	a3,8(sp)
    a550:	fff68693          	addi	a3,a3,-1
    a554:	01069693          	slli	a3,a3,0x10
    a558:	4106d693          	srai	a3,a3,0x10
    a55c:	c4df806f          	j	31a8 <.L2233>

0000a560 <.L87>:
    a560:	00815e03          	lhu	t3,8(sp)
    a564:	ff7e0e13          	addi	t3,t3,-9
    a568:	010e1e13          	slli	t3,t3,0x10
    a56c:	010e5e13          	srli	t3,t3,0x10
    a570:	ca9f506f          	j	218 <.L2549>

0000a574 <.L2202>:
    a574:	00a15503          	lhu	a0,10(sp)
    a578:	00550513          	addi	a0,a0,5
    a57c:	01051513          	slli	a0,a0,0x10
    a580:	41055513          	srai	a0,a0,0x10
    a584:	ba5f806f          	j	3128 <.L2195>

0000a588 <.L84>:
    a588:	00815e03          	lhu	t3,8(sp)
    a58c:	02651383          	lh	t2,38(a0)
    a590:	011e0e13          	addi	t3,t3,17
    a594:	01c11423          	sh	t3,8(sp)
    a598:	c85f506f          	j	21c <.L85>

0000a59c <.L787>:
    a59c:	00815c03          	lhu	s8,8(sp)
    a5a0:	03300c93          	li	s9,51
    a5a4:	014c0c13          	addi	s8,s8,20
    a5a8:	01811423          	sh	s8,8(sp)
    a5ac:	01fcc463          	blt	s9,t6,a5b4 <.L787+0x18>
    a5b0:	dd4f706f          	j	1b84 <.L788>
    a5b4:	00a15c03          	lhu	s8,10(sp)
    a5b8:	ffc00c93          	li	s9,-4
    a5bc:	004c0c13          	addi	s8,s8,4
    a5c0:	01811523          	sh	s8,10(sp)
    a5c4:	01964463          	blt	a2,s9,a5cc <.L787+0x30>
    a5c8:	8bdfa06f          	j	4e84 <.L803>
    a5cc:	de4f706f          	j	1bb0 <.L797>

0000a5d0 <.L1754>:
    a5d0:	00a15c03          	lhu	s8,10(sp)
    a5d4:	ffcc0c13          	addi	s8,s8,-4
    a5d8:	01811523          	sh	s8,10(sp)
    a5dc:	bf0f806f          	j	29cc <.L1755>

0000a5e0 <.L78>:
    a5e0:	00e15e03          	lhu	t3,14(sp)
    a5e4:	0d900393          	li	t2,217
    a5e8:	017e0e13          	addi	t3,t3,23
    a5ec:	01c11723          	sh	t3,14(sp)
    a5f0:	01e3c463          	blt	t2,t5,a5f8 <.L78+0x18>
    a5f4:	940fd06f          	j	7734 <.L80>
    a5f8:	05700e13          	li	t3,87
    a5fc:	006e5463          	bge	t3,t1,a604 <.L81>
    a600:	c0df506f          	j	20c <.L82>

0000a604 <.L81>:
    a604:	00815e03          	lhu	t3,8(sp)
    a608:	02651383          	lh	t2,38(a0)
    a60c:	ff8e0e13          	addi	t3,t3,-8
    a610:	01c11423          	sh	t3,8(sp)
    a614:	c09f506f          	j	21c <.L85>

0000a618 <.L1053>:
    a618:	00a15c03          	lhu	s8,10(sp)
    a61c:	006c0c13          	addi	s8,s8,6
    a620:	010c1c13          	slli	s8,s8,0x10
    a624:	410c5c13          	srai	s8,s8,0x10
    a628:	cf1f606f          	j	1318 <.L1045>

0000a62c <.L1396>:
    a62c:	00a15c03          	lhu	s8,10(sp)
    a630:	ff7c0c13          	addi	s8,s8,-9
    a634:	010c1c13          	slli	s8,s8,0x10
    a638:	410c5c13          	srai	s8,s8,0x10
    a63c:	e0df706f          	j	2448 <.L1398>

0000a640 <.L137>:
    a640:	00815e03          	lhu	t3,8(sp)
    a644:	0a600c13          	li	s8,166
    a648:	fffe0e13          	addi	t3,t3,-1
    a64c:	01c11423          	sh	t3,8(sp)
    a650:	00ec4463          	blt	s8,a4,a658 <.L137+0x18>
    a654:	adcf906f          	j	3930 <.L143>
    a658:	e89f506f          	j	4e0 <.L2552>

0000a65c <.L235>:
    a65c:	00a15e03          	lhu	t3,10(sp)
    a660:	08c00c13          	li	s8,140
    a664:	00fe0e13          	addi	t3,t3,15
    a668:	01c11523          	sh	t3,10(sp)
    a66c:	00dc4463          	blt	s8,a3,a674 <.L235+0x18>
    a670:	fe4fb06f          	j	5e54 <.L239>
    a674:	850f606f          	j	6c4 <.L236>

0000a678 <.L132>:
    a678:	00e15e03          	lhu	t3,14(sp)
    a67c:	011e0e13          	addi	t3,t3,17
    a680:	010e1e13          	slli	t3,t3,0x10
    a684:	410e5e13          	srai	t3,t3,0x10
    a688:	e1df506f          	j	4a4 <.L129>

0000a68c <.L666>:
    a68c:	00a15c03          	lhu	s8,10(sp)
    a690:	003c0c13          	addi	s8,s8,3
    a694:	010c1c13          	slli	s8,s8,0x10
    a698:	410c5c13          	srai	s8,s8,0x10
    a69c:	e80f606f          	j	d1c <.L662>

0000a6a0 <.L835>:
    a6a0:	00a15c03          	lhu	s8,10(sp)
    a6a4:	ff9c0c13          	addi	s8,s8,-7
    a6a8:	010c1c13          	slli	s8,s8,0x10
    a6ac:	410c5c13          	srai	s8,s8,0x10
    a6b0:	915f606f          	j	fc4 <.L829>

0000a6b4 <.L347>:
    a6b4:	00815c03          	lhu	s8,8(sp)
    a6b8:	ff6c0c13          	addi	s8,s8,-10
    a6bc:	01811423          	sh	s8,8(sp)
    a6c0:	940f606f          	j	800 <.L344>

0000a6c4 <.L133>:
    a6c4:	00e15e03          	lhu	t3,14(sp)
    a6c8:	ff6e0e13          	addi	t3,t3,-10
    a6cc:	010e1e13          	slli	t3,t3,0x10
    a6d0:	010e5e13          	srli	t3,t3,0x10
    a6d4:	01c11723          	sh	t3,14(sp)
    a6d8:	ef9f506f          	j	5d0 <.L135>

0000a6dc <.L2903>:
    a6dc:	00a15e03          	lhu	t3,10(sp)
    a6e0:	10b00c13          	li	s8,267
    a6e4:	00ce0e13          	addi	t3,t3,12
    a6e8:	01c11523          	sh	t3,10(sp)
    a6ec:	00dc4463          	blt	s8,a3,a6f4 <.L2903+0x18>
    a6f0:	ebcfb06f          	j	5dac <.L161>
    a6f4:	2ff00e13          	li	t3,767
    a6f8:	00ee4463          	blt	t3,a4,a700 <.L163>
    a6fc:	ee0fc06f          	j	6ddc <.L156>

0000a700 <.L163>:
    a700:	00c15e03          	lhu	t3,12(sp)
    a704:	03d00c13          	li	s8,61
    a708:	ff5e0e13          	addi	t3,t3,-11
    a70c:	01c11623          	sh	t3,12(sp)
    a710:	01878463          	beq	a5,s8,a718 <.L184>
    a714:	9b5fb06f          	j	60c8 <.L183>

0000a718 <.L184>:
    a718:	03d00793          	li	a5,61
    a71c:	f25f506f          	j	640 <.L174>

0000a720 <.L511>:
    a720:	00815c03          	lhu	s8,8(sp)
    a724:	fffc0c13          	addi	s8,s8,-1
    a728:	010c1c13          	slli	s8,s8,0x10
    a72c:	410c5c13          	srai	s8,s8,0x10
    a730:	d9df906f          	j	44cc <.L512>

0000a734 <.L1517>:
    a734:	00a15c03          	lhu	s8,10(sp)
    a738:	ffbc0c13          	addi	s8,s8,-5
    a73c:	010c1c13          	slli	s8,s8,0x10
    a740:	410c5c13          	srai	s8,s8,0x10
    a744:	a0df906f          	j	4150 <.L1516>

0000a748 <.L644>:
    a748:	00c15c03          	lhu	s8,12(sp)
    a74c:	ff9c0c13          	addi	s8,s8,-7
    a750:	010c1c13          	slli	s8,s8,0x10
    a754:	410c5c13          	srai	s8,s8,0x10
    a758:	f55fb06f          	j	66ac <.L623>

0000a75c <.L654>:
    a75c:	00e15c03          	lhu	s8,14(sp)
    a760:	0a900c93          	li	s9,169
    a764:	d64f606f          	j	cc8 <.L2586>

0000a768 <.L363>:
    a768:	00c15c03          	lhu	s8,12(sp)
    a76c:	ffac0c13          	addi	s8,s8,-6
    a770:	010c1c13          	slli	s8,s8,0x10
    a774:	410c5c13          	srai	s8,s8,0x10
    a778:	8d4f606f          	j	84c <.L352>

0000a77c <.L2917>:
    a77c:	00c15c03          	lhu	s8,12(sp)
    a780:	008c0c13          	addi	s8,s8,8
    a784:	010c1c13          	slli	s8,s8,0x10
    a788:	410c5c13          	srai	s8,s8,0x10
    a78c:	8c0f606f          	j	84c <.L352>

0000a790 <.L2801>:
    a790:	00c00c13          	li	s8,12
    a794:	dbcc4a63          	blt	s8,t3,9d48 <.L1251>

0000a798 <.L1250>:
    a798:	01700c13          	li	s8,23
    a79c:	01dc5463          	bge	s8,t4,a7a4 <.L1250+0xc>
    a7a0:	eedf606f          	j	168c <.L1267>
    a7a4:	03300c13          	li	s8,51
    a7a8:	00fc4463          	blt	s8,a5,a7b0 <.L1250+0x18>
    a7ac:	eddf906f          	j	4688 <.L2735>
    a7b0:	b59f706f          	j	2308 <.L1278>

0000a7b4 <.L1547>:
    a7b4:	00e15c03          	lhu	s8,14(sp)
    a7b8:	ff6c0c13          	addi	s8,s8,-10
    a7bc:	01811723          	sh	s8,14(sp)
    a7c0:	ee5f706f          	j	26a4 <.L1538>

0000a7c4 <.L2805>:
    a7c4:	00a15c03          	lhu	s8,10(sp)
    a7c8:	ffcc0c13          	addi	s8,s8,-4
    a7cc:	010c1c13          	slli	s8,s8,0x10
    a7d0:	410c5c13          	srai	s8,s8,0x10
    a7d4:	c75f706f          	j	2448 <.L1398>

0000a7d8 <.L267>:
    a7d8:	00c15e03          	lhu	t3,12(sp)
    a7dc:	ff8e0e13          	addi	t3,t3,-8
    a7e0:	010e1e13          	slli	t3,t3,0x10
    a7e4:	410e5e13          	srai	t3,t3,0x10
    a7e8:	ef9f506f          	j	6e0 <.L263>

0000a7ec <.L661>:
    a7ec:	00a15c03          	lhu	s8,10(sp)
    a7f0:	ff9c0c13          	addi	s8,s8,-7
    a7f4:	010c1c13          	slli	s8,s8,0x10
    a7f8:	410c5c13          	srai	s8,s8,0x10
    a7fc:	d20f606f          	j	d1c <.L662>

0000a800 <.L1081>:
    a800:	00c15c03          	lhu	s8,12(sp)
    a804:	00ac0c13          	addi	s8,s8,10
    a808:	010c1c13          	slli	s8,s8,0x10
    a80c:	410c5c13          	srai	s8,s8,0x10
    a810:	fa8f706f          	j	1fb8 <.L1074>

0000a814 <.L843>:
    a814:	00c15c03          	lhu	s8,12(sp)
    a818:	d2a00c93          	li	s9,-726
    a81c:	008c0c13          	addi	s8,s8,8
    a820:	01811623          	sh	s8,12(sp)
    a824:	0195c463          	blt	a1,s9,a82c <.L843+0x18>
    a828:	c64f706f          	j	1c8c <.L2593>
    a82c:	994fb06f          	j	59c0 <.L850>

0000a830 <.L524>:
    a830:	00a15c03          	lhu	s8,10(sp)
    a834:	17000c93          	li	s9,368
    a838:	ffbc0c13          	addi	s8,s8,-5
    a83c:	01811523          	sh	s8,10(sp)
    a840:	00dcc463          	blt	s9,a3,a848 <.L527>
    a844:	c31fc06f          	j	7474 <.L525>

0000a848 <.L527>:
    a848:	00c15c03          	lhu	s8,12(sp)
    a84c:	ffac0c13          	addi	s8,s8,-6
    a850:	010c1c13          	slli	s8,s8,0x10
    a854:	410c5c13          	srai	s8,s8,0x10
    a858:	b04f606f          	j	b5c <.L538>

0000a85c <.L1117>:
    a85c:	00e15c03          	lhu	s8,14(sp)
    a860:	01500c93          	li	s9,21
    a864:	ff7c0c13          	addi	s8,s8,-9
    a868:	01811723          	sh	s8,14(sp)
    a86c:	007cc463          	blt	s9,t2,a874 <.L1117+0x18>
    a870:	839f706f          	j	20a8 <.L1118>
    a874:	b95f606f          	j	1408 <.L2602>

0000a878 <.L1437>:
    a878:	00c15c03          	lhu	s8,12(sp)
    a87c:	005c0c13          	addi	s8,s8,5
    a880:	01811623          	sh	s8,12(sp)
    a884:	ca9f706f          	j	252c <.L1434>

0000a888 <.L579>:
    a888:	00c15c03          	lhu	s8,12(sp)
    a88c:	e0800c93          	li	s9,-504
    a890:	ffac0c13          	addi	s8,s8,-6
    a894:	01811623          	sh	s8,12(sp)
    a898:	01945463          	bge	s0,s9,a8a0 <.L579+0x18>
    a89c:	ae1fc06f          	j	737c <.L580>
    a8a0:	b80f606f          	j	c20 <.L581>

0000a8a4 <.L1067>:
    a8a4:	00e15c03          	lhu	s8,14(sp)
    a8a8:	ffe00c93          	li	s9,-2
    a8ac:	ff9c0c13          	addi	s8,s8,-7
    a8b0:	01811723          	sh	s8,14(sp)
    a8b4:	01985463          	bge	a6,s9,a8bc <.L1067+0x18>
    a8b8:	891fe06f          	j	9148 <.L1061>
    a8bc:	03c00c13          	li	s8,60
    a8c0:	00fc5463          	bge	s8,a5,a8c8 <.L1073>
    a8c4:	f3cf706f          	j	2000 <.L1089>

0000a8c8 <.L1073>:
    a8c8:	00815c03          	lhu	s8,8(sp)
    a8cc:	ffec0c13          	addi	s8,s8,-2
    a8d0:	010c1c13          	slli	s8,s8,0x10
    a8d4:	410c5c13          	srai	s8,s8,0x10
    a8d8:	aa5f606f          	j	137c <.L1092>

0000a8dc <.L1876>:
    a8dc:	00a15c03          	lhu	s8,10(sp)
    a8e0:	001c0c13          	addi	s8,s8,1
    a8e4:	01811523          	sh	s8,10(sp)
    a8e8:	ad4f806f          	j	2bbc <.L1879>

0000a8ec <.L839>:
    a8ec:	00c15c03          	lhu	s8,12(sp)
    a8f0:	ff6c0c13          	addi	s8,s8,-10
    a8f4:	01811623          	sh	s8,12(sp)
    a8f8:	ef8f606f          	j	ff0 <.L838>

0000a8fc <.L2239>:
    a8fc:	00a15703          	lhu	a4,10(sp)
    a900:	f5b00693          	li	a3,-165
    a904:	ff970713          	addi	a4,a4,-7
    a908:	00e11523          	sh	a4,10(sp)
    a90c:	00d2c463          	blt	t0,a3,a914 <.L2239+0x18>
    a910:	c59f906f          	j	4568 <.L2240>
    a914:	8d1f806f          	j	31e4 <.L2671>

0000a918 <.L191>:
    a918:	00e15e03          	lhu	t3,14(sp)
    a91c:	00de0e13          	addi	t3,t3,13
    a920:	010e1e13          	slli	t3,t3,0x10
    a924:	410e5e13          	srai	t3,t3,0x10
    a928:	880f906f          	j	39a8 <.L190>

0000a92c <.L980>:
    a92c:	00c15c03          	lhu	s8,12(sp)
    a930:	ff7c0c13          	addi	s8,s8,-9
    a934:	010c1c13          	slli	s8,s8,0x10
    a938:	410c5c13          	srai	s8,s8,0x10
    a93c:	d40f706f          	j	1e7c <.L979>

0000a940 <.L2765>:
    a940:	00e15c03          	lhu	s8,14(sp)
    a944:	fa300c93          	li	s9,-93
    a948:	009c0c13          	addi	s8,s8,9
    a94c:	01811723          	sh	s8,14(sp)
    a950:	0192d463          	bge	t0,s9,a958 <.L2765+0x18>
    a954:	cc0fb06f          	j	5e14 <.L985>
    a958:	e1df906f          	j	4774 <.L2596>

0000a95c <.L364>:
    a95c:	00a15c03          	lhu	s8,10(sp)
    a960:	ffbc0c13          	addi	s8,s8,-5
    a964:	010c1c13          	slli	s8,s8,0x10
    a968:	010c5c13          	srli	s8,s8,0x10
    a96c:	d98fc06f          	j	6f04 <.L365>

0000a970 <.L975>:
    a970:	00c15c03          	lhu	s8,12(sp)
    a974:	00ec0c13          	addi	s8,s8,14
    a978:	010c1c13          	slli	s8,s8,0x10
    a97c:	410c5c13          	srai	s8,s8,0x10
    a980:	cfcf706f          	j	1e7c <.L979>

0000a984 <.L377>:
    a984:	00e15c03          	lhu	s8,14(sp)
    a988:	ff9c0c13          	addi	s8,s8,-7
    a98c:	010c1c13          	slli	s8,s8,0x10
    a990:	410c5c13          	srai	s8,s8,0x10
    a994:	ef1f506f          	j	884 <.L375>

0000a998 <.L973>:
    a998:	00a15c03          	lhu	s8,10(sp)
    a99c:	fffc0c13          	addi	s8,s8,-1
    a9a0:	010c1c13          	slli	s8,s8,0x10
    a9a4:	410c5c13          	srai	s8,s8,0x10
    a9a8:	81df606f          	j	11c4 <.L969>

0000a9ac <.L955>:
    a9ac:	00815c03          	lhu	s8,8(sp)
    a9b0:	ff9c0c13          	addi	s8,s8,-7
    a9b4:	010c1c13          	slli	s8,s8,0x10
    a9b8:	410c5c13          	srai	s8,s8,0x10
    a9bc:	c6cf706f          	j	1e28 <.L948>

0000a9c0 <.L232>:
    a9c0:	00a15e03          	lhu	t3,10(sp)
    a9c4:	08c00c13          	li	s8,140
    a9c8:	017e0e13          	addi	t3,t3,23
    a9cc:	01c11523          	sh	t3,10(sp)
    a9d0:	00dc4463          	blt	s8,a3,a9d8 <.L232+0x18>
    a9d4:	c80fb06f          	j	5e54 <.L239>
    a9d8:	cedf506f          	j	6c4 <.L236>

0000a9dc <.L1524>:
    a9dc:	00a15c03          	lhu	s8,10(sp)
    a9e0:	f9800c93          	li	s9,-104
    a9e4:	001c0c13          	addi	s8,s8,1
    a9e8:	01811523          	sh	s8,10(sp)
    a9ec:	01944463          	blt	s0,s9,a9f4 <.L1524+0x18>
    a9f0:	bddf906f          	j	45cc <.L1506>
    a9f4:	00c15c03          	lhu	s8,12(sp)
    a9f8:	01800c93          	li	s9,24
    a9fc:	fffc0c13          	addi	s8,s8,-1
    aa00:	01811623          	sh	s8,12(sp)
    aa04:	010cd463          	bge	s9,a6,aa0c <.L1524+0x30>
    aa08:	c75f706f          	j	267c <.L1533>
    aa0c:	11a00c13          	li	s8,282
    aa10:	007c5463          	bge	s8,t2,aa18 <.L1524+0x3c>
    aa14:	bf5f906f          	j	4608 <.L1535>
    aa18:	a78fd06f          	j	7c90 <.L1534>

0000aa1c <.L2921>:
    aa1c:	00c15c03          	lhu	s8,12(sp)
    aa20:	ffdc0c13          	addi	s8,s8,-3
    aa24:	010c1c13          	slli	s8,s8,0x10
    aa28:	410c5c13          	srai	s8,s8,0x10
    aa2c:	fa8f706f          	j	21d4 <.L1189>

0000aa30 <.L1453>:
    aa30:	00a15c03          	lhu	s8,10(sp)
    aa34:	002c0c13          	addi	s8,s8,2
    aa38:	01811523          	sh	s8,10(sp)

0000aa3c <.L1484>:
    aa3c:	02700c13          	li	s8,39
    aa40:	01dc5463          	bge	s8,t4,aa48 <.L1481>
    aa44:	e6cf906f          	j	40b0 <.L1476>

0000aa48 <.L1481>:
    aa48:	00c15c03          	lhu	s8,12(sp)
    aa4c:	003c0c13          	addi	s8,s8,3
    aa50:	01811623          	sh	s8,12(sp)
    aa54:	b75f706f          	j	25c8 <.L1486>

0000aa58 <.L1555>:
    aa58:	00815c03          	lhu	s8,8(sp)
    aa5c:	ffdc0c13          	addi	s8,s8,-3
    aa60:	010c1c13          	slli	s8,s8,0x10
    aa64:	410c5c13          	srai	s8,s8,0x10
    aa68:	c71f706f          	j	26d8 <.L1552>

0000aa6c <.L223>:
    aa6c:	00a15e03          	lhu	t3,10(sp)
    aa70:	08c00c13          	li	s8,140
    aa74:	ffae0e13          	addi	t3,t3,-6
    aa78:	01c11523          	sh	t3,10(sp)
    aa7c:	00dc5463          	bge	s8,a3,aa84 <.L241>
    aa80:	f89f806f          	j	3a08 <.L240>

0000aa84 <.L241>:
    aa84:	00c15e03          	lhu	t3,12(sp)
    aa88:	ce400c13          	li	s8,-796
    aa8c:	ff7e0e13          	addi	t3,t3,-9
    aa90:	01c11623          	sh	t3,12(sp)
    aa94:	5b85c6e3          	blt	a1,s8,b840 <.L254>
    aa98:	00e15e03          	lhu	t3,14(sp)
    aa9c:	ff6e0e13          	addi	t3,t3,-10
    aaa0:	01c11723          	sh	t3,14(sp)
    aaa4:	ce5f806f          	j	3788 <.L280>

0000aaa8 <.L238>:
    aaa8:	00a15e03          	lhu	t3,10(sp)
    aaac:	08c00c13          	li	s8,140
    aab0:	ffae0e13          	addi	t3,t3,-6
    aab4:	01c11523          	sh	t3,10(sp)
    aab8:	00dc5463          	bge	s8,a3,aac0 <.L238+0x18>
    aabc:	f4df806f          	j	3a08 <.L240>
    aac0:	03600e13          	li	t3,54
    aac4:	fcfe50e3          	bge	t3,a5,aa84 <.L241>

0000aac8 <.L243>:
    aac8:	01c51c03          	lh	s8,28(a0)
    aacc:	03b00e13          	li	t3,59
    aad0:	658e44e3          	blt	t3,s8,b918 <.L262>
    aad4:	00c15e03          	lhu	t3,12(sp)
    aad8:	ff7e0e13          	addi	t3,t3,-9
    aadc:	010e1e13          	slli	t3,t3,0x10
    aae0:	410e5e13          	srai	t3,t3,0x10
    aae4:	bfdf506f          	j	6e0 <.L263>

0000aae8 <.L303>:
    aae8:	00815e03          	lhu	t3,8(sp)
    aaec:	fffe0e13          	addi	t3,t3,-1
    aaf0:	010e1e13          	slli	t3,t3,0x10
    aaf4:	410e5e13          	srai	t3,t3,0x10
    aaf8:	cb9f806f          	j	37b0 <.L304>

0000aafc <.L141>:
    aafc:	00815e03          	lhu	t3,8(sp)
    ab00:	0a600c13          	li	s8,166
    ab04:	007e0e13          	addi	t3,t3,7
    ab08:	01c11423          	sh	t3,8(sp)
    ab0c:	00ec4463          	blt	s8,a4,ab14 <.L141+0x18>
    ab10:	e21f806f          	j	3930 <.L143>
    ab14:	9cdf506f          	j	4e0 <.L2552>

0000ab18 <.L663>:
    ab18:	00a15c03          	lhu	s8,10(sp)
    ab1c:	ff6c0c13          	addi	s8,s8,-10
    ab20:	010c1c13          	slli	s8,s8,0x10
    ab24:	410c5c13          	srai	s8,s8,0x10
    ab28:	9f4f606f          	j	d1c <.L662>

0000ab2c <.L2867>:
    ab2c:	02b00713          	li	a4,43
    ab30:	01074463          	blt	a4,a6,ab38 <.L2237>
    ab34:	8f0f906f          	j	3c24 <.L2236>

0000ab38 <.L2237>:
    ab38:	00a15703          	lhu	a4,10(sp)
    ab3c:	fff70713          	addi	a4,a4,-1
    ab40:	01071713          	slli	a4,a4,0x10
    ab44:	41075713          	srai	a4,a4,0x10
    ab48:	8f8f906f          	j	3c40 <.L2247>

0000ab4c <.L2918>:
    ab4c:	00c15b03          	lhu	s6,12(sp)
    ab50:	002b0b13          	addi	s6,s6,2
    ab54:	010b1b13          	slli	s6,s6,0x10
    ab58:	410b5b13          	srai	s6,s6,0x10
    ab5c:	becf806f          	j	2f48 <.L2081>

0000ab60 <.L1238>:
    ab60:	00c15c03          	lhu	s8,12(sp)
    ab64:	ff7c0c13          	addi	s8,s8,-9
    ab68:	010c1c13          	slli	s8,s8,0x10
    ab6c:	410c5c13          	srai	s8,s8,0x10
    ab70:	f18f706f          	j	2288 <.L1239>

0000ab74 <.L154>:
    ab74:	00a15e03          	lhu	t3,10(sp)
    ab78:	10b00c13          	li	s8,267
    ab7c:	ff6e0e13          	addi	t3,t3,-10
    ab80:	01c11523          	sh	t3,10(sp)
    ab84:	00dc5463          	bge	s8,a3,ab8c <.L154+0x18>
    ab88:	a54fc06f          	j	6ddc <.L156>
    ab8c:	03800e13          	li	t3,56
    ab90:	00fe5463          	bge	t3,a5,ab98 <.L157>
    ab94:	a54fc06f          	j	6de8 <.L181>

0000ab98 <.L157>:
    ab98:	00c15e03          	lhu	t3,12(sp)
    ab9c:	ff7e0e13          	addi	t3,t3,-9
    aba0:	01c11623          	sh	t3,12(sp)
    aba4:	dddf806f          	j	3980 <.L170>

0000aba8 <.L2868>:
    aba8:	00815c03          	lhu	s8,8(sp)
    abac:	12e00c93          	li	s9,302
    abb0:	002c0c13          	addi	s8,s8,2
    abb4:	01811423          	sh	s8,8(sp)
    abb8:	006cc463          	blt	s9,t1,abc0 <.L2868+0x18>
    abbc:	d6cf906f          	j	4128 <.L1503>
    abc0:	9e9f906f          	j	45a8 <.L2632>

0000abc4 <.L2052>:
    abc4:	00c15c03          	lhu	s8,12(sp)
    abc8:	001c0c13          	addi	s8,s8,1
    abcc:	01811623          	sh	s8,12(sp)
    abd0:	5bc052e3          	blez	t3,b974 <.L2952>
    abd4:	ff600c13          	li	s8,-10
    abd8:	65865ce3          	bge	a2,s8,ba30 <.L2062>
    abdc:	02900c13          	li	s8,41
    abe0:	01dc5463          	bge	s8,t4,abe8 <.L2052+0x24>
    abe4:	3740106f          	j	bf58 <.L2063>
    abe8:	00e15c03          	lhu	s8,14(sp)
    abec:	ffbc0c13          	addi	s8,s8,-5
    abf0:	01811723          	sh	s8,14(sp)
    abf4:	f04f906f          	j	42f8 <.L2055>

0000abf8 <.L2196>:
    abf8:	00a15503          	lhu	a0,10(sp)
    abfc:	25b00e93          	li	t4,603
    ac00:	00850513          	addi	a0,a0,8
    ac04:	00a11523          	sh	a0,10(sp)
    ac08:	00eec463          	blt	t4,a4,ac10 <.L2196+0x18>
    ac0c:	d28f806f          	j	3134 <.L2200>
    ac10:	c60fc06f          	j	7070 <.L2197>

0000ac14 <.L2234>:
    ac14:	00815683          	lhu	a3,8(sp)
    ac18:	ff968693          	addi	a3,a3,-7
    ac1c:	01069693          	slli	a3,a3,0x10
    ac20:	4106d693          	srai	a3,a3,0x10
    ac24:	d84f806f          	j	31a8 <.L2233>

0000ac28 <.L2115>:
    ac28:	00a15b03          	lhu	s6,10(sp)
    ac2c:	25b00c13          	li	s8,603
    ac30:	fffb0b13          	addi	s6,s6,-1
    ac34:	01611523          	sh	s6,10(sp)
    ac38:	00ec4463          	blt	s8,a4,ac40 <.L2115+0x18>
    ac3c:	fa4f906f          	j	43e0 <.L2119>
    ac40:	c21fc06f          	j	7860 <.L2116>

0000ac44 <.L2128>:
    ac44:	00c15b03          	lhu	s6,12(sp)
    ac48:	ffcb0b13          	addi	s6,s6,-4
    ac4c:	01611623          	sh	s6,12(sp)
    ac50:	b98f806f          	j	2fe8 <.L2123>

0000ac54 <.L219>:
    ac54:	00815e03          	lhu	t3,8(sp)
    ac58:	ff9e0e13          	addi	t3,t3,-7
    ac5c:	010e1e13          	slli	t3,t3,0x10
    ac60:	410e5e13          	srai	t3,t3,0x10
    ac64:	cc0fb06f          	j	6124 <.L220>

0000ac68 <.L915>:
    ac68:	00a15c03          	lhu	s8,10(sp)
    ac6c:	ffec0c13          	addi	s8,s8,-2
    ac70:	010c1c13          	slli	s8,s8,0x10
    ac74:	410c5c13          	srai	s8,s8,0x10
    ac78:	ca0f606f          	j	1118 <.L912>

0000ac7c <.L2092>:
    ac7c:	00c15b03          	lhu	s6,12(sp)
    ac80:	ff8b0b13          	addi	s6,s6,-8
    ac84:	010b1b13          	slli	s6,s6,0x10
    ac88:	410b5b13          	srai	s6,s6,0x10
    ac8c:	abcf806f          	j	2f48 <.L2081>

0000ac90 <.L1593>:
    ac90:	00c15c03          	lhu	s8,12(sp)
    ac94:	00300c93          	li	s9,3
    ac98:	ffec0c13          	addi	s8,s8,-2
    ac9c:	01811623          	sh	s8,12(sp)
    aca0:	01ccd463          	bge	s9,t3,aca8 <.L1631>
    aca4:	b1cfe06f          	j	8fc0 <.L1595>

0000aca8 <.L1631>:
    aca8:	0c100c13          	li	s8,193
    acac:	012c4463          	blt	s8,s2,acb4 <.L1631+0xc>
    acb0:	b65f706f          	j	2814 <.L1634>
    acb4:	00e15c03          	lhu	s8,14(sp)
    acb8:	00400c93          	li	s9,4
    acbc:	007c0c13          	addi	s8,s8,7
    acc0:	01811723          	sh	s8,14(sp)
    acc4:	011cc463          	blt	s9,a7,accc <.L1631+0x24>
    acc8:	dedfa06f          	j	5ab4 <.L1642>
    accc:	00e00c13          	li	s8,14
    acd0:	01dc4463          	blt	s8,t4,acd8 <.L1631+0x30>
    acd4:	b7df706f          	j	2850 <.L1643>
    acd8:	95cf906f          	j	3e34 <.L1644>

0000acdc <.L421>:
    acdc:	00815c03          	lhu	s8,8(sp)
    ace0:	004c0c13          	addi	s8,s8,4
    ace4:	010c1c13          	slli	s8,s8,0x10
    ace8:	410c5c13          	srai	s8,s8,0x10
    acec:	c95f506f          	j	980 <.L420>

0000acf0 <.L875>:
    acf0:	00a15c03          	lhu	s8,10(sp)
    acf4:	002c0c13          	addi	s8,s8,2
    acf8:	01811523          	sh	s8,10(sp)
    acfc:	b6cf606f          	j	1068 <.L874>

0000ad00 <.L917>:
    ad00:	00a15c03          	lhu	s8,10(sp)
    ad04:	03300c93          	li	s9,51
    ad08:	fe1c0c13          	addi	s8,s8,-31
    ad0c:	01811523          	sh	s8,10(sp)
    ad10:	00fcc463          	blt	s9,a5,ad18 <.L917+0x18>
    ad14:	e10fa06f          	j	5324 <.L923>
    ad18:	890f706f          	j	1da8 <.L918>

0000ad1c <.L72>:
    ad1c:	00e15e03          	lhu	t3,14(sp)
    ad20:	ffbe0e13          	addi	t3,t3,-5
    ad24:	01c11723          	sh	t3,14(sp)
    ad28:	a85fb06f          	j	67ac <.L74>

0000ad2c <.L630>:
    ad2c:	00a15c03          	lhu	s8,10(sp)
    ad30:	08900c93          	li	s9,137
    ad34:	ffbc0c13          	addi	s8,s8,-5
    ad38:	01811523          	sh	s8,10(sp)
    ad3c:	00dcd463          	bge	s9,a3,ad44 <.L630+0x18>
    ad40:	d45fd06f          	j	8a84 <.L2953>
    ad44:	23000c13          	li	s8,560
    ad48:	57ec52e3          	bge	s8,t5,baac <.L2954>
    ad4c:	00c15c03          	lhu	s8,12(sp)
    ad50:	003c0c13          	addi	s8,s8,3
    ad54:	01811623          	sh	s8,12(sp)

0000ad58 <.L638>:
    ad58:	e4a00c13          	li	s8,-438
    ad5c:	5f82cae3          	blt	t0,s8,bb50 <.L2955>
    ad60:	01f00c13          	li	s8,31
    ad64:	d30c5e63          	bge	s8,a6,a2a0 <.L2271>
    ad68:	00e15c03          	lhu	s8,14(sp)
    ad6c:	009c0c13          	addi	s8,s8,9
    ad70:	01811723          	sh	s8,14(sp)
    ad74:	975fb06f          	j	66e8 <.L2270>

0000ad78 <.L46>:
    ad78:	ffa88893          	addi	a7,a7,-6
    ad7c:	01089893          	slli	a7,a7,0x10
    ad80:	00851803          	lh	a6,8(a0)
    ad84:	4108d893          	srai	a7,a7,0x10
    ad88:	be0f506f          	j	168 <.L47>

0000ad8c <.L438>:
    ad8c:	00a15c03          	lhu	s8,10(sp)
    ad90:	00ac0c13          	addi	s8,s8,10
    ad94:	010c1c13          	slli	s8,s8,0x10
    ad98:	410c5c13          	srai	s8,s8,0x10
    ad9c:	f54f806f          	j	34f0 <.L437>

0000ada0 <.L2338>:
    ada0:	ff400793          	li	a5,-12
    ada4:	01251483          	lh	s1,18(a0)
    ada8:	01051b03          	lh	s6,16(a0)
    adac:	00f64463          	blt	a2,a5,adb4 <.L25>
    adb0:	d4cf506f          	j	2fc <.L22>

0000adb4 <.L25>:
    adb4:	00051783          	lh	a5,0(a0)
    adb8:	ffb00593          	li	a1,-5
    adbc:	00b11623          	sh	a1,12(sp)
    adc0:	03e00593          	li	a1,62
    adc4:	01451283          	lh	t0,20(a0)
    adc8:	00f5c463          	blt	a1,a5,add0 <.L25+0x1c>
    adcc:	d48f506f          	j	314 <.L26>
    add0:	b50f506f          	j	120 <.L27>

0000add4 <.L455>:
    add4:	00e15c03          	lhu	s8,14(sp)
    add8:	006c0c13          	addi	s8,s8,6
    addc:	010c1c13          	slli	s8,s8,0x10
    ade0:	410c5c13          	srai	s8,s8,0x10
    ade4:	f64f806f          	j	3548 <.L454>

0000ade8 <.L628>:
    ade8:	00a15c03          	lhu	s8,10(sp)
    adec:	004c0c13          	addi	s8,s8,4
    adf0:	010c1c13          	slli	s8,s8,0x10
    adf4:	410c5c13          	srai	s8,s8,0x10
    adf8:	ad9f606f          	j	18d0 <.L629>

0000adfc <.L1553>:
    adfc:	00815c03          	lhu	s8,8(sp)
    ae00:	007c0c13          	addi	s8,s8,7
    ae04:	010c1c13          	slli	s8,s8,0x10
    ae08:	410c5c13          	srai	s8,s8,0x10
    ae0c:	8cdf706f          	j	26d8 <.L1552>

0000ae10 <.L2068>:
    ae10:	00815b03          	lhu	s6,8(sp)
    ae14:	ff6b0b13          	addi	s6,s6,-10
    ae18:	01611423          	sh	s6,8(sp)
    ae1c:	8e0f806f          	j	2efc <.L2069>

0000ae20 <.L1943>:
    ae20:	00815c03          	lhu	s8,8(sp)
    ae24:	ffec0c13          	addi	s8,s8,-2
    ae28:	01811423          	sh	s8,8(sp)
    ae2c:	ec1f706f          	j	2cec <.L1940>

0000ae30 <.L1029>:
    ae30:	00e15c03          	lhu	s8,14(sp)
    ae34:	00dc0c13          	addi	s8,s8,13
    ae38:	010c1c13          	slli	s8,s8,0x10
    ae3c:	410c5c13          	srai	s8,s8,0x10
    ae40:	c80f606f          	j	12c0 <.L1028>

0000ae44 <.L2924>:
    ae44:	00c15c83          	lhu	s9,12(sp)
    ae48:	03900d13          	li	s10,57
    ae4c:	fffc8c93          	addi	s9,s9,-1
    ae50:	01911623          	sh	s9,12(sp)
    ae54:	22fd42e3          	blt	s10,a5,b878 <.L932>
    ae58:	01500c13          	li	s8,21
    ae5c:	006c5463          	bge	s8,t1,ae64 <.L2924+0x20>
    ae60:	af8f606f          	j	1158 <.L933>
    ae64:	01f00c13          	li	s8,31
    ae68:	01dc4463          	blt	s8,t4,ae70 <.L2924+0x2c>
    ae6c:	c6cf806f          	j	32d8 <.L934>
    ae70:	00e15c03          	lhu	s8,14(sp)
    ae74:	015c0c13          	addi	s8,s8,21
    ae78:	01811723          	sh	s8,14(sp)
    ae7c:	f81f606f          	j	1dfc <.L935>

0000ae80 <.L1420>:
    ae80:	00e15c03          	lhu	s8,14(sp)
    ae84:	006c0c13          	addi	s8,s8,6
    ae88:	01811723          	sh	s8,14(sp)
    ae8c:	e20f706f          	j	24ac <.L1410>

0000ae90 <.L1776>:
    ae90:	00e15c03          	lhu	s8,14(sp)
    ae94:	fffc0c13          	addi	s8,s8,-1
    ae98:	01811723          	sh	s8,14(sp)
    ae9c:	b8df706f          	j	2a28 <.L1774>

0000aea0 <.L1738>:
    aea0:	00e15c03          	lhu	s8,14(sp)
    aea4:	ffac0c13          	addi	s8,s8,-6
    aea8:	01811723          	sh	s8,14(sp)
    aeac:	b90fa06f          	j	523c <.L1741>

0000aeb0 <.L698>:
    aeb0:	00a15c03          	lhu	s8,10(sp)
    aeb4:	ffdc0c13          	addi	s8,s8,-3
    aeb8:	010c1c13          	slli	s8,s8,0x10
    aebc:	010c5c13          	srli	s8,s8,0x10
    aec0:	f25f506f          	j	de4 <.L699>

0000aec4 <.L534>:
    aec4:	00a15c03          	lhu	s8,10(sp)
    aec8:	ff5c0c13          	addi	s8,s8,-11
    aecc:	010c1c13          	slli	s8,s8,0x10
    aed0:	010c5c13          	srli	s8,s8,0x10
    aed4:	c59f506f          	j	b2c <.L535>

0000aed8 <.L1006>:
    aed8:	00a15c03          	lhu	s8,10(sp)
    aedc:	ff8c0c13          	addi	s8,s8,-8
    aee0:	010c1c13          	slli	s8,s8,0x10
    aee4:	410c5c13          	srai	s8,s8,0x10
    aee8:	b70f606f          	j	1258 <.L1007>

0000aeec <.L1565>:
    aeec:	00a15c03          	lhu	s8,10(sp)
    aef0:	10b00c93          	li	s9,267
    aef4:	003c0c13          	addi	s8,s8,3
    aef8:	01811523          	sh	s8,10(sp)
    aefc:	00dcc463          	blt	s9,a3,af04 <.L1565+0x18>
    af00:	c8dfc06f          	j	7b8c <.L1559>
    af04:	cdcfd06f          	j	83e0 <.L2633>

0000af08 <.L1574>:
    af08:	00c15c03          	lhu	s8,12(sp)
    af0c:	ff7c0c13          	addi	s8,s8,-9
    af10:	010c1c13          	slli	s8,s8,0x10
    af14:	410c5c13          	srai	s8,s8,0x10
    af18:	829f706f          	j	2740 <.L1573>

0000af1c <.L2839>:
    af1c:	ffe68693          	addi	a3,a3,-2
    af20:	00d11723          	sh	a3,14(sp)
    af24:	a54f806f          	j	3178 <.L2209>

0000af28 <.L1134>:
    af28:	00a15c03          	lhu	s8,10(sp)
    af2c:	fffc0c13          	addi	s8,s8,-1
    af30:	010c1c13          	slli	s8,s8,0x10
    af34:	410c5c13          	srai	s8,s8,0x10
    af38:	d2cf606f          	j	1464 <.L1133>

0000af3c <.L1719>:
    af3c:	00a15c03          	lhu	s8,10(sp)
    af40:	ffac0c13          	addi	s8,s8,-6
    af44:	010c1c13          	slli	s8,s8,0x10
    af48:	410c5c13          	srai	s8,s8,0x10
    af4c:	9d1f706f          	j	291c <.L1720>

0000af50 <.L1369>:
    af50:	00e15c03          	lhu	s8,14(sp)
    af54:	006c0c13          	addi	s8,s8,6
    af58:	010c1c13          	slli	s8,s8,0x10
    af5c:	410c5c13          	srai	s8,s8,0x10
    af60:	c8cf706f          	j	23ec <.L1365>

0000af64 <.L1431>:
    af64:	00a15c03          	lhu	s8,10(sp)
    af68:	001c0c13          	addi	s8,s8,1
    af6c:	01811523          	sh	s8,10(sp)
    af70:	d90f706f          	j	2500 <.L1428>

0000af74 <.L1321>:
    af74:	00815c03          	lhu	s8,8(sp)
    af78:	03400c93          	li	s9,52
    af7c:	00bc0c13          	addi	s8,s8,11
    af80:	01811423          	sh	s8,8(sp)
    af84:	01dcc463          	blt	s9,t4,af8c <.L1321+0x18>
    af88:	f2df806f          	j	3eb4 <.L1328>
    af8c:	f90f606f          	j	171c <.L1322>

0000af90 <.L2210>:
    af90:	00c15503          	lhu	a0,12(sp)
    af94:	02800e93          	li	t4,40
    af98:	ffc50513          	addi	a0,a0,-4
    af9c:	00a11623          	sh	a0,12(sp)
    afa0:	147ec0e3          	blt	t4,t2,b8e0 <.L2220>
    afa4:	03c00513          	li	a0,60
    afa8:	00f54463          	blt	a0,a5,afb0 <.L2528>
    afac:	e90fc06f          	j	763c <.L2221>

0000afb0 <.L2528>:
    afb0:	f7a00693          	li	a3,-134
    afb4:	00da4463          	blt	s4,a3,afbc <.L2669>
    afb8:	9c8f806f          	j	3180 <.L2215>

0000afbc <.L2669>:
    afbc:	f4000693          	li	a3,-192
    afc0:	00da4463          	blt	s4,a3,afc8 <.L2669+0xc>
    afc4:	c41f806f          	j	3c04 <.L2217>
    afc8:	e60fa06f          	j	5628 <.L2216>

0000afcc <.L2815>:
    afcc:	00a15c03          	lhu	s8,10(sp)
    afd0:	003c0c13          	addi	s8,s8,3
    afd4:	010c1c13          	slli	s8,s8,0x10
    afd8:	410c5c13          	srai	s8,s8,0x10
    afdc:	a99f706f          	j	2a74 <.L1792>

0000afe0 <.L2916>:
    afe0:	00e15c03          	lhu	s8,14(sp)
    afe4:	009c0c13          	addi	s8,s8,9
    afe8:	01811723          	sh	s8,14(sp)
    afec:	824f606f          	j	1010 <.L846>

0000aff0 <.L69>:
    aff0:	00c15e03          	lhu	t3,12(sp)
    aff4:	ffbe0e13          	addi	t3,t3,-5
    aff8:	010e1e13          	slli	t3,t3,0x10
    affc:	410e5e13          	srai	t3,t3,0x10
    b000:	9d4f506f          	j	1d4 <.L65>

0000b004 <.L1946>:
    b004:	00a15c03          	lhu	s8,10(sp)
    b008:	03c00c93          	li	s9,60
    b00c:	003c0c13          	addi	s8,s8,3
    b010:	01811523          	sh	s8,10(sp)
    b014:	00fcc463          	blt	s9,a5,b01c <.L1946+0x18>
    b018:	b09f906f          	j	4b20 <.L1962>
    b01c:	daa00c13          	li	s8,-598
    b020:	018ac463          	blt	s5,s8,b028 <.L1951>
    b024:	ff5fb06f          	j	7018 <.L1952>

0000b028 <.L1951>:
    b028:	05800c13          	li	s8,88
    b02c:	009c4463          	blt	s8,s1,b034 <.L1951+0xc>
    b030:	a50fd06f          	j	8280 <.L1981>
    b034:	d2df706f          	j	2d60 <.L1983>

0000b038 <.L2203>:
    b038:	00a15503          	lhu	a0,10(sp)
    b03c:	00250513          	addi	a0,a0,2
    b040:	00a11523          	sh	a0,10(sp)
    b044:	b59f806f          	j	3b9c <.L2204>

0000b048 <.L1804>:
    b048:	00c15c03          	lhu	s8,12(sp)
    b04c:	002c0c13          	addi	s8,s8,2
    b050:	01811623          	sh	s8,12(sp)
    b054:	a55f706f          	j	2aa8 <.L1807>

0000b058 <.L1941>:
    b058:	00815c03          	lhu	s8,8(sp)
    b05c:	ffbc0c13          	addi	s8,s8,-5
    b060:	01811423          	sh	s8,8(sp)
    b064:	c89f706f          	j	2cec <.L1940>

0000b068 <.L350>:
    b068:	00a15c03          	lhu	s8,10(sp)
    b06c:	17000c93          	li	s9,368
    b070:	ff8c0c13          	addi	s8,s8,-8
    b074:	01811523          	sh	s8,10(sp)
    b078:	00dcc463          	blt	s9,a3,b080 <.L350+0x18>
    b07c:	e95fb06f          	j	6f10 <.L351>
    b080:	f80fc06f          	j	7800 <.L359>

0000b084 <.L968>:
    b084:	00a15c03          	lhu	s8,10(sp)
    b088:	ffec0c13          	addi	s8,s8,-2
    b08c:	01811523          	sh	s8,10(sp)
    b090:	e11fb06f          	j	6ea0 <.L970>

0000b094 <.L2205>:
    b094:	00c15503          	lhu	a0,12(sp)
    b098:	00350513          	addi	a0,a0,3
    b09c:	01051513          	slli	a0,a0,0x10
    b0a0:	41055513          	srai	a0,a0,0x10
    b0a4:	8b8f806f          	j	315c <.L2206>

0000b0a8 <.L1497>:
    b0a8:	00e15c03          	lhu	s8,14(sp)
    b0ac:	001c0c13          	addi	s8,s8,1
    b0b0:	01811723          	sh	s8,14(sp)
    b0b4:	840f906f          	j	40f4 <.L1496>

0000b0b8 <.L1492>:
    b0b8:	00e15c03          	lhu	s8,14(sp)
    b0bc:	005c0c13          	addi	s8,s8,5
    b0c0:	01811723          	sh	s8,14(sp)
    b0c4:	830f906f          	j	40f4 <.L1496>

0000b0c8 <.L1347>:
    b0c8:	00a15c03          	lhu	s8,10(sp)
    b0cc:	fffc0c13          	addi	s8,s8,-1
    b0d0:	010c1c13          	slli	s8,s8,0x10
    b0d4:	010c5c13          	srli	s8,s8,0x10
    b0d8:	cd4fc06f          	j	75ac <.L1348>

0000b0dc <.L345>:
    b0dc:	00815c03          	lhu	s8,8(sp)
    b0e0:	ff7c0c13          	addi	s8,s8,-9
    b0e4:	01811423          	sh	s8,8(sp)
    b0e8:	f18f506f          	j	800 <.L344>

0000b0ec <.L799>:
    b0ec:	00a15c03          	lhu	s8,10(sp)
    b0f0:	ffec0c13          	addi	s8,s8,-2
    b0f4:	010c1c13          	slli	s8,s8,0x10
    b0f8:	410c5c13          	srai	s8,s8,0x10
    b0fc:	d71f906f          	j	4e6c <.L800>

0000b100 <.L1458>:
    b100:	00815c03          	lhu	s8,8(sp)
    b104:	f8b00c93          	li	s9,-117
    b108:	ffec0c13          	addi	s8,s8,-2
    b10c:	01811423          	sh	s8,8(sp)
    b110:	0195c463          	blt	a1,s9,b118 <.L1458+0x18>
    b114:	f79f806f          	j	408c <.L1463>
    b118:	c68f706f          	j	2580 <.L2738>

0000b11c <.L1833>:
    b11c:	00815c03          	lhu	s8,8(sp)
    b120:	007c0c13          	addi	s8,s8,7
    b124:	010c1c13          	slli	s8,s8,0x10
    b128:	410c5c13          	srai	s8,s8,0x10
    b12c:	b95f906f          	j	4cc0 <.L1834>

0000b130 <.L1956>:
    b130:	00a15c03          	lhu	s8,10(sp)
    b134:	ffcc0c13          	addi	s8,s8,-4
    b138:	010c1c13          	slli	s8,s8,0x10
    b13c:	410c5c13          	srai	s8,s8,0x10
    b140:	be1f706f          	j	2d20 <.L1947>

0000b144 <.L1438>:
    b144:	00c15c03          	lhu	s8,12(sp)
    b148:	ffac0c13          	addi	s8,s8,-6
    b14c:	01811623          	sh	s8,12(sp)
    b150:	bdcf706f          	j	252c <.L1434>

0000b154 <.L1383>:
    b154:	03900c13          	li	s8,57
    b158:	006c4463          	blt	s8,t1,b160 <.L1383+0xc>
    b15c:	ec0f906f          	j	481c <.L1371>
    b160:	e09f806f          	j	3f68 <.L2621>

0000b164 <.L2129>:
    b164:	00c15b03          	lhu	s6,12(sp)
    b168:	ff7b0b13          	addi	s6,s6,-9
    b16c:	01611623          	sh	s6,12(sp)
    b170:	e79f706f          	j	2fe8 <.L2123>

0000b174 <.L1868>:
    b174:	00e15c03          	lhu	s8,14(sp)
    b178:	ff6c0c13          	addi	s8,s8,-10
    b17c:	010c1c13          	slli	s8,s8,0x10
    b180:	010c5c13          	srli	s8,s8,0x10
    b184:	f28fc06f          	j	78ac <.L1869>

0000b188 <.L2722>:
    b188:	00a00693          	li	a3,10
    b18c:	5d36c663          	blt	a3,s3,b758 <.L2173>
    b190:	00c15683          	lhu	a3,12(sp)
    b194:	ff868693          	addi	a3,a3,-8
    b198:	00d11623          	sh	a3,12(sp)
    b19c:	e0cfa06f          	j	57a8 <.L2169>

0000b1a0 <.L2166>:
    b1a0:	fdb00b13          	li	s6,-37
    b1a4:	ff6742e3          	blt	a4,s6,b188 <.L2722>
    b1a8:	02600b13          	li	s6,38
    b1ac:	00eb5463          	bge	s6,a4,b1b4 <.L2166+0x14>
    b1b0:	d20fc06f          	j	76d0 <.L2180>
    b1b4:	03c00b13          	li	s6,60
    b1b8:	00db4463          	blt	s6,a3,b1c0 <.L2166+0x20>
    b1bc:	decfa06f          	j	57a8 <.L2169>
    b1c0:	ee1f706f          	j	30a0 <.L2170>

0000b1c4 <.L1271>:
    b1c4:	00815c03          	lhu	s8,8(sp)
    b1c8:	001c0c13          	addi	s8,s8,1
    b1cc:	010c1c13          	slli	s8,s8,0x10
    b1d0:	410c5c13          	srai	s8,s8,0x10
    b1d4:	c6cf906f          	j	4640 <.L1252>

0000b1d8 <.L1334>:
    b1d8:	00a15c03          	lhu	s8,10(sp)
    b1dc:	02a00c93          	li	s9,42
    b1e0:	ff7c0c13          	addi	s8,s8,-9
    b1e4:	01811523          	sh	s8,10(sp)
    b1e8:	00dcc463          	blt	s9,a3,b1f0 <.L1334+0x18>
    b1ec:	bd0fc06f          	j	75bc <.L1344>
    b1f0:	02700c13          	li	s8,39
    b1f4:	00ec5463          	bge	s8,a4,b1fc <.L1334+0x24>
    b1f8:	d05f806f          	j	3efc <.L1345>
    b1fc:	cf5f806f          	j	3ef0 <.L2699>

0000b200 <.L1472>:
    b200:	00815c03          	lhu	s8,8(sp)
    b204:	002c0c13          	addi	s8,s8,2
    b208:	010c1c13          	slli	s8,s8,0x10
    b20c:	010c5c13          	srli	s8,s8,0x10
    b210:	a11fa06f          	j	5c20 <.L1473>

0000b214 <.L791>:
    b214:	00815c03          	lhu	s8,8(sp)
    b218:	03300c93          	li	s9,51
    b21c:	ff9c0c13          	addi	s8,s8,-7
    b220:	01811423          	sh	s8,8(sp)
    b224:	01fcc463          	blt	s9,t6,b22c <.L791+0x18>
    b228:	95df606f          	j	1b84 <.L788>
    b22c:	c25f906f          	j	4e50 <.L789>

0000b230 <.L569>:
    b230:	00a15c03          	lhu	s8,10(sp)
    b234:	17000c93          	li	s9,368
    b238:	006c0c13          	addi	s8,s8,6
    b23c:	01811523          	sh	s8,10(sp)
    b240:	00dcc463          	blt	s9,a3,b248 <.L569+0x18>
    b244:	9a5f506f          	j	be8 <.L563>
    b248:	ad5fd06f          	j	8d1c <.L2288>

0000b24c <.L2820>:
    b24c:	00e15c03          	lhu	s8,14(sp)
    b250:	001c0c13          	addi	s8,s8,1
    b254:	010c1c13          	slli	s8,s8,0x10
    b258:	410c5c13          	srai	s8,s8,0x10
    b25c:	c6df706f          	j	2ec8 <.L2057>

0000b260 <.L1823>:
    b260:	00e15c03          	lhu	s8,14(sp)
    b264:	ffdc0c13          	addi	s8,s8,-3
    b268:	010c1c13          	slli	s8,s8,0x10
    b26c:	010c5c13          	srli	s8,s8,0x10
    b270:	01811723          	sh	s8,14(sp)
    b274:	a1df906f          	j	4c90 <.L1821>

0000b278 <.L2933>:
    b278:	00c15c03          	lhu	s8,12(sp)
    b27c:	00300c93          	li	s9,3
    b280:	004c0c13          	addi	s8,s8,4
    b284:	01811623          	sh	s8,12(sp)
    b288:	01ccc463          	blt	s9,t3,b290 <.L2933+0x18>
    b28c:	b79f806f          	j	3e04 <.L1620>
    b290:	e4a00c13          	li	s8,-438
    b294:	0182c463          	blt	t0,s8,b29c <.L2933+0x24>
    b298:	fbcfa06f          	j	5a54 <.L1626>
    b29c:	d31fd06f          	j	8fcc <.L1621>

0000b2a0 <.L766>:
    b2a0:	00c15c03          	lhu	s8,12(sp)
    b2a4:	03e00c93          	li	s9,62
    b2a8:	ffcc0c13          	addi	s8,s8,-4
    b2ac:	01811623          	sh	s8,12(sp)
    b2b0:	00fcd463          	bge	s9,a5,b2b8 <.L766+0x18>
    b2b4:	c1df906f          	j	4ed0 <.L752>
    b2b8:	cd5fd06f          	j	8f8c <.L764>

0000b2bc <.L761>:
    b2bc:	00c15c03          	lhu	s8,12(sp)
    b2c0:	fffc0c13          	addi	s8,s8,-1
    b2c4:	010c1c13          	slli	s8,s8,0x10
    b2c8:	010c5c13          	srli	s8,s8,0x10
    b2cc:	f09f906f          	j	51d4 <.L762>

0000b2d0 <.L2939>:
    b2d0:	00e15c03          	lhu	s8,14(sp)
    b2d4:	003c0c13          	addi	s8,s8,3
    b2d8:	01811723          	sh	s8,14(sp)
    b2dc:	e95f506f          	j	1170 <.L940>

0000b2e0 <.L734>:
    b2e0:	00815c03          	lhu	s8,8(sp)
    b2e4:	003c0c13          	addi	s8,s8,3
    b2e8:	01811423          	sh	s8,8(sp)
    b2ec:	fc8f606f          	j	1ab4 <.L718>

0000b2f0 <.L2886>:
    b2f0:	007c0c13          	addi	s8,s8,7
    b2f4:	010c1c13          	slli	s8,s8,0x10
    b2f8:	410c5c13          	srai	s8,s8,0x10
    b2fc:	c0df506f          	j	f08 <.L778>

0000b300 <.L2923>:
    b300:	ffdc0c13          	addi	s8,s8,-3
    b304:	01811623          	sh	s8,12(sp)
    b308:	834fa06f          	j	533c <.L928>

0000b30c <.L2760>:
    b30c:	00a15c03          	lhu	s8,10(sp)
    b310:	08900c93          	li	s9,137
    b314:	ff7c0c13          	addi	s8,s8,-9
    b318:	01811523          	sh	s8,10(sp)
    b31c:	00dcc463          	blt	s9,a3,b324 <.L2760+0x18>
    b320:	979f506f          	j	c98 <.L621>
    b324:	f34fc06f          	j	7a58 <.L2582>

0000b328 <.L1850>:
    b328:	00e15c03          	lhu	s8,14(sp)
    b32c:	01f00c93          	li	s9,31
    b330:	007c0c13          	addi	s8,s8,7
    b334:	01811723          	sh	s8,14(sp)
    b338:	013cd463          	bge	s9,s3,b340 <.L1850+0x18>
    b33c:	851f706f          	j	2b8c <.L1859>
    b340:	859f706f          	j	2b98 <.L1873>

0000b344 <.L1141>:
    b344:	00c15c03          	lhu	s8,12(sp)
    b348:	ff7c0c13          	addi	s8,s8,-9
    b34c:	010c1c13          	slli	s8,s8,0x10
    b350:	410c5c13          	srai	s8,s8,0x10
    b354:	944f606f          	j	1498 <.L1140>

0000b358 <.L2932>:
    b358:	00a15c03          	lhu	s8,10(sp)
    b35c:	ff7c0c13          	addi	s8,s8,-9
    b360:	010c1c13          	slli	s8,s8,0x10
    b364:	410c5c13          	srai	s8,s8,0x10
    b368:	c6cf706f          	j	27d4 <.L1611>

0000b36c <.L2764>:
    b36c:	00a15c03          	lhu	s8,10(sp)
    b370:	002c0c13          	addi	s8,s8,2
    b374:	010c1c13          	slli	s8,s8,0x10
    b378:	410c5c13          	srai	s8,s8,0x10
    b37c:	c49f506f          	j	fc4 <.L829>

0000b380 <.L2784>:
    b380:	00c15c03          	lhu	s8,12(sp)
    b384:	ffdc0c13          	addi	s8,s8,-3
    b388:	010c1c13          	slli	s8,s8,0x10
    b38c:	410c5c13          	srai	s8,s8,0x10
    b390:	849f606f          	j	1bd8 <.L810>

0000b394 <.L2803>:
    b394:	00815c03          	lhu	s8,8(sp)
    b398:	03900c93          	li	s9,57
    b39c:	006c0c13          	addi	s8,s8,6
    b3a0:	01811423          	sh	s8,8(sp)
    b3a4:	006cc463          	blt	s9,t1,b3ac <.L2803+0x18>
    b3a8:	c74f906f          	j	481c <.L1371>
    b3ac:	ff800c13          	li	s8,-8
    b3b0:	01865463          	bge	a2,s8,b3b8 <.L2803+0x24>
    b3b4:	874f706f          	j	2428 <.L1372>
    b3b8:	ea900c13          	li	s8,-343
    b3bc:	0182d463          	bge	t0,s8,b3c4 <.L2803+0x30>
    b3c0:	c8dfa06f          	j	604c <.L1373>
    b3c4:	ca1fa06f          	j	6064 <.L1374>

0000b3c8 <.L1018>:
    b3c8:	00c15c03          	lhu	s8,12(sp)
    b3cc:	ff7c0c13          	addi	s8,s8,-9
    b3d0:	010c1c13          	slli	s8,s8,0x10
    b3d4:	410c5c13          	srai	s8,s8,0x10
    b3d8:	eb5f506f          	j	128c <.L1019>

0000b3dc <.L684>:
    b3dc:	00815c03          	lhu	s8,8(sp)
    b3e0:	07200c93          	li	s9,114
    b3e4:	014c0c13          	addi	s8,s8,20
    b3e8:	01811423          	sh	s8,8(sp)
    b3ec:	00ecc463          	blt	s9,a4,b3f4 <.L684+0x18>
    b3f0:	9cdf506f          	j	dbc <.L685>
    b3f4:	e14f606f          	j	1a08 <.L690>

0000b3f8 <.L691>:
    b3f8:	00815c03          	lhu	s8,8(sp)
    b3fc:	ff8c0c13          	addi	s8,s8,-8
    b400:	010c1c13          	slli	s8,s8,0x10
    b404:	410c5c13          	srai	s8,s8,0x10
    b408:	9a5f506f          	j	dac <.L692>

0000b40c <.L2908>:
    b40c:	00388893          	addi	a7,a7,3
    b410:	01089893          	slli	a7,a7,0x10
    b414:	4108d893          	srai	a7,a7,0x10
    b418:	d51f406f          	j	168 <.L47>

0000b41c <.L2855>:
    b41c:	004c0c13          	addi	s8,s8,4
    b420:	01811423          	sh	s8,8(sp)
    b424:	006cc463          	blt	s9,t1,b42c <.L2855+0x10>
    b428:	d01f806f          	j	4128 <.L1503>
    b42c:	e5df906f          	j	5288 <.L1519>

0000b430 <.L862>:
    b430:	00815c03          	lhu	s8,8(sp)
    b434:	ff3c0c13          	addi	s8,s8,-13
    b438:	010c1c13          	slli	s8,s8,0x10
    b43c:	010c5c13          	srli	s8,s8,0x10
    b440:	ffdfa06f          	j	643c <.L863>

0000b444 <.L2761>:
    b444:	ff9c0c13          	addi	s8,s8,-7
    b448:	01811723          	sh	s8,14(sp)
    b44c:	01ecc463          	blt	s9,t5,b454 <.L2761+0x10>
    b450:	cd8f606f          	j	1928 <.L648>
    b454:	88df506f          	j	ce0 <.L652>

0000b458 <.L2905>:
    b458:	003c0c13          	addi	s8,s8,3
    b45c:	010c1c13          	slli	s8,s8,0x10
    b460:	410c5c13          	srai	s8,s8,0x10
    b464:	dd4f506f          	j	a38 <.L459>

0000b468 <.L1989>:
    b468:	00e15c03          	lhu	s8,14(sp)
    b46c:	ffcc0c13          	addi	s8,s8,-4
    b470:	01811723          	sh	s8,14(sp)
    b474:	ee8f906f          	j	4b5c <.L1994>

0000b478 <.L2067>:
    b478:	00e15c03          	lhu	s8,14(sp)
    b47c:	004c0c13          	addi	s8,s8,4
    b480:	010c1c13          	slli	s8,s8,0x10
    b484:	410c5c13          	srai	s8,s8,0x10
    b488:	a41f706f          	j	2ec8 <.L2057>

0000b48c <.L637>:
    b48c:	00c15c03          	lhu	s8,12(sp)
    b490:	03a00c93          	li	s9,58
    b494:	003c0c13          	addi	s8,s8,3
    b498:	01811623          	sh	s8,12(sp)
    b49c:	00fcc463          	blt	s9,a5,b4a4 <.L637+0x18>
    b4a0:	811f506f          	j	cb0 <.L636>
    b4a4:	8b5ff06f          	j	ad58 <.L638>

0000b4a8 <.L1772>:
    b4a8:	00c15c03          	lhu	s8,12(sp)
    b4ac:	001c0c13          	addi	s8,s8,1
    b4b0:	01811623          	sh	s8,12(sp)
    b4b4:	d44f706f          	j	29f8 <.L1769>

0000b4b8 <.L124>:
    b4b8:	00c15e03          	lhu	t3,12(sp)
    b4bc:	ff6e0e13          	addi	t3,t3,-10
    b4c0:	010e1e13          	slli	t3,t3,0x10
    b4c4:	410e5e13          	srai	t3,t3,0x10
    b4c8:	fa9f406f          	j	470 <.L120>

0000b4cc <.L2938>:
    b4cc:	00a15c03          	lhu	s8,10(sp)
    b4d0:	ff6c0c13          	addi	s8,s8,-10
    b4d4:	010c1c13          	slli	s8,s8,0x10
    b4d8:	410c5c13          	srai	s8,s8,0x10
    b4dc:	81dfa06f          	j	5cf8 <.L288>

0000b4e0 <.L2922>:
    b4e0:	23200c13          	li	s8,562
    b4e4:	51ec4263          	blt	s8,t5,b9e8 <.L1483>
    b4e8:	00a15c03          	lhu	s8,10(sp)
    b4ec:	ff7c0c13          	addi	s8,s8,-9
    b4f0:	010c1c13          	slli	s8,s8,0x10
    b4f4:	410c5c13          	srai	s8,s8,0x10
    b4f8:	f54fa06f          	j	5c4c <.L1471>

0000b4fc <.L2906>:
    b4fc:	00c15c03          	lhu	s8,12(sp)
    b500:	007c0c13          	addi	s8,s8,7
    b504:	01811623          	sh	s8,12(sp)
    b508:	f7dfa06f          	j	6484 <.L870>

0000b50c <.L1179>:
    b50c:	00a15c03          	lhu	s8,10(sp)
    b510:	004c0c13          	addi	s8,s8,4
    b514:	010c1c13          	slli	s8,s8,0x10
    b518:	410c5c13          	srai	s8,s8,0x10
    b51c:	d64f806f          	j	3a80 <.L1169>

0000b520 <.L1182>:
    b520:	00a15c03          	lhu	s8,10(sp)
    b524:	03c00c93          	li	s9,60
    b528:	ff6c0c13          	addi	s8,s8,-10
    b52c:	01811523          	sh	s8,10(sp)
    b530:	00fcd463          	bge	s9,a5,b538 <.L1182+0x18>
    b534:	d19fd06f          	j	924c <.L2603>
    b538:	d58f806f          	j	3a90 <.L1167>

0000b53c <.L2774>:
    b53c:	00c15c03          	lhu	s8,12(sp)
    b540:	00ac0c13          	addi	s8,s8,10
    b544:	01811623          	sh	s8,12(sp)
    b548:	e71f606f          	j	23b8 <.L1359>

0000b54c <.L169>:
    b54c:	d6700e13          	li	t3,-665
    b550:	01ca4463          	blt	s4,t3,b558 <.L169+0xc>
    b554:	895fb06f          	j	6de8 <.L181>
    b558:	00c15e03          	lhu	t3,12(sp)
    b55c:	00be0e13          	addi	t3,t3,11
    b560:	010e1e13          	slli	t3,t3,0x10
    b564:	410e5e13          	srai	t3,t3,0x10
    b568:	c08f806f          	j	3970 <.L175>

0000b56c <.L551>:
    b56c:	00815c03          	lhu	s8,8(sp)
    b570:	013c0c13          	addi	s8,s8,19
    b574:	010c1c13          	slli	s8,s8,0x10
    b578:	410c5c13          	srai	s8,s8,0x10
    b57c:	e34f506f          	j	bb0 <.L552>

0000b580 <.L1685>:
    b580:	00a15c03          	lhu	s8,10(sp)
    b584:	00100c93          	li	s9,1
    b588:	fffc0c13          	addi	s8,s8,-1
    b58c:	01811523          	sh	s8,10(sp)
    b590:	01ccd463          	bge	s9,t3,b598 <.L1685+0x18>
    b594:	aecf706f          	j	2880 <.L1658>
    b598:	e0dfd06f          	j	93a4 <.L1669>

0000b59c <.L1864>:
    b59c:	00e15c03          	lhu	s8,14(sp)
    b5a0:	01f00c93          	li	s9,31
    b5a4:	009c0c13          	addi	s8,s8,9
    b5a8:	01811723          	sh	s8,14(sp)
    b5ac:	013cc463          	blt	s9,s3,b5b4 <.L1864+0x18>
    b5b0:	f5df906f          	j	550c <.L1865>
    b5b4:	f8df906f          	j	5540 <.L1866>

0000b5b8 <.L1427>:
    b5b8:	00a15c03          	lhu	s8,10(sp)
    b5bc:	fffc0c13          	addi	s8,s8,-1
    b5c0:	01811523          	sh	s8,10(sp)
    b5c4:	f3df606f          	j	2500 <.L1428>

0000b5c8 <.L1700>:
    b5c8:	00e15c03          	lhu	s8,14(sp)
    b5cc:	00fc0c13          	addi	s8,s8,15
    b5d0:	01811723          	sh	s8,14(sp)
    b5d4:	af0f706f          	j	28c4 <.L1698>

0000b5d8 <.L1841>:
    b5d8:	00a15c03          	lhu	s8,10(sp)
    b5dc:	fffc0c13          	addi	s8,s8,-1
    b5e0:	010c1c13          	slli	s8,s8,0x10
    b5e4:	410c5c13          	srai	s8,s8,0x10
    b5e8:	01811523          	sh	s8,10(sp)
    b5ec:	b64f906f          	j	4950 <.L2884>

0000b5f0 <.L2747>:
    b5f0:	00a51683          	lh	a3,10(a0)
    b5f4:	01051b03          	lh	s6,16(a0)
    b5f8:	02851e83          	lh	t4,40(a0)
    b5fc:	a44fd06f          	j	8840 <.L20>

0000b600 <.L2944>:
    b600:	00c15c03          	lhu	s8,12(sp)
    b604:	005c0c13          	addi	s8,s8,5
    b608:	01811623          	sh	s8,12(sp)
    b60c:	bc9fd06f          	j	91d4 <.L485>

0000b610 <.L2895>:
    b610:	00c15c03          	lhu	s8,12(sp)
    b614:	00bc0c13          	addi	s8,s8,11
    b618:	01811623          	sh	s8,12(sp)
    b61c:	bb9fd06f          	j	91d4 <.L485>

0000b620 <.L481>:
    b620:	00c15c03          	lhu	s8,12(sp)
    b624:	e0800c93          	li	s9,-504
    b628:	006c0c13          	addi	s8,s8,6
    b62c:	01811623          	sh	s8,12(sp)
    b630:	01945463          	bge	s0,s9,b638 <.L481+0x18>
    b634:	c7cf506f          	j	ab0 <.L482>
    b638:	b1cfb06f          	j	6954 <.L2289>

0000b63c <.L2817>:
    b63c:	03300c13          	li	s8,51
    b640:	011c4463          	blt	s8,a7,b648 <.L2817+0xc>
    b644:	d54f706f          	j	2b98 <.L1873>
    b648:	00815c03          	lhu	s8,8(sp)
    b64c:	006c0c13          	addi	s8,s8,6
    b650:	01811423          	sh	s8,8(sp)
    b654:	d44f706f          	j	2b98 <.L1873>

0000b658 <.L268>:
    b658:	00c15e03          	lhu	t3,12(sp)
    b65c:	03d00c13          	li	s8,61
    b660:	008e0e13          	addi	t3,t3,8
    b664:	01c11623          	sh	t3,12(sp)
    b668:	01878463          	beq	a5,s8,b670 <.L270>
    b66c:	bccf806f          	j	3a38 <.L269>

0000b670 <.L270>:
    b670:	03d00793          	li	a5,61
    b674:	8dcf806f          	j	3750 <.L259>

0000b678 <.L2096>:
    b678:	0a400b13          	li	s6,164
    b67c:	01eb4463          	blt	s6,t5,b684 <.L2096+0xc>
    b680:	d29f806f          	j	43a8 <.L2102>
    b684:	00815b03          	lhu	s6,8(sp)
    b688:	02e00c13          	li	s8,46
    b68c:	ff9b0b13          	addi	s6,s6,-7
    b690:	01611423          	sh	s6,8(sp)
    b694:	01dc4463          	blt	s8,t4,b69c <.L2096+0x24>
    b698:	d19f806f          	j	43b0 <.L2098>
    b69c:	8d9f906f          	j	4f74 <.L2099>

0000b6a0 <.L1892>:
    b6a0:	00e15c03          	lhu	s8,14(sp)
    b6a4:	07300c93          	li	s9,115
    b6a8:	010c0c13          	addi	s8,s8,16
    b6ac:	01811723          	sh	s8,14(sp)
    b6b0:	012cc463          	blt	s9,s2,b6b8 <.L1892+0x18>
    b6b4:	b70f906f          	j	4a24 <.L1893>
    b6b8:	919fb06f          	j	6fd0 <.L1894>

0000b6bc <.L24>:
    b6bc:	01851603          	lh	a2,24(a0)
    b6c0:	01251483          	lh	s1,18(a0)
    b6c4:	01051b03          	lh	s6,16(a0)
    b6c8:	00f65463          	bge	a2,a5,b6d0 <.L24+0x14>
    b6cc:	a31f406f          	j	fc <.L21>
    b6d0:	c2df406f          	j	2fc <.L22>

0000b6d4 <.L716>:
    b6d4:	01c51c83          	lh	s9,28(a0)
    b6d8:	03400c13          	li	s8,52
    b6dc:	019c5463          	bge	s8,s9,b6e4 <.L716+0x10>
    b6e0:	f7cf506f          	j	e5c <.L729>
    b6e4:	00815c03          	lhu	s8,8(sp)
    b6e8:	ff8c0c13          	addi	s8,s8,-8
    b6ec:	01811423          	sh	s8,8(sp)
    b6f0:	f78f506f          	j	e68 <.L715>

0000b6f4 <.L1725>:
    b6f4:	e6b00c13          	li	s8,-405
    b6f8:	5182de63          	bge	t0,s8,bc14 <.L1733>
    b6fc:	03300c13          	li	s8,51
    b700:	01dc4463          	blt	s8,t4,b708 <.L1725+0x14>
    b704:	92df906f          	j	5030 <.L1734>
    b708:	ec0f906f          	j	4dc8 <.L1727>

0000b70c <.L2177>:
    b70c:	08600b13          	li	s6,134
    b710:	00db4463          	blt	s6,a3,b718 <.L2177+0xc>
    b714:	fbdfb06f          	j	76d0 <.L2180>
    b718:	c00f806f          	j	3b18 <.L2160>

0000b71c <.L2176>:
    b71c:	00c15683          	lhu	a3,12(sp)
    b720:	ffe68693          	addi	a3,a3,-2
    b724:	00d11623          	sh	a3,12(sp)
    b728:	bf0f806f          	j	3b18 <.L2160>

0000b72c <.L1163>:
    b72c:	00815c03          	lhu	s8,8(sp)
    b730:	1b900c93          	li	s9,441
    b734:	004c0c13          	addi	s8,s8,4
    b738:	01811423          	sh	s8,8(sp)
    b73c:	01ecc463          	blt	s9,t5,b744 <.L1163+0x18>
    b740:	98cf906f          	j	48cc <.L1164>
    b744:	a3df606f          	j	2180 <.L1162>

0000b748 <.L260>:
    b748:	00c15e03          	lhu	t3,12(sp)
    b74c:	018e0e13          	addi	t3,t3,24
    b750:	01c11623          	sh	t3,12(sp)
    b754:	ffdf706f          	j	3750 <.L259>

0000b758 <.L2173>:
    b758:	00c15683          	lhu	a3,12(sp)
    b75c:	ffe68693          	addi	a3,a3,-2
    b760:	00d11623          	sh	a3,12(sp)
    b764:	844fa06f          	j	57a8 <.L2169>

0000b768 <.L2315>:
    b768:	00a51683          	lh	a3,10(a0)
    b76c:	01051b03          	lh	s6,16(a0)
    b770:	02851e83          	lh	t4,40(a0)
    b774:	01451283          	lh	t0,20(a0)
    b778:	b9df406f          	j	314 <.L26>

0000b77c <.L879>:
    b77c:	f5b00c13          	li	s8,-165
    b780:	4582c263          	blt	t0,s8,bbc4 <.L882>
    b784:	0ed00c13          	li	s8,237
    b788:	08dc58e3          	bge	s8,a3,c018 <.L893>
    b78c:	00c15c03          	lhu	s8,12(sp)
    b790:	02f00c93          	li	s9,47
    b794:	003c0c13          	addi	s8,s8,3
    b798:	01811623          	sh	s8,12(sp)
    b79c:	010cc463          	blt	s9,a6,b7a4 <.L879+0x28>
    b7a0:	cf9fa06f          	j	6498 <.L881>
    b7a4:	d80f606f          	j	1d24 <.L889>

0000b7a8 <.L2946>:
    b7a8:	00a15c03          	lhu	s8,10(sp)
    b7ac:	00100c93          	li	s9,1
    b7b0:	ff6c0c13          	addi	s8,s8,-10
    b7b4:	01811523          	sh	s8,10(sp)
    b7b8:	01ccd463          	bge	s9,t3,b7c0 <.L2946+0x18>
    b7bc:	b4cfa06f          	j	5b08 <.L1691>
    b7c0:	c3cfd06f          	j	8bfc <.L1693>

0000b7c4 <.L2037>:
    b7c4:	00a15c03          	lhu	s8,10(sp)
    b7c8:	01500c93          	li	s9,21
    b7cc:	004c0c13          	addi	s8,s8,4
    b7d0:	01811523          	sh	s8,10(sp)
    b7d4:	010cd463          	bge	s9,a6,b7dc <.L2037+0x18>
    b7d8:	c85f906f          	j	545c <.L2038>
    b7dc:	e9cf706f          	j	2e78 <.L2034>

0000b7e0 <.L1652>:
    b7e0:	00a15c03          	lhu	s8,10(sp)
    b7e4:	00100c93          	li	s9,1
    b7e8:	004c0c13          	addi	s8,s8,4
    b7ec:	01811523          	sh	s8,10(sp)
    b7f0:	01ccd463          	bge	s9,t3,b7f8 <.L1652+0x18>
    b7f4:	b78fb06f          	j	6b6c <.L1654>
    b7f8:	ba0fb06f          	j	6b98 <.L1653>

0000b7fc <.L1809>:
    b7fc:	e4a00c13          	li	s8,-438
    b800:	3f82d063          	bge	t0,s8,bbe0 <.L1812>
    b804:	de700c13          	li	s8,-537
    b808:	4785c463          	blt	a1,s8,bc70 <.L1811>
    b80c:	00e15c03          	lhu	s8,14(sp)
    b810:	ff8c0c13          	addi	s8,s8,-8
    b814:	01811723          	sh	s8,14(sp)
    b818:	c84f906f          	j	4c9c <.L1826>

0000b81c <.L1963>:
    b81c:	03600c13          	li	s8,54
    b820:	3cfc4c63          	blt	s8,a5,bbf8 <.L2956>
    b824:	00e15c03          	lhu	s8,14(sp)
    b828:	01500c93          	li	s9,21
    b82c:	ff9c0c13          	addi	s8,s8,-7
    b830:	01811723          	sh	s8,14(sp)
    b834:	007cc463          	blt	s9,t2,b83c <.L1963+0x20>
    b838:	d4cf706f          	j	2d84 <.L1965>
    b83c:	aa9fc06f          	j	82e4 <.L1968>

0000b840 <.L254>:
    b840:	19c00e13          	li	t3,412
    b844:	68ee4a63          	blt	t3,a4,bed8 <.L2957>
    b848:	00e15e03          	lhu	t3,14(sp)
    b84c:	00fe0e13          	addi	t3,t3,15
    b850:	01c11723          	sh	t3,14(sp)
    b854:	f35f706f          	j	3788 <.L280>

0000b858 <.L2748>:
    b858:	e4e00e13          	li	t3,-434
    b85c:	33cad063          	bge	s5,t3,bb7c <.L2958>
    b860:	6c100e13          	li	t3,1729
    b864:	0aee52e3          	bge	t3,a4,c108 <.L2959>
    b868:	00c15e03          	lhu	t3,12(sp)
    b86c:	fffe0e13          	addi	t3,t3,-1
    b870:	01c11623          	sh	t3,12(sp)
    b874:	c0df406f          	j	480 <.L121>

0000b878 <.L932>:
    b878:	e4a00c93          	li	s9,-438
    b87c:	2792d063          	bge	t0,s9,badc <.L936>
    b880:	03d00c13          	li	s8,61
    b884:	70fc4263          	blt	s8,a5,bf88 <.L937>
    b888:	00e15c03          	lhu	s8,14(sp)
    b88c:	ff8c0c13          	addi	s8,s8,-8
    b890:	01811723          	sh	s8,14(sp)
    b894:	d68f606f          	j	1dfc <.L935>

0000b898 <.L802>:
    b898:	00a15c03          	lhu	s8,10(sp)
    b89c:	004c0c13          	addi	s8,s8,4
    b8a0:	010c1c13          	slli	s8,s8,0x10
    b8a4:	410c5c13          	srai	s8,s8,0x10
    b8a8:	dc4f906f          	j	4e6c <.L800>

0000b8ac <.L1633>:
    b8ac:	00e15c03          	lhu	s8,14(sp)
    b8b0:	00400c93          	li	s9,4
    b8b4:	5409c463          	bltz	s3,bdfc <.L2960>
    b8b8:	003c0c13          	addi	s8,s8,3
    b8bc:	01811723          	sh	s8,14(sp)
    b8c0:	011cc463          	blt	s9,a7,b8c8 <.L1633+0x1c>
    b8c4:	9f0fa06f          	j	5ab4 <.L1642>
    b8c8:	d6cf806f          	j	3e34 <.L1644>

0000b8cc <.L307>:
    b8cc:	00a15c03          	lhu	s8,10(sp)
    b8d0:	ffcc0c13          	addi	s8,s8,-4
    b8d4:	010c1c13          	slli	s8,s8,0x10
    b8d8:	410c5c13          	srai	s8,s8,0x10
    b8dc:	c1cfa06f          	j	5cf8 <.L288>

0000b8e0 <.L2220>:
    b8e0:	06b00513          	li	a0,107
    b8e4:	00954463          	blt	a0,s1,b8ec <.L2220+0xc>
    b8e8:	ae8f806f          	j	3bd0 <.L2212>
    b8ec:	ec4ff06f          	j	afb0 <.L2528>

0000b8f0 <.L477>:
    b8f0:	e4e00c13          	li	s8,-434
    b8f4:	218ad063          	bge	s5,s8,baf4 <.L487>
    b8f8:	00001c37          	lui	s8,0x1
    b8fc:	cbbc0c13          	addi	s8,s8,-837 # cbb <.L2778+0x3>
    b900:	00ec4463          	blt	s8,a4,b908 <.L477+0x18>
    b904:	cb5f706f          	j	35b8 <.L2572>
    b908:	00c15c03          	lhu	s8,12(sp)
    b90c:	ffac0c13          	addi	s8,s8,-6
    b910:	01811623          	sh	s8,12(sp)
    b914:	d75f906f          	j	5688 <.L491>

0000b918 <.L262>:
    b918:	00c15e03          	lhu	t3,12(sp)
    b91c:	018e0e13          	addi	t3,t3,24
    b920:	010e1e13          	slli	t3,t3,0x10
    b924:	410e5e13          	srai	t3,t3,0x10
    b928:	db9f406f          	j	6e0 <.L263>

0000b92c <.L264>:
    b92c:	00c15e03          	lhu	t3,12(sp)
    b930:	008e0e13          	addi	t3,t3,8
    b934:	01c11623          	sh	t3,12(sp)
    b938:	e19f706f          	j	3750 <.L259>

0000b93c <.L2928>:
    b93c:	02a00c13          	li	s8,42
    b940:	011c4463          	blt	s8,a7,b948 <.L2928+0xc>
    b944:	c78fc06f          	j	7dbc <.L2616>
    b948:	00e15c03          	lhu	s8,14(sp)
    b94c:	002c0c13          	addi	s8,s8,2
    b950:	01811723          	sh	s8,14(sp)
    b954:	d89f806f          	j	46dc <.L1300>

0000b958 <.L2947>:
    b958:	00c15e03          	lhu	t3,12(sp)
    b95c:	ff5e0e13          	addi	t3,t3,-11
    b960:	01c11623          	sh	t3,12(sp)
    b964:	cddf406f          	j	640 <.L174>

0000b968 <.L2898>:
    b968:	ffcc0c13          	addi	s8,s8,-4
    b96c:	01811723          	sh	s8,14(sp)
    b970:	cacf806f          	j	3e1c <.L1627>

0000b974 <.L2952>:
    b974:	00e15c03          	lhu	s8,14(sp)
    b978:	ffac0c13          	addi	s8,s8,-6
    b97c:	01811723          	sh	s8,14(sp)
    b980:	979f806f          	j	42f8 <.L2055>

0000b984 <.L1387>:
    b984:	00c15c03          	lhu	s8,12(sp)
    b988:	03c00c93          	li	s9,60
    b98c:	ff7c0c13          	addi	s8,s8,-9
    b990:	01811623          	sh	s8,12(sp)
    b994:	00fcd463          	bge	s9,a5,b99c <.L2628>
    b998:	ed5f806f          	j	486c <.L1389>

0000b99c <.L2628>:
    b99c:	e4f00c13          	li	s8,-433
    b9a0:	018ad463          	bge	s5,s8,b9a8 <.L2628+0xc>
    b9a4:	af1f606f          	j	2494 <.L1390>
    b9a8:	e04f806f          	j	3fac <.L1391>

0000b9ac <.L1851>:
    b9ac:	f8b00c13          	li	s8,-117
    b9b0:	0185c463          	blt	a1,s8,b9b8 <.L1851+0xc>
    b9b4:	ff1f806f          	j	49a4 <.L1854>
    b9b8:	9e0f706f          	j	2b98 <.L1873>

0000b9bc <.L2913>:
    b9bc:	00c15c03          	lhu	s8,12(sp)
    b9c0:	ffbc0c13          	addi	s8,s8,-5
    b9c4:	01811623          	sh	s8,12(sp)
    b9c8:	f8dfa06f          	j	6954 <.L2289>

0000b9cc <.L1477>:
    b9cc:	00a15c03          	lhu	s8,10(sp)
    b9d0:	04900c93          	li	s9,73
    b9d4:	007c0c13          	addi	s8,s8,7
    b9d8:	01811523          	sh	s8,10(sp)
    b9dc:	011cd463          	bge	s9,a7,b9e4 <.L1477+0x18>
    b9e0:	a7cfa06f          	j	5c5c <.L1482>
    b9e4:	eccf806f          	j	40b0 <.L1476>

0000b9e8 <.L1483>:
    b9e8:	00a15c03          	lhu	s8,10(sp)
    b9ec:	04900c93          	li	s9,73
    b9f0:	002c0c13          	addi	s8,s8,2
    b9f4:	01811523          	sh	s8,10(sp)
    b9f8:	011cd463          	bge	s9,a7,ba00 <.L1483+0x18>
    b9fc:	a60fa06f          	j	5c5c <.L1482>
    ba00:	83cff06f          	j	aa3c <.L1484>

0000ba04 <.L2934>:
    ba04:	ff300c13          	li	s8,-13
    ba08:	01865463          	bge	a2,s8,ba10 <.L2655>
    ba0c:	b3cf706f          	j	2d48 <.L1980>

0000ba10 <.L2655>:
    ba10:	05800c13          	li	s8,88
    ba14:	009c4463          	blt	s8,s1,ba1c <.L2655+0xc>
    ba18:	869fc06f          	j	8280 <.L1981>
    ba1c:	b50f706f          	j	2d6c <.L1982>

0000ba20 <.L2900>:
    ba20:	00100c13          	li	s8,1
    ba24:	01cc5463          	bge	s8,t3,ba2c <.L2900+0xc>
    ba28:	944fb06f          	j	6b6c <.L1654>
    ba2c:	96cfb06f          	j	6b98 <.L1653>

0000ba30 <.L2062>:
    ba30:	ed600c13          	li	s8,-298
    ba34:	5982d863          	bge	t0,s8,bfc4 <.L2066>
    ba38:	00e15c03          	lhu	s8,14(sp)
    ba3c:	ffdc0c13          	addi	s8,s8,-3
    ba40:	01811723          	sh	s8,14(sp)
    ba44:	8b5f806f          	j	42f8 <.L2055>

0000ba48 <.L2058>:
    ba48:	00e15c03          	lhu	s8,14(sp)
    ba4c:	0a900c93          	li	s9,169
    ba50:	004c0c13          	addi	s8,s8,4
    ba54:	01811723          	sh	s8,14(sp)
    ba58:	01ecc463          	blt	s9,t5,ba60 <.L2058+0x18>
    ba5c:	c7cf706f          	j	2ed8 <.L2049>
    ba60:	e8df906f          	j	58ec <.L2045>

0000ba64 <.L2534>:
    ba64:	e4300c13          	li	s8,-445
    ba68:	4f845063          	bge	s0,s8,bf48 <.L733>
    ba6c:	00815c03          	lhu	s8,8(sp)
    ba70:	ff7c0c13          	addi	s8,s8,-9
    ba74:	01811423          	sh	s8,8(sp)
    ba78:	bf0f506f          	j	e68 <.L715>

0000ba7c <.L1312>:
    ba7c:	00e15c03          	lhu	s8,14(sp)
    ba80:	005c0c13          	addi	s8,s8,5
    ba84:	01811723          	sh	s8,14(sp)
    ba88:	c55f806f          	j	46dc <.L1300>

0000ba8c <.L2573>:
    ba8c:	00c15c03          	lhu	s8,12(sp)
    ba90:	005c0c13          	addi	s8,s8,5
    ba94:	01811623          	sh	s8,12(sp)
    ba98:	f48fd06f          	j	91e0 <.L498>

0000ba9c <.L2749>:
    ba9c:	00c15e03          	lhu	t3,12(sp)
    baa0:	ff6e0e13          	addi	t3,t3,-10
    baa4:	01c11623          	sh	t3,12(sp)
    baa8:	9d9f406f          	j	480 <.L121>

0000baac <.L2954>:
    baac:	00c15c03          	lhu	s8,12(sp)
    bab0:	ff8c0c13          	addi	s8,s8,-8
    bab4:	01811623          	sh	s8,12(sp)
    bab8:	c05fa06f          	j	66bc <.L643>

0000babc <.L1964>:
    babc:	01500c13          	li	s8,21
    bac0:	007c4463          	blt	s8,t2,bac8 <.L1964+0xc>
    bac4:	ac0f706f          	j	2d84 <.L1965>
    bac8:	949fb06f          	j	7410 <.L1966>

0000bacc <.L2945>:
    bacc:	00a15c03          	lhu	s8,10(sp)
    bad0:	007c0c13          	addi	s8,s8,7
    bad4:	01811523          	sh	s8,10(sp)
    bad8:	fb9f706f          	j	3a90 <.L1167>

0000badc <.L936>:
    badc:	010c4463          	blt	s8,a6,bae4 <.L936+0x8>
    bae0:	b1cf606f          	j	1dfc <.L935>
    bae4:	00e15c03          	lhu	s8,14(sp)
    bae8:	008c0c13          	addi	s8,s8,8
    baec:	01811723          	sh	s8,14(sp)
    baf0:	b0cf606f          	j	1dfc <.L935>

0000baf4 <.L487>:
    baf4:	30200c13          	li	s8,770
    baf8:	f8ec5ae3          	bge	s8,a4,ba8c <.L2573>
    bafc:	00c15c03          	lhu	s8,12(sp)
    bb00:	ff7c0c13          	addi	s8,s8,-9
    bb04:	01811623          	sh	s8,12(sp)
    bb08:	b81f906f          	j	5688 <.L491>

0000bb0c <.L757>:
    bb0c:	03d00c13          	li	s8,61
    bb10:	00fc4463          	blt	s8,a5,bb18 <.L757+0xc>
    bb14:	db4fe06f          	j	a0c8 <.L753>
    bb18:	00c15c03          	lhu	s8,12(sp)
    bb1c:	03e00c93          	li	s9,62
    bb20:	ffcc0c13          	addi	s8,s8,-4
    bb24:	01811623          	sh	s8,12(sp)
    bb28:	01979463          	bne	a5,s9,bb30 <.L757+0x24>
    bb2c:	ff1f506f          	j	1b1c <.L754>
    bb30:	bacf906f          	j	4edc <.L755>

0000bb34 <.L2936>:
    bb34:	0c600c13          	li	s8,198
    bb38:	009c4463          	blt	s8,s1,bb40 <.L2936+0xc>
    bb3c:	eb1f606f          	j	29ec <.L1771>
    bb40:	02700c13          	li	s8,39
    bb44:	007c4463          	blt	s8,t2,bb4c <.L2936+0x18>
    bb48:	911fc06f          	j	8458 <.L1761>
    bb4c:	9ccf906f          	j	4d18 <.L1762>

0000bb50 <.L2955>:
    bb50:	de700c13          	li	s8,-537
    bb54:	0185d463          	bge	a1,s8,bb5c <.L2955+0xc>
    bb58:	b91fa06f          	j	66e8 <.L2270>
    bb5c:	b75fa06f          	j	66d0 <.L656>

0000bb60 <.L2948>:
    bb60:	00a15e03          	lhu	t3,10(sp)
    bb64:	2df00c13          	li	s8,735
    bb68:	ff7e0e13          	addi	t3,t3,-9
    bb6c:	01c11523          	sh	t3,10(sp)
    bb70:	00ec5463          	bge	s8,a4,bb78 <.L2948+0x18>
    bb74:	dfcfa06f          	j	6170 <.L2540>
    bb78:	b4df406f          	j	6c4 <.L236>

0000bb7c <.L2958>:
    bb7c:	00c15e03          	lhu	t3,12(sp)
    bb80:	ff7e0e13          	addi	t3,t3,-9
    bb84:	010e1e13          	slli	t3,t3,0x10
    bb88:	410e5e13          	srai	t3,t3,0x10
    bb8c:	01c11623          	sh	t3,12(sp)
    bb90:	8f1f406f          	j	480 <.L121>

0000bb94 <.L2937>:
    bb94:	27200c13          	li	s8,626
    bb98:	58ec5063          	bge	s8,a4,c118 <.L642>
    bb9c:	00c15c03          	lhu	s8,12(sp)
    bba0:	fffc0c13          	addi	s8,s8,-1
    bba4:	01811623          	sh	s8,12(sp)
    bba8:	b15fa06f          	j	66bc <.L643>

0000bbac <.L744>:
    bbac:	ddb00c13          	li	s8,-549
    bbb0:	4d8acc63          	blt	s5,s8,c088 <.L2961>
    bbb4:	00c15c03          	lhu	s8,12(sp)
    bbb8:	ff7c0c13          	addi	s8,s8,-9
    bbbc:	01811623          	sh	s8,12(sp)
    bbc0:	f69f506f          	j	1b28 <.L751>

0000bbc4 <.L882>:
    bbc4:	00c15c03          	lhu	s8,12(sp)
    bbc8:	02f00c93          	li	s9,47
    bbcc:	007c0c13          	addi	s8,s8,7
    bbd0:	01811623          	sh	s8,12(sp)
    bbd4:	010cd463          	bge	s9,a6,bbdc <.L882+0x18>
    bbd8:	94cf606f          	j	1d24 <.L889>
    bbdc:	8bdfa06f          	j	6498 <.L881>

0000bbe0 <.L1812>:
    bbe0:	16c00c13          	li	s8,364
    bbe4:	40dc4063          	blt	s8,a3,bfe4 <.L1822>
    bbe8:	00e15c03          	lhu	s8,14(sp)
    bbec:	003c0c13          	addi	s8,s8,3
    bbf0:	01811723          	sh	s8,14(sp)
    bbf4:	8a8f906f          	j	4c9c <.L1826>

0000bbf8 <.L2956>:
    bbf8:	00e15c03          	lhu	s8,14(sp)
    bbfc:	01500c93          	li	s9,21
    bc00:	001c0c13          	addi	s8,s8,1
    bc04:	01811723          	sh	s8,14(sp)
    bc08:	007cc463          	blt	s9,t2,bc10 <.L2956+0x18>
    bc0c:	978f706f          	j	2d84 <.L1965>
    bc10:	801fb06f          	j	7410 <.L1966>

0000bc14 <.L1733>:
    bc14:	e9800c13          	li	s8,-360
    bc18:	0185d463          	bge	a1,s8,bc20 <.L1733+0xc>
    bc1c:	9dcfd06f          	j	8df8 <.L1735>
    bc20:	9a8f906f          	j	4dc8 <.L1727>

0000bc24 <.L1177>:
    bc24:	00a15c03          	lhu	s8,10(sp)
    bc28:	004c0c13          	addi	s8,s8,4
    bc2c:	01811523          	sh	s8,10(sp)
    bc30:	e61f706f          	j	3a90 <.L1167>

0000bc34 <.L2766>:
    bc34:	00e15c03          	lhu	s8,14(sp)
    bc38:	008c0c13          	addi	s8,s8,8
    bc3c:	01811723          	sh	s8,14(sp)
    bc40:	f20f506f          	j	1360 <.L1062>

0000bc44 <.L316>:
    bc44:	00c15e03          	lhu	t3,12(sp)
    bc48:	d2500c13          	li	s8,-731
    bc4c:	ff7e0e13          	addi	t3,t3,-9
    bc50:	01c11623          	sh	t3,12(sp)
    bc54:	02051e03          	lh	t3,32(a0)
    bc58:	0185d463          	bge	a1,s8,bc60 <.L316+0x1c>
    bc5c:	dc9fa06f          	j	6a24 <.L320>
    bc60:	8d0fa06f          	j	5d30 <.L321>

0000bc64 <.L2881>:
    bc64:	00e15c03          	lhu	s8,14(sp)
    bc68:	ff8c0c13          	addi	s8,s8,-8
    bc6c:	01811723          	sh	s8,14(sp)

0000bc70 <.L1811>:
    bc70:	01700c13          	li	s8,23
    bc74:	01dc5463          	bge	s8,t4,bc7c <.L1811+0xc>
    bc78:	82cf906f          	j	4ca4 <.L1835>
    bc7c:	00815c03          	lhu	s8,8(sp)
    bc80:	03300c93          	li	s9,51
    bc84:	fffc0c13          	addi	s8,s8,-1
    bc88:	01811423          	sh	s8,8(sp)
    bc8c:	01fcc463          	blt	s9,t6,bc94 <.L1811+0x24>
    bc90:	c95f806f          	j	4924 <.L1831>
    bc94:	844f906f          	j	4cd8 <.L1845>

0000bc98 <.L1339>:
    bc98:	00c15c03          	lhu	s8,12(sp)
    bc9c:	03600c93          	li	s9,54
    bca0:	00ac0c13          	addi	s8,s8,10
    bca4:	01811623          	sh	s8,12(sp)
    bca8:	00fcc463          	blt	s9,a5,bcb0 <.L1339+0x18>
    bcac:	929f906f          	j	55d4 <.L1340>
    bcb0:	a64f806f          	j	3f14 <.L1341>

0000bcb4 <.L2809>:
    bcb4:	00e15c03          	lhu	s8,14(sp)
    bcb8:	00400c93          	li	s9,4
    bcbc:	007c0c13          	addi	s8,s8,7
    bcc0:	01811723          	sh	s8,14(sp)
    bcc4:	011cc463          	blt	s9,a7,bccc <.L2809+0x18>
    bcc8:	dedf906f          	j	5ab4 <.L1642>
    bccc:	b79f606f          	j	2844 <.L1645>

0000bcd0 <.L2807>:
    bcd0:	00815c03          	lhu	s8,8(sp)
    bcd4:	00c00c93          	li	s9,12
    bcd8:	ffbc0c13          	addi	s8,s8,-5
    bcdc:	01811423          	sh	s8,8(sp)
    bce0:	01ccd463          	bge	s9,t3,bce8 <.L2807+0x18>
    bce4:	951f606f          	j	2634 <.L1504>
    bce8:	8cdf806f          	j	45b4 <.L1507>

0000bcec <.L2812>:
    bcec:	01100c13          	li	s8,17
    bcf0:	011c4463          	blt	s8,a7,bcf8 <.L2812+0xc>
    bcf4:	ea5fa06f          	j	6b98 <.L1653>
    bcf8:	eacfd06f          	j	93a4 <.L1669>

0000bcfc <.L1338>:
    bcfc:	00c15c03          	lhu	s8,12(sp)
    bd00:	03600c93          	li	s9,54
    bd04:	001c0c13          	addi	s8,s8,1
    bd08:	01811623          	sh	s8,12(sp)
    bd0c:	00fcc463          	blt	s9,a5,bd14 <.L1338+0x18>
    bd10:	8c5f906f          	j	55d4 <.L1340>
    bd14:	a0cf806f          	j	3f20 <.L1363>

0000bd18 <.L2926>:
    bd18:	00a15c03          	lhu	s8,10(sp)
    bd1c:	03300c93          	li	s9,51
    bd20:	007c0c13          	addi	s8,s8,7
    bd24:	01811523          	sh	s8,10(sp)
    bd28:	00fcc463          	blt	s9,a5,bd30 <.L2926+0x18>
    bd2c:	95df806f          	j	4688 <.L2735>
    bd30:	981f506f          	j	16b0 <.L1265>

0000bd34 <.L2920>:
    bd34:	00e15c03          	lhu	s8,14(sp)
    bd38:	00ec0c13          	addi	s8,s8,14
    bd3c:	01811723          	sh	s8,14(sp)
    bd40:	ec4fb06f          	j	7404 <.L1974>

0000bd44 <.L2915>:
    bd44:	00815c03          	lhu	s8,8(sp)
    bd48:	008c0c13          	addi	s8,s8,8
    bd4c:	01811423          	sh	s8,8(sp)
    bd50:	918f506f          	j	e68 <.L715>

0000bd54 <.L739>:
    bd54:	f5c00c13          	li	s8,-164
    bd58:	27845e63          	bge	s0,s8,bfd4 <.L763>
    bd5c:	00c15c03          	lhu	s8,12(sp)
    bd60:	009c0c13          	addi	s8,s8,9
    bd64:	01811623          	sh	s8,12(sp)
    bd68:	a24fd06f          	j	8f8c <.L764>

0000bd6c <.L1039>:
    bd6c:	03100c13          	li	s8,49
    bd70:	01fc4463          	blt	s8,t6,bd78 <.L1039+0xc>
    bd74:	ce4fa06f          	j	6258 <.L1044>
    bd78:	9fcf606f          	j	1f74 <.L1054>

0000bd7c <.L1071>:
    bd7c:	00300c13          	li	s8,3
    bd80:	00dc4463          	blt	s8,a3,bd88 <.L1071+0xc>
    bd84:	d69fc06f          	j	8aec <.L1072>
    bd88:	b41fe06f          	j	a8c8 <.L1073>

0000bd8c <.L2912>:
    bd8c:	00f00c13          	li	s8,15
    bd90:	01dc4463          	blt	s8,t4,bd98 <.L2912+0xc>
    bd94:	c4cfd06f          	j	91e0 <.L498>
    bd98:	00c15c03          	lhu	s8,12(sp)
    bd9c:	ff8c0c13          	addi	s8,s8,-8
    bda0:	01811623          	sh	s8,12(sp)
    bda4:	c3cfd06f          	j	91e0 <.L498>

0000bda8 <.L2804>:
    bda8:	ea900c13          	li	s8,-343
    bdac:	0182d463          	bge	t0,s8,bdb4 <.L2804+0xc>
    bdb0:	a9cfa06f          	j	604c <.L1373>
    bdb4:	9c0f806f          	j	3f74 <.L1384>

0000bdb8 <.L2866>:
    bdb8:	ff968693          	addi	a3,a3,-7
    bdbc:	00d11723          	sh	a3,14(sp)
    bdc0:	f7a00693          	li	a3,-134
    bdc4:	00da4463          	blt	s4,a3,bdcc <.L2866+0x14>
    bdc8:	bb8f706f          	j	3180 <.L2215>
    bdcc:	9f0ff06f          	j	afbc <.L2669>

0000bdd0 <.L2865>:
    bdd0:	00815b03          	lhu	s6,8(sp)
    bdd4:	008b0b13          	addi	s6,s6,8
    bdd8:	01611423          	sh	s6,8(sp)
    bddc:	cf9f706f          	j	3ad4 <.L2145>

0000bde0 <.L1065>:
    bde0:	00e15c03          	lhu	s8,14(sp)
    bde4:	ffe00c93          	li	s9,-2
    bde8:	ff9c0c13          	addi	s8,s8,-7
    bdec:	01811723          	sh	s8,14(sp)
    bdf0:	01985463          	bge	a6,s9,bdf8 <.L1065+0x18>
    bdf4:	b54fd06f          	j	9148 <.L1061>
    bdf8:	ad1fe06f          	j	a8c8 <.L1073>

0000bdfc <.L2960>:
    bdfc:	ffcc0c13          	addi	s8,s8,-4
    be00:	01811723          	sh	s8,14(sp)
    be04:	011cc463          	blt	s9,a7,be0c <.L2960+0x10>
    be08:	cadf906f          	j	5ab4 <.L1642>
    be0c:	828f806f          	j	3e34 <.L1644>

0000be10 <.L555>:
    be10:	ff400c13          	li	s8,-12
    be14:	23865063          	bge	a2,s8,c034 <.L2962>
    be18:	00a15c03          	lhu	s8,10(sp)
    be1c:	ff6c0c13          	addi	s8,s8,-10
    be20:	01811523          	sh	s8,10(sp)
    be24:	ef9fc06f          	j	8d1c <.L2288>

0000be28 <.L2097>:
    be28:	00815b03          	lhu	s6,8(sp)
    be2c:	02e00c13          	li	s8,46
    be30:	004b0b13          	addi	s6,s6,4
    be34:	01611423          	sh	s6,8(sp)
    be38:	01dc4463          	blt	s8,t4,be40 <.L2097+0x18>
    be3c:	d74f806f          	j	43b0 <.L2098>
    be40:	934f906f          	j	4f74 <.L2099>

0000be44 <.L1406>:
    be44:	00e15c03          	lhu	s8,14(sp)
    be48:	01f00c93          	li	s9,31
    be4c:	008c0c13          	addi	s8,s8,8
    be50:	01811723          	sh	s8,14(sp)
    be54:	013cc463          	blt	s9,s3,be5c <.L1406+0x18>
    be58:	e60f606f          	j	24b8 <.L1407>
    be5c:	ec1fb06f          	j	7d1c <.L1408>

0000be60 <.L2776>:
    be60:	1aa00c13          	li	s8,426
    be64:	016c4463          	blt	s8,s6,be6c <.L2776+0xc>
    be68:	99df506f          	j	1804 <.L547>
    be6c:	00815c03          	lhu	s8,8(sp)
    be70:	013c0c13          	addi	s8,s8,19
    be74:	01811423          	sh	s8,8(sp)
    be78:	999f506f          	j	1810 <.L549>

0000be7c <.L2899>:
    be7c:	ffcc0c13          	addi	s8,s8,-4
    be80:	01811723          	sh	s8,14(sp)
    be84:	011cc463          	blt	s9,a7,be8c <.L2899+0x10>
    be88:	c2df906f          	j	5ab4 <.L1642>
    be8c:	9b9f606f          	j	2844 <.L1645>

0000be90 <.L2872>:
    be90:	03c00c13          	li	s8,60
    be94:	00fc5463          	bge	s8,a5,be9c <.L2872+0xc>
    be98:	9d5f806f          	j	486c <.L1389>
    be9c:	b01ff06f          	j	b99c <.L2628>

0000bea0 <.L1084>:
    bea0:	00815c03          	lhu	s8,8(sp)
    bea4:	30000c93          	li	s9,768
    bea8:	009c0c13          	addi	s8,s8,9
    beac:	01811423          	sh	s8,8(sp)
    beb0:	01ecc463          	blt	s9,t5,beb8 <.L1084+0x18>
    beb4:	cd4f506f          	j	1388 <.L1085>
    beb8:	f60f706f          	j	3618 <.L1086>

0000bebc <.L2296>:
    bebc:	01251483          	lh	s1,18(a0)
    bec0:	00a51683          	lh	a3,10(a0)
    bec4:	01051b03          	lh	s6,16(a0)
    bec8:	02851e83          	lh	t4,40(a0)
    becc:	01451283          	lh	t0,20(a0)
    bed0:	ff700593          	li	a1,-9
    bed4:	985fc06f          	j	8858 <.L28>

0000bed8 <.L2957>:
    bed8:	00e15e03          	lhu	t3,14(sp)
    bedc:	ffae0e13          	addi	t3,t3,-6
    bee0:	01c11723          	sh	t3,14(sp)
    bee4:	8a5f706f          	j	3788 <.L280>

0000bee8 <.L1686>:
    bee8:	00a15c03          	lhu	s8,10(sp)
    beec:	00100c93          	li	s9,1
    bef0:	fffc0c13          	addi	s8,s8,-1
    bef4:	01811523          	sh	s8,10(sp)
    bef8:	01ccd463          	bge	s9,t3,bf00 <.L1687>
    befc:	f89f706f          	j	3e84 <.L1688>

0000bf00 <.L1687>:
    bf00:	01000c13          	li	s8,16
    bf04:	01dc4463          	blt	s8,t4,bf0c <.L1687+0xc>
    bf08:	c9cfd06f          	j	93a4 <.L1669>
    bf0c:	cfdfc06f          	j	8c08 <.L1692>

0000bf10 <.L1678>:
    bf10:	00c15c03          	lhu	s8,12(sp)
    bf14:	ff600c93          	li	s9,-10
    bf18:	ff8c0c13          	addi	s8,s8,-8
    bf1c:	01811623          	sh	s8,12(sp)
    bf20:	01965463          	bge	a2,s9,bf28 <.L1678+0x18>
    bf24:	981f606f          	j	28a4 <.L1681>
    bf28:	9e4f906f          	j	510c <.L1682>

0000bf2c <.L2059>:
    bf2c:	00e15c03          	lhu	s8,14(sp)
    bf30:	0a900c93          	li	s9,169
    bf34:	001c0c13          	addi	s8,s8,1
    bf38:	01811723          	sh	s8,14(sp)
    bf3c:	01ecc463          	blt	s9,t5,bf44 <.L2059+0x18>
    bf40:	f99f606f          	j	2ed8 <.L2049>
    bf44:	9a9f906f          	j	58ec <.L2045>

0000bf48 <.L733>:
    bf48:	00815c03          	lhu	s8,8(sp)
    bf4c:	003c0c13          	addi	s8,s8,3
    bf50:	01811423          	sh	s8,8(sp)
    bf54:	f15f406f          	j	e68 <.L715>

0000bf58 <.L2063>:
    bf58:	00e15c03          	lhu	s8,14(sp)
    bf5c:	001c0c13          	addi	s8,s8,1
    bf60:	01811723          	sh	s8,14(sp)
    bf64:	b94f806f          	j	42f8 <.L2055>

0000bf68 <.L740>:
    bf68:	00c15c03          	lhu	s8,12(sp)
    bf6c:	fffc0c13          	addi	s8,s8,-1
    bf70:	01811623          	sh	s8,12(sp)
    bf74:	a6cf906f          	j	51e0 <.L741>

0000bf78 <.L2882>:
    bf78:	00e15c83          	lhu	s9,14(sp)
    bf7c:	00815c03          	lhu	s8,8(sp)
    bf80:	002c8c93          	addi	s9,s9,2
    bf84:	cbdf806f          	j	4c40 <.L2651>

0000bf88 <.L937>:
    bf88:	00e15c03          	lhu	s8,14(sp)
    bf8c:	003c0c13          	addi	s8,s8,3
    bf90:	01811723          	sh	s8,14(sp)
    bf94:	e69f506f          	j	1dfc <.L935>

0000bf98 <.L1599>:
    bf98:	00c15c03          	lhu	s8,12(sp)
    bf9c:	00300c93          	li	s9,3
    bfa0:	004c0c13          	addi	s8,s8,4
    bfa4:	01811623          	sh	s8,12(sp)
    bfa8:	01ccc463          	blt	s9,t3,bfb0 <.L1599+0x18>
    bfac:	e59f706f          	j	3e04 <.L1620>
    bfb0:	81cfd06f          	j	8fcc <.L1621>

0000bfb4 <.L2949>:
    bfb4:	00a15e03          	lhu	t3,10(sp)
    bfb8:	ffae0e13          	addi	t3,t3,-6
    bfbc:	01c11523          	sh	t3,10(sp)
    bfc0:	a49f706f          	j	3a08 <.L240>

0000bfc4 <.L2066>:
    bfc4:	00e15c03          	lhu	s8,14(sp)
    bfc8:	004c0c13          	addi	s8,s8,4
    bfcc:	01811723          	sh	s8,14(sp)
    bfd0:	b28f806f          	j	42f8 <.L2055>

0000bfd4 <.L763>:
    bfd4:	00c15c03          	lhu	s8,12(sp)
    bfd8:	ffcc0c13          	addi	s8,s8,-4
    bfdc:	01811623          	sh	s8,12(sp)
    bfe0:	fadfc06f          	j	8f8c <.L764>

0000bfe4 <.L1822>:
    bfe4:	00e15c03          	lhu	s8,14(sp)
    bfe8:	ffdc0c13          	addi	s8,s8,-3
    bfec:	01811723          	sh	s8,14(sp)
    bff0:	cadf806f          	j	4c9c <.L1826>

0000bff4 <.L1616>:
    bff4:	ec100c13          	li	s8,-319
    bff8:	17845863          	bge	s0,s8,c168 <.L2963>
    bffc:	00c15c03          	lhu	s8,12(sp)
    c000:	00300c93          	li	s9,3
    c004:	ffec0c13          	addi	s8,s8,-2
    c008:	01811623          	sh	s8,12(sp)
    c00c:	01ccc463          	blt	s9,t3,c014 <.L1616+0x20>
    c010:	c99fe06f          	j	aca8 <.L1631>
    c014:	a35f906f          	j	5a48 <.L1619>

0000c018 <.L893>:
    c018:	00c15c03          	lhu	s8,12(sp)
    c01c:	02f00c93          	li	s9,47
    c020:	ff8c0c13          	addi	s8,s8,-8
    c024:	01811623          	sh	s8,12(sp)
    c028:	010cd463          	bge	s9,a6,c030 <.L893+0x18>
    c02c:	cf9f506f          	j	1d24 <.L889>
    c030:	c68fa06f          	j	6498 <.L881>

0000c034 <.L2962>:
    c034:	00a15c03          	lhu	s8,10(sp)
    c038:	006c0c13          	addi	s8,s8,6
    c03c:	01811523          	sh	s8,10(sp)
    c040:	cddfc06f          	j	8d1c <.L2288>

0000c044 <.L2847>:
    c044:	01200c13          	li	s8,18
    c048:	0fdc5c63          	bge	s8,t4,c140 <.L2964>
    c04c:	00a15c03          	lhu	s8,10(sp)
    c050:	00100c93          	li	s9,1
    c054:	002c0c13          	addi	s8,s8,2
    c058:	01811523          	sh	s8,10(sp)
    c05c:	01ccd463          	bge	s9,t3,c064 <.L2847+0x20>
    c060:	b85fb06f          	j	7be4 <.L1679>
    c064:	01100c13          	li	s8,17
    c068:	eb1c54e3          	bge	s8,a7,bf10 <.L1678>
    c06c:	00c15c03          	lhu	s8,12(sp)
    c070:	ff600c93          	li	s9,-10
    c074:	ffac0c13          	addi	s8,s8,-6
    c078:	01811623          	sh	s8,12(sp)
    c07c:	01965463          	bge	a2,s9,c084 <.L2847+0x40>
    c080:	825f606f          	j	28a4 <.L1681>
    c084:	888f906f          	j	510c <.L1682>

0000c088 <.L2961>:
    c088:	00c15c03          	lhu	s8,12(sp)
    c08c:	c3900c93          	li	s9,-967
    c090:	004c0c13          	addi	s8,s8,4
    c094:	01811623          	sh	s8,12(sp)
    c098:	0195c463          	blt	a1,s9,c0a0 <.L2961+0x18>
    c09c:	efdfc06f          	j	8f98 <.L767>
    c0a0:	00e15c03          	lhu	s8,14(sp)
    c0a4:	ffe00c93          	li	s9,-2
    c0a8:	008c0c13          	addi	s8,s8,8
    c0ac:	01811723          	sh	s8,14(sp)
    c0b0:	01985463          	bge	a6,s9,c0b8 <.L2961+0x30>
    c0b4:	b81fc06f          	j	8c34 <.L776>
    c0b8:	a9df506f          	j	1b54 <.L786>

0000c0bc <.L221>:
    c0bc:	00815e03          	lhu	t3,8(sp)
    c0c0:	08000c13          	li	s8,128
    c0c4:	ff8e0e13          	addi	t3,t3,-8
    c0c8:	01c11423          	sh	t3,8(sp)
    c0cc:	00ec4463          	blt	s8,a4,c0d4 <.L221+0x18>
    c0d0:	dc4f406f          	j	694 <.L215>
    c0d4:	b60fd06f          	j	9434 <.L211>

0000c0d8 <.L2907>:
    c0d8:	00a51683          	lh	a3,10(a0)
    c0dc:	01051b03          	lh	s6,16(a0)
    c0e0:	02851e83          	lh	t4,40(a0)
    c0e4:	a18f406f          	j	2fc <.L22>

0000c0e8 <.L2834>:
    c0e8:	00a15e03          	lhu	t3,10(sp)
    c0ec:	08f00c13          	li	s8,143
    c0f0:	00be0e13          	addi	t3,t3,11
    c0f4:	01c11523          	sh	t3,10(sp)
    c0f8:	02051e03          	lh	t3,32(a0)
    c0fc:	00dc4463          	blt	s8,a3,c104 <.L2834+0x1c>
    c100:	c09f906f          	j	5d08 <.L291>
    c104:	8f1fa06f          	j	69f4 <.L315>

0000c108 <.L2959>:
    c108:	00c15e03          	lhu	t3,12(sp)
    c10c:	015e0e13          	addi	t3,t3,21
    c110:	01c11623          	sh	t3,12(sp)
    c114:	b6cf406f          	j	480 <.L121>

0000c118 <.L642>:
    c118:	00c15c03          	lhu	s8,12(sp)
    c11c:	008c0c13          	addi	s8,s8,8
    c120:	01811623          	sh	s8,12(sp)
    c124:	d98fa06f          	j	66bc <.L643>

0000c128 <.L1991>:
    c128:	1a500c13          	li	s8,421
    c12c:	b27c4e63          	blt	s8,t2,b468 <.L1989>
    c130:	00e15c03          	lhu	s8,14(sp)
    c134:	001c0c13          	addi	s8,s8,1
    c138:	01811723          	sh	s8,14(sp)
    c13c:	ac8fb06f          	j	7404 <.L1974>

0000c140 <.L2964>:
    c140:	00a15c03          	lhu	s8,10(sp)
    c144:	00100c93          	li	s9,1
    c148:	ffec0c13          	addi	s8,s8,-2
    c14c:	01811523          	sh	s8,10(sp)
    c150:	01ccd463          	bge	s9,t3,c158 <.L2964+0x18>
    c154:	f2cf606f          	j	2880 <.L1658>
    c158:	01100c13          	li	s8,17
    c15c:	011c4463          	blt	s8,a7,c164 <.L2964+0x24>
    c160:	a39fa06f          	j	6b98 <.L1653>
    c164:	d9dff06f          	j	bf00 <.L1687>

0000c168 <.L2963>:
    c168:	00c15c03          	lhu	s8,12(sp)
    c16c:	00300c93          	li	s9,3
    c170:	006c0c13          	addi	s8,s8,6
    c174:	01811623          	sh	s8,12(sp)
    c178:	01ccc463          	blt	s9,t3,c180 <.L2963+0x18>
    c17c:	d44fc06f          	j	86c0 <.L1594>
    c180:	8c9f906f          	j	5a48 <.L1619>

0000c184 <argmax>:
    c184:	00100713          	li	a4,1
    c188:	02b75e63          	bge	a4,a1,c1c4 <.L2969>
    c18c:	00250693          	addi	a3,a0,2
    c190:	00000813          	li	a6,0

0000c194 <.L2968>:
    c194:	00181793          	slli	a5,a6,0x1
    c198:	00f507b3          	add	a5,a0,a5
    c19c:	00069603          	lh	a2,0(a3)
    c1a0:	00079783          	lh	a5,0(a5)
    c1a4:	00268693          	addi	a3,a3,2
    c1a8:	00c7d663          	bge	a5,a2,c1b4 <.L2967>
    c1ac:	01071813          	slli	a6,a4,0x10
    c1b0:	41085813          	srai	a6,a6,0x10

0000c1b4 <.L2967>:
    c1b4:	00170713          	addi	a4,a4,1
    c1b8:	fce59ee3          	bne	a1,a4,c194 <.L2968>
    c1bc:	00080513          	mv	a0,a6
    c1c0:	00008067          	ret

0000c1c4 <.L2969>:
    c1c4:	00000513          	li	a0,0
    c1c8:	00008067          	ret
