
header_editado.o:     formato de ficheiro elf32-littleriscv


Desmontagem da secção .text:

00000000 <get_num_target>:
       0:	00100513          	li	a0,1
       4:	00008067          	ret

00000008 <get_num_class>:
       8:	00400793          	li	a5,4
       c:	00f52023          	sw	a5,0(a0)
      10:	00008067          	ret

00000014 <get_num_feature>:
      14:	01600513          	li	a0,22
      18:	00008067          	ret

0000001c <get_threshold_type>:
      1c:	00000517          	auipc	a0,0x0
      20:	00050513          	mv	a0,a0
      24:	00008067          	ret

00000028 <get_leaf_output_type>:
      28:	00000517          	auipc	a0,0x0
      2c:	00050513          	mv	a0,a0
      30:	00008067          	ret

00000034 <predict>:
      34:	00451303          	lh	t1,4(a0) # 2c <get_leaf_output_type+0x4>
      38:	fc010113          	addi	sp,sp,-64
      3c:	02812e23          	sw	s0,60(sp)
      40:	02912c23          	sw	s1,56(sp)
      44:	03212a23          	sw	s2,52(sp)
      48:	03312823          	sw	s3,48(sp)
      4c:	03412623          	sw	s4,44(sp)
      50:	03512423          	sw	s5,40(sp)
      54:	03612223          	sw	s6,36(sp)
      58:	03712023          	sw	s7,32(sp)
      5c:	01812e23          	sw	s8,28(sp)
      60:	01912c23          	sw	s9,24(sp)
      64:	04600793          	li	a5,70
      68:	2067c463          	blt	a5,t1,270 <.L8>
      6c:	02451983          	lh	s3,36(a0)
      70:	01900793          	li	a5,25
      74:	4d37c063          	blt	a5,s3,534 <.L9>
      78:	01651a03          	lh	s4,22(a0)
      7c:	efc00793          	li	a5,-260
      80:	4cfa4a63          	blt	s4,a5,554 <.L2291>
      84:	02251f03          	lh	t5,34(a0)
      88:	00e51f83          	lh	t6,14(a0)
      8c:	01a51403          	lh	s0,26(a0)
      90:	02400793          	li	a5,36

00000094 <.L10>:
      94:	00251703          	lh	a4,2(a0)
      98:	00f11423          	sh	a5,8(sp)
      9c:	2df00793          	li	a5,735
      a0:	20e7c463          	blt	a5,a4,2a8 <.L12>

000000a4 <.L2749>:
      a4:	01851603          	lh	a2,24(a0)
      a8:	ffd00793          	li	a5,-3
      ac:	00f64463          	blt	a2,a5,b4 <.L2749+0x10>
      b0:	5180606f          	j	65c8 <.L13>
      b4:	01251483          	lh	s1,18(a0)
      b8:	19100693          	li	a3,401
      bc:	ff600793          	li	a5,-10
      c0:	0096d463          	bge	a3,s1,c8 <.L14>
      c4:	00200793          	li	a5,2

000000c8 <.L14>:
      c8:	00651a83          	lh	s5,6(a0)
      cc:	00f11523          	sh	a5,10(sp)
      d0:	d5c00793          	li	a5,-676
      d4:	00fac463          	blt	s5,a5,dc <.L14+0x14>
      d8:	5040b06f          	j	b5dc <.L2745>
      dc:	ff400793          	li	a5,-12
      e0:	00f64463          	blt	a2,a5,e8 <.L14+0x20>
      e4:	50c0606f          	j	65f0 <.L16>
      e8:	00a51683          	lh	a3,10(a0)
      ec:	01051b03          	lh	s6,16(a0)
      f0:	02851e83          	lh	t4,40(a0)

000000f4 <.L21>:
      f4:	06300793          	li	a5,99
      f8:	01d7d463          	bge	a5,t4,100 <.L21+0xc>
      fc:	4a50a06f          	j	ada0 <.L25>
     100:	00051783          	lh	a5,0(a0)
     104:	02500593          	li	a1,37
     108:	00b11623          	sh	a1,12(sp)
     10c:	03e00593          	li	a1,62
     110:	01451283          	lh	t0,20(a0)
     114:	1ef5dc63          	bge	a1,a5,30c <.L26>

00000118 <.L27>:
     118:	ff600593          	li	a1,-10
     11c:	00b11723          	sh	a1,14(sp)
     120:	05700593          	li	a1,87
     124:	0065c463          	blt	a1,t1,12c <.L27+0x14>
     128:	3010906f          	j	9c28 <.L2341>
     12c:	01e51583          	lh	a1,30(a0)
     130:	00c51903          	lh	s2,12(a0)

00000134 <.L33>:
     134:	0ac00813          	li	a6,172
     138:	01685463          	bge	a6,s6,140 <.L33+0xc>
     13c:	4ec0606f          	j	6628 <.L45>
     140:	03a00813          	li	a6,58
     144:	00815883          	lhu	a7,8(sp)
     148:	01f85463          	bge	a6,t6,150 <.L33+0x1c>
     14c:	4190a06f          	j	ad64 <.L46>
     150:	01588893          	addi	a7,a7,21
     154:	00851803          	lh	a6,8(a0)
     158:	01089893          	slli	a7,a7,0x10
     15c:	4108d893          	srai	a7,a7,0x10

00000160 <.L47>:
     160:	01111423          	sh	a7,8(sp)
     164:	1b500893          	li	a7,437
     168:	00e8d463          	bge	a7,a4,170 <.L47+0x10>
     16c:	7340306f          	j	38a0 <.L44>
     170:	02a51883          	lh	a7,42(a0)
     174:	00800e13          	li	t3,8
     178:	011e4463          	blt	t3,a7,180 <.L47+0x20>
     17c:	0380806f          	j	81b4 <.L42>
     180:	0f200e13          	li	t3,242
     184:	1e6e5e63          	bge	t3,t1,380 <.L41>
     188:	00a15e03          	lhu	t3,10(sp)
     18c:	fffe0e13          	addi	t3,t3,-1
     190:	010e1e13          	slli	t3,t3,0x10
     194:	410e5e13          	srai	t3,t3,0x10

00000198 <.L51>:
     198:	01c11523          	sh	t3,10(sp)
     19c:	df700e13          	li	t3,-521
     1a0:	1fca5e63          	bge	s4,t3,39c <.L57>

000001a4 <.L52>:
     1a4:	ff400e13          	li	t3,-12
     1a8:	01c65463          	bge	a2,t3,1b0 <.L52+0xc>
     1ac:	0dc0806f          	j	8288 <.L58>
     1b0:	03b00e13          	li	t3,59
     1b4:	00ee5463          	bge	t3,a4,1bc <.L52+0x18>
     1b8:	7280306f          	j	38e0 <.L59>
     1bc:	00c15e03          	lhu	t3,12(sp)
     1c0:	012e0e13          	addi	t3,t3,18
     1c4:	010e1e13          	slli	t3,t3,0x10
     1c8:	410e5e13          	srai	t3,t3,0x10

000001cc <.L65>:
     1cc:	01c11623          	sh	t3,12(sp)
     1d0:	03d00e13          	li	t3,61
     1d4:	1efe5663          	bge	t3,a5,3c0 <.L66>
     1d8:	dce00e13          	li	t3,-562
     1dc:	01cac463          	blt	s5,t3,1e4 <.L65+0x18>
     1e0:	3c00606f          	j	65a0 <.L67>
     1e4:	00e15e03          	lhu	t3,14(sp)
     1e8:	0d900393          	li	t2,217
     1ec:	ff5e0e13          	addi	t3,t3,-11
     1f0:	01c11723          	sh	t3,14(sp)
     1f4:	21e3d263          	bge	t2,t5,3f8 <.L76>

000001f8 <.L2344>:
     1f8:	05700e13          	li	t3,87
     1fc:	006e4463          	blt	t3,t1,204 <.L82>
     200:	5350806f          	j	8f34 <.L83>

00000204 <.L82>:
     204:	00815e03          	lhu	t3,8(sp)
     208:	02651383          	lh	t2,38(a0)
     20c:	ff7e0e13          	addi	t3,t3,-9

00000210 <.L2548>:
     210:	01c11423          	sh	t3,8(sp)

00000214 <.L85>:
     214:	1de00e13          	li	t3,478
     218:	20ee5263          	bge	t3,a4,41c <.L90>

0000021c <.L93>:
     21c:	4ae00e13          	li	t3,1198
     220:	00de5463          	bge	t3,a3,228 <.L93+0xc>
     224:	5600806f          	j	8784 <.L92>
     228:	03e00e13          	li	t3,62
     22c:	00fe4463          	blt	t3,a5,234 <.L93+0x18>
     230:	64d0806f          	j	907c <.L91>
     234:	00a15e03          	lhu	t3,10(sp)
     238:	31a00b93          	li	s7,794
     23c:	ff5e0e13          	addi	t3,t3,-11
     240:	01c11523          	sh	t3,10(sp)
     244:	00dbd463          	bge	s7,a3,24c <.L93+0x30>
     248:	5fc0b06f          	j	b844 <.L2746>
     24c:	ea700e13          	li	t3,-345
     250:	01ca4463          	blt	s4,t3,258 <.L93+0x3c>
     254:	0350b06f          	j	ba88 <.L2747>
     258:	00c15e03          	lhu	t3,12(sp)
     25c:	ff6e0e13          	addi	t3,t3,-10
     260:	010e1e13          	slli	t3,t3,0x10
     264:	410e5e13          	srai	t3,t3,0x10
     268:	01c11623          	sh	t3,12(sp)
     26c:	20c0006f          	j	478 <.L121>

00000270 <.L8>:
     270:	02251f03          	lh	t5,34(a0)
     274:	0d900793          	li	a5,217
     278:	29e7ce63          	blt	a5,t5,514 <.L11>
     27c:	00e51f83          	lh	t6,14(a0)
     280:	03c00793          	li	a5,60
     284:	2ff7ce63          	blt	a5,t6,580 <.L2748>
     288:	00251703          	lh	a4,2(a0)
     28c:	01c00793          	li	a5,28
     290:	00f11423          	sh	a5,8(sp)
     294:	2df00793          	li	a5,735
     298:	02451983          	lh	s3,36(a0)
     29c:	01651a03          	lh	s4,22(a0)
     2a0:	01a51403          	lh	s0,26(a0)
     2a4:	e0e7d0e3          	bge	a5,a4,a4 <.L2749>

000002a8 <.L12>:
     2a8:	00a51683          	lh	a3,10(a0)
     2ac:	7e700793          	li	a5,2023
     2b0:	00d7d463          	bge	a5,a3,2b8 <.L12+0x10>
     2b4:	5440806f          	j	87f8 <.L18>
     2b8:	01051b03          	lh	s6,16(a0)
     2bc:	10100793          	li	a5,257
     2c0:	00651a83          	lh	s5,6(a0)
     2c4:	0167d463          	bge	a5,s6,2cc <.L12+0x24>
     2c8:	2000a06f          	j	a4c8 <.L19>
     2cc:	ffe00793          	li	a5,-2
     2d0:	00f11523          	sh	a5,10(sp)
     2d4:	d5c00793          	li	a5,-676
     2d8:	01851603          	lh	a2,24(a0)
     2dc:	00fac463          	blt	s5,a5,2e4 <.L2337>
     2e0:	2000a06f          	j	a4e0 <.L2542>

000002e4 <.L2337>:
     2e4:	ff400793          	li	a5,-12
     2e8:	01251483          	lh	s1,18(a0)
     2ec:	02851e83          	lh	t4,40(a0)
     2f0:	e0f642e3          	blt	a2,a5,f4 <.L21>

000002f4 <.L22>:
     2f4:	00051783          	lh	a5,0(a0)
     2f8:	ff500593          	li	a1,-11
     2fc:	00b11623          	sh	a1,12(sp)
     300:	03e00593          	li	a1,62
     304:	01451283          	lh	t0,20(a0)
     308:	e0f5c8e3          	blt	a1,a5,118 <.L27>

0000030c <.L26>:
     30c:	01e51583          	lh	a1,30(a0)
     310:	d8200813          	li	a6,-638
     314:	0105c463          	blt	a1,a6,31c <.L26+0x10>
     318:	1380806f          	j	8450 <.L31>
     31c:	27300813          	li	a6,627
     320:	01e84463          	blt	a6,t5,328 <.L26+0x1c>
     324:	4c50906f          	j	9fe8 <.L2299>
     328:	00c51903          	lh	s2,12(a0)
     32c:	ff900813          	li	a6,-7

00000330 <.L32>:
     330:	01011723          	sh	a6,14(sp)
     334:	05700813          	li	a6,87
     338:	de684ee3          	blt	a6,t1,134 <.L33>
     33c:	00851803          	lh	a6,8(a0)
     340:	02200893          	li	a7,34
     344:	0108c463          	blt	a7,a6,34c <.L32+0x1c>
     348:	5400306f          	j	3888 <.L34>
     34c:	fba00893          	li	a7,-70
     350:	011ad463          	bge	s5,a7,358 <.L32+0x28>
     354:	0ed0906f          	j	9c40 <.L35>
     358:	00815883          	lhu	a7,8(sp)
     35c:	1b500e13          	li	t3,437
     360:	00188893          	addi	a7,a7,1
     364:	01111423          	sh	a7,8(sp)
     368:	00ee5463          	bge	t3,a4,370 <.L2543>
     36c:	5340306f          	j	38a0 <.L44>

00000370 <.L2543>:
     370:	02a51883          	lh	a7,42(a0)
     374:	00800e13          	li	t3,8
     378:	011e4463          	blt	t3,a7,380 <.L41>
     37c:	6390706f          	j	81b4 <.L42>

00000380 <.L41>:
     380:	00a15e03          	lhu	t3,10(sp)
     384:	ff6e0e13          	addi	t3,t3,-10
     388:	010e1e13          	slli	t3,t3,0x10
     38c:	410e5e13          	srai	t3,t3,0x10
     390:	01c11523          	sh	t3,10(sp)
     394:	df700e13          	li	t3,-521
     398:	e1ca46e3          	blt	s4,t3,1a4 <.L52>

0000039c <.L57>:
     39c:	eef00e13          	li	t3,-273
     3a0:	01c2c463          	blt	t0,t3,3a8 <.L2908>
     3a4:	45c0606f          	j	6800 <.L68>

000003a8 <.L2908>:
     3a8:	03300e13          	li	t3,51
     3ac:	00fe5463          	bge	t3,a5,3b4 <.L2908+0xc>
     3b0:	42d0a06f          	j	afdc <.L69>
     3b4:	00c15e03          	lhu	t3,12(sp)
     3b8:	010e0e13          	addi	t3,t3,16
     3bc:	01c11623          	sh	t3,12(sp)

000003c0 <.L66>:
     3c0:	d8200e13          	li	t3,-638
     3c4:	01c5c463          	blt	a1,t3,3cc <.L66+0xc>
     3c8:	3a00606f          	j	6768 <.L71>
     3cc:	27300e13          	li	t3,627
     3d0:	01ee5463          	bge	t3,t5,3d8 <.L66+0x18>
     3d4:	1350a06f          	j	ad08 <.L72>
     3d8:	00e15e03          	lhu	t3,14(sp)
     3dc:	017e0e13          	addi	t3,t3,23
     3e0:	010e1e13          	slli	t3,t3,0x10
     3e4:	410e5e13          	srai	t3,t3,0x10

000003e8 <.L73>:
     3e8:	01c11723          	sh	t3,14(sp)
     3ec:	0d900e13          	li	t3,217
     3f0:	01ee5463          	bge	t3,t5,3f8 <.L76>
     3f4:	3a00606f          	j	6794 <.L74>

000003f8 <.L76>:
     3f8:	01a00e13          	li	t3,26
     3fc:	010e5463          	bge	t3,a6,404 <.L76+0xc>
     400:	31c0706f          	j	771c <.L80>
     404:	0da00e13          	li	t3,218
     408:	012e4463          	blt	t3,s2,410 <.L76+0x18>
     40c:	1680a06f          	j	a574 <.L84>
     410:	1de00e13          	li	t3,478
     414:	02651383          	lh	t2,38(a0)
     418:	e0ee42e3          	blt	t3,a4,21c <.L93>

0000041c <.L90>:
     41c:	ffd00e13          	li	t3,-3
     420:	01c64463          	blt	a2,t3,428 <.L90+0xc>
     424:	3080806f          	j	872c <.L94>
     428:	1b300e13          	li	t3,435
     42c:	009e5463          	bge	t3,s1,434 <.L90+0x18>
     430:	4290906f          	j	a058 <.L95>
     434:	00a15e03          	lhu	t3,10(sp)
     438:	31a00b93          	li	s7,794
     43c:	ff7e0e13          	addi	t3,t3,-9
     440:	01c11523          	sh	t3,10(sp)
     444:	00dbc463          	blt	s7,a3,44c <.L2349>
     448:	3080806f          	j	8750 <.L96>

0000044c <.L2349>:
     44c:	e4e00e13          	li	t3,-434
     450:	01cac463          	blt	s5,t3,458 <.L119>
     454:	3d50906f          	j	a028 <.L101>

00000458 <.L119>:
     458:	00c15e03          	lhu	t3,12(sp)
     45c:	015e0e13          	addi	t3,t3,21
     460:	010e1e13          	slli	t3,t3,0x10
     464:	410e5e13          	srai	t3,t3,0x10

00000468 <.L120>:
     468:	01c11623          	sh	t3,12(sp)
     46c:	03d00e13          	li	t3,61
     470:	00fe4463          	blt	t3,a5,478 <.L121>
     474:	0050506f          	j	5c78 <.L125>

00000478 <.L121>:
     478:	1f800e13          	li	t3,504
     47c:	13ee4663          	blt	t3,t5,5a8 <.L131>
     480:	03a00e13          	li	t3,58
     484:	01fe5463          	bge	t3,t6,48c <.L121+0x14>
     488:	1dc0a06f          	j	a664 <.L132>
     48c:	00e15e03          	lhu	t3,14(sp)
     490:	ff8e0e13          	addi	t3,t3,-8
     494:	010e1e13          	slli	t3,t3,0x10
     498:	410e5e13          	srai	t3,t3,0x10

0000049c <.L129>:
     49c:	01c11723          	sh	t3,14(sp)
     4a0:	0d900e13          	li	t3,217
     4a4:	13ee4263          	blt	t3,t5,5c8 <.L135>
     4a8:	01a00e13          	li	t3,26
     4ac:	010e5463          	bge	t3,a6,4b4 <.L129+0x18>
     4b0:	4440306f          	j	38f4 <.L136>
     4b4:	11800e13          	li	t3,280
     4b8:	012e5463          	bge	t3,s2,4c0 <.L129+0x24>
     4bc:	1700a06f          	j	a62c <.L137>
     4c0:	00815e03          	lhu	t3,8(sp)
     4c4:	0a600b93          	li	s7,166
     4c8:	00ee0e13          	addi	t3,t3,14
     4cc:	01c11423          	sh	t3,8(sp)
     4d0:	00ebc463          	blt	s7,a4,4d8 <.L2551>
     4d4:	4480306f          	j	391c <.L143>

000004d8 <.L2551>:
     4d8:	03d00e13          	li	t3,61
     4dc:	00fe4463          	blt	t3,a5,4e4 <.L164>
     4e0:	3950506f          	j	6074 <.L144>

000004e4 <.L164>:
     4e4:	00a15e03          	lhu	t3,10(sp)
     4e8:	10b00b93          	li	s7,267
     4ec:	ff5e0e13          	addi	t3,t3,-11
     4f0:	01c11523          	sh	t3,10(sp)
     4f4:	00dbd463          	bge	s7,a3,4fc <.L164+0x18>
     4f8:	1880906f          	j	9680 <.L2354>
     4fc:	d6700e13          	li	t3,-665
     500:	13ca5663          	bge	s4,t3,62c <.L173>
     504:	00c15e03          	lhu	t3,12(sp)
     508:	00be0e13          	addi	t3,t3,11
     50c:	01c11623          	sh	t3,12(sp)
     510:	1280006f          	j	638 <.L174>

00000514 <.L11>:
     514:	01a51403          	lh	s0,26(a0)
     518:	f2900793          	li	a5,-215
     51c:	06f45c63          	bge	s0,a5,594 <.L2750>
     520:	02451983          	lh	s3,36(a0)
     524:	01651a03          	lh	s4,22(a0)
     528:	00e51f83          	lh	t6,14(a0)
     52c:	ff500793          	li	a5,-11
     530:	b65ff06f          	j	94 <.L10>

00000534 <.L9>:
     534:	01f00793          	li	a5,31
     538:	0337c863          	blt	a5,s3,568 <.L2751>
     53c:	01651a03          	lh	s4,22(a0)
     540:	02251f03          	lh	t5,34(a0)
     544:	00e51f83          	lh	t6,14(a0)
     548:	01a51403          	lh	s0,26(a0)
     54c:	00900793          	li	a5,9
     550:	b45ff06f          	j	94 <.L10>

00000554 <.L2291>:
     554:	02251f03          	lh	t5,34(a0)
     558:	00e51f83          	lh	t6,14(a0)
     55c:	01a51403          	lh	s0,26(a0)
     560:	01300793          	li	a5,19
     564:	b31ff06f          	j	94 <.L10>

00000568 <.L2751>:
     568:	01651a03          	lh	s4,22(a0)
     56c:	02251f03          	lh	t5,34(a0)
     570:	00e51f83          	lh	t6,14(a0)
     574:	01a51403          	lh	s0,26(a0)
     578:	ff500793          	li	a5,-11
     57c:	b19ff06f          	j	94 <.L10>

00000580 <.L2748>:
     580:	02451983          	lh	s3,36(a0)
     584:	01651a03          	lh	s4,22(a0)
     588:	01a51403          	lh	s0,26(a0)
     58c:	ff500793          	li	a5,-11
     590:	b05ff06f          	j	94 <.L10>

00000594 <.L2750>:
     594:	02451983          	lh	s3,36(a0)
     598:	01651a03          	lh	s4,22(a0)
     59c:	00e51f83          	lh	t6,14(a0)
     5a0:	ffc00793          	li	a5,-4
     5a4:	af1ff06f          	j	94 <.L10>

000005a8 <.L131>:
     5a8:	b6f00e13          	li	t3,-1169
     5ac:	01c44463          	blt	s0,t3,5b4 <.L131+0xc>
     5b0:	1000a06f          	j	a6b0 <.L133>
     5b4:	00e15e03          	lhu	t3,14(sp)
     5b8:	00ce0e13          	addi	t3,t3,12
     5bc:	010e1e13          	slli	t3,t3,0x10
     5c0:	010e5e13          	srli	t3,t3,0x10
     5c4:	01c11723          	sh	t3,14(sp)

000005c8 <.L135>:
     5c8:	03e00e13          	li	t3,62
     5cc:	006e5463          	bge	t3,t1,5d4 <.L135+0xc>
     5d0:	6b90706f          	j	8488 <.L145>
     5d4:	02000e13          	li	t3,32
     5d8:	010e5463          	bge	t3,a6,5e0 <.L135+0x18>
     5dc:	18d0606f          	j	6f68 <.L146>
     5e0:	00815e03          	lhu	t3,8(sp)
     5e4:	009e0e13          	addi	t3,t3,9
     5e8:	010e1e13          	slli	t3,t3,0x10
     5ec:	410e5e13          	srai	t3,t3,0x10

000005f0 <.L147>:
     5f0:	01c11423          	sh	t3,8(sp)
     5f4:	0a600e13          	li	t3,166
     5f8:	00ee4463          	blt	t3,a4,600 <.L147+0x10>
     5fc:	3200306f          	j	391c <.L143>
     600:	03d00e13          	li	t3,61
     604:	00fe4463          	blt	t3,a5,60c <.L147+0x1c>
     608:	26d0506f          	j	6074 <.L144>
     60c:	21a00e13          	li	t3,538
     610:	edee5ae3          	bge	t3,t5,4e4 <.L164>
     614:	10b00e13          	li	t3,267
     618:	00de5463          	bge	t3,a3,620 <.L147+0x30>
     61c:	0640906f          	j	9680 <.L2354>
     620:	d6700e13          	li	t3,-665
     624:	01ca5463          	bge	s4,t3,62c <.L173>
     628:	2a50506f          	j	60cc <.L2752>

0000062c <.L173>:
     62c:	00c15e03          	lhu	t3,12(sp)
     630:	ff6e0e13          	addi	t3,t3,-10
     634:	01c11623          	sh	t3,12(sp)

00000638 <.L174>:
     638:	1e500e13          	li	t3,485
     63c:	01ee5463          	bge	t3,t5,644 <.L174+0xc>
     640:	2990506f          	j	60d8 <.L172>
     644:	ec100e13          	li	t3,-319
     648:	01c44463          	blt	s0,t3,650 <.L174+0x18>
     64c:	0740306f          	j	36c0 <.L192>
     650:	00e15e03          	lhu	t3,14(sp)
     654:	0d900b93          	li	s7,217
     658:	00ee0e13          	addi	t3,t3,14
     65c:	01c11723          	sh	t3,14(sp)
     660:	01ebc463          	blt	s7,t5,668 <.L2356>
     664:	0740306f          	j	36d8 <.L194>

00000668 <.L2356>:
     668:	07a00e13          	li	t3,122
     66c:	006e4463          	blt	t3,t1,674 <.L2356+0xc>
     670:	32c0706f          	j	799c <.L196>
     674:	00815e03          	lhu	t3,8(sp)
     678:	08000b93          	li	s7,128
     67c:	ff8e0e13          	addi	t3,t3,-8
     680:	01c11423          	sh	t3,8(sp)
     684:	00ebd463          	bge	s7,a4,68c <.L215>
     688:	5890806f          	j	9410 <.L2753>

0000068c <.L215>:
     68c:	ffd00e13          	li	t3,-3
     690:	01c64463          	blt	a2,t3,698 <.L215+0xc>
     694:	7840506f          	j	5e18 <.L231>
     698:	36800e13          	li	t3,872
     69c:	016e5463          	bge	t3,s6,6a4 <.L215+0x18>
     6a0:	30c0a06f          	j	a9ac <.L232>
     6a4:	00a15e03          	lhu	t3,10(sp)
     6a8:	08c00b93          	li	s7,140
     6ac:	ff7e0e13          	addi	t3,t3,-9
     6b0:	01c11523          	sh	t3,10(sp)
     6b4:	00dbc463          	blt	s7,a3,6bc <.L236>
     6b8:	7840506f          	j	5e3c <.L239>

000006bc <.L236>:
     6bc:	eef00e13          	li	t3,-273
     6c0:	01c2c463          	blt	t0,t3,6c8 <.L236+0xc>
     6c4:	1000a06f          	j	a7c4 <.L267>
     6c8:	00c15e03          	lhu	t3,12(sp)
     6cc:	00de0e13          	addi	t3,t3,13
     6d0:	010e1e13          	slli	t3,t3,0x10
     6d4:	410e5e13          	srai	t3,t3,0x10

000006d8 <.L263>:
     6d8:	01c11623          	sh	t3,12(sp)
     6dc:	03c00e13          	li	t3,60
     6e0:	00fe5463          	bge	t3,a5,6e8 <.L263+0x10>
     6e4:	0580306f          	j	373c <.L259>
     6e8:	ce400e13          	li	t3,-796
     6ec:	01c5c463          	blt	a1,t3,6f4 <.L252>
     6f0:	1dd0806f          	j	90cc <.L273>

000006f4 <.L252>:
     6f4:	19c00e13          	li	t3,412
     6f8:	00ee5463          	bge	t3,a4,700 <.L252+0xc>
     6fc:	3340306f          	j	3a30 <.L276>
     700:	00e15e03          	lhu	t3,14(sp)
     704:	00fe0e13          	addi	t3,t3,15
     708:	010e1e13          	slli	t3,t3,0x10
     70c:	410e5e13          	srai	t3,t3,0x10

00000710 <.L275>:
     710:	01c11723          	sh	t3,14(sp)
     714:	efb00e13          	li	t3,-261
     718:	01ca4463          	blt	s4,t3,720 <.L2831>
     71c:	0580306f          	j	3774 <.L280>

00000720 <.L2831>:
     720:	08700e13          	li	t3,135
     724:	006e5463          	bge	t3,t1,72c <.L2831+0xc>
     728:	3a80606f          	j	6ad0 <.L281>
     72c:	02200e13          	li	t3,34
     730:	010e5463          	bge	t3,a6,738 <.L2831+0x18>
     734:	3200606f          	j	6a54 <.L282>
     738:	00815e03          	lhu	t3,8(sp)
     73c:	2df00b93          	li	s7,735
     740:	002e0e13          	addi	t3,t3,2
     744:	01c11423          	sh	t3,8(sp)
     748:	00ebd463          	bge	s7,a4,750 <.L2683>
     74c:	3200606f          	j	6a6c <.L297>

00000750 <.L2683>:
     750:	02051e03          	lh	t3,32(a0)
     754:	00400b93          	li	s7,4
     758:	01cbd463          	bge	s7,t3,760 <.L2683+0x10>
     75c:	6100806f          	j	8d6c <.L299>
     760:	00a15b83          	lhu	s7,10(sp)
     764:	08f00c13          	li	s8,143
     768:	ffcb8b93          	addi	s7,s7,-4
     76c:	01711523          	sh	s7,10(sp)
     770:	00dc4463          	blt	s8,a3,778 <.L317>
     774:	39c0606f          	j	6b10 <.L2559>

00000778 <.L317>:
     778:	2b200b93          	li	s7,690
     77c:	00ebd463          	bge	s7,a4,784 <.L317+0xc>
     780:	25c0606f          	j	69dc <.L315>
     784:	ef500b93          	li	s7,-267
     788:	0172c463          	blt	t0,s7,790 <.L317+0x18>
     78c:	2940606f          	j	6a20 <.L324>
     790:	00c15b83          	lhu	s7,12(sp)
     794:	03c00c13          	li	s8,60
     798:	00bb8b93          	addi	s7,s7,11
     79c:	01711623          	sh	s7,12(sp)
     7a0:	00fc5463          	bge	s8,a5,7a8 <.L2562>
     7a4:	07c0306f          	j	3820 <.L325>

000007a8 <.L2562>:
     7a8:	d2500b93          	li	s7,-731
     7ac:	0175d463          	bge	a1,s7,7b4 <.L334>
     7b0:	3040606f          	j	6ab4 <.L337>

000007b4 <.L334>:
     7b4:	00e15b83          	lhu	s7,14(sp)
     7b8:	ff6b8b93          	addi	s7,s7,-10
     7bc:	010b9b93          	slli	s7,s7,0x10
     7c0:	410bdb93          	srai	s7,s7,0x10

000007c4 <.L338>:
     7c4:	01711723          	sh	s7,14(sp)
     7c8:	efb00b93          	li	s7,-261
     7cc:	017a4463          	blt	s4,s7,7d4 <.L2833>
     7d0:	0880306f          	j	3858 <.L341>

000007d4 <.L2833>:
     7d4:	00d00b93          	li	s7,13
     7d8:	013bd463          	bge	s7,s3,7e0 <.L2833+0xc>
     7dc:	0f10606f          	j	70cc <.L342>
     7e0:	0f400b93          	li	s7,244
     7e4:	006bd463          	bge	s7,t1,7ec <.L2833+0x18>
     7e8:	6d40906f          	j	9ebc <.L343>
     7ec:	00815b83          	lhu	s7,8(sp)
     7f0:	003b8b93          	addi	s7,s7,3
     7f4:	01711423          	sh	s7,8(sp)

000007f8 <.L344>:
     7f8:	07600b93          	li	s7,118
     7fc:	00ebd463          	bge	s7,a4,804 <.L344+0xc>
     800:	3090206f          	j	3308 <.L348>
     804:	ffe00b93          	li	s7,-2
     808:	01764463          	blt	a2,s7,810 <.L344+0x18>
     80c:	7bd0606f          	j	77c8 <.L349>
     810:	e2c00b93          	li	s7,-468
     814:	0172c463          	blt	t0,s7,81c <.L344+0x24>
     818:	03d0a06f          	j	b054 <.L350>
     81c:	00a15b83          	lhu	s7,10(sp)
     820:	17000c13          	li	s8,368
     824:	001b8b93          	addi	s7,s7,1
     828:	01711523          	sh	s7,10(sp)
     82c:	00dc4463          	blt	s8,a3,834 <.L355>
     830:	6c80606f          	j	6ef8 <.L351>

00000834 <.L355>:
     834:	00c15b83          	lhu	s7,12(sp)
     838:	00cb8b93          	addi	s7,s7,12
     83c:	010b9b93          	slli	s7,s7,0x10
     840:	410bdb93          	srai	s7,s7,0x10

00000844 <.L352>:
     844:	01711623          	sh	s7,12(sp)
     848:	e9900b93          	li	s7,-359
     84c:	0175d463          	bge	a1,s7,854 <.L372>
     850:	3150206f          	j	3364 <.L368>

00000854 <.L372>:
     854:	03d00b93          	li	s7,61
     858:	00fbd463          	bge	s7,a5,860 <.L372+0xc>
     85c:	6cc0606f          	j	6f28 <.L371>
     860:	03800b93          	li	s7,56
     864:	00ebd463          	bge	s7,a4,86c <.L372+0x18>
     868:	5e00606f          	j	6e48 <.L370>
     86c:	00e15b83          	lhu	s7,14(sp)
     870:	ffab8b93          	addi	s7,s7,-6
     874:	010b9b93          	slli	s7,s7,0x10
     878:	410bdb93          	srai	s7,s7,0x10

0000087c <.L375>:
     87c:	01711723          	sh	s7,14(sp)
     880:	0a900b93          	li	s7,169
     884:	01ebd463          	bge	s7,t5,88c <.L2825>
     888:	3150206f          	j	339c <.L378>

0000088c <.L2825>:
     88c:	01d00b93          	li	s7,29
     890:	010bd463          	bge	s7,a6,898 <.L2825+0xc>
     894:	78d0506f          	j	6820 <.L379>
     898:	11800b93          	li	s7,280
     89c:	012bd463          	bge	s7,s2,8a4 <.L2825+0x18>
     8a0:	1fd0906f          	j	a29c <.L380>
     8a4:	00815b83          	lhu	s7,8(sp)
     8a8:	0b500c13          	li	s8,181
     8ac:	00bb8b93          	addi	s7,s7,11
     8b0:	01711423          	sh	s7,8(sp)
     8b4:	006c5463          	bge	s8,t1,8bc <.L2565>
     8b8:	7910506f          	j	6848 <.L381>

000008bc <.L2565>:
     8bc:	00a00b93          	li	s7,10
     8c0:	011bc463          	blt	s7,a7,8c8 <.L388>
     8c4:	7a10506f          	j	6864 <.L382>

000008c8 <.L388>:
     8c8:	00a15b83          	lhu	s7,10(sp)
     8cc:	ff7b8b93          	addi	s7,s7,-9
     8d0:	010b9b93          	slli	s7,s7,0x10
     8d4:	410bdb93          	srai	s7,s7,0x10

000008d8 <.L383>:
     8d8:	01711523          	sh	s7,10(sp)
     8dc:	06300b93          	li	s7,99
     8e0:	00dbd463          	bge	s7,a3,8e8 <.L2826>
     8e4:	3290206f          	j	340c <.L400>

000008e8 <.L2826>:
     8e8:	f2100b93          	li	s7,-223
     8ec:	0175c463          	blt	a1,s7,8f4 <.L2826+0xc>
     8f0:	7d10506f          	j	68c0 <.L401>
     8f4:	21800b93          	li	s7,536
     8f8:	016bd463          	bge	s7,s6,900 <.L2826+0x18>
     8fc:	1e50906f          	j	a2e0 <.L402>
     900:	00c15b83          	lhu	s7,12(sp)
     904:	ff6b8b93          	addi	s7,s7,-10
     908:	010b9b93          	slli	s7,s7,0x10
     90c:	410bdb93          	srai	s7,s7,0x10

00000910 <.L403>:
     910:	01711623          	sh	s7,12(sp)
     914:	03b00b93          	li	s7,59
     918:	00fbd463          	bge	s7,a5,920 <.L2827>
     91c:	3290206f          	j	3444 <.L411>

00000920 <.L2827>:
     920:	cd800b93          	li	s7,-808
     924:	0175c463          	blt	a1,s7,92c <.L2827+0xc>
     928:	4410706f          	j	8568 <.L405>
     92c:	00e15b83          	lhu	s7,14(sp)
     930:	008b8b93          	addi	s7,s7,8
     934:	010b9b93          	slli	s7,s7,0x10
     938:	410bdb93          	srai	s7,s7,0x10

0000093c <.L412>:
     93c:	01711723          	sh	s7,14(sp)
     940:	0a900b93          	li	s7,169
     944:	01ebd463          	bge	s7,t5,94c <.L2828>
     948:	3350206f          	j	347c <.L415>

0000094c <.L2828>:
     94c:	01d00b93          	li	s7,29
     950:	010bc463          	blt	s7,a6,958 <.L2828+0xc>
     954:	0340606f          	j	6988 <.L418>
     958:	01c51c03          	lh	s8,28(a0)
     95c:	03800b93          	li	s7,56
     960:	018bd463          	bge	s7,s8,968 <.L2828+0x1c>
     964:	3640a06f          	j	acc8 <.L421>
     968:	00815b83          	lhu	s7,8(sp)
     96c:	ff8b8b93          	addi	s7,s7,-8
     970:	010b9b93          	slli	s7,s7,0x10
     974:	410bdb93          	srai	s7,s7,0x10

00000978 <.L420>:
     978:	01711423          	sh	s7,8(sp)
     97c:	03900b93          	li	s7,57
     980:	00ebd463          	bge	s7,a4,988 <.L2829>
     984:	3310206f          	j	34b4 <.L424>

00000988 <.L2829>:
     988:	00700b93          	li	s7,7
     98c:	011bd463          	bge	s7,a7,994 <.L2829+0xc>
     990:	4ad0206f          	j	363c <.L425>
     994:	00a00b93          	li	s7,10
     998:	01dbd463          	bge	s7,t4,9a0 <.L2829+0x18>
     99c:	6f50806f          	j	9890 <.L426>
     9a0:	00a15b83          	lhu	s7,10(sp)
     9a4:	06300c13          	li	s8,99
     9a8:	ffcb8b93          	addi	s7,s7,-4
     9ac:	01711523          	sh	s7,10(sp)
     9b0:	00dc4463          	blt	s8,a3,9b8 <.L427>
     9b4:	4ad0206f          	j	3660 <.L432>

000009b8 <.L427>:
     9b8:	ed000b93          	li	s7,-304
     9bc:	017ac463          	blt	s5,s7,9c4 <.L433>
     9c0:	0cd0506f          	j	628c <.L430>

000009c4 <.L433>:
     9c4:	00c15b83          	lhu	s7,12(sp)
     9c8:	008b8b93          	addi	s7,s7,8
     9cc:	010b9b93          	slli	s7,s7,0x10
     9d0:	410bdb93          	srai	s7,s7,0x10

000009d4 <.L431>:
     9d4:	01711623          	sh	s7,12(sp)
     9d8:	e2500b93          	li	s7,-475
     9dc:	01744463          	blt	s0,s7,9e4 <.L446>
     9e0:	4b90206f          	j	3698 <.L443>

000009e4 <.L446>:
     9e4:	25500b93          	li	s7,597
     9e8:	009bc463          	blt	s7,s1,9f0 <.L446+0xc>
     9ec:	1990506f          	j	6384 <.L444>
     9f0:	c2600b93          	li	s7,-986
     9f4:	0175c463          	blt	a1,s7,9fc <.L446+0x18>
     9f8:	1210506f          	j	6318 <.L445>
     9fc:	00e15b83          	lhu	s7,14(sp)
     a00:	008b8b93          	addi	s7,s7,8

00000a04 <.L2570>:
     a04:	01711723          	sh	s7,14(sp)

00000a08 <.L451>:
     a08:	02200b93          	li	s7,34
     a0c:	010bd463          	bge	s7,a6,a14 <.L2902>
     a10:	1210506f          	j	6330 <.L457>

00000a14 <.L2902>:
     a14:	0f600b93          	li	s7,246
     a18:	006bd463          	bge	s7,t1,a20 <.L2902+0xc>
     a1c:	6210806f          	j	983c <.L458>
     a20:	00815b83          	lhu	s7,8(sp)
     a24:	002b8b93          	addi	s7,s7,2
     a28:	010b9b93          	slli	s7,s7,0x10
     a2c:	410bdb93          	srai	s7,s7,0x10

00000a30 <.L459>:
     a30:	01711423          	sh	s7,8(sp)
     a34:	0b500b93          	li	s7,181
     a38:	006bd463          	bge	s7,t1,a40 <.L465>
     a3c:	11d0506f          	j	6358 <.L460>

00000a40 <.L465>:
     a40:	00200b93          	li	s7,2
     a44:	01cbd463          	bge	s7,t3,a4c <.L465+0xc>
     a48:	0850506f          	j	62cc <.L468>
     a4c:	00b00b93          	li	s7,11
     a50:	013bd463          	bge	s7,s3,a58 <.L465+0x18>
     a54:	5c10806f          	j	9814 <.L469>
     a58:	00a15b83          	lhu	s7,10(sp)
     a5c:	ff9b8b93          	addi	s7,s7,-7
     a60:	010b9b93          	slli	s7,s7,0x10
     a64:	410bdb93          	srai	s7,s7,0x10

00000a68 <.L470>:
     a68:	01711523          	sh	s7,10(sp)
     a6c:	2be00b93          	li	s7,702
     a70:	00dbd463          	bge	s7,a3,a78 <.L470+0x10>
     a74:	3c90406f          	j	563c <.L479>
     a78:	0a300b93          	li	s7,163
     a7c:	00ebd463          	bge	s7,a4,a84 <.L470+0x1c>
     a80:	72c0806f          	j	91ac <.L480>
     a84:	04d00b93          	li	s7,77
     a88:	00dbd463          	bge	s7,a3,a90 <.L470+0x28>
     a8c:	3810a06f          	j	b60c <.L481>
     a90:	00c15b83          	lhu	s7,12(sp)
     a94:	e0800c13          	li	s8,-504
     a98:	ffbb8b93          	addi	s7,s7,-5
     a9c:	01711623          	sh	s7,12(sp)
     aa0:	01844463          	blt	s0,s8,aa8 <.L482>
     aa4:	6990506f          	j	693c <.L2289>

00000aa8 <.L482>:
     aa8:	25500b93          	li	s7,597
     aac:	009bd463          	bge	s7,s1,ab4 <.L482+0xc>
     ab0:	4e10606f          	j	7790 <.L499>
     ab4:	df100b93          	li	s7,-527
     ab8:	017a4463          	blt	s4,s7,ac0 <.L482+0x18>
     abc:	2450906f          	j	a500 <.L500>
     ac0:	00e15b83          	lhu	s7,14(sp)
     ac4:	0a900c13          	li	s8,169
     ac8:	ff9b8b93          	addi	s7,s7,-7
     acc:	01711723          	sh	s7,14(sp)
     ad0:	01ec4463          	blt	s8,t5,ad8 <.L482+0x30>
     ad4:	1b90306f          	j	448c <.L501>
     ad8:	01e00b93          	li	s7,30
     adc:	013bd463          	bge	s7,s3,ae4 <.L502>
     ae0:	1510306f          	j	4430 <.L2754>

00000ae4 <.L502>:
     ae4:	00815b83          	lhu	s7,8(sp)
     ae8:	34b00c13          	li	s8,843
     aec:	ffcb8b93          	addi	s7,s7,-4
     af0:	01711423          	sh	s7,8(sp)
     af4:	00ec4463          	blt	s8,a4,afc <.L2574>
     af8:	1510306f          	j	4448 <.L516>

00000afc <.L2574>:
     afc:	00001bb7          	lui	s7,0x1
     b00:	a9db8b93          	addi	s7,s7,-1379 # a9d <.L470+0x35>
     b04:	48dbd2e3          	bge	s7,a3,1788 <.L517>

00000b08 <.L518>:
     b08:	00b00b93          	li	s7,11
     b0c:	01cbd463          	bge	s7,t3,b14 <.L518+0xc>
     b10:	3a00a06f          	j	aeb0 <.L534>
     b14:	00a15b83          	lhu	s7,10(sp)
     b18:	fffb8b93          	addi	s7,s7,-1
     b1c:	010b9b93          	slli	s7,s7,0x10
     b20:	010bdb93          	srli	s7,s7,0x10

00000b24 <.L535>:
     b24:	01711523          	sh	s7,10(sp)
     b28:	3fa00b93          	li	s7,1018
     b2c:	00ebc463          	blt	s7,a4,b34 <.L535+0x10>
     b30:	65c0806f          	j	918c <.L526>
     b34:	00001bb7          	lui	s7,0x1
     b38:	b13b8b93          	addi	s7,s7,-1261 # b13 <.L518+0xb>
     b3c:	00dbc463          	blt	s7,a3,b44 <.L535+0x20>
     b40:	1c10306f          	j	4500 <.L532>
     b44:	00c15b83          	lhu	s7,12(sp)
     b48:	009b8b93          	addi	s7,s7,9
     b4c:	010b9b93          	slli	s7,s7,0x10
     b50:	410bdb93          	srai	s7,s7,0x10

00000b54 <.L538>:
     b54:	01711623          	sh	s7,12(sp)
     b58:	e9900b93          	li	s7,-359
     b5c:	4775d6e3          	bge	a1,s7,17c8 <.L541>

00000b60 <.L2773>:
     b60:	20200b93          	li	s7,514
     b64:	016bd463          	bge	s7,s6,b6c <.L2773+0xc>
     b68:	0e40606f          	j	6c4c <.L542>
     b6c:	14600b93          	li	s7,326
     b70:	007bc863          	blt	s7,t2,b80 <.L543>
     b74:	00e15b83          	lhu	s7,14(sp)
     b78:	009b8b93          	addi	s7,s7,9
     b7c:	01711723          	sh	s7,14(sp)

00000b80 <.L543>:
     b80:	3c084ee3          	bltz	a6,175c <.L2755>

00000b84 <.L546>:
     b84:	00095463          	bgez	s2,b8c <.L546+0x8>
     b88:	0c00806f          	j	8c48 <.L2756>
     b8c:	02200b93          	li	s7,34
     b90:	010bc463          	blt	s7,a6,b98 <.L546+0x14>
     b94:	3780506f          	j	5f0c <.L2576>
     b98:	00815b83          	lhu	s7,8(sp)
     b9c:	ff7b8b93          	addi	s7,s7,-9
     ba0:	010b9b93          	slli	s7,s7,0x10
     ba4:	410bdb93          	srai	s7,s7,0x10

00000ba8 <.L552>:
     ba8:	01711423          	sh	s7,8(sp)
     bac:	0f000b93          	li	s7,240
     bb0:	446bdce3          	bge	s7,t1,1808 <.L549>
     bb4:	d6c00b93          	li	s7,-660
     bb8:	017ad463          	bge	s5,s7,bc0 <.L552+0x18>
     bbc:	1280806f          	j	8ce4 <.L2757>
     bc0:	18000b93          	li	s7,384
     bc4:	009bd863          	bge	s7,s1,bd4 <.L567>
     bc8:	00a15b83          	lhu	s7,10(sp)
     bcc:	007b8b93          	addi	s7,s7,7

00000bd0 <.L2577>:
     bd0:	01711523          	sh	s7,10(sp)

00000bd4 <.L567>:
     bd4:	17000b93          	li	s7,368
     bd8:	00dbd463          	bge	s7,a3,be0 <.L563>
     bdc:	4250406f          	j	5800 <.L575>

00000be0 <.L563>:
     be0:	f5200b93          	li	s7,-174
     be4:	0175c463          	blt	a1,s7,bec <.L563+0xc>
     be8:	7580606f          	j	7340 <.L576>
     bec:	03200b93          	li	s7,50
     bf0:	00fbd463          	bge	s7,a5,bf8 <.L563+0x18>
     bf4:	6180906f          	j	a20c <.L577>
     bf8:	00c15b83          	lhu	s7,12(sp)
     bfc:	002b8b93          	addi	s7,s7,2
     c00:	010b9b93          	slli	s7,s7,0x10
     c04:	010bdb93          	srli	s7,s7,0x10

00000c08 <.L578>:
     c08:	01711623          	sh	s7,12(sp)
     c0c:	e0800b93          	li	s7,-504
     c10:	01745463          	bge	s0,s7,c18 <.L581>
     c14:	41d0406f          	j	5830 <.L584>

00000c18 <.L581>:
     c18:	0de00b93          	li	s7,222
     c1c:	012bd463          	bge	s7,s2,c24 <.L581+0xc>
     c20:	2190706f          	j	8638 <.L586>
     c24:	02600b93          	li	s7,38
     c28:	42dbcee3          	blt	s7,a3,1864 <.L585>

00000c2c <.L607>:
     c2c:	0a900b93          	li	s7,169
     c30:	45ebd4e3          	bge	s7,t5,1878 <.L600>

00000c34 <.L610>:
     c34:	10700b93          	li	s7,263
     c38:	007bc463          	blt	s7,t2,c40 <.L610+0xc>
     c3c:	2b90506f          	j	66f4 <.L603>
     c40:	e4300b93          	li	s7,-445
     c44:	01745463          	bge	s0,s7,c4c <.L617>
     c48:	41d0406f          	j	5864 <.L602>

00000c4c <.L617>:
     c4c:	00815b83          	lhu	s7,8(sp)
     c50:	004b8b93          	addi	s7,s7,4
     c54:	01711423          	sh	s7,8(sp)

00000c58 <.L614>:
     c58:	03900b93          	li	s7,57
     c5c:	44ebc2e3          	blt	s7,a4,18a0 <.L618>

00000c60 <.L2775>:
     c60:	00900b93          	li	s7,9
     c64:	011bd463          	bge	s7,a7,c6c <.L2775+0xc>
     c68:	1e10506f          	j	6648 <.L619>
     c6c:	fff00b93          	li	s7,-1
     c70:	01775463          	bge	a4,s7,c78 <.L2775+0x18>
     c74:	6840a06f          	j	b2f8 <.L2758>
     c78:	00a15b83          	lhu	s7,10(sp)
     c7c:	08900c13          	li	s8,137
     c80:	006b8b93          	addi	s7,s7,6
     c84:	01711523          	sh	s7,10(sp)
     c88:	00dc5463          	bge	s8,a3,c90 <.L621>
     c8c:	5b50606f          	j	7a40 <.L2581>

00000c90 <.L621>:
     c90:	03700b93          	li	s7,55
     c94:	00fbd463          	bge	s7,a5,c9c <.L2274>
     c98:	1e10506f          	j	6678 <.L634>

00000c9c <.L2274>:
     c9c:	00c15b83          	lhu	s7,12(sp)
     ca0:	ff7b8b93          	addi	s7,s7,-9
     ca4:	01711623          	sh	s7,12(sp)

00000ca8 <.L636>:
     ca8:	03000b93          	li	s7,48
     cac:	45fbcae3          	blt	s7,t6,1900 <.L646>

00000cb0 <.L2776>:
     cb0:	00e15b83          	lhu	s7,14(sp)
     cb4:	0a900c13          	li	s8,169
     cb8:	0009d463          	bgez	s3,cc0 <.L2585>
     cbc:	7740a06f          	j	b430 <.L2759>

00000cc0 <.L2585>:
     cc0:	009b8b93          	addi	s7,s7,9
     cc4:	01711723          	sh	s7,14(sp)
     cc8:	45ec5ce3          	bge	s8,t5,1920 <.L648>

00000ccc <.L2583>:
     ccc:	01e00b93          	li	s7,30
     cd0:	013bd463          	bge	s7,s3,cd8 <.L652>
     cd4:	4fc0506f          	j	61d0 <.L653>

00000cd8 <.L652>:
     cd8:	00815b83          	lhu	s7,8(sp)
     cdc:	fffb8b93          	addi	s7,s7,-1
     ce0:	01711423          	sh	s7,8(sp)

00000ce4 <.L649>:
     ce4:	0b500b93          	li	s7,181
     ce8:	466bc0e3          	blt	s7,t1,1948 <.L659>

00000cec <.L2777>:
     cec:	00b00b93          	li	s7,11
     cf0:	011bd463          	bge	s7,a7,cf8 <.L2777+0xc>
     cf4:	4040606f          	j	70f8 <.L660>
     cf8:	f8700b93          	li	s7,-121
     cfc:	01744463          	blt	s0,s7,d04 <.L2777+0x18>
     d00:	2d90906f          	j	a7d8 <.L661>
     d04:	00a15b83          	lhu	s7,10(sp)
     d08:	006b8b93          	addi	s7,s7,6
     d0c:	010b9b93          	slli	s7,s7,0x10
     d10:	410bdb93          	srai	s7,s7,0x10

00000d14 <.L662>:
     d14:	01711523          	sh	s7,10(sp)
     d18:	27a00b93          	li	s7,634
     d1c:	46dbc0e3          	blt	s7,a3,197c <.L667>

00000d20 <.L2778>:
     d20:	02200b93          	li	s7,34
     d24:	01dbd463          	bge	s7,t4,d2c <.L2778+0xc>
     d28:	7440706f          	j	846c <.L668>
     d2c:	ff400b93          	li	s7,-12
     d30:	01764463          	blt	a2,s7,d38 <.L2778+0x18>
     d34:	7290806f          	j	9c5c <.L669>
     d38:	00c15b83          	lhu	s7,12(sp)
     d3c:	007b8b93          	addi	s7,s7,7
     d40:	01711623          	sh	s7,12(sp)

00000d44 <.L670>:
     d44:	d8200b93          	li	s7,-638
     d48:	4575dee3          	bge	a1,s7,19a4 <.L673>

00000d4c <.L2779>:
     d4c:	25500b93          	li	s7,597
     d50:	009bd463          	bge	s7,s1,d58 <.L2779+0xc>
     d54:	4ac0506f          	j	6200 <.L674>
     d58:	47700b93          	li	s7,1143
     d5c:	007bd463          	bge	s7,t2,d64 <.L2779+0x18>
     d60:	40d0806f          	j	996c <.L675>
     d64:	00e15b83          	lhu	s7,14(sp)
     d68:	00ab8b93          	addi	s7,s7,10
     d6c:	010b9b93          	slli	s7,s7,0x10
     d70:	410bdb93          	srai	s7,s7,0x10

00000d74 <.L676>:
     d74:	01711723          	sh	s7,14(sp)
     d78:	44084ee3          	bltz	a6,19d4 <.L2269>

00000d7c <.L682>:
     d7c:	00a00b93          	li	s7,10
     d80:	012bd463          	bge	s7,s2,d88 <.L682+0xc>
     d84:	1c40506f          	j	5f48 <.L693>
     d88:	02e00b93          	li	s7,46
     d8c:	01dbd463          	bge	s7,t4,d94 <.L682+0x18>
     d90:	71c0806f          	j	94ac <.L694>
     d94:	00815b83          	lhu	s7,8(sp)
     d98:	006b8b93          	addi	s7,s7,6
     d9c:	010b9b93          	slli	s7,s7,0x10
     da0:	410bdb93          	srai	s7,s7,0x10

00000da4 <.L692>:
     da4:	01711423          	sh	s7,8(sp)
     da8:	07200b93          	li	s7,114
     dac:	00ebd463          	bge	s7,a4,db4 <.L685>
     db0:	6fc0406f          	j	54ac <.L696>

00000db4 <.L685>:
     db4:	ffa00b93          	li	s7,-6
     db8:	01765463          	bge	a2,s7,dc0 <.L685+0xc>
     dbc:	06c0706f          	j	7e28 <.L688>
     dc0:	ed100b93          	li	s7,-303
     dc4:	017ac463          	blt	s5,s7,dcc <.L685+0x18>
     dc8:	0d40a06f          	j	ae9c <.L698>
     dcc:	00a15b83          	lhu	s7,10(sp)
     dd0:	00ab8b93          	addi	s7,s7,10
     dd4:	010b9b93          	slli	s7,s7,0x10
     dd8:	010bdb93          	srli	s7,s7,0x10

00000ddc <.L699>:
     ddc:	01711523          	sh	s7,10(sp)

00000de0 <.L703>:
     de0:	01c51c03          	lh	s8,28(a0)
     de4:	03c00b93          	li	s7,60
     de8:	018bd463          	bge	s7,s8,df0 <.L703+0x10>
     dec:	2c50706f          	j	88b0 <.L708>
     df0:	03600b93          	li	s7,54
     df4:	01fbd463          	bge	s7,t6,dfc <.L703+0x1c>
     df8:	72c0906f          	j	a524 <.L709>
     dfc:	00c15b83          	lhu	s7,12(sp)
     e00:	ffeb8b93          	addi	s7,s7,-2
     e04:	010b9b93          	slli	s7,s7,0x10
     e08:	410bdb93          	srai	s7,s7,0x10

00000e0c <.L706>:
     e0c:	01711623          	sh	s7,12(sp)
     e10:	03900b93          	li	s7,57
     e14:	44fbc4e3          	blt	s7,a5,1a5c <.L710>

00000e18 <.L2781>:
     e18:	feb00b93          	li	s7,-21
     e1c:	01734463          	blt	t1,s7,e24 <.L2781+0xc>
     e20:	2a50706f          	j	88c4 <.L711>
     e24:	07700b93          	li	s7,119
     e28:	007bd463          	bge	s7,t2,e30 <.L2781+0x18>
     e2c:	4a80206f          	j	32d4 <.L712>
     e30:	00e15b83          	lhu	s7,14(sp)
     e34:	0a900c13          	li	s8,169
     e38:	ffab8b93          	addi	s7,s7,-6
     e3c:	01711723          	sh	s7,14(sp)
     e40:	01ec4463          	blt	s8,t5,e48 <.L2781+0x30>
     e44:	5c90506f          	j	6c0c <.L2729>
     e48:	02400b93          	li	s7,36
     e4c:	007bd463          	bge	s7,t2,e54 <.L729>
     e50:	4a80206f          	j	32f8 <.L714>

00000e54 <.L729>:
     e54:	00815b83          	lhu	s7,8(sp)
     e58:	004b8b93          	addi	s7,s7,4
     e5c:	01711423          	sh	s7,8(sp)

00000e60 <.L715>:
     e60:	00200b93          	li	s7,2
     e64:	01cbd463          	bge	s7,t3,e6c <.L715+0xc>
     e68:	5c90506f          	j	6c30 <.L736>
     e6c:	03b00b93          	li	s7,59
     e70:	00fbc463          	blt	s7,a5,e78 <.L715+0x18>
     e74:	4c40906f          	j	a338 <.L2265>
     e78:	00a15b83          	lhu	s7,10(sp)
     e7c:	ff9b8b93          	addi	s7,s7,-7
     e80:	010b9b93          	slli	s7,s7,0x10
     e84:	410bdb93          	srai	s7,s7,0x10

00000e88 <.L745>:
     e88:	01711523          	sh	s7,10(sp)
     e8c:	0dd00b93          	li	s7,221
     e90:	00dbc463          	blt	s7,a3,e98 <.L745+0x10>
     e94:	3000406f          	j	5194 <.L749>
     e98:	25b00b93          	li	s7,603
     e9c:	44ebdae3          	bge	s7,a4,1af0 <.L750>
     ea0:	ddb00b93          	li	s7,-549
     ea4:	017ad463          	bge	s5,s7,eac <.L745+0x24>
     ea8:	7f90306f          	j	4ea0 <.L772>
     eac:	00c15b83          	lhu	s7,12(sp)
     eb0:	03e00c13          	li	s8,62
     eb4:	ff7b8b93          	addi	s7,s7,-9
     eb8:	01711623          	sh	s7,12(sp)
     ebc:	46fc52e3          	bge	s8,a5,1b20 <.L751>
     ec0:	fec00b93          	li	s7,-20
     ec4:	01764463          	blt	a2,s7,ecc <.L780>
     ec8:	5410706f          	j	8c08 <.L2760>

00000ecc <.L780>:
     ecc:	08900b93          	li	s7,137
     ed0:	012bd463          	bge	s7,s2,ed8 <.L780+0xc>
     ed4:	1f00906f          	j	a0c4 <.L782>
     ed8:	00e15b83          	lhu	s7,14(sp)
     edc:	ffe00c13          	li	s8,-2
     ee0:	ff9b8b93          	addi	s7,s7,-7
     ee4:	01711723          	sh	s7,14(sp)
     ee8:	01885463          	bge	a6,s8,ef0 <.L784>
     eec:	71d0306f          	j	4e08 <.L783>

00000ef0 <.L784>:
     ef0:	00815b83          	lhu	s7,8(sp)
     ef4:	002b8b93          	addi	s7,s7,2
     ef8:	010b9b93          	slli	s7,s7,0x10
     efc:	410bdb93          	srai	s7,s7,0x10

00000f00 <.L778>:
     f00:	01711423          	sh	s7,8(sp)
     f04:	03300b93          	li	s7,51
     f08:	47fbdae3          	bge	s7,t6,1b7c <.L788>

00000f0c <.L794>:
     f0c:	01400b93          	li	s7,20
     f10:	010bc463          	blt	s7,a6,f18 <.L794+0xc>
     f14:	7250306f          	j	4e38 <.L789>
     f18:	00b00b93          	li	s7,11
     f1c:	011bd463          	bge	s7,a7,f24 <.L794+0x18>
     f20:	79c0806f          	j	96bc <.L804>
     f24:	00a15b83          	lhu	s7,10(sp)
     f28:	ffc00c13          	li	s8,-4
     f2c:	005b8b93          	addi	s7,s7,5
     f30:	01711523          	sh	s7,10(sp)
     f34:	47864ae3          	blt	a2,s8,1ba8 <.L797>

00000f38 <.L812>:
     f38:	00c15b83          	lhu	s7,12(sp)
     f3c:	03e00c13          	li	s8,62
     f40:	ff7b8b93          	addi	s7,s7,-9
     f44:	01711623          	sh	s7,12(sp)
     f48:	00fc4463          	blt	s8,a5,f50 <.L817>
     f4c:	2200406f          	j	516c <.L816>

00000f50 <.L817>:
     f50:	00e15b83          	lhu	s7,14(sp)
     f54:	009b8b93          	addi	s7,s7,9
     f58:	010b9b93          	slli	s7,s7,0x10
     f5c:	410bdb93          	srai	s7,s7,0x10

00000f60 <.L820>:
     f60:	01711723          	sh	s7,14(sp)
     f64:	01f00b93          	li	s7,31
     f68:	493bcee3          	blt	s7,s3,1c04 <.L822>

00000f6c <.L2783>:
     f6c:	01c04463          	bgtz	t3,f74 <.L2783+0x8>
     f70:	0d40806f          	j	9044 <.L2761>
     f74:	00300b93          	li	s7,3
     f78:	01cbc463          	blt	s7,t3,f80 <.L2783+0x14>
     f7c:	16c0606f          	j	70e8 <.L824>
     f80:	00815b83          	lhu	s7,8(sp)
     f84:	001b8b93          	addi	s7,s7,1
     f88:	01711423          	sh	s7,8(sp)

00000f8c <.L825>:
     f8c:	1ac00b93          	li	s7,428
     f90:	496bc8e3          	blt	s7,s6,1c20 <.L826>

00000f94 <.L2784>:
     f94:	ff900b93          	li	s7,-7
     f98:	01764463          	blt	a2,s7,fa0 <.L2784+0xc>
     f9c:	4e90506f          	j	6c84 <.L827>
     fa0:	00100b93          	li	s7,1
     fa4:	01cbc463          	blt	s7,t3,fac <.L2784+0x18>
     fa8:	3b00a06f          	j	b358 <.L2762>
     fac:	00a15b83          	lhu	s7,10(sp)
     fb0:	ff8b8b93          	addi	s7,s7,-8
     fb4:	010b9b93          	slli	s7,s7,0x10
     fb8:	410bdb93          	srai	s7,s7,0x10

00000fbc <.L829>:
     fbc:	01711523          	sh	s7,10(sp)
     fc0:	27a00b93          	li	s7,634
     fc4:	48dbc8e3          	blt	s7,a3,1c54 <.L837>

00000fc8 <.L2785>:
     fc8:	02200b93          	li	s7,34
     fcc:	01dbd463          	bge	s7,t4,fd4 <.L2785+0xc>
     fd0:	4e50506f          	j	6cb4 <.L833>
     fd4:	ff000b93          	li	s7,-16
     fd8:	01765863          	bge	a2,s7,fe8 <.L838>
     fdc:	00c15b83          	lhu	s7,12(sp)
     fe0:	00ab8b93          	addi	s7,s7,10
     fe4:	01711623          	sh	s7,12(sp)

00000fe8 <.L838>:
     fe8:	d2a00b93          	li	s7,-726
     fec:	0175d463          	bge	a1,s7,ff4 <.L840>
     ff0:	1b90406f          	j	59a8 <.L850>

00000ff4 <.L840>:
     ff4:	eea00b93          	li	s7,-278
     ff8:	017a4463          	blt	s4,s7,1000 <.L840+0xc>
     ffc:	4f90506f          	j	6cf4 <.L845>
    1000:	02700b93          	li	s7,39
    1004:	48dbc6e3          	blt	s7,a3,1c90 <.L852>

00001008 <.L846>:
    1008:	0a900b93          	li	s7,169
    100c:	49ebdce3          	bge	s7,t5,1ca4 <.L860>

00001010 <.L2786>:
    1010:	01e00b93          	li	s7,30
    1014:	013bd463          	bge	s7,s3,101c <.L2786+0xc>
    1018:	5090506f          	j	6d20 <.L858>
    101c:	03c00b93          	li	s7,60
    1020:	00fbc463          	blt	s7,a5,1028 <.L2786+0x18>
    1024:	5640706f          	j	8588 <.L864>
    1028:	00815b83          	lhu	s7,8(sp)
    102c:	005b8b93          	addi	s7,s7,5
    1030:	01711423          	sh	s7,8(sp)

00001034 <.L859>:
    1034:	0b500b93          	li	s7,181
    1038:	486bcae3          	blt	s7,t1,1ccc <.L865>

0000103c <.L2788>:
    103c:	00300b93          	li	s7,3
    1040:	01cbc463          	blt	s7,t3,1048 <.L2788+0xc>
    1044:	3f00506f          	j	6434 <.L2261>
    1048:	47000b93          	li	s7,1136
    104c:	007bd463          	bge	s7,t2,1054 <.L2788+0x18>
    1050:	48d0906f          	j	acdc <.L875>
    1054:	00a15b83          	lhu	s7,10(sp)
    1058:	ff8b8b93          	addi	s7,s7,-8
    105c:	01711523          	sh	s7,10(sp)

00001060 <.L874>:
    1060:	f6a00b93          	li	s7,-150
    1064:	4975c6e3          	blt	a1,s7,1cf0 <.L878>
    1068:	f5b00b93          	li	s7,-165
    106c:	0172d463          	bge	t0,s7,1074 <.L874+0x14>
    1070:	4300506f          	j	64a0 <.L871>
    1074:	0ed00b93          	li	s7,237
    1078:	00dbc463          	blt	s7,a3,1080 <.L874+0x20>
    107c:	3e40506f          	j	6460 <.L894>
    1080:	00c15b83          	lhu	s7,12(sp)
    1084:	02f00c13          	li	s8,47
    1088:	003b8b93          	addi	s7,s7,3
    108c:	01711623          	sh	s7,12(sp)
    1090:	490c46e3          	blt	s8,a6,1d1c <.L889>

00001094 <.L888>:
    1094:	03800b93          	li	s7,56
    1098:	01fbd463          	bge	s7,t6,10a0 <.L890>
    109c:	3e40506f          	j	6480 <.L881>

000010a0 <.L890>:
    10a0:	00e15b83          	lhu	s7,14(sp)
    10a4:	ff8b8b93          	addi	s7,s7,-8
    10a8:	010b9b93          	slli	s7,s7,0x10
    10ac:	410bdb93          	srai	s7,s7,0x10

000010b0 <.L896>:
    10b0:	01711723          	sh	s7,14(sp)
    10b4:	ec600b93          	li	s7,-314
    10b8:	497446e3          	blt	s0,s7,1d44 <.L904>

000010bc <.L2789>:
    10bc:	ebf00b93          	li	s7,-321
    10c0:	0175c463          	blt	a1,s7,10c8 <.L2789+0xc>
    10c4:	60d0706f          	j	8ed0 <.L908>
    10c8:	03c00b93          	li	s7,60
    10cc:	00fbd463          	bge	s7,a5,10d4 <.L2594>
    10d0:	6a00806f          	j	9770 <.L901>

000010d4 <.L2594>:
    10d4:	00815b83          	lhu	s7,8(sp)
    10d8:	006b8b93          	addi	s7,s7,6
    10dc:	01711423          	sh	s7,8(sp)

000010e0 <.L906>:
    10e0:	03400b93          	li	s7,52
    10e4:	49dbc6e3          	blt	s7,t4,1d70 <.L909>

000010e8 <.L2791>:
    10e8:	ff800b93          	li	s7,-8
    10ec:	01764463          	blt	a2,s7,10f4 <.L2791+0xc>
    10f0:	6500606f          	j	7740 <.L910>
    10f4:	01e00b93          	li	s7,30
    10f8:	011bd463          	bge	s7,a7,1100 <.L2791+0x18>
    10fc:	6640606f          	j	7760 <.L911>
    1100:	00a15b83          	lhu	s7,10(sp)
    1104:	ffdb8b93          	addi	s7,s7,-3
    1108:	010b9b93          	slli	s7,s7,0x10
    110c:	410bdb93          	srai	s7,s7,0x10

00001110 <.L912>:
    1110:	01711523          	sh	s7,10(sp)
    1114:	03300b93          	li	s7,51
    1118:	00fbc463          	blt	s7,a5,1120 <.L914>
    111c:	1f00406f          	j	530c <.L923>

00001120 <.L914>:
    1120:	d7800b93          	li	s7,-648
    1124:	017a5463          	bge	s4,s7,112c <.L914+0xc>
    1128:	03d0606f          	j	7964 <.L927>
    112c:	01500c13          	li	s8,21
    1130:	47dc4ee3          	blt	s8,t4,1dac <.L920>
    1134:	00c15b83          	lhu	s7,12(sp)
    1138:	03900c93          	li	s9,57
    113c:	001b8b93          	addi	s7,s7,1
    1140:	01711623          	sh	s7,12(sp)
    1144:	48fcc4e3          	blt	s9,a5,1dcc <.L941>
    1148:	006c4463          	blt	s8,t1,1150 <.L933>
    114c:	1780206f          	j	32c4 <.L934>

00001150 <.L933>:
    1150:	27700b93          	li	s7,631
    1154:	012bd463          	bge	s7,s2,115c <.L933+0xc>
    1158:	5540806f          	j	96ac <.L942>
    115c:	00e15b83          	lhu	s7,14(sp)
    1160:	ff7b8b93          	addi	s7,s7,-9
    1164:	01711723          	sh	s7,14(sp)

00001168 <.L940>:
    1168:	00c00b93          	li	s7,12
    116c:	493bc4e3          	blt	s7,s3,1df4 <.L935>

00001170 <.L2792>:
    1170:	1b000b93          	li	s7,432
    1174:	009bd463          	bge	s7,s1,117c <.L2792+0xc>
    1178:	5500706f          	j	86c8 <.L946>
    117c:	10600b93          	li	s7,262
    1180:	00ebc463          	blt	s7,a4,1188 <.L2792+0x18>
    1184:	5390506f          	j	6ebc <.L952>
    1188:	00815b83          	lhu	s7,8(sp)
    118c:	03300c13          	li	s8,51
    1190:	008b8b93          	addi	s7,s7,8
    1194:	01711423          	sh	s7,8(sp)
    1198:	01fc4463          	blt	s8,t6,11a0 <.L949>
    119c:	5480306f          	j	46e4 <.L956>

000011a0 <.L949>:
    11a0:	03b00b93          	li	s7,59
    11a4:	00fbd463          	bge	s7,a5,11ac <.L949+0xc>
    11a8:	7dc0906f          	j	a984 <.L973>
    11ac:	00a15b83          	lhu	s7,10(sp)
    11b0:	005b8b93          	addi	s7,s7,5
    11b4:	010b9b93          	slli	s7,s7,0x10
    11b8:	410bdb93          	srai	s7,s7,0x10

000011bc <.L969>:
    11bc:	01711523          	sh	s7,10(sp)
    11c0:	03900b93          	li	s7,57
    11c4:	00dbd463          	bge	s7,a3,11cc <.L960>
    11c8:	4c10506f          	j	6e88 <.L970>

000011cc <.L960>:
    11cc:	01300b93          	li	s7,19
    11d0:	491bc4e3          	blt	s7,a7,1e58 <.L974>

000011d4 <.L2793>:
    11d4:	20f00b93          	li	s7,527
    11d8:	009bd463          	bge	s7,s1,11e0 <.L2793+0xc>
    11dc:	7800906f          	j	a95c <.L975>
    11e0:	00c15b83          	lhu	s7,12(sp)
    11e4:	cf000c13          	li	s8,-784
    11e8:	ffeb8b93          	addi	s7,s7,-2
    11ec:	01711623          	sh	s7,12(sp)
    11f0:	4985dae3          	bge	a1,s8,1e84 <.L976>

000011f4 <.L982>:
    11f4:	e2c00b93          	li	s7,-468
    11f8:	0172c463          	blt	t0,s7,1200 <.L982+0xc>
    11fc:	7300906f          	j	a92c <.L2763>
    1200:	00e15b83          	lhu	s7,14(sp)
    1204:	ffeb8b93          	addi	s7,s7,-2
    1208:	01711723          	sh	s7,14(sp)

0000120c <.L989>:
    120c:	00400b93          	li	s7,4
    1210:	011bc863          	blt	s7,a7,1220 <.L1002>
    1214:	00815b83          	lhu	s7,8(sp)
    1218:	00cb8b93          	addi	s7,s7,12
    121c:	01711423          	sh	s7,8(sp)

00001220 <.L1002>:
    1220:	1ac00b93          	li	s7,428
    1224:	4b6bc2e3          	blt	s7,s6,1ec8 <.L1004>

00001228 <.L2794>:
    1228:	00400b93          	li	s7,4
    122c:	01cbd463          	bge	s7,t3,1234 <.L2794+0xc>
    1230:	4510406f          	j	5e80 <.L1005>
    1234:	16a00b93          	li	s7,362
    1238:	007bd463          	bge	s7,t2,1240 <.L2794+0x18>
    123c:	4890906f          	j	aec4 <.L1006>
    1240:	00a15b83          	lhu	s7,10(sp)
    1244:	003b8b93          	addi	s7,s7,3
    1248:	010b9b93          	slli	s7,s7,0x10
    124c:	410bdb93          	srai	s7,s7,0x10

00001250 <.L1007>:
    1250:	01711523          	sh	s7,10(sp)
    1254:	03d00b93          	li	s7,61
    1258:	4afbc2e3          	blt	s7,a5,1efc <.L1017>

0000125c <.L1013>:
    125c:	00100b93          	li	s7,1
    1260:	01cbd463          	bge	s7,t3,1268 <.L1013+0xc>
    1264:	4490406f          	j	5eac <.L1016>
    1268:	e4e00b93          	li	s7,-434
    126c:	0175c463          	blt	a1,s7,1274 <.L1013+0x18>
    1270:	1440a06f          	j	b3b4 <.L1018>
    1274:	00c15b83          	lhu	s7,12(sp)
    1278:	004b8b93          	addi	s7,s7,4
    127c:	010b9b93          	slli	s7,s7,0x10
    1280:	410bdb93          	srai	s7,s7,0x10

00001284 <.L1019>:
    1284:	01711623          	sh	s7,12(sp)
    1288:	03900b93          	li	s7,57
    128c:	48fbcae3          	blt	s7,a5,1f20 <.L1014>
    1290:	03200b93          	li	s7,50
    1294:	01dbc463          	blt	s7,t4,129c <.L1019+0x18>
    1298:	4390406f          	j	5ed0 <.L1026>
    129c:	ebb00b93          	li	s7,-325
    12a0:	0172c463          	blt	t0,s7,12a8 <.L1019+0x24>
    12a4:	3790906f          	j	ae1c <.L1029>
    12a8:	00e15b83          	lhu	s7,14(sp)
    12ac:	ffbb8b93          	addi	s7,s7,-5
    12b0:	010b9b93          	slli	s7,s7,0x10
    12b4:	410bdb93          	srai	s7,s7,0x10

000012b8 <.L1028>:
    12b8:	01711723          	sh	s7,14(sp)
    12bc:	01f00b93          	li	s7,31
    12c0:	013bc463          	blt	s7,s3,12c8 <.L1037>
    12c4:	7d10306f          	j	5294 <.L1038>

000012c8 <.L1037>:
    12c8:	00600b93          	li	s7,6
    12cc:	011bd863          	bge	s7,a7,12dc <.L1043>

000012d0 <.L1046>:
    12d0:	00815b83          	lhu	s7,8(sp)
    12d4:	ff7b8b93          	addi	s7,s7,-9
    12d8:	01711423          	sh	s7,8(sp)

000012dc <.L1043>:
    12dc:	03100b93          	li	s7,49
    12e0:	01fbd463          	bge	s7,t6,12e8 <.L2891>
    12e4:	7d90306f          	j	52bc <.L1051>

000012e8 <.L2891>:
    12e8:	1f500b93          	li	s7,501
    12ec:	00ebd463          	bge	s7,a4,12f4 <.L1052>
    12f0:	75d0406f          	j	624c <.L1042>

000012f4 <.L1052>:
    12f4:	ff900b93          	li	s7,-7
    12f8:	01784463          	blt	a6,s7,1300 <.L1052+0xc>
    12fc:	0440806f          	j	9340 <.L1041>
    1300:	00a15b83          	lhu	s7,10(sp)
    1304:	ffeb8b93          	addi	s7,s7,-2
    1308:	010b9b93          	slli	s7,s7,0x10
    130c:	410bdb93          	srai	s7,s7,0x10

00001310 <.L1045>:
    1310:	01711523          	sh	s7,10(sp)
    1314:	0c100b93          	li	s7,193
    1318:	469bc8e3          	blt	s7,s1,1f88 <.L1056>

0000131c <.L2795>:
    131c:	03800b93          	li	s7,56
    1320:	00fbd463          	bge	s7,a5,1328 <.L2795+0xc>
    1324:	2c10506f          	j	6de4 <.L1057>
    1328:	ff900c13          	li	s8,-7
    132c:	01864463          	blt	a2,s8,1334 <.L2795+0x18>
    1330:	76c0706f          	j	8a9c <.L1058>
    1334:	00c15c03          	lhu	s8,12(sp)
    1338:	02f00c93          	li	s9,47
    133c:	005c0c13          	addi	s8,s8,5
    1340:	01811623          	sh	s8,12(sp)
    1344:	010cc463          	blt	s9,a6,134c <.L2795+0x30>
    1348:	26c0206f          	j	35b4 <.L2730>
    134c:	e1900b93          	li	s7,-487
    1350:	017a4463          	blt	s4,s7,1358 <.L1062>
    1354:	0cd0a06f          	j	bc20 <.L2764>

00001358 <.L1062>:
    1358:	00300b93          	li	s7,3
    135c:	00dbd463          	bge	s7,a3,1364 <.L1062+0xc>
    1360:	5540906f          	j	a8b4 <.L1073>
    1364:	00815b83          	lhu	s7,8(sp)
    1368:	003b8b93          	addi	s7,s7,3
    136c:	010b9b93          	slli	s7,s7,0x10
    1370:	410bdb93          	srai	s7,s7,0x10

00001374 <.L1092>:
    1374:	01711423          	sh	s7,8(sp)
    1378:	30000b93          	li	s7,768
    137c:	4bebc4e3          	blt	s7,t5,2024 <.L1095>

00001380 <.L1085>:
    1380:	ff800b93          	li	s7,-8
    1384:	01764463          	blt	a2,s7,138c <.L1085+0xc>
    1388:	7680706f          	j	8af0 <.L1096>
    138c:	1dc00b93          	li	s7,476
    1390:	016bc863          	blt	s7,s6,13a0 <.L1097>
    1394:	00a15b83          	lhu	s7,10(sp)
    1398:	ff9b8b93          	addi	s7,s7,-7
    139c:	01711523          	sh	s7,10(sp)

000013a0 <.L1097>:
    13a0:	04900b93          	li	s7,73
    13a4:	011bd463          	bge	s7,a7,13ac <.L1097+0xc>
    13a8:	0140406f          	j	53bc <.L1105>
    13ac:	02000b93          	li	s7,32
    13b0:	01dbd463          	bge	s7,t4,13b8 <.L1097+0x18>
    13b4:	2d50606f          	j	7e88 <.L1103>
    13b8:	16300b93          	li	s7,355
    13bc:	4bebc2e3          	blt	s7,t5,2060 <.L1102>
    13c0:	00c15b83          	lhu	s7,12(sp)
    13c4:	fffb8b93          	addi	s7,s7,-1
    13c8:	01711623          	sh	s7,12(sp)

000013cc <.L1108>:
    13cc:	e4a00b93          	li	s7,-438
    13d0:	4b72d2e3          	bge	t0,s7,2074 <.L1112>

000013d4 <.L2796>:
    13d4:	03d00b93          	li	s7,61
    13d8:	00fbc463          	blt	s7,a5,13e0 <.L2796+0xc>
    13dc:	0340606f          	j	7410 <.L1113>
    13e0:	01100b93          	li	s7,17
    13e4:	011bd463          	bge	s7,a7,13ec <.L2796+0x18>
    13e8:	0100406f          	j	53f8 <.L1114>
    13ec:	00e15b83          	lhu	s7,14(sp)
    13f0:	01500c13          	li	s8,21
    13f4:	008b8b93          	addi	s7,s7,8
    13f8:	01711723          	sh	s7,14(sp)
    13fc:	4a7c52e3          	bge	s8,t2,20a0 <.L1118>

00001400 <.L2601>:
    1400:	0fd00b93          	li	s7,253
    1404:	007bc463          	blt	s7,t2,140c <.L1120>
    1408:	17c0406f          	j	5584 <.L1119>

0000140c <.L1120>:
    140c:	e4300b93          	li	s7,-445
    1410:	01744463          	blt	s0,s7,1418 <.L1120+0xc>
    1414:	50c0806f          	j	9920 <.L1131>
    1418:	00815b83          	lhu	s7,8(sp)
    141c:	ff7b8b93          	addi	s7,s7,-9
    1420:	010b9b93          	slli	s7,s7,0x10
    1424:	410bdb93          	srai	s7,s7,0x10

00001428 <.L1127>:
    1428:	01711423          	sh	s7,8(sp)
    142c:	03300b93          	li	s7,51
    1430:	4bfbc2e3          	blt	s7,t6,20d4 <.L1129>

00001434 <.L2797>:
    1434:	fe200b93          	li	s7,-30
    1438:	01764463          	blt	a2,s7,1440 <.L2797+0xc>
    143c:	63c0606f          	j	7a78 <.L1128>
    1440:	e3d00b93          	li	s7,-451
    1444:	01744463          	blt	s0,s7,144c <.L2797+0x18>
    1448:	4fc0806f          	j	9944 <.L1132>
    144c:	00a15b83          	lhu	s7,10(sp)
    1450:	ffab8b93          	addi	s7,s7,-6
    1454:	010b9b93          	slli	s7,s7,0x10
    1458:	410bdb93          	srai	s7,s7,0x10

0000145c <.L1133>:
    145c:	01711523          	sh	s7,10(sp)
    1460:	00100b93          	li	s7,1
    1464:	4bcbd2e3          	bge	s7,t3,2108 <.L2765>

00001468 <.L1138>:
    1468:	01500b93          	li	s7,21
    146c:	01dbd463          	bge	s7,t4,1474 <.L1138+0xc>
    1470:	2810406f          	j	5ef0 <.L1142>
    1474:	20f00b93          	li	s7,527
    1478:	016bc463          	blt	s7,s6,1480 <.L1138+0x18>
    147c:	2e90406f          	j	5f64 <.L1144>
    1480:	00c15b83          	lhu	s7,12(sp)
    1484:	00ab8b93          	addi	s7,s7,10
    1488:	010b9b93          	slli	s7,s7,0x10
    148c:	410bdb93          	srai	s7,s7,0x10

00001490 <.L1140>:
    1490:	01711623          	sh	s7,12(sp)
    1494:	03e00b93          	li	s7,62
    1498:	48fbcce3          	blt	s7,a5,2130 <.L1145>

0000149c <.L2798>:
    149c:	03800b93          	li	s7,56
    14a0:	01fbd463          	bge	s7,t6,14a8 <.L2798+0xc>
    14a4:	2d90606f          	j	7f7c <.L1146>
    14a8:	f5400b93          	li	s7,-172
    14ac:	01744463          	blt	s0,s7,14b4 <.L2798+0x18>
    14b0:	6200806f          	j	9ad0 <.L1147>
    14b4:	00e15b83          	lhu	s7,14(sp)
    14b8:	005b8b93          	addi	s7,s7,5
    14bc:	010b9b93          	slli	s7,s7,0x10
    14c0:	410bdb93          	srai	s7,s7,0x10

000014c4 <.L1148>:
    14c4:	01711723          	sh	s7,14(sp)
    14c8:	01f00b93          	li	s7,31
    14cc:	013bd463          	bge	s7,s3,14d4 <.L1148+0x10>
    14d0:	3ac0306f          	j	487c <.L1152>
    14d4:	03b00b93          	li	s7,59
    14d8:	00fbd463          	bge	s7,a5,14e0 <.L1148+0x1c>
    14dc:	6a40706f          	j	8b80 <.L1153>
    14e0:	1ed00b93          	li	s7,493
    14e4:	009bd463          	bge	s7,s1,14ec <.L1148+0x28>
    14e8:	0850506f          	j	6d6c <.L1154>
    14ec:	00815b83          	lhu	s7,8(sp)
    14f0:	1b900c13          	li	s8,441
    14f4:	ffeb8b93          	addi	s7,s7,-2
    14f8:	01711423          	sh	s7,8(sp)
    14fc:	01ec4463          	blt	s8,t5,1504 <.L1155>
    1500:	0850506f          	j	6d84 <.L1158>

00001504 <.L1155>:
    1504:	03200b93          	li	s7,50
    1508:	01dbd463          	bge	s7,t4,1510 <.L1155+0xc>
    150c:	7590706f          	j	9464 <.L1176>
    1510:	ff200b93          	li	s7,-14
    1514:	01764463          	blt	a2,s7,151c <.L1155+0x18>
    1518:	6f80a06f          	j	bc10 <.L1177>
    151c:	00a15b83          	lhu	s7,10(sp)
    1520:	ff7b8b93          	addi	s7,s7,-9
    1524:	01711523          	sh	s7,10(sp)

00001528 <.L1174>:
    1528:	00f00b93          	li	s7,15
    152c:	010bd463          	bge	s7,a6,1534 <.L1188>
    1530:	5600206f          	j	3a90 <.L1196>

00001534 <.L1188>:
    1534:	f6300b93          	li	s7,-157
    1538:	0175c463          	blt	a1,s7,1540 <.L1188+0xc>
    153c:	7c10606f          	j	84fc <.L2766>
    1540:	00c15b83          	lhu	s7,12(sp)
    1544:	ffcb8b93          	addi	s7,s7,-4
    1548:	010b9b93          	slli	s7,s7,0x10
    154c:	410bdb93          	srai	s7,s7,0x10
    1550:	01711623          	sh	s7,12(sp)
    1554:	0d800b93          	li	s7,216
    1558:	492bd0e3          	bge	s7,s2,21d8 <.L2767>

0000155c <.L1195>:
    155c:	38f00b93          	li	s7,911
    1560:	006bd463          	bge	s7,t1,1568 <.L1195+0xc>
    1564:	5340606f          	j	7a98 <.L1203>
    1568:	1ca00b93          	li	s7,458
    156c:	01ebd463          	bge	s7,t5,1574 <.L1195+0x18>
    1570:	4310206f          	j	41a0 <.L1204>
    1574:	00e15b83          	lhu	s7,14(sp)
    1578:	00400c13          	li	s8,4
    157c:	007b8b93          	addi	s7,s7,7
    1580:	01711723          	sh	s7,14(sp)
    1584:	011c4463          	blt	s8,a7,158c <.L1195+0x30>
    1588:	1910306f          	j	4f18 <.L1209>
    158c:	00e00b93          	li	s7,14
    1590:	01dbc463          	blt	s7,t4,1598 <.L1195+0x3c>
    1594:	42d0206f          	j	41c0 <.L1218>
    1598:	0ac00b93          	li	s7,172
    159c:	01ebc463          	blt	s7,t5,15a4 <.L1195+0x48>
    15a0:	5280606f          	j	7ac8 <.L1219>
    15a4:	03500b93          	li	s7,53
    15a8:	00ebd463          	bge	s7,a4,15b0 <.L1215>
    15ac:	5340606f          	j	7ae0 <.L2606>

000015b0 <.L1215>:
    15b0:	01900b93          	li	s7,25
    15b4:	00dbd463          	bge	s7,a3,15bc <.L1215+0xc>
    15b8:	63c0606f          	j	7bf4 <.L1225>
    15bc:	00c00b93          	li	s7,12
    15c0:	49cbc8e3          	blt	s7,t3,2250 <.L2692>
    15c4:	00a15b83          	lhu	s7,10(sp)
    15c8:	0c100c13          	li	s8,193
    15cc:	001b8b93          	addi	s7,s7,1
    15d0:	01711523          	sh	s7,10(sp)
    15d4:	489c48e3          	blt	s8,s1,2264 <.L2607>

000015d8 <.L1228>:
    15d8:	fae00b93          	li	s7,-82
    15dc:	0175c463          	blt	a1,s7,15e4 <.L1228+0xc>
    15e0:	0ed0606f          	j	7ecc <.L1238>
    15e4:	ea900b93          	li	s7,-343
    15e8:	017a4463          	blt	s4,s7,15f0 <.L1228+0x18>
    15ec:	5600906f          	j	ab4c <.L1239>
    15f0:	00c15b83          	lhu	s7,12(sp)
    15f4:	002b8b93          	addi	s7,s7,2
    15f8:	010b9b93          	slli	s7,s7,0x10
    15fc:	410bdb93          	srai	s7,s7,0x10
    1600:	01711623          	sh	s7,12(sp)
    1604:	03600b93          	li	s7,54
    1608:	48fbd2e3          	bge	s7,a5,228c <.L2768>

0000160c <.L1244>:
    160c:	e4a00b93          	li	s7,-438
    1610:	0172c463          	blt	t0,s7,1618 <.L1244+0xc>
    1614:	3c90506f          	j	71dc <.L1257>
    1618:	03d00b93          	li	s7,61
    161c:	00fbd463          	bge	s7,a5,1624 <.L1244+0x18>
    1620:	4910706f          	j	92b0 <.L1258>
    1624:	00e15b83          	lhu	s7,14(sp)
    1628:	ff8b8b93          	addi	s7,s7,-8
    162c:	010b9b93          	slli	s7,s7,0x10
    1630:	410bdb93          	srai	s7,s7,0x10

00001634 <.L1259>:
    1634:	01711723          	sh	s7,14(sp)
    1638:	01500b93          	li	s7,21
    163c:	007bc463          	blt	s7,t2,1644 <.L1259+0x10>
    1640:	7cd0206f          	j	460c <.L1254>
    1644:	11d00b93          	li	s7,285
    1648:	007bd463          	bge	s7,t2,1650 <.L1259+0x1c>
    164c:	4890706f          	j	92d4 <.L1256>
    1650:	03b00b93          	li	s7,59
    1654:	00fbc463          	blt	s7,a5,165c <.L1260>
    1658:	4d40706f          	j	8b2c <.L1255>

0000165c <.L1260>:
    165c:	00815b83          	lhu	s7,8(sp)
    1660:	08c00c13          	li	s8,140
    1664:	001b8b93          	addi	s7,s7,1
    1668:	01711423          	sh	s7,8(sp)
    166c:	466c54e3          	bge	s8,t1,22d4 <.L1250>
    1670:	00c00b93          	li	s7,12
    1674:	01cbd463          	bge	s7,t3,167c <.L1260+0x20>
    1678:	7cd0206f          	j	4644 <.L1275>
    167c:	01700b93          	li	s7,23
    1680:	49dbd0e3          	bge	s7,t4,2300 <.L1279>

00001684 <.L1268>:
    1684:	00a15b83          	lhu	s7,10(sp)
    1688:	03300c13          	li	s8,51
    168c:	007b8b93          	addi	s7,s7,7
    1690:	01711523          	sh	s7,10(sp)
    1694:	00fc4463          	blt	s8,a5,169c <.L1268+0x18>
    1698:	7d90206f          	j	4670 <.L2733>
    169c:	04700b93          	li	s7,71
    16a0:	007bd463          	bge	s7,t2,16a8 <.L1266>
    16a4:	6c40406f          	j	5d68 <.L1295>

000016a8 <.L1266>:
    16a8:	2bd00b93          	li	s7,701
    16ac:	009bd463          	bge	s7,s1,16b4 <.L1266+0xc>
    16b0:	5490806f          	j	a3f8 <.L2769>
    16b4:	00c15b83          	lhu	s7,12(sp)
    16b8:	03c00c13          	li	s8,60
    16bc:	ff7b8b93          	addi	s7,s7,-9
    16c0:	01711623          	sh	s7,12(sp)
    16c4:	00fc4463          	blt	s8,a5,16cc <.L2611>
    16c8:	7cd0206f          	j	4694 <.L1292>

000016cc <.L2611>:
    16cc:	0d400b93          	li	s7,212
    16d0:	00ebd463          	bge	s7,a4,16d8 <.L1310>
    16d4:	7840706f          	j	8e58 <.L1307>

000016d8 <.L1310>:
    16d8:	00e15b83          	lhu	s7,14(sp)
    16dc:	ffe00c13          	li	s8,-2
    16e0:	008b8b93          	addi	s7,s7,8
    16e4:	01711723          	sh	s7,14(sp)
    16e8:	45885ee3          	bge	a6,s8,2344 <.L1321>

000016ec <.L1300>:
    16ec:	0ce00b93          	li	s7,206
    16f0:	00dbd463          	bge	s7,a3,16f8 <.L1300+0xc>
    16f4:	7880206f          	j	3e7c <.L2770>
    16f8:	01c51c03          	lh	s8,28(a0)
    16fc:	03500b93          	li	s7,53
    1700:	018bc463          	blt	s7,s8,1708 <.L1300+0x1c>
    1704:	05d0906f          	j	af60 <.L1322>
    1708:	03400b93          	li	s7,52
    170c:	01dbc463          	blt	s7,t4,1714 <.L1323>
    1710:	78c0206f          	j	3e9c <.L1329>

00001714 <.L1323>:
    1714:	1db00b93          	li	s7,475
    1718:	016bd463          	bge	s7,s6,1720 <.L1330>
    171c:	6c80606f          	j	7de4 <.L1326>

00001720 <.L1330>:
    1720:	00a15b83          	lhu	s7,10(sp)
    1724:	02a00c13          	li	s8,42
    1728:	005b8b93          	addi	s7,s7,5
    172c:	01711523          	sh	s7,10(sp)
    1730:	46dc54e3          	bge	s8,a3,2398 <.L1327>

00001734 <.L1328>:
    1734:	02700b93          	li	s7,39
    1738:	00ebd463          	bge	s7,a4,1740 <.L1328+0xc>
    173c:	65d0306f          	j	5598 <.L2771>
    1740:	00900b93          	li	s7,9
    1744:	012bd463          	bge	s7,s2,174c <.L1328+0x18>
    1748:	5e10906f          	j	b528 <.L2772>
    174c:	00c15b83          	lhu	s7,12(sp)
    1750:	001b8b93          	addi	s7,s7,1
    1754:	01711623          	sh	s7,12(sp)
    1758:	4590006f          	j	23b0 <.L1360>

0000175c <.L2755>:
    175c:	18f00b93          	li	s7,399
    1760:	00dbd463          	bge	s7,a3,1768 <.L2755+0xc>
    1764:	0580406f          	j	57bc <.L550>
    1768:	1aa00b93          	li	s7,426
    176c:	016bd463          	bge	s7,s6,1774 <.L2755+0x18>
    1770:	5e90906f          	j	b558 <.L551>
    1774:	00815b83          	lhu	s7,8(sp)
    1778:	007b8b93          	addi	s7,s7,7
    177c:	010b9b93          	slli	s7,s7,0x10
    1780:	410bdb93          	srai	s7,s7,0x10
    1784:	c24ff06f          	j	ba8 <.L552>

00001788 <.L517>:
    1788:	00a15b83          	lhu	s7,10(sp)
    178c:	17000c13          	li	s8,368
    1790:	009b8b93          	addi	s7,s7,9
    1794:	01711523          	sh	s7,10(sp)
    1798:	00dc5463          	bge	s8,a3,17a0 <.L2575>
    179c:	5590206f          	j	44f4 <.L533>

000017a0 <.L2575>:
    17a0:	02200b93          	li	s7,34
    17a4:	01dbc463          	blt	s7,t4,17ac <.L531>
    17a8:	2b10706f          	j	9258 <.L530>

000017ac <.L531>:
    17ac:	00c15b83          	lhu	s7,12(sp)
    17b0:	ff6b8b93          	addi	s7,s7,-10
    17b4:	010b9b93          	slli	s7,s7,0x10
    17b8:	410bdb93          	srai	s7,s7,0x10
    17bc:	01711623          	sh	s7,12(sp)
    17c0:	e9900b93          	li	s7,-359
    17c4:	b975ce63          	blt	a1,s7,b60 <.L2773>

000017c8 <.L541>:
    17c8:	ee600b93          	li	s7,-282
    17cc:	017ac463          	blt	s5,s7,17d4 <.L541+0xc>
    17d0:	4180506f          	j	6be8 <.L545>
    17d4:	ffc00b93          	li	s7,-4
    17d8:	01734463          	blt	t1,s7,17e0 <.L541+0x18>
    17dc:	1f40406f          	j	59d0 <.L544>
    17e0:	00e15b83          	lhu	s7,14(sp)
    17e4:	002b8b93          	addi	s7,s7,2
    17e8:	01711723          	sh	s7,14(sp)
    17ec:	b8085c63          	bgez	a6,b84 <.L546>
    17f0:	18f00b93          	li	s7,399
    17f4:	00dbc463          	blt	s7,a3,17fc <.L547>
    17f8:	6540a06f          	j	be4c <.L2774>

000017fc <.L547>:
    17fc:	00815b83          	lhu	s7,8(sp)
    1800:	007b8b93          	addi	s7,s7,7
    1804:	01711423          	sh	s7,8(sp)

00001808 <.L549>:
    1808:	00400b93          	li	s7,4
    180c:	01cbd463          	bge	s7,t3,1814 <.L549+0xc>
    1810:	25d0406f          	j	626c <.L561>
    1814:	12e00b93          	li	s7,302
    1818:	00ebd463          	bge	s7,a4,1820 <.L549+0x18>
    181c:	4740806f          	j	9c90 <.L562>
    1820:	00a15b83          	lhu	s7,10(sp)
    1824:	17000c13          	li	s8,368
    1828:	ffeb8b93          	addi	s7,s7,-2
    182c:	01711523          	sh	s7,10(sp)
    1830:	badc5863          	bge	s8,a3,be0 <.L563>

00001834 <.L564>:
    1834:	ea700b93          	li	s7,-345
    1838:	017ad463          	bge	s5,s7,1840 <.L564+0xc>
    183c:	4d80706f          	j	8d14 <.L571>
    1840:	00c15b83          	lhu	s7,12(sp)
    1844:	e0800c13          	li	s8,-504
    1848:	ffdb8b93          	addi	s7,s7,-3
    184c:	01711623          	sh	s7,12(sp)
    1850:	01845463          	bge	s0,s8,1858 <.L2375>
    1854:	7dd0306f          	j	5830 <.L584>

00001858 <.L2375>:
    1858:	0de00b93          	li	s7,222
    185c:	012bd463          	bge	s7,s2,1864 <.L585>
    1860:	5d90606f          	j	8638 <.L586>

00001864 <.L585>:
    1864:	00e15b83          	lhu	s7,14(sp)
    1868:	ff8b8b93          	addi	s7,s7,-8
    186c:	01711723          	sh	s7,14(sp)
    1870:	0a900b93          	li	s7,169
    1874:	bdebc063          	blt	s7,t5,c34 <.L610>

00001878 <.L600>:
    1878:	01a00b93          	li	s7,26
    187c:	010bd463          	bge	s7,a6,1884 <.L600+0xc>
    1880:	0990506f          	j	7118 <.L611>
    1884:	11800b93          	li	s7,280
    1888:	bd2bc863          	blt	s7,s2,c58 <.L614>
    188c:	00815b83          	lhu	s7,8(sp)
    1890:	009b8b93          	addi	s7,s7,9
    1894:	01711423          	sh	s7,8(sp)
    1898:	03900b93          	li	s7,57
    189c:	bcebd263          	bge	s7,a4,c60 <.L2775>

000018a0 <.L618>:
    18a0:	ff900b93          	li	s7,-7
    18a4:	01764463          	blt	a2,s7,18ac <.L618+0xc>
    18a8:	6690406f          	j	6710 <.L627>
    18ac:	1d700b93          	li	s7,471
    18b0:	016bd463          	bge	s7,s6,18b8 <.L618+0x18>
    18b4:	5200906f          	j	add4 <.L628>
    18b8:	00a15b83          	lhu	s7,10(sp)
    18bc:	ff9b8b93          	addi	s7,s7,-7
    18c0:	010b9b93          	slli	s7,s7,0x10
    18c4:	410bdb93          	srai	s7,s7,0x10

000018c8 <.L629>:
    18c8:	01711523          	sh	s7,10(sp)
    18cc:	08900b93          	li	s7,137
    18d0:	00dbd463          	bge	s7,a3,18d8 <.L2907>
    18d4:	6690406f          	j	673c <.L633>

000018d8 <.L2907>:
    18d8:	03700b93          	li	s7,55
    18dc:	00fbd463          	bge	s7,a5,18e4 <.L2907+0xc>
    18e0:	5990406f          	j	6678 <.L634>
    18e4:	00900b93          	li	s7,9
    18e8:	bb1bda63          	bge	s7,a7,c9c <.L2274>

000018ec <.L635>:
    18ec:	00c15b83          	lhu	s7,12(sp)
    18f0:	002b8b93          	addi	s7,s7,2
    18f4:	01711623          	sh	s7,12(sp)
    18f8:	03000b93          	li	s7,48
    18fc:	bbfbda63          	bge	s7,t6,cb0 <.L2776>

00001900 <.L646>:
    1900:	faf00b93          	li	s7,-81
    1904:	017a4463          	blt	s4,s7,190c <.L646+0xc>
    1908:	6410806f          	j	a748 <.L654>
    190c:	00e15b83          	lhu	s7,14(sp)
    1910:	0a900c13          	li	s8,169
    1914:	ff6b8b93          	addi	s7,s7,-10
    1918:	01711723          	sh	s7,14(sp)
    191c:	bbec4863          	blt	s8,t5,ccc <.L2583>

00001920 <.L648>:
    1920:	01a00b93          	li	s7,26
    1924:	010bd463          	bge	s7,a6,192c <.L648+0xc>
    1928:	7c90506f          	j	78f0 <.L651>
    192c:	11800b93          	li	s7,280
    1930:	bb2bca63          	blt	s7,s2,ce4 <.L649>
    1934:	00815b83          	lhu	s7,8(sp)
    1938:	008b8b93          	addi	s7,s7,8
    193c:	01711423          	sh	s7,8(sp)
    1940:	0b500b93          	li	s7,181
    1944:	ba6bd463          	bge	s7,t1,cec <.L2777>

00001948 <.L659>:
    1948:	00400b93          	li	s7,4
    194c:	01cbd463          	bge	s7,t3,1954 <.L659+0xc>
    1950:	0250406f          	j	6174 <.L664>
    1954:	0bb00b93          	li	s7,187
    1958:	016bd463          	bge	s7,s6,1960 <.L659+0x18>
    195c:	5a50706f          	j	9700 <.L665>
    1960:	00a15b83          	lhu	s7,10(sp)
    1964:	ff7b8b93          	addi	s7,s7,-9
    1968:	010b9b93          	slli	s7,s7,0x10
    196c:	410bdb93          	srai	s7,s7,0x10
    1970:	01711523          	sh	s7,10(sp)
    1974:	27a00b93          	li	s7,634
    1978:	badbd463          	bge	s7,a3,d20 <.L2778>

0000197c <.L667>:
    197c:	ed100b93          	li	s7,-303
    1980:	017ac463          	blt	s5,s7,1988 <.L667+0xc>
    1984:	0380506f          	j	69bc <.L672>
    1988:	3fa00b93          	li	s7,1018
    198c:	baebcc63          	blt	s7,a4,d44 <.L670>
    1990:	00c15b83          	lhu	s7,12(sp)
    1994:	00ab8b93          	addi	s7,s7,10
    1998:	01711623          	sh	s7,12(sp)
    199c:	d8200b93          	li	s7,-638
    19a0:	bb75c663          	blt	a1,s7,d4c <.L2779>

000019a4 <.L673>:
    19a4:	0de00b93          	li	s7,222
    19a8:	012bd463          	bge	s7,s2,19b0 <.L673+0xc>
    19ac:	5740406f          	j	5f20 <.L678>
    19b0:	03e00b93          	li	s7,62
    19b4:	00fbd463          	bge	s7,a5,19bc <.L673+0x18>
    19b8:	2b40806f          	j	9c6c <.L679>
    19bc:	00e15b83          	lhu	s7,14(sp)
    19c0:	ffbb8b93          	addi	s7,s7,-5
    19c4:	010b9b93          	slli	s7,s7,0x10
    19c8:	410bdb93          	srai	s7,s7,0x10
    19cc:	01711723          	sh	s7,14(sp)
    19d0:	ba085663          	bgez	a6,d7c <.L682>

000019d4 <.L2269>:
    19d4:	0cd00b93          	li	s7,205
    19d8:	00dbd463          	bge	s7,a3,19e0 <.L2269+0xc>
    19dc:	6380706f          	j	9014 <.L683>
    19e0:	1aa00b93          	li	s7,426
    19e4:	016bd463          	bge	s7,s6,19ec <.L2269+0x18>
    19e8:	1e10906f          	j	b3c8 <.L684>
    19ec:	00815b83          	lhu	s7,8(sp)
    19f0:	07200c13          	li	s8,114
    19f4:	006b8b93          	addi	s7,s7,6
    19f8:	01711423          	sh	s7,8(sp)
    19fc:	baec5c63          	bge	s8,a4,db4 <.L685>

00001a00 <.L690>:
    1a00:	03300b93          	li	s7,51
    1a04:	01fbd463          	bge	s7,t6,1a0c <.L690+0xc>
    1a08:	3540806f          	j	9d5c <.L2780>
    1a0c:	00a15b83          	lhu	s7,10(sp)
    1a10:	ffab8b93          	addi	s7,s7,-6
    1a14:	010b9b93          	slli	s7,s7,0x10
    1a18:	410bdb93          	srai	s7,s7,0x10

00001a1c <.L701>:
    1a1c:	01711523          	sh	s7,10(sp)
    1a20:	ffa00b93          	li	s7,-6
    1a24:	bb765e63          	bge	a2,s7,de0 <.L703>

00001a28 <.L2268>:
    1a28:	01000b93          	li	s7,16
    1a2c:	01dbd463          	bge	s7,t4,1a34 <.L2927>
    1a30:	41c0606f          	j	7e4c <.L704>

00001a34 <.L2927>:
    1a34:	00c00b93          	li	s7,12
    1a38:	011bd463          	bge	s7,a7,1a40 <.L2927+0xc>
    1a3c:	7450706f          	j	9980 <.L705>
    1a40:	00c15b83          	lhu	s7,12(sp)
    1a44:	001b8b93          	addi	s7,s7,1
    1a48:	010b9b93          	slli	s7,s7,0x10
    1a4c:	410bdb93          	srai	s7,s7,0x10
    1a50:	01711623          	sh	s7,12(sp)
    1a54:	03900b93          	li	s7,57
    1a58:	bcfbd063          	bge	s7,a5,e18 <.L2781>

00001a5c <.L710>:
    1a5c:	e4a00b93          	li	s7,-438
    1a60:	0172c463          	blt	t0,s7,1a68 <.L710+0xc>
    1a64:	1680506f          	j	6bcc <.L723>
    1a68:	03d00b93          	li	s7,61
    1a6c:	00fbd463          	bge	s7,a5,1a74 <.L710+0x18>
    1a70:	1a80806f          	j	9c18 <.L724>
    1a74:	00e15b83          	lhu	s7,14(sp)
    1a78:	ff8b8b93          	addi	s7,s7,-8
    1a7c:	01711723          	sh	s7,14(sp)

00001a80 <.L722>:
    1a80:	0a900b93          	li	s7,169
    1a84:	01ebd463          	bge	s7,t5,1a8c <.L722+0xc>
    1a88:	6690306f          	j	58f0 <.L725>
    1a8c:	01a00b93          	li	s7,26
    1a90:	010bd463          	bge	s7,a6,1a98 <.L722+0x18>
    1a94:	0810706f          	j	9314 <.L726>
    1a98:	11800b93          	li	s7,280
    1a9c:	012bc863          	blt	s7,s2,1aac <.L718>
    1aa0:	00815b83          	lhu	s7,8(sp)
    1aa4:	008b8b93          	addi	s7,s7,8
    1aa8:	01711423          	sh	s7,8(sp)

00001aac <.L718>:
    1aac:	0f000b93          	li	s7,240
    1ab0:	ba6bd863          	bge	s7,t1,e60 <.L715>
    1ab4:	d6c00b93          	li	s7,-660
    1ab8:	017ac463          	blt	s5,s7,1ac0 <.L718+0x14>
    1abc:	4f10506f          	j	77ac <.L747>
    1ac0:	ff400b93          	li	s7,-12
    1ac4:	01764463          	blt	a2,s7,1acc <.L718+0x20>
    1ac8:	66c0506f          	j	7134 <.L748>
    1acc:	00a15b83          	lhu	s7,10(sp)
    1ad0:	0dd00c13          	li	s8,221
    1ad4:	ff7b8b93          	addi	s7,s7,-9
    1ad8:	01711523          	sh	s7,10(sp)
    1adc:	00dc4463          	blt	s8,a3,1ae4 <.L718+0x38>
    1ae0:	6b40306f          	j	5194 <.L749>
    1ae4:	25b00b93          	li	s7,603
    1ae8:	00ebd463          	bge	s7,a4,1af0 <.L750>
    1aec:	3b40306f          	j	4ea0 <.L772>

00001af0 <.L750>:
    1af0:	03d00b93          	li	s7,61
    1af4:	00fbc463          	blt	s7,a5,1afc <.L750+0xc>
    1af8:	5bc0806f          	j	a0b4 <.L753>
    1afc:	00c15b83          	lhu	s7,12(sp)
    1b00:	03e00c13          	li	s8,62
    1b04:	ffcb8b93          	addi	s7,s7,-4
    1b08:	01711623          	sh	s7,12(sp)
    1b0c:	01878463          	beq	a5,s8,1b14 <.L754>
    1b10:	3a80306f          	j	4eb8 <.L752>

00001b14 <.L754>:
    1b14:	03800b93          	li	s7,56
    1b18:	00ebc463          	blt	s7,a4,1b20 <.L751>
    1b1c:	2cc0306f          	j	4de8 <.L769>

00001b20 <.L751>:
    1b20:	c3900b93          	li	s7,-967
    1b24:	0175c463          	blt	a1,s7,1b2c <.L751+0xc>
    1b28:	45c0706f          	j	8f84 <.L767>
    1b2c:	00e15b83          	lhu	s7,14(sp)
    1b30:	008b8b93          	addi	s7,s7,8
    1b34:	010b9b93          	slli	s7,s7,0x10
    1b38:	410bdb93          	srai	s7,s7,0x10

00001b3c <.L779>:
    1b3c:	01711723          	sh	s7,14(sp)
    1b40:	ffe00b93          	li	s7,-2
    1b44:	01785463          	bge	a6,s7,1b4c <.L786>
    1b48:	2c00306f          	j	4e08 <.L783>

00001b4c <.L786>:
    1b4c:	0ba00b93          	li	s7,186
    1b50:	012bd463          	bge	s7,s2,1b58 <.L786+0xc>
    1b54:	3900306f          	j	4ee4 <.L777>
    1b58:	03800b93          	li	s7,56
    1b5c:	b8fbca63          	blt	s7,a5,ef0 <.L784>

00001b60 <.L792>:
    1b60:	00815b83          	lhu	s7,8(sp)
    1b64:	ffdb8b93          	addi	s7,s7,-3
    1b68:	010b9b93          	slli	s7,s7,0x10
    1b6c:	410bdb93          	srai	s7,s7,0x10
    1b70:	01711423          	sh	s7,8(sp)
    1b74:	03300b93          	li	s7,51
    1b78:	b9fbca63          	blt	s7,t6,f0c <.L794>

00001b7c <.L788>:
    1b7c:	fe200b93          	li	s7,-30
    1b80:	01764463          	blt	a2,s7,1b88 <.L788+0xc>
    1b84:	61c0506f          	j	71a0 <.L795>
    1b88:	e3d00b93          	li	s7,-451
    1b8c:	01744463          	blt	s0,s7,1b94 <.L788+0x18>
    1b90:	5000806f          	j	a090 <.L796>
    1b94:	00a15b83          	lhu	s7,10(sp)
    1b98:	ff8b8b93          	addi	s7,s7,-8
    1b9c:	010b9b93          	slli	s7,s7,0x10
    1ba0:	010bdb93          	srli	s7,s7,0x10
    1ba4:	01711523          	sh	s7,10(sp)

00001ba8 <.L797>:
    1ba8:	01000b93          	li	s7,16
    1bac:	01dbd463          	bge	s7,t4,1bb4 <.L797+0xc>
    1bb0:	5850606f          	j	8934 <.L808>
    1bb4:	00100b93          	li	s7,1
    1bb8:	01cbc463          	blt	s7,t3,1bc0 <.L797+0x18>
    1bbc:	7b00906f          	j	b36c <.L2782>
    1bc0:	00c15b83          	lhu	s7,12(sp)
    1bc4:	009b8b93          	addi	s7,s7,9
    1bc8:	010b9b93          	slli	s7,s7,0x10
    1bcc:	410bdb93          	srai	s7,s7,0x10

00001bd0 <.L810>:
    1bd0:	01711623          	sh	s7,12(sp)
    1bd4:	03e00b93          	li	s7,62
    1bd8:	00fbc463          	blt	s7,a5,1be0 <.L810+0x10>
    1bdc:	5900306f          	j	516c <.L816>
    1be0:	fec00b93          	li	s7,-20
    1be4:	b7765663          	bge	a2,s7,f50 <.L817>
    1be8:	00e15b83          	lhu	s7,14(sp)
    1bec:	ffeb8b93          	addi	s7,s7,-2
    1bf0:	010b9b93          	slli	s7,s7,0x10
    1bf4:	410bdb93          	srai	s7,s7,0x10
    1bf8:	01711723          	sh	s7,14(sp)
    1bfc:	01f00b93          	li	s7,31
    1c00:	b73bd663          	bge	s7,s3,f6c <.L2783>

00001c04 <.L822>:
    1c04:	00500b93          	li	s7,5
    1c08:	b91bd263          	bge	s7,a7,f8c <.L825>
    1c0c:	00815b83          	lhu	s7,8(sp)
    1c10:	ff7b8b93          	addi	s7,s7,-9
    1c14:	01711423          	sh	s7,8(sp)
    1c18:	1ac00b93          	li	s7,428
    1c1c:	b76bdc63          	bge	s7,s6,f94 <.L2784>

00001c20 <.L826>:
    1c20:	0a500b93          	li	s7,165
    1c24:	00ebd463          	bge	s7,a4,1c2c <.L826+0xc>
    1c28:	5880406f          	j	61b0 <.L834>
    1c2c:	1ff00b93          	li	s7,511
    1c30:	009bd463          	bge	s7,s1,1c38 <.L826+0x18>
    1c34:	2590806f          	j	a68c <.L835>
    1c38:	00a15b83          	lhu	s7,10(sp)
    1c3c:	006b8b93          	addi	s7,s7,6
    1c40:	010b9b93          	slli	s7,s7,0x10
    1c44:	410bdb93          	srai	s7,s7,0x10
    1c48:	01711523          	sh	s7,10(sp)
    1c4c:	27a00b93          	li	s7,634
    1c50:	b6dbdc63          	bge	s7,a3,fc8 <.L2785>

00001c54 <.L837>:
    1c54:	ff700b93          	li	s7,-9
    1c58:	01764463          	blt	a2,s7,1c60 <.L837+0xc>
    1c5c:	5290306f          	j	5984 <.L831>
    1c60:	0e600b93          	li	s7,230
    1c64:	009bd463          	bge	s7,s1,1c6c <.L837+0x18>
    1c68:	3990806f          	j	a800 <.L843>
    1c6c:	00c15b83          	lhu	s7,12(sp)
    1c70:	d2a00c13          	li	s8,-726
    1c74:	ffcb8b93          	addi	s7,s7,-4
    1c78:	01711623          	sh	s7,12(sp)
    1c7c:	0185d463          	bge	a1,s8,1c84 <.L2592>
    1c80:	0580506f          	j	6cd8 <.L844>

00001c84 <.L2592>:
    1c84:	eea00b93          	li	s7,-278
    1c88:	017a4463          	blt	s4,s7,1c90 <.L852>
    1c8c:	0680506f          	j	6cf4 <.L845>

00001c90 <.L852>:
    1c90:	00e15b83          	lhu	s7,14(sp)
    1c94:	ff8b8b93          	addi	s7,s7,-8
    1c98:	01711723          	sh	s7,14(sp)
    1c9c:	0a900b93          	li	s7,169
    1ca0:	b7ebc863          	blt	s7,t5,1010 <.L2786>

00001ca4 <.L860>:
    1ca4:	fff00b93          	li	s7,-1
    1ca8:	017e5463          	bge	t3,s7,1cb0 <.L860+0xc>
    1cac:	75c0406f          	j	6408 <.L2787>
    1cb0:	09e00b93          	li	s7,158
    1cb4:	b92bc063          	blt	s7,s2,1034 <.L859>
    1cb8:	00815b83          	lhu	s7,8(sp)
    1cbc:	008b8b93          	addi	s7,s7,8
    1cc0:	01711423          	sh	s7,8(sp)
    1cc4:	0b500b93          	li	s7,181
    1cc8:	b66bda63          	bge	s7,t1,103c <.L2788>

00001ccc <.L865>:
    1ccc:	f5700b93          	li	s7,-169
    1cd0:	0175c463          	blt	a1,s7,1cd8 <.L865+0xc>
    1cd4:	0110406f          	j	64e4 <.L876>
    1cd8:	ff100b93          	li	s7,-15
    1cdc:	01764463          	blt	a2,s7,1ce4 <.L865+0x18>
    1ce0:	2610706f          	j	9740 <.L877>
    1ce4:	00a15b83          	lhu	s7,10(sp)
    1ce8:	fffb8b93          	addi	s7,s7,-1
    1cec:	01711523          	sh	s7,10(sp)

00001cf0 <.L878>:
    1cf0:	17000b93          	li	s7,368
    1cf4:	00dbc463          	blt	s7,a3,1cfc <.L880>
    1cf8:	0380706f          	j	8d30 <.L885>

00001cfc <.L880>:
    1cfc:	2ba00b93          	li	s7,698
    1d00:	00ebd463          	bge	s7,a4,1d08 <.L880+0xc>
    1d04:	7a10706f          	j	9ca4 <.L887>
    1d08:	00c15b83          	lhu	s7,12(sp)
    1d0c:	02f00c13          	li	s8,47
    1d10:	006b8b93          	addi	s7,s7,6
    1d14:	01711623          	sh	s7,12(sp)
    1d18:	b70c5e63          	bge	s8,a6,1094 <.L888>

00001d1c <.L889>:
    1d1c:	e0400b93          	li	s7,-508
    1d20:	0172c463          	blt	t0,s7,1d28 <.L889+0xc>
    1d24:	0090406f          	j	652c <.L903>
    1d28:	00e15b83          	lhu	s7,14(sp)
    1d2c:	ffdb8b93          	addi	s7,s7,-3
    1d30:	010b9b93          	slli	s7,s7,0x10
    1d34:	410bdb93          	srai	s7,s7,0x10
    1d38:	01711723          	sh	s7,14(sp)
    1d3c:	ec600b93          	li	s7,-314
    1d40:	b7745e63          	bge	s0,s7,10bc <.L2789>

00001d44 <.L904>:
    1d44:	01c51c03          	lh	s8,28(a0)
    1d48:	02600b93          	li	s7,38
    1d4c:	018bd463          	bge	s7,s8,1d54 <.L904+0x10>
    1d50:	3300606f          	j	8080 <.L2790>
    1d54:	e9900b93          	li	s7,-359
    1d58:	b972d463          	bge	t0,s7,10e0 <.L906>

00001d5c <.L907>:
    1d5c:	00815b83          	lhu	s7,8(sp)
    1d60:	ff7b8b93          	addi	s7,s7,-9
    1d64:	01711423          	sh	s7,8(sp)
    1d68:	03400b93          	li	s7,52
    1d6c:	b7dbde63          	bge	s7,t4,10e8 <.L2791>

00001d70 <.L909>:
    1d70:	1db00b93          	li	s7,475
    1d74:	016bd463          	bge	s7,s6,1d7c <.L909+0xc>
    1d78:	5700306f          	j	52e8 <.L916>
    1d7c:	ff400b93          	li	s7,-12
    1d80:	01764463          	blt	a2,s7,1d88 <.L909+0x18>
    1d84:	7690806f          	j	acec <.L917>
    1d88:	00a15b83          	lhu	s7,10(sp)
    1d8c:	03300c13          	li	s8,51
    1d90:	ffeb8b93          	addi	s7,s7,-2
    1d94:	01711523          	sh	s7,10(sp)
    1d98:	00fc4463          	blt	s8,a5,1da0 <.L918>
    1d9c:	5700306f          	j	530c <.L923>

00001da0 <.L918>:
    1da0:	d7800b93          	li	s7,-648
    1da4:	017a5463          	bge	s4,s7,1dac <.L920>
    1da8:	3bd0506f          	j	7964 <.L927>

00001dac <.L920>:
    1dac:	00c15b83          	lhu	s7,12(sp)
    1db0:	ffbb8b93          	addi	s7,s7,-5
    1db4:	010b9b93          	slli	s7,s7,0x10
    1db8:	410bdb93          	srai	s7,s7,0x10

00001dbc <.L931>:
    1dbc:	01711623          	sh	s7,12(sp)
    1dc0:	03900b93          	li	s7,57
    1dc4:	00fbc463          	blt	s7,a5,1dcc <.L941>
    1dc8:	55c0306f          	j	5324 <.L928>

00001dcc <.L941>:
    1dcc:	e4a00b93          	li	s7,-438
    1dd0:	0172d463          	bge	t0,s7,1dd8 <.L941+0xc>
    1dd4:	7b90606f          	j	8d8c <.L943>
    1dd8:	02200b93          	li	s7,34
    1ddc:	b90bd663          	bge	s7,a6,1168 <.L940>
    1de0:	00e15b83          	lhu	s7,14(sp)
    1de4:	008b8b93          	addi	s7,s7,8
    1de8:	01711723          	sh	s7,14(sp)
    1dec:	00c00b93          	li	s7,12
    1df0:	b93bd063          	bge	s7,s3,1170 <.L2792>

00001df4 <.L935>:
    1df4:	01c51c03          	lh	s8,28(a0)
    1df8:	03500b93          	li	s7,53
    1dfc:	018bd463          	bge	s7,s8,1e04 <.L935+0x10>
    1e00:	1480506f          	j	6f48 <.L953>
    1e04:	ffa00b93          	li	s7,-6
    1e08:	01794463          	blt	s2,s7,1e10 <.L935+0x1c>
    1e0c:	7c80706f          	j	95d4 <.L954>
    1e10:	00815b83          	lhu	s7,8(sp)
    1e14:	004b8b93          	addi	s7,s7,4
    1e18:	010b9b93          	slli	s7,s7,0x10
    1e1c:	410bdb93          	srai	s7,s7,0x10

00001e20 <.L948>:
    1e20:	01711423          	sh	s7,8(sp)
    1e24:	03300b93          	li	s7,51
    1e28:	01fbc463          	blt	s7,t6,1e30 <.L948+0x10>
    1e2c:	0b90206f          	j	46e4 <.L956>
    1e30:	01b00b93          	li	s7,27
    1e34:	b6ebc663          	blt	s7,a4,11a0 <.L949>
    1e38:	fcd00b93          	li	s7,-51
    1e3c:	0176c463          	blt	a3,s7,1e44 <.L948+0x24>
    1e40:	0500706f          	j	8e90 <.L971>
    1e44:	00a15b83          	lhu	s7,10(sp)
    1e48:	006b8b93          	addi	s7,s7,6
    1e4c:	01711523          	sh	s7,10(sp)
    1e50:	01300b93          	li	s7,19
    1e54:	b91bd063          	bge	s7,a7,11d4 <.L2793>

00001e58 <.L974>:
    1e58:	d8400b93          	li	s7,-636
    1e5c:	0172c463          	blt	t0,s7,1e64 <.L974+0xc>
    1e60:	2b90806f          	j	a918 <.L980>
    1e64:	00c15b83          	lhu	s7,12(sp)
    1e68:	002b8b93          	addi	s7,s7,2
    1e6c:	010b9b93          	slli	s7,s7,0x10
    1e70:	410bdb93          	srai	s7,s7,0x10

00001e74 <.L979>:
    1e74:	01711623          	sh	s7,12(sp)
    1e78:	cf000b93          	li	s7,-784
    1e7c:	0175d463          	bge	a1,s7,1e84 <.L976>
    1e80:	0ad0206f          	j	472c <.L962>

00001e84 <.L976>:
    1e84:	0de00b93          	li	s7,222
    1e88:	012bd463          	bge	s7,s2,1e90 <.L976+0xc>
    1e8c:	6c50406f          	j	6d50 <.L984>
    1e90:	02600b93          	li	s7,38
    1e94:	00dbd463          	bge	s7,a3,1e9c <.L976+0x18>
    1e98:	1250206f          	j	47bc <.L988>
    1e9c:	fa300b93          	li	s7,-93
    1ea0:	0172d463          	bge	t0,s7,1ea8 <.L994>
    1ea4:	7590306f          	j	5dfc <.L985>

00001ea8 <.L994>:
    1ea8:	efb00b93          	li	s7,-261
    1eac:	0175d463          	bge	a1,s7,1eb4 <.L994+0xc>
    1eb0:	0b90206f          	j	4768 <.L990>
    1eb4:	00815b83          	lhu	s7,8(sp)
    1eb8:	00ab8b93          	addi	s7,s7,10
    1ebc:	01711423          	sh	s7,8(sp)
    1ec0:	1ac00b93          	li	s7,428
    1ec4:	b76bd263          	bge	s7,s6,1228 <.L2794>

00001ec8 <.L1004>:
    1ec8:	0a500b93          	li	s7,165
    1ecc:	00ebd463          	bge	s7,a4,1ed4 <.L1004+0xc>
    1ed0:	5e80506f          	j	74b8 <.L1010>
    1ed4:	1ff00b93          	li	s7,511
    1ed8:	009bc463          	blt	s7,s1,1ee0 <.L1004+0x18>
    1edc:	1890506f          	j	7864 <.L1012>
    1ee0:	00a15b83          	lhu	s7,10(sp)
    1ee4:	ffab8b93          	addi	s7,s7,-6
    1ee8:	010b9b93          	slli	s7,s7,0x10
    1eec:	410bdb93          	srai	s7,s7,0x10
    1ef0:	01711523          	sh	s7,10(sp)
    1ef4:	03d00b93          	li	s7,61
    1ef8:	b6fbd263          	bge	s7,a5,125c <.L1013>

00001efc <.L1017>:
    1efc:	d9500b93          	li	s7,-619
    1f00:	017ad463          	bge	s5,s7,1f08 <.L1017+0xc>
    1f04:	5d40506f          	j	74d8 <.L1024>
    1f08:	55900b93          	li	s7,1369
    1f0c:	00dbd463          	bge	s7,a3,1f14 <.L1017+0x18>
    1f10:	2340806f          	j	a144 <.L1025>
    1f14:	00c15b83          	lhu	s7,12(sp)
    1f18:	ff7b8b93          	addi	s7,s7,-9
    1f1c:	01711623          	sh	s7,12(sp)

00001f20 <.L1014>:
    1f20:	11a00b93          	li	s7,282
    1f24:	007bd463          	bge	s7,t2,1f2c <.L1014+0xc>
    1f28:	47c0406f          	j	63a4 <.L1030>
    1f2c:	0db00b93          	li	s7,219
    1f30:	00ebd463          	bge	s7,a4,1f38 <.L1014+0x18>
    1f34:	1b50706f          	j	98e8 <.L1031>
    1f38:	00e15b83          	lhu	s7,14(sp)
    1f3c:	01f00c13          	li	s8,31
    1f40:	005b8b93          	addi	s7,s7,5
    1f44:	01711723          	sh	s7,14(sp)
    1f48:	013c4463          	blt	s8,s3,1f50 <.L1014+0x30>
    1f4c:	3480306f          	j	5294 <.L1038>
    1f50:	00600b93          	li	s7,6
    1f54:	b71bce63          	blt	s7,a7,12d0 <.L1046>
    1f58:	03100b93          	li	s7,49
    1f5c:	b9fbdc63          	bge	s7,t6,12f4 <.L1052>
    1f60:	01400b93          	li	s7,20
    1f64:	010bc463          	blt	s7,a6,1f6c <.L1054>
    1f68:	3600306f          	j	52c8 <.L2260>

00001f6c <.L1054>:
    1f6c:	00a15b83          	lhu	s7,10(sp)
    1f70:	003b8b93          	addi	s7,s7,3
    1f74:	010b9b93          	slli	s7,s7,0x10
    1f78:	410bdb93          	srai	s7,s7,0x10
    1f7c:	01711523          	sh	s7,10(sp)
    1f80:	0c100b93          	li	s7,193
    1f84:	b89bdc63          	bge	s7,s1,131c <.L2795>

00001f88 <.L1056>:
    1f88:	f6900b93          	li	s7,-151
    1f8c:	0175c463          	blt	a1,s7,1f94 <.L1056+0xc>
    1f90:	2500406f          	j	61e0 <.L1075>
    1f94:	11400b93          	li	s7,276
    1f98:	00dbd463          	bge	s7,a3,1fa0 <.L1056+0x18>
    1f9c:	1500706f          	j	90ec <.L1076>
    1fa0:	00c15b83          	lhu	s7,12(sp)
    1fa4:	ffdb8b93          	addi	s7,s7,-3
    1fa8:	010b9b93          	slli	s7,s7,0x10
    1fac:	410bdb93          	srai	s7,s7,0x10

00001fb0 <.L1074>:
    1fb0:	01711623          	sh	s7,12(sp)
    1fb4:	02f00b93          	li	s7,47
    1fb8:	010bd463          	bge	s7,a6,1fc0 <.L1074+0x10>
    1fbc:	0b90306f          	j	5874 <.L1082>
    1fc0:	03800b93          	li	s7,56
    1fc4:	01fbd463          	bge	s7,t6,1fcc <.L1074+0x1c>
    1fc8:	1480706f          	j	9110 <.L1078>
    1fcc:	08d00b93          	li	s7,141
    1fd0:	00dbd463          	bge	s7,a3,1fd8 <.L1074+0x28>
    1fd4:	0bd0806f          	j	a890 <.L1067>
    1fd8:	00e15b83          	lhu	s7,14(sp)
    1fdc:	ffe00c13          	li	s8,-2
    1fe0:	004b8b93          	addi	s7,s7,4
    1fe4:	01711723          	sh	s7,14(sp)
    1fe8:	01885463          	bge	a6,s8,1ff0 <.L1080>
    1fec:	5f40106f          	j	35e0 <.L1064>

00001ff0 <.L1080>:
    1ff0:	03c00b93          	li	s7,60
    1ff4:	b6fbd263          	bge	s7,a5,1358 <.L1062>

00001ff8 <.L1089>:
    1ff8:	01c51c03          	lh	s8,28(a0)
    1ffc:	01e00b93          	li	s7,30
    2000:	018bd463          	bge	s7,s8,2008 <.L1089+0x10>
    2004:	0650706f          	j	9868 <.L1094>
    2008:	00815b83          	lhu	s7,8(sp)
    200c:	ff9b8b93          	addi	s7,s7,-7
    2010:	010b9b93          	slli	s7,s7,0x10
    2014:	410bdb93          	srai	s7,s7,0x10
    2018:	01711423          	sh	s7,8(sp)
    201c:	30000b93          	li	s7,768
    2020:	b7ebd063          	bge	s7,t5,1380 <.L1085>

00002024 <.L1095>:
    2024:	03d00b93          	li	s7,61
    2028:	01fbc463          	blt	s7,t6,2030 <.L1095+0xc>
    202c:	5d80106f          	j	3604 <.L1086>
    2030:	ff300b93          	li	s7,-13
    2034:	01764463          	blt	a2,s7,203c <.L1095+0x18>
    2038:	59d0706f          	j	9dd4 <.L1106>
    203c:	00a15b83          	lhu	s7,10(sp)
    2040:	04900c13          	li	s8,73
    2044:	ff5b8b93          	addi	s7,s7,-11
    2048:	01711523          	sh	s7,10(sp)
    204c:	011c5463          	bge	s8,a7,2054 <.L1104>
    2050:	36c0306f          	j	53bc <.L1105>

00002054 <.L1104>:
    2054:	02000b93          	li	s7,32
    2058:	01dbd463          	bge	s7,t4,2060 <.L1102>
    205c:	62d0506f          	j	7e88 <.L1103>

00002060 <.L1102>:
    2060:	00c15b83          	lhu	s7,12(sp)
    2064:	004b8b93          	addi	s7,s7,4
    2068:	01711623          	sh	s7,12(sp)
    206c:	e4a00b93          	li	s7,-438
    2070:	b772c263          	blt	t0,s7,13d4 <.L2796>

00002074 <.L1112>:
    2074:	00300b93          	li	s7,3
    2078:	01cbd463          	bge	s7,t3,2080 <.L1112+0xc>
    207c:	4bc0306f          	j	5538 <.L1121>
    2080:	f0e00b93          	li	s7,-242
    2084:	0172c463          	blt	t0,s7,208c <.L1112+0x18>
    2088:	4c80306f          	j	5550 <.L1122>
    208c:	00e15b83          	lhu	s7,14(sp)
    2090:	01500c13          	li	s8,21
    2094:	ff6b8b93          	addi	s7,s7,-10
    2098:	01711723          	sh	s7,14(sp)
    209c:	b67c4263          	blt	s8,t2,1400 <.L2601>

000020a0 <.L1118>:
    20a0:	0ac00b93          	li	s7,172
    20a4:	006bd463          	bge	s7,t1,20ac <.L1118+0xc>
    20a8:	4dc0306f          	j	5584 <.L1119>
    20ac:	ffe00b93          	li	s7,-2
    20b0:	01764463          	blt	a2,s7,20b8 <.L1118+0x18>
    20b4:	1ad0506f          	j	7a60 <.L1126>
    20b8:	00815b83          	lhu	s7,8(sp)
    20bc:	009b8b93          	addi	s7,s7,9
    20c0:	010b9b93          	slli	s7,s7,0x10
    20c4:	410bdb93          	srai	s7,s7,0x10
    20c8:	01711423          	sh	s7,8(sp)
    20cc:	03300b93          	li	s7,51
    20d0:	b7fbd263          	bge	s7,t6,1434 <.L2797>

000020d4 <.L1129>:
    20d4:	01400b93          	li	s7,20
    20d8:	010bd463          	bge	s7,a6,20e0 <.L1129+0xc>
    20dc:	3dc0606f          	j	84b8 <.L1135>
    20e0:	01300b93          	li	s7,19
    20e4:	00ebd463          	bge	s7,a4,20ec <.L1129+0x18>
    20e8:	4890706f          	j	9d70 <.L1136>
    20ec:	00a15b83          	lhu	s7,10(sp)
    20f0:	ffcb8b93          	addi	s7,s7,-4
    20f4:	010b9b93          	slli	s7,s7,0x10
    20f8:	410bdb93          	srai	s7,s7,0x10
    20fc:	01711523          	sh	s7,10(sp)
    2100:	00100b93          	li	s7,1
    2104:	b7cbc263          	blt	s7,t3,1468 <.L1138>

00002108 <.L2765>:
    2108:	e4e00b93          	li	s7,-434
    210c:	0175c463          	blt	a1,s7,2114 <.L2765+0xc>
    2110:	6d50606f          	j	8fe4 <.L1139>
    2114:	00c15b83          	lhu	s7,12(sp)
    2118:	003b8b93          	addi	s7,s7,3
    211c:	010b9b93          	slli	s7,s7,0x10
    2120:	410bdb93          	srai	s7,s7,0x10
    2124:	01711623          	sh	s7,12(sp)
    2128:	03e00b93          	li	s7,62
    212c:	b6fbd863          	bge	s7,a5,149c <.L2798>

00002130 <.L1145>:
    2130:	fec00b93          	li	s7,-20
    2134:	01764463          	blt	a2,s7,213c <.L1145+0xc>
    2138:	2310606f          	j	8b68 <.L1150>
    213c:	00e15b83          	lhu	s7,14(sp)
    2140:	01f00c13          	li	s8,31
    2144:	ffdb8b93          	addi	s7,s7,-3
    2148:	01711723          	sh	s7,14(sp)
    214c:	013c5463          	bge	s8,s3,2154 <.L1145+0x24>
    2150:	72c0206f          	j	487c <.L1152>
    2154:	e2100b93          	li	s7,-479
    2158:	0172c463          	blt	t0,s7,2160 <.L1145+0x30>
    215c:	0e90106f          	j	3a44 <.L1160>
    2160:	00815b83          	lhu	s7,8(sp)
    2164:	1b900c13          	li	s8,441
    2168:	ff7b8b93          	addi	s7,s7,-9
    216c:	01711423          	sh	s7,8(sp)
    2170:	01ec4463          	blt	s8,t5,2178 <.L1162>
    2174:	0e90106f          	j	3a5c <.L1161>

00002178 <.L1162>:
    2178:	03200b93          	li	s7,50
    217c:	01dbd463          	bge	s7,t4,2184 <.L1162+0xc>
    2180:	0940706f          	j	9214 <.L1178>
    2184:	ff200b93          	li	s7,-14
    2188:	01764463          	blt	a2,s7,2190 <.L1162+0x18>
    218c:	36c0906f          	j	b4f8 <.L1179>
    2190:	00a15b83          	lhu	s7,10(sp)
    2194:	03c00c13          	li	s8,60
    2198:	ff7b8b93          	addi	s7,s7,-9
    219c:	01711523          	sh	s7,10(sp)
    21a0:	b8fc5463          	bge	s8,a5,1528 <.L1174>

000021a4 <.L1171>:
    21a4:	daa00b93          	li	s7,-598
    21a8:	017ad463          	bge	s5,s7,21b0 <.L1171+0xc>
    21ac:	33c0506f          	j	74e8 <.L1187>
    21b0:	00b00b93          	li	s7,11
    21b4:	01dbd463          	bge	s7,t4,21bc <.L1171+0x18>
    21b8:	08c0706f          	j	9244 <.L1184>
    21bc:	00c15b83          	lhu	s7,12(sp)
    21c0:	004b8b93          	addi	s7,s7,4
    21c4:	010b9b93          	slli	s7,s7,0x10
    21c8:	410bdb93          	srai	s7,s7,0x10

000021cc <.L1189>:
    21cc:	01711623          	sh	s7,12(sp)
    21d0:	0d800b93          	li	s7,216
    21d4:	b92bc463          	blt	s7,s2,155c <.L1195>

000021d8 <.L2767>:
    21d8:	cf000b93          	li	s7,-784
    21dc:	0175c463          	blt	a1,s7,21e4 <.L2767+0xc>
    21e0:	3340606f          	j	8514 <.L1194>
    21e4:	e1800b93          	li	s7,-488
    21e8:	017a4463          	blt	s4,s7,21f0 <.L2767+0x18>
    21ec:	41d0706f          	j	9e08 <.L1198>
    21f0:	00e15b83          	lhu	s7,14(sp)
    21f4:	fffb8b93          	addi	s7,s7,-1
    21f8:	010b9b93          	slli	s7,s7,0x10
    21fc:	010bdb93          	srli	s7,s7,0x10

00002200 <.L1199>:
    2200:	01711723          	sh	s7,14(sp)

00002204 <.L1201>:
    2204:	00400b93          	li	s7,4
    2208:	011bc463          	blt	s7,a7,2210 <.L1201+0xc>
    220c:	50d0206f          	j	4f18 <.L1209>
    2210:	00e00b93          	li	s7,14
    2214:	01dbd463          	bge	s7,t4,221c <.L1201+0x18>
    2218:	0a50506f          	j	7abc <.L1217>
    221c:	00094463          	bltz	s2,2224 <.L1201+0x20>
    2220:	7a10106f          	j	41c0 <.L1218>
    2224:	00815b83          	lhu	s7,8(sp)
    2228:	008b8b93          	addi	s7,s7,8
    222c:	01711423          	sh	s7,8(sp)

00002230 <.L1210>:
    2230:	03500b93          	li	s7,53
    2234:	b6ebde63          	bge	s7,a4,15b0 <.L1215>
    2238:	0e100b93          	li	s7,225
    223c:	00dbd463          	bge	s7,a3,2244 <.L1220>
    2240:	5890606f          	j	8fc8 <.L1223>

00002244 <.L1220>:
    2244:	03200b93          	li	s7,50
    2248:	01fbd463          	bge	s7,t6,2250 <.L2692>
    224c:	7280606f          	j	8974 <.L1222>

00002250 <.L2692>:
    2250:	00a15b83          	lhu	s7,10(sp)
    2254:	0c100c13          	li	s8,193
    2258:	ff7b8b93          	addi	s7,s7,-9
    225c:	01711523          	sh	s7,10(sp)
    2260:	b69c5c63          	bge	s8,s1,15d8 <.L1228>

00002264 <.L2607>:
    2264:	f6900b93          	li	s7,-151
    2268:	0175c463          	blt	a1,s7,2270 <.L1230>
    226c:	79c0506f          	j	7a08 <.L1235>

00002270 <.L1230>:
    2270:	00c15b83          	lhu	s7,12(sp)
    2274:	fffb8b93          	addi	s7,s7,-1
    2278:	010b9b93          	slli	s7,s7,0x10
    227c:	410bdb93          	srai	s7,s7,0x10

00002280 <.L1240>:
    2280:	01711623          	sh	s7,12(sp)
    2284:	03600b93          	li	s7,54
    2288:	b8fbc263          	blt	s7,a5,160c <.L1244>

0000228c <.L2768>:
    228c:	04c00b93          	li	s7,76
    2290:	016bd463          	bge	s7,s6,2298 <.L2768+0xc>
    2294:	0790606f          	j	8b0c <.L1245>
    2298:	00e15b83          	lhu	s7,14(sp)
    229c:	01500c13          	li	s8,21
    22a0:	002b8b93          	addi	s7,s7,2
    22a4:	01711723          	sh	s7,14(sp)
    22a8:	007c4463          	blt	s8,t2,22b0 <.L2768+0x24>
    22ac:	3600206f          	j	460c <.L1254>
    22b0:	11d00b93          	li	s7,285
    22b4:	007bd463          	bge	s7,t2,22bc <.L2768+0x30>
    22b8:	25d0706f          	j	9d14 <.L1249>
    22bc:	00815b83          	lhu	s7,8(sp)
    22c0:	08c00c13          	li	s8,140
    22c4:	ffdb8b93          	addi	s7,s7,-3
    22c8:	01711423          	sh	s7,8(sp)
    22cc:	006c5463          	bge	s8,t1,22d4 <.L1250>
    22d0:	4ac0806f          	j	a77c <.L2799>

000022d4 <.L1250>:
    22d4:	00900b93          	li	s7,9
    22d8:	011bd463          	bge	s7,a7,22e0 <.L1250+0xc>
    22dc:	2750506f          	j	7d50 <.L2800>
    22e0:	01dbd463          	bge	s7,t4,22e8 <.L1250+0x14>
    22e4:	2550306f          	j	5d38 <.L1278>
    22e8:	00a15b83          	lhu	s7,10(sp)
    22ec:	03300c13          	li	s8,51
    22f0:	ffab8b93          	addi	s7,s7,-6
    22f4:	01711523          	sh	s7,10(sp)
    22f8:	00fc4463          	blt	s8,a5,2300 <.L1279>
    22fc:	2190506f          	j	7d14 <.L2610>

00002300 <.L1279>:
    2300:	04700b93          	li	s7,71
    2304:	ba7bd263          	bge	s7,t2,16a8 <.L1266>

00002308 <.L1289>:
    2308:	00c15b83          	lhu	s7,12(sp)
    230c:	003b8b93          	addi	s7,s7,3
    2310:	010b9b93          	slli	s7,s7,0x10
    2314:	410bdb93          	srai	s7,s7,0x10

00002318 <.L1281>:
    2318:	01711623          	sh	s7,12(sp)
    231c:	03c00b93          	li	s7,60
    2320:	00fbc463          	blt	s7,a5,2328 <.L1281+0x10>
    2324:	3700206f          	j	4694 <.L1292>
    2328:	0d400b93          	li	s7,212
    232c:	00ebd463          	bge	s7,a4,2334 <.L1281+0x1c>
    2330:	3290606f          	j	8e58 <.L1307>
    2334:	0a100b93          	li	s7,161
    2338:	ba7bd063          	bge	s7,t2,16d8 <.L1310>
    233c:	ffe00b93          	li	s7,-2
    2340:	bb784663          	blt	a6,s7,16ec <.L1300>

00002344 <.L1321>:
    2344:	ec700b93          	li	s7,-313
    2348:	01744463          	blt	s0,s7,2350 <.L2939>
    234c:	3310606f          	j	8e7c <.L1333>

00002350 <.L2939>:
    2350:	00815b83          	lhu	s7,8(sp)
    2354:	fffb8b93          	addi	s7,s7,-1
    2358:	010b9b93          	slli	s7,s7,0x10
    235c:	410bdb93          	srai	s7,s7,0x10

00002360 <.L1332>:
    2360:	01711423          	sh	s7,8(sp)
    2364:	03400b93          	li	s7,52
    2368:	01dbc463          	blt	s7,t4,2370 <.L1332+0x10>
    236c:	3310106f          	j	3e9c <.L1329>
    2370:	1db00b93          	li	s7,475
    2374:	016bd463          	bge	s7,s6,237c <.L1332+0x1c>
    2378:	26d0506f          	j	7de4 <.L1326>
    237c:	00800b93          	li	s7,8
    2380:	bb0bd063          	bge	s7,a6,1720 <.L1330>
    2384:	00a15b83          	lhu	s7,10(sp)
    2388:	02a00c13          	li	s8,42
    238c:	ff4b8b93          	addi	s7,s7,-12
    2390:	01711523          	sh	s7,10(sp)
    2394:	badc4063          	blt	s8,a3,1734 <.L1328>

00002398 <.L1327>:
    2398:	fba00b93          	li	s7,-70
    239c:	0175c463          	blt	a1,s7,23a4 <.L1357>
    23a0:	7010606f          	j	92a0 <.L1338>

000023a4 <.L1357>:
    23a4:	00c15b83          	lhu	s7,12(sp)
    23a8:	ffbb8b93          	addi	s7,s7,-5
    23ac:	01711623          	sh	s7,12(sp)

000023b0 <.L1360>:
    23b0:	03600b93          	li	s7,54
    23b4:	00fbc463          	blt	s7,a5,23bc <.L1356>
    23b8:	2040306f          	j	55bc <.L1341>

000023bc <.L1356>:
    23bc:	ff600b93          	li	s7,-10
    23c0:	01765463          	bge	a2,s7,23c8 <.L1355>
    23c4:	3390106f          	j	3efc <.L1342>

000023c8 <.L1355>:
    23c8:	eea00b93          	li	s7,-278
    23cc:	017a4463          	blt	s4,s7,23d4 <.L1355+0xc>
    23d0:	36d0806f          	j	af3c <.L1370>
    23d4:	00e15b83          	lhu	s7,14(sp)
    23d8:	ffdb8b93          	addi	s7,s7,-3
    23dc:	010b9b93          	slli	s7,s7,0x10
    23e0:	410bdb93          	srai	s7,s7,0x10

000023e4 <.L1366>:
    23e4:	01711723          	sh	s7,14(sp)
    23e8:	fa300b93          	li	s7,-93
    23ec:	0172c463          	blt	t0,s7,23f4 <.L2847>
    23f0:	3390106f          	j	3f28 <.L1367>

000023f4 <.L2847>:
    23f4:	fa100b93          	li	s7,-95
    23f8:	0172c463          	blt	t0,s7,2400 <.L2847+0xc>
    23fc:	2a90506f          	j	7ea4 <.L1369>
    2400:	01c04463          	bgtz	t3,2408 <.L2847+0x14>
    2404:	77d0806f          	j	b380 <.L2801>
    2408:	03900b93          	li	s7,57
    240c:	006bc463          	blt	s7,t1,2414 <.L2847+0x20>
    2410:	3f40206f          	j	4804 <.L1372>
    2414:	ff800b93          	li	s7,-8
    2418:	01764463          	blt	a2,s7,2420 <.L1373>
    241c:	1790906f          	j	bd94 <.L2802>

00002420 <.L1373>:
    2420:	01c51c03          	lh	s8,28(a0)
    2424:	01e00b93          	li	s7,30
    2428:	018bd463          	bge	s7,s8,2430 <.L1373+0x10>
    242c:	3840806f          	j	a7b0 <.L2803>
    2430:	00a15b83          	lhu	s7,10(sp)
    2434:	002b8b93          	addi	s7,s7,2
    2438:	010b9b93          	slli	s7,s7,0x10
    243c:	410bdb93          	srai	s7,s7,0x10

00002440 <.L1399>:
    2440:	01711523          	sh	s7,10(sp)
    2444:	00100b93          	li	s7,1
    2448:	01cbc463          	blt	s7,t3,2450 <.L1396>
    244c:	4010306f          	j	604c <.L1375>

00002450 <.L1396>:
    2450:	02000b93          	li	s7,32
    2454:	01dbc463          	blt	s7,t4,245c <.L1402>
    2458:	0b80706f          	j	9510 <.L2804>

0000245c <.L1402>:
    245c:	34700b93          	li	s7,839
    2460:	00dbd463          	bge	s7,a3,2468 <.L1402+0xc>
    2464:	0700706f          	j	94d4 <.L1414>
    2468:	00c15b83          	lhu	s7,12(sp)
    246c:	03c00c13          	li	s8,60
    2470:	ff9b8b93          	addi	s7,s7,-7
    2474:	01711623          	sh	s7,12(sp)
    2478:	00fc5463          	bge	s8,a5,2480 <.L2625>
    247c:	3d80206f          	j	4854 <.L1390>

00002480 <.L2625>:
    2480:	e4f00b93          	li	s7,-433
    2484:	017ac463          	blt	s5,s7,248c <.L1391>
    2488:	1100606f          	j	8598 <.L1416>

0000248c <.L1391>:
    248c:	c5a00b93          	li	s7,-934
    2490:	0175d463          	bge	a1,s7,2498 <.L1391+0xc>
    2494:	1040606f          	j	8598 <.L1416>
    2498:	00e15b83          	lhu	s7,14(sp)
    249c:	ff6b8b93          	addi	s7,s7,-10
    24a0:	01711723          	sh	s7,14(sp)

000024a4 <.L1411>:
    24a4:	01f00b93          	li	s7,31
    24a8:	013bd463          	bge	s7,s3,24b0 <.L1408>
    24ac:	3010106f          	j	3fac <.L1422>

000024b0 <.L1408>:
    24b0:	03d00b93          	li	s7,61
    24b4:	01fbd463          	bge	s7,t6,24bc <.L1408+0xc>
    24b8:	5a90406f          	j	7260 <.L1423>
    24bc:	01c04863          	bgtz	t3,24cc <.L1424>
    24c0:	00815b83          	lhu	s7,8(sp)
    24c4:	005b8b93          	addi	s7,s7,5
    24c8:	01711423          	sh	s7,8(sp)

000024cc <.L1424>:
    24cc:	03300b93          	li	s7,51
    24d0:	01fbd463          	bge	s7,t6,24d8 <.L2848>
    24d4:	2fd0106f          	j	3fd0 <.L1426>

000024d8 <.L2848>:
    24d8:	1c600c13          	li	s8,454
    24dc:	00ec5463          	bge	s8,a4,24e4 <.L2848+0xc>
    24e0:	5450406f          	j	7224 <.L1427>
    24e4:	017f9463          	bne	t6,s7,24ec <.L2848+0x14>
    24e8:	0bc0906f          	j	b5a4 <.L1428>
    24ec:	00a15b83          	lhu	s7,10(sp)
    24f0:	ff7b8b93          	addi	s7,s7,-9
    24f4:	01711523          	sh	s7,10(sp)

000024f8 <.L1429>:
    24f8:	f9800b93          	li	s7,-104
    24fc:	01744463          	blt	s0,s7,2504 <.L2849>
    2500:	3010106f          	j	4000 <.L1433>

00002504 <.L2849>:
    2504:	0c700b93          	li	s7,199
    2508:	016bd463          	bge	s7,s6,2510 <.L2849+0xc>
    250c:	5040606f          	j	8a10 <.L1434>
    2510:	ea900b93          	li	s7,-343
    2514:	017a4863          	blt	s4,s7,2524 <.L1435>
    2518:	00c15b83          	lhu	s7,12(sp)
    251c:	ff7b8b93          	addi	s7,s7,-9
    2520:	01711623          	sh	s7,12(sp)

00002524 <.L1435>:
    2524:	d2a00b93          	li	s7,-726
    2528:	0175c463          	blt	a1,s7,2530 <.L2850>
    252c:	3050106f          	j	4030 <.L1440>

00002530 <.L2850>:
    2530:	25d00b93          	li	s7,605
    2534:	009bd463          	bge	s7,s1,253c <.L2850+0xc>
    2538:	6480306f          	j	5b80 <.L1441>
    253c:	e2e00b93          	li	s7,-466
    2540:	0172d463          	bge	t0,s7,2548 <.L2850+0x18>
    2544:	3cc0706f          	j	9910 <.L1442>
    2548:	00e15b83          	lhu	s7,14(sp)
    254c:	00400c13          	li	s8,4
    2550:	008b8b93          	addi	s7,s7,8
    2554:	01711723          	sh	s7,14(sp)
    2558:	011c5463          	bge	s8,a7,2560 <.L1445>
    255c:	63c0306f          	j	5b98 <.L1444>

00002560 <.L1445>:
    2560:	03800b93          	li	s7,56
    2564:	01fbd463          	bge	s7,t6,256c <.L1445+0xc>
    2568:	4950406f          	j	71fc <.L1450>
    256c:	00815b83          	lhu	s7,8(sp)
    2570:	00bb8b93          	addi	s7,s7,11
    2574:	01711423          	sh	s7,8(sp)

00002578 <.L2736>:
    2578:	00c00b93          	li	s7,12
    257c:	01cbc463          	blt	s7,t3,2584 <.L2736+0xc>
    2580:	6c90606f          	j	9448 <.L1453>
    2584:	23200b93          	li	s7,562
    2588:	01ebd463          	bge	s7,t5,2590 <.L2736+0x18>
    258c:	4900806f          	j	aa1c <.L1454>
    2590:	00a15b83          	lhu	s7,10(sp)
    2594:	ff7b8b93          	addi	s7,s7,-9
    2598:	01711523          	sh	s7,10(sp)

0000259c <.L1455>:
    259c:	02700b93          	li	s7,39
    25a0:	01dbd463          	bge	s7,t4,25a8 <.L1476>
    25a4:	2f50106f          	j	4098 <.L1477>

000025a8 <.L1476>:
    25a8:	15500b93          	li	s7,341
    25ac:	01ebd463          	bge	s7,t5,25b4 <.L1476+0xc>
    25b0:	4840806f          	j	aa34 <.L1482>
    25b4:	00c15b83          	lhu	s7,12(sp)
    25b8:	ffeb8b93          	addi	s7,s7,-2
    25bc:	01711623          	sh	s7,12(sp)

000025c0 <.L1487>:
    25c0:	0a000b93          	li	s7,160
    25c4:	009bd463          	bge	s7,s1,25cc <.L2852>
    25c8:	2f50106f          	j	40bc <.L1491>

000025cc <.L2852>:
    25cc:	09b00b93          	li	s7,155
    25d0:	009bd463          	bge	s7,s1,25d8 <.L2852+0xc>
    25d4:	0140506f          	j	75e8 <.L1492>
    25d8:	0a300b93          	li	s7,163
    25dc:	012bd463          	bge	s7,s2,25e4 <.L2852+0x18>
    25e0:	2c50806f          	j	b0a4 <.L1493>
    25e4:	00e15b83          	lhu	s7,14(sp)
    25e8:	39000c13          	li	s8,912
    25ec:	ffcb8b93          	addi	s7,s7,-4
    25f0:	01711723          	sh	s7,14(sp)
    25f4:	006c4463          	blt	s8,t1,25fc <.L2852+0x30>
    25f8:	7790106f          	j	4570 <.L1502>
    25fc:	14e00b93          	li	s7,334
    2600:	00dbd463          	bge	s7,a3,2608 <.L1512>
    2604:	6b80906f          	j	bcbc <.L2805>

00002608 <.L1512>:
    2608:	00900b93          	li	s7,9
    260c:	013bd463          	bge	s7,s3,2614 <.L1512+0xc>
    2610:	0390706f          	j	9e48 <.L1514>
    2614:	00815b83          	lhu	s7,8(sp)
    2618:	003b8b93          	addi	s7,s7,3
    261c:	01711423          	sh	s7,8(sp)

00002620 <.L1511>:
    2620:	00c00b93          	li	s7,12
    2624:	01cbc463          	blt	s7,t3,262c <.L1505>
    2628:	4490206f          	j	5270 <.L1520>

0000262c <.L1505>:
    262c:	1dc00b93          	li	s7,476
    2630:	016bd463          	bge	s7,s6,2638 <.L1505+0xc>
    2634:	3940806f          	j	a9c8 <.L1525>
    2638:	00a15b83          	lhu	s7,10(sp)
    263c:	f9800c13          	li	s8,-104
    2640:	ff3b8b93          	addi	s7,s7,-13
    2644:	01711523          	sh	s7,10(sp)
    2648:	01844463          	blt	s0,s8,2650 <.L1506>
    264c:	7690106f          	j	45b4 <.L1507>

00002650 <.L1506>:
    2650:	0c700b93          	li	s7,199
    2654:	016bc463          	blt	s7,s6,265c <.L1521>
    2658:	7640606f          	j	8dbc <.L1528>

0000265c <.L1521>:
    265c:	00c15b83          	lhu	s7,12(sp)
    2660:	01800c13          	li	s8,24
    2664:	fffb8b93          	addi	s7,s7,-1
    2668:	01711623          	sh	s7,12(sp)
    266c:	010c4463          	blt	s8,a6,2674 <.L1534>
    2670:	7750106f          	j	45e4 <.L1544>

00002674 <.L1534>:
    2674:	eee00b93          	li	s7,-274
    2678:	017ac463          	blt	s5,s7,2680 <.L1534+0xc>
    267c:	6280106f          	j	3ca4 <.L1549>
    2680:	01c51c03          	lh	s8,28(a0)
    2684:	02300b93          	li	s7,35
    2688:	018bd463          	bge	s7,s8,2690 <.L1540>
    268c:	3050106f          	j	4190 <.L2806>

00002690 <.L1540>:
    2690:	00e15b83          	lhu	s7,14(sp)
    2694:	005b8b93          	addi	s7,s7,5
    2698:	01711723          	sh	s7,14(sp)

0000269c <.L1539>:
    269c:	0a900b93          	li	s7,169
    26a0:	01ebd463          	bge	s7,t5,26a8 <.L2840>
    26a4:	6180106f          	j	3cbc <.L1550>

000026a8 <.L2840>:
    26a8:	01c00b93          	li	s7,28
    26ac:	00fbd463          	bge	s7,a5,26b4 <.L2840+0xc>
    26b0:	5350506f          	j	83e4 <.L1551>
    26b4:	07300b93          	li	s7,115
    26b8:	01ebd463          	bge	s7,t5,26c0 <.L2840+0x18>
    26bc:	1190706f          	j	9fd4 <.L1552>
    26c0:	00815b83          	lhu	s7,8(sp)
    26c4:	006b8b93          	addi	s7,s7,6
    26c8:	010b9b93          	slli	s7,s7,0x10
    26cc:	410bdb93          	srai	s7,s7,0x10

000026d0 <.L1553>:
    26d0:	01711423          	sh	s7,8(sp)
    26d4:	03300b93          	li	s7,51
    26d8:	01fbd463          	bge	s7,t6,26e0 <.L2841>
    26dc:	60c0106f          	j	3ce8 <.L1557>

000026e0 <.L2841>:
    26e0:	00001bb7          	lui	s7,0x1
    26e4:	cbbb8b93          	addi	s7,s7,-837 # cbb <.L2776+0xb>
    26e8:	00ebd463          	bge	s7,a4,26f0 <.L2841+0x10>
    26ec:	4c90506f          	j	83b4 <.L1558>
    26f0:	dba00b93          	li	s7,-582
    26f4:	0175c863          	blt	a1,s7,2704 <.L1559>
    26f8:	00a15b83          	lhu	s7,10(sp)
    26fc:	ff9b8b93          	addi	s7,s7,-7
    2700:	01711523          	sh	s7,10(sp)

00002704 <.L1559>:
    2704:	10b00b93          	li	s7,267
    2708:	00dbc463          	blt	s7,a3,2710 <.L1568>
    270c:	2f90606f          	j	9204 <.L1565>

00002710 <.L1568>:
    2710:	e8500b93          	li	s7,-379
    2714:	017ad463          	bge	s5,s7,271c <.L1568+0xc>
    2718:	4ed0506f          	j	8404 <.L1572>
    271c:	18c00b93          	li	s7,396
    2720:	00ebd463          	bge	s7,a4,2728 <.L1568+0x18>
    2724:	4ad0506f          	j	83d0 <.L1569>
    2728:	00c15b83          	lhu	s7,12(sp)
    272c:	001b8b93          	addi	s7,s7,1
    2730:	010b9b93          	slli	s7,s7,0x10
    2734:	410bdb93          	srai	s7,s7,0x10

00002738 <.L1574>:
    2738:	01711623          	sh	s7,12(sp)
    273c:	02700c13          	li	s8,39
    2740:	007c5463          	bge	s8,t2,2748 <.L2842>
    2744:	5f40106f          	j	3d38 <.L1577>

00002748 <.L2842>:
    2748:	03d00c13          	li	s8,61
    274c:	00fc5463          	bge	s8,a5,2754 <.L2842+0xc>
    2750:	2b10506f          	j	8200 <.L1578>
    2754:	02000c13          	li	s8,32
    2758:	010c5463          	bge	s8,a6,2760 <.L2842+0x18>
    275c:	2950506f          	j	81f0 <.L1579>
    2760:	00e15c03          	lhu	s8,14(sp)
    2764:	ff7c0c13          	addi	s8,s8,-9
    2768:	01811723          	sh	s8,14(sp)

0000276c <.L1580>:
    276c:	01f00c13          	li	s8,31
    2770:	013c5463          	bge	s8,s3,2778 <.L2843>
    2774:	5f40106f          	j	3d68 <.L1582>

00002778 <.L2843>:
    2778:	03d00c13          	li	s8,61
    277c:	01fc5463          	bge	s8,t6,2784 <.L2843+0xc>
    2780:	1a50506f          	j	8124 <.L1583>
    2784:	f7800c13          	li	s8,-136
    2788:	018a4863          	blt	s4,s8,2798 <.L1584>
    278c:	00815c03          	lhu	s8,8(sp)
    2790:	004c0c13          	addi	s8,s8,4
    2794:	01811423          	sh	s8,8(sp)

00002798 <.L1584>:
    2798:	e2c00c13          	li	s8,-468
    279c:	0182d463          	bge	t0,s8,27a4 <.L2844>
    27a0:	5ec0106f          	j	3d8c <.L1590>

000027a4 <.L2844>:
    27a4:	03c00b93          	li	s7,60
    27a8:	01fbd463          	bge	s7,t6,27b0 <.L2844+0xc>
    27ac:	1990506f          	j	8144 <.L1586>
    27b0:	00900c13          	li	s8,9
    27b4:	01cc5463          	bge	s8,t3,27bc <.L2844+0x18>
    27b8:	29c0306f          	j	5a54 <.L1611>
    27bc:	00a15b83          	lhu	s7,10(sp)
    27c0:	001b8b93          	addi	s7,s7,1
    27c4:	010b9b93          	slli	s7,s7,0x10
    27c8:	410bdb93          	srai	s7,s7,0x10

000027cc <.L1612>:
    27cc:	01711523          	sh	s7,10(sp)
    27d0:	03c00b93          	li	s7,60
    27d4:	00fbc463          	blt	s7,a5,27dc <.L1615>
    27d8:	2280306f          	j	5a00 <.L1604>

000027dc <.L1615>:
    27dc:	e6500b93          	li	s7,-411
    27e0:	0172d463          	bge	t0,s7,27e8 <.L1615+0xc>
    27e4:	7fc0906f          	j	bfe0 <.L1617>
    27e8:	00e00b93          	li	s7,14
    27ec:	01dbd463          	bge	s7,t4,27f4 <.L1615+0x18>
    27f0:	71c0706f          	j	9f0c <.L1619>
    27f4:	00300b93          	li	s7,3
    27f8:	01cbd463          	bge	s7,t3,2800 <.L1615+0x24>
    27fc:	2800306f          	j	5a7c <.L1618>
    2800:	0c100b93          	li	s7,193
    2804:	012bd463          	bge	s7,s2,280c <.L1635>
    2808:	4980906f          	j	bca0 <.L2807>

0000280c <.L1635>:
    280c:	02f00b93          	li	s7,47
    2810:	01fbd463          	bge	s7,t6,2818 <.L1635+0xc>
    2814:	6e80706f          	j	9efc <.L2808>
    2818:	00e15b83          	lhu	s7,14(sp)
    281c:	00400c13          	li	s8,4
    2820:	018b8bb3          	add	s7,s7,s8
    2824:	01711723          	sh	s7,14(sp)
    2828:	011c4463          	blt	s8,a7,2830 <.L1635+0x24>
    282c:	2f00406f          	j	6b1c <.L1651>
    2830:	00e00b93          	li	s7,14
    2834:	01dbd463          	bge	s7,t4,283c <.L1646>
    2838:	51d0606f          	j	9554 <.L2809>

0000283c <.L1646>:
    283c:	f9c00b93          	li	s7,-100
    2840:	01744463          	blt	s0,s7,2848 <.L1644>
    2844:	3110606f          	j	9354 <.L1668>

00002848 <.L1644>:
    2848:	00815b83          	lhu	s7,8(sp)
    284c:	01d00c13          	li	s8,29
    2850:	ffab8b93          	addi	s7,s7,-6
    2854:	01711423          	sh	s7,8(sp)
    2858:	011c5463          	bge	s8,a7,2860 <.L2716>
    285c:	3110606f          	j	936c <.L1669>

00002860 <.L2716>:
    2860:	00a15b83          	lhu	s7,10(sp)
    2864:	00100c13          	li	s8,1
    2868:	ffeb8b93          	addi	s7,s7,-2
    286c:	01711523          	sh	s7,10(sp)
    2870:	01cc4463          	blt	s8,t3,2878 <.L1659>
    2874:	4640906f          	j	bcd8 <.L2810>

00002878 <.L1659>:
    2878:	ff000b93          	li	s7,-16
    287c:	01764463          	blt	a2,s7,2884 <.L1659+0xc>
    2880:	0690206f          	j	50e8 <.L2811>
    2884:	00c15b83          	lhu	s7,12(sp)
    2888:	ff600c13          	li	s8,-10
    288c:	007b8b93          	addi	s7,s7,7
    2890:	01711623          	sh	s7,12(sp)
    2894:	01864463          	blt	a2,s8,289c <.L1682>
    2898:	05d0206f          	j	50f4 <.L1683>

0000289c <.L1682>:
    289c:	0da00b93          	li	s7,218
    28a0:	012bd463          	bge	s7,s2,28a8 <.L1682+0xc>
    28a4:	50d0606f          	j	95b0 <.L1696>
    28a8:	00e15b83          	lhu	s7,14(sp)
    28ac:	ff9b8b93          	addi	s7,s7,-7
    28b0:	010b9b93          	slli	s7,s7,0x10
    28b4:	010bdb93          	srli	s7,s7,0x10

000028b8 <.L1697>:
    28b8:	01711723          	sh	s7,14(sp)

000028bc <.L1699>:
    28bc:	e4300b93          	li	s7,-445
    28c0:	01744463          	blt	s0,s7,28c8 <.L1699+0xc>
    28c4:	6d80206f          	j	4f9c <.L1703>
    28c8:	0d400b93          	li	s7,212
    28cc:	007bd463          	bge	s7,t2,28d4 <.L1699+0x18>
    28d0:	6740506f          	j	7f44 <.L1706>
    28d4:	0d100b93          	li	s7,209
    28d8:	007bc463          	blt	s7,t2,28e0 <.L1699+0x24>
    28dc:	2d10606f          	j	93ac <.L1702>
    28e0:	00815b83          	lhu	s7,8(sp)
    28e4:	03b00c13          	li	s8,59
    28e8:	008b8b93          	addi	s7,s7,8
    28ec:	01711423          	sh	s7,8(sp)
    28f0:	00fc5463          	bge	s8,a5,28f8 <.L2643>
    28f4:	6680506f          	j	7f5c <.L1708>

000028f8 <.L2643>:
    28f8:	03500b93          	li	s7,53
    28fc:	00ebc463          	blt	s7,a4,2904 <.L1710>
    2900:	1110506f          	j	8210 <.L1709>

00002904 <.L1710>:
    2904:	00a15b83          	lhu	s7,10(sp)
    2908:	005b8b93          	addi	s7,s7,5
    290c:	010b9b93          	slli	s7,s7,0x10
    2910:	410bdb93          	srai	s7,s7,0x10

00002914 <.L1721>:
    2914:	01711523          	sh	s7,10(sp)
    2918:	02200b93          	li	s7,34
    291c:	011bd463          	bge	s7,a7,2924 <.L2886>
    2920:	6e00206f          	j	5000 <.L1730>

00002924 <.L2886>:
    2924:	01700b93          	li	s7,23
    2928:	01dbd463          	bge	s7,t4,2930 <.L2886+0xc>
    292c:	3ad0506f          	j	84d8 <.L1727>
    2930:	1dc00b93          	li	s7,476
    2934:	01ebd863          	bge	s7,t5,2944 <.L1731>

00002938 <.L1729>:
    2938:	00c15b83          	lhu	s7,12(sp)
    293c:	008b8b93          	addi	s7,s7,8
    2940:	01711623          	sh	s7,12(sp)

00002944 <.L1731>:
    2944:	02600b93          	li	s7,38
    2948:	00dbd463          	bge	s7,a3,2950 <.L1731+0xc>
    294c:	4640206f          	j	4db0 <.L1728>
    2950:	00f00b93          	li	s7,15
    2954:	00dbd463          	bge	s7,a3,295c <.L1731+0x18>
    2958:	7890506f          	j	88e0 <.L1738>
    295c:	08c00b93          	li	s7,140
    2960:	007bd463          	bge	s7,t2,2968 <.L1731+0x24>
    2964:	5280806f          	j	ae8c <.L1739>
    2968:	00e15b83          	lhu	s7,14(sp)
    296c:	01500c13          	li	s8,21
    2970:	003b8b93          	addi	s7,s7,3
    2974:	01711723          	sh	s7,14(sp)
    2978:	007c4463          	blt	s8,t2,2980 <.L1741>
    297c:	2990206f          	j	5414 <.L1740>

00002980 <.L1741>:
    2980:	ff700b93          	li	s7,-9
    2984:	01764863          	blt	a2,s7,2994 <.L1749>
    2988:	00815b83          	lhu	s7,8(sp)
    298c:	ffcb8b93          	addi	s7,s7,-4
    2990:	01711423          	sh	s7,8(sp)

00002994 <.L1749>:
    2994:	0f000b93          	li	s7,240
    2998:	006bd463          	bge	s7,t1,29a0 <.L1749+0xc>
    299c:	38c0206f          	j	4d28 <.L1753>
    29a0:	00200b93          	li	s7,2
    29a4:	01cbd463          	bge	s7,t3,29ac <.L1749+0x18>
    29a8:	04c0606f          	j	89f4 <.L1754>
    29ac:	03500b93          	li	s7,53
    29b0:	00fbd463          	bge	s7,a5,29b8 <.L1749+0x24>
    29b4:	4090706f          	j	a5bc <.L1755>
    29b8:	00a15b83          	lhu	s7,10(sp)
    29bc:	007b8b93          	addi	s7,s7,7
    29c0:	01711523          	sh	s7,10(sp)

000029c4 <.L1756>:
    29c4:	f9800b93          	li	s7,-104
    29c8:	01744463          	blt	s0,s7,29d0 <.L1768>
    29cc:	38c0206f          	j	4d58 <.L2812>

000029d0 <.L1768>:
    29d0:	f6600b93          	li	s7,-154
    29d4:	01744463          	blt	s0,s7,29dc <.L1768+0xc>
    29d8:	0000606f          	j	89d8 <.L1760>
    29dc:	0c600b93          	li	s7,198
    29e0:	009bc863          	blt	s7,s1,29f0 <.L1770>

000029e4 <.L1772>:
    29e4:	00c15b83          	lhu	s7,12(sp)
    29e8:	ffbb8b93          	addi	s7,s7,-5
    29ec:	01711623          	sh	s7,12(sp)

000029f0 <.L1770>:
    29f0:	02700b93          	li	s7,39
    29f4:	007bd463          	bge	s7,t2,29fc <.L1770+0xc>
    29f8:	3080206f          	j	4d00 <.L1763>
    29fc:	0e400b93          	li	s7,228
    2a00:	006bd463          	bge	s7,t1,2a08 <.L1770+0x18>
    2a04:	23d0506f          	j	8440 <.L1762>
    2a08:	01b00b93          	li	s7,27
    2a0c:	010bd463          	bge	s7,a6,2a14 <.L1770+0x24>
    2a10:	18c0706f          	j	9b9c <.L1774>
    2a14:	00e15b83          	lhu	s7,14(sp)
    2a18:	ff8b8b93          	addi	s7,s7,-8
    2a1c:	01711723          	sh	s7,14(sp)

00002a20 <.L1775>:
    2a20:	00400b93          	li	s7,4
    2a24:	011bd463          	bge	s7,a7,2a2c <.L1775+0xc>
    2a28:	1680206f          	j	4b90 <.L1778>
    2a2c:	03a00b93          	li	s7,58
    2a30:	01fbd463          	bge	s7,t6,2a38 <.L1775+0x18>
    2a34:	4950206f          	j	56c8 <.L1779>
    2a38:	00815b83          	lhu	s7,8(sp)
    2a3c:	02e00c13          	li	s8,46
    2a40:	009b8b93          	addi	s7,s7,9
    2a44:	01711423          	sh	s7,8(sp)
    2a48:	01dc5463          	bge	s8,t4,2a50 <.L1783>
    2a4c:	6e10206f          	j	592c <.L1780>

00002a50 <.L1783>:
    2a50:	01200b93          	li	s7,18
    2a54:	01dbd463          	bge	s7,t4,2a5c <.L1783+0xc>
    2a58:	5600806f          	j	afb8 <.L2813>
    2a5c:	00a15b83          	lhu	s7,10(sp)
    2a60:	ffeb8b93          	addi	s7,s7,-2
    2a64:	010b9b93          	slli	s7,s7,0x10
    2a68:	410bdb93          	srai	s7,s7,0x10

00002a6c <.L1793>:
    2a6c:	01711523          	sh	s7,10(sp)
    2a70:	01500b93          	li	s7,21
    2a74:	010bc463          	blt	s7,a6,2a7c <.L1793+0x10>
    2a78:	47d0206f          	j	56f4 <.L1787>
    2a7c:	03b00b93          	li	s7,59
    2a80:	00fbd463          	bge	s7,a5,2a88 <.L1793+0x1c>
    2a84:	15c0206f          	j	4be0 <.L1796>
    2a88:	ffb00b93          	li	s7,-5
    2a8c:	01765463          	bge	a2,s7,2a94 <.L2646>
    2a90:	1b00206f          	j	4c40 <.L1795>

00002a94 <.L2646>:
    2a94:	00c15b83          	lhu	s7,12(sp)
    2a98:	ffab8b93          	addi	s7,s7,-6
    2a9c:	01711623          	sh	s7,12(sp)

00002aa0 <.L1808>:
    2aa0:	00300b93          	li	s7,3
    2aa4:	01cbd463          	bge	s7,t3,2aac <.L2881>
    2aa8:	1b00206f          	j	4c58 <.L1801>

00002aac <.L2881>:
    2aac:	01300b93          	li	s7,19
    2ab0:	01dbd463          	bge	s7,t4,2ab8 <.L2881+0xc>
    2ab4:	1b80206f          	j	4c6c <.L2647>
    2ab8:	02e00b93          	li	s7,46
    2abc:	012bd463          	bge	s7,s2,2ac4 <.L2881+0x18>
    2ac0:	0940306f          	j	5b54 <.L1815>
    2ac4:	00e15b83          	lhu	s7,14(sp)
    2ac8:	0a900c13          	li	s8,169
    2acc:	ff9b8b93          	addi	s7,s7,-7
    2ad0:	01711723          	sh	s7,14(sp)
    2ad4:	01ec5463          	bge	s8,t5,2adc <.L1818>
    2ad8:	0940306f          	j	5b6c <.L2648>

00002adc <.L1818>:
    2adc:	01c00b93          	li	s7,28
    2ae0:	00fbd463          	bge	s7,a5,2ae8 <.L1818+0xc>
    2ae4:	75c0406f          	j	7240 <.L1828>
    2ae8:	06700b93          	li	s7,103
    2aec:	016bd463          	bge	s7,s6,2af4 <.L1818+0x18>
    2af0:	6050106f          	j	48f4 <.L1829>
    2af4:	00815b83          	lhu	s7,8(sp)
    2af8:	03300c13          	li	s8,51
    2afc:	005b8b93          	addi	s7,s7,5
    2b00:	01711423          	sh	s7,8(sp)
    2b04:	01fc4463          	blt	s8,t6,2b0c <.L1831>
    2b08:	6050106f          	j	490c <.L1832>

00002b0c <.L1831>:
    2b0c:	08000b93          	li	s7,128
    2b10:	00ebd863          	bge	s7,a4,2b20 <.L1845>
    2b14:	00a15b83          	lhu	s7,10(sp)
    2b18:	005b8b93          	addi	s7,s7,5
    2b1c:	01711523          	sh	s7,10(sp)

00002b20 <.L1845>:
    2b20:	00100b93          	li	s7,1
    2b24:	01cbc463          	blt	s7,t3,2b2c <.L1849>
    2b28:	61d0106f          	j	4944 <.L2814>

00002b2c <.L1849>:
    2b2c:	02700b93          	li	s7,39
    2b30:	006bd463          	bge	s7,t1,2b38 <.L1849+0xc>
    2b34:	4440306f          	j	5f78 <.L1857>
    2b38:	ff800b93          	li	s7,-8
    2b3c:	01764463          	blt	a2,s7,2b44 <.L1849+0x18>
    2b40:	1c10606f          	j	9500 <.L1858>
    2b44:	00c15b83          	lhu	s7,12(sp)
    2b48:	ffcb8b93          	addi	s7,s7,-4
    2b4c:	01711623          	sh	s7,12(sp)

00002b50 <.L1856>:
    2b50:	c0000b93          	li	s7,-1024
    2b54:	0175c463          	blt	a1,s7,2b5c <.L1856+0xc>
    2b58:	1810206f          	j	54d8 <.L1859>
    2b5c:	00e15b83          	lhu	s7,14(sp)
    2b60:	01f00c13          	li	s8,31
    2b64:	007b8b93          	addi	s7,s7,7
    2b68:	01711723          	sh	s7,14(sp)
    2b6c:	013c4c63          	blt	s8,s3,2b84 <.L1860>
    2b70:	04600b93          	li	s7,70
    2b74:	011bc463          	blt	s7,a7,2b7c <.L1856+0x2c>
    2b78:	2b10806f          	j	b628 <.L2815>
    2b7c:	03b00b93          	li	s7,59
    2b80:	006bd863          	bge	s7,t1,2b90 <.L1874>

00002b84 <.L1860>:
    2b84:	00815b83          	lhu	s7,8(sp)
    2b88:	ff9b8b93          	addi	s7,s7,-7
    2b8c:	01711423          	sh	s7,8(sp)

00002b90 <.L1874>:
    2b90:	ff900b93          	li	s7,-7
    2b94:	01764463          	blt	a2,s7,2b9c <.L1874+0xc>
    2b98:	5280506f          	j	80c0 <.L1876>
    2b9c:	1d800b93          	li	s7,472
    2ba0:	016bd463          	bge	s7,s6,2ba8 <.L1874+0x18>
    2ba4:	5250706f          	j	a8c8 <.L1877>
    2ba8:	00a15b83          	lhu	s7,10(sp)
    2bac:	ffdb8b93          	addi	s7,s7,-3
    2bb0:	01711523          	sh	s7,10(sp)

00002bb4 <.L1880>:
    2bb4:	fdb00b93          	li	s7,-37
    2bb8:	01774463          	blt	a4,s7,2bc0 <.L2872>
    2bbc:	5f10106f          	j	49ac <.L1882>

00002bc0 <.L2872>:
    2bc0:	01200b93          	li	s7,18
    2bc4:	010bd463          	bge	s7,a6,2bcc <.L2872+0xc>
    2bc8:	3b40406f          	j	6f7c <.L1883>
    2bcc:	00c15b83          	lhu	s7,12(sp)
    2bd0:	05800c13          	li	s8,88
    2bd4:	ff8b8b93          	addi	s7,s7,-8
    2bd8:	01711623          	sh	s7,12(sp)
    2bdc:	009c5463          	bge	s8,s1,2be4 <.L2872+0x24>
    2be0:	5540206f          	j	5134 <.L1884>
    2be4:	f5300b93          	li	s7,-173
    2be8:	01745463          	bge	s0,s7,2bf0 <.L1886>
    2bec:	7b40506f          	j	83a0 <.L1885>

00002bf0 <.L1886>:
    2bf0:	00e15b83          	lhu	s7,14(sp)
    2bf4:	003b8b93          	addi	s7,s7,3
    2bf8:	010b9b93          	slli	s7,s7,0x10
    2bfc:	410bdb93          	srai	s7,s7,0x10

00002c00 <.L1897>:
    2c00:	01711723          	sh	s7,14(sp)
    2c04:	07300b93          	li	s7,115
    2c08:	012bc463          	blt	s7,s2,2c10 <.L1900>
    2c0c:	6010106f          	j	4a0c <.L1894>

00002c10 <.L1900>:
    2c10:	00600b93          	li	s7,6
    2c14:	010bd463          	bge	s7,a6,2c1c <.L1900+0xc>
    2c18:	3a00406f          	j	6fb8 <.L1895>
    2c1c:	ffe00b93          	li	s7,-2
    2c20:	01784863          	blt	a6,s7,2c30 <.L1909>
    2c24:	00815b83          	lhu	s7,8(sp)
    2c28:	ff7b8b93          	addi	s7,s7,-9
    2c2c:	01711423          	sh	s7,8(sp)

00002c30 <.L1909>:
    2c30:	01e00b93          	li	s7,30
    2c34:	013bc463          	blt	s7,s3,2c3c <.L1909+0xc>
    2c38:	5f50106f          	j	4a2c <.L1912>
    2c3c:	efa00b93          	li	s7,-262
    2c40:	01745863          	bge	s0,s7,2c50 <.L1914>
    2c44:	00a15b83          	lhu	s7,10(sp)
    2c48:	009b8b93          	addi	s7,s7,9
    2c4c:	01711523          	sh	s7,10(sp)

00002c50 <.L1914>:
    2c50:	00100b93          	li	s7,1
    2c54:	01cbc463          	blt	s7,t3,2c5c <.L2495>
    2c58:	5f90106f          	j	4a50 <.L1916>

00002c5c <.L2495>:
    2c5c:	01f00b93          	li	s7,31
    2c60:	01dbc463          	blt	s7,t4,2c68 <.L2495+0xc>
    2c64:	4480206f          	j	50ac <.L1923>
    2c68:	11500b93          	li	s7,277
    2c6c:	00dbc463          	blt	s7,a3,2c74 <.L2495+0x18>
    2c70:	6d10206f          	j	5b40 <.L2651>
    2c74:	00c15b83          	lhu	s7,12(sp)
    2c78:	001b8b93          	addi	s7,s7,1
    2c7c:	010b9b93          	slli	s7,s7,0x10
    2c80:	410bdb93          	srai	s7,s7,0x10

00002c84 <.L1922>:
    2c84:	01711623          	sh	s7,12(sp)
    2c88:	ff600b93          	li	s7,-10
    2c8c:	01764463          	blt	a2,s7,2c94 <.L2873>
    2c90:	5ed0106f          	j	4a7c <.L1930>

00002c94 <.L2873>:
    2c94:	02800b93          	li	s7,40
    2c98:	01dbc463          	blt	s7,t4,2ca0 <.L2873+0xc>
    2c9c:	4300206f          	j	50cc <.L1931>
    2ca0:	03900b93          	li	s7,57
    2ca4:	01fbc463          	blt	s7,t6,2cac <.L2873+0x18>
    2ca8:	2ec0306f          	j	5f94 <.L2652>
    2cac:	00e15b83          	lhu	s7,14(sp)
    2cb0:	ffbb8b93          	addi	s7,s7,-5
    2cb4:	01711723          	sh	s7,14(sp)

00002cb8 <.L1927>:
    2cb8:	39000b93          	li	s7,912
    2cbc:	006bd463          	bge	s7,t1,2cc4 <.L2875>
    2cc0:	5ed0106f          	j	4aac <.L1939>

00002cc4 <.L2875>:
    2cc4:	0ba00b93          	li	s7,186
    2cc8:	012bd463          	bge	s7,s2,2cd0 <.L2875+0xc>
    2ccc:	6610406f          	j	7b2c <.L1940>
    2cd0:	0b700b93          	li	s7,183
    2cd4:	012bd863          	bge	s7,s2,2ce4 <.L1941>
    2cd8:	00815b83          	lhu	s7,8(sp)
    2cdc:	008b8b93          	addi	s7,s7,8
    2ce0:	01711423          	sh	s7,8(sp)

00002ce4 <.L1941>:
    2ce4:	e2400b93          	li	s7,-476
    2ce8:	0172c463          	blt	t0,s7,2cf0 <.L2876>
    2cec:	5e50106f          	j	4ad0 <.L1945>

00002cf0 <.L2876>:
    2cf0:	e0200b93          	li	s7,-510
    2cf4:	017ac463          	blt	s5,s7,2cfc <.L2876+0xc>
    2cf8:	2dc0406f          	j	6fd4 <.L1946>
    2cfc:	ff400b93          	li	s7,-12
    2d00:	01764463          	blt	a2,s7,2d08 <.L2876+0x18>
    2d04:	2ec0806f          	j	aff0 <.L1947>
    2d08:	00a15b83          	lhu	s7,10(sp)
    2d0c:	ffbb8b93          	addi	s7,s7,-5
    2d10:	010b9b93          	slli	s7,s7,0x10
    2d14:	410bdb93          	srai	s7,s7,0x10

00002d18 <.L1948>:
    2d18:	01711523          	sh	s7,10(sp)
    2d1c:	03c00b93          	li	s7,60
    2d20:	00fbc463          	blt	s7,a5,2d28 <.L1959>
    2d24:	5e50106f          	j	4b08 <.L1963>

00002d28 <.L1959>:
    2d28:	daa00b93          	li	s7,-598
    2d2c:	017ac463          	blt	s5,s7,2d34 <.L1959+0xc>
    2d30:	2d00406f          	j	7000 <.L1953>
    2d34:	ff300b93          	li	s7,-13
    2d38:	01764463          	blt	a2,s7,2d40 <.L1981>
    2d3c:	2d80806f          	j	b014 <.L1952>

00002d40 <.L1981>:
    2d40:	00c15b83          	lhu	s7,12(sp)
    2d44:	05800c13          	li	s8,88
    2d48:	006b8b93          	addi	s7,s7,6
    2d4c:	01711623          	sh	s7,12(sp)
    2d50:	009c4463          	blt	s8,s1,2d58 <.L1984>
    2d54:	5140506f          	j	8268 <.L1982>

00002d58 <.L1984>:
    2d58:	1a500b93          	li	s7,421
    2d5c:	007bd463          	bge	s7,t2,2d64 <.L1983>
    2d60:	6f40806f          	j	b454 <.L1990>

00002d64 <.L1983>:
    2d64:	00e15b83          	lhu	s7,14(sp)
    2d68:	001b8b93          	addi	s7,s7,1
    2d6c:	01711723          	sh	s7,14(sp)

00002d70 <.L1968>:
    2d70:	01500b93          	li	s7,21
    2d74:	007bd463          	bge	s7,t2,2d7c <.L1966>
    2d78:	6740406f          	j	73ec <.L1975>

00002d7c <.L1966>:
    2d7c:	07000b93          	li	s7,112
    2d80:	012bc863          	blt	s7,s2,2d90 <.L1972>
    2d84:	00815b83          	lhu	s7,8(sp)
    2d88:	007b8b93          	addi	s7,s7,7
    2d8c:	01711423          	sh	s7,8(sp)

00002d90 <.L1972>:
    2d90:	02e00b93          	li	s7,46
    2d94:	01dbc463          	blt	s7,t4,2d9c <.L2877>
    2d98:	5d10106f          	j	4b68 <.L1993>

00002d9c <.L2877>:
    2d9c:	03900b93          	li	s7,57
    2da0:	01fbc463          	blt	s7,t6,2da8 <.L2877+0xc>
    2da4:	54c0506f          	j	82f0 <.L1998>
    2da8:	03d00b93          	li	s7,61
    2dac:	00fbc463          	blt	s7,a5,2db4 <.L1999>
    2db0:	4950606f          	j	9a44 <.L2006>

00002db4 <.L1999>:
    2db4:	25b00b93          	li	s7,603
    2db8:	00ebd463          	bge	s7,a4,2dc0 <.L1999+0xc>
    2dbc:	4140106f          	j	41d0 <.L2004>
    2dc0:	0fe00b93          	li	s7,254
    2dc4:	00dbd463          	bge	s7,a3,2dcc <.L1999+0x18>
    2dc8:	3550506f          	j	891c <.L2008>
    2dcc:	f5600b93          	li	s7,-170
    2dd0:	017a4463          	blt	s4,s7,2dd8 <.L1999+0x24>
    2dd4:	2dc0506f          	j	80b0 <.L2009>
    2dd8:	00c15b83          	lhu	s7,12(sp)
    2ddc:	fffb8b93          	addi	s7,s7,-1
    2de0:	01711623          	sh	s7,12(sp)

00002de4 <.L2010>:
    2de4:	02700b93          	li	s7,39
    2de8:	007bd463          	bge	s7,t2,2df0 <.L2854>
    2dec:	4140106f          	j	4200 <.L2013>

00002df0 <.L2854>:
    2df0:	03d00b93          	li	s7,61
    2df4:	00fbd463          	bge	s7,a5,2dfc <.L2854+0xc>
    2df8:	1ec0506f          	j	7fe4 <.L2014>
    2dfc:	00e15b83          	lhu	s7,14(sp)
    2e00:	ff9b8b93          	addi	s7,s7,-7
    2e04:	010b9b93          	slli	s7,s7,0x10
    2e08:	410bdb93          	srai	s7,s7,0x10

00002e0c <.L2015>:
    2e0c:	01711723          	sh	s7,14(sp)
    2e10:	00400b93          	li	s7,4
    2e14:	011bd463          	bge	s7,a7,2e1c <.L2855>
    2e18:	4200106f          	j	4238 <.L2019>

00002e1c <.L2855>:
    2e1c:	03800b93          	li	s7,56
    2e20:	01fbd463          	bge	s7,t6,2e28 <.L2855+0xc>
    2e24:	1d40506f          	j	7ff8 <.L2020>
    2e28:	00815b83          	lhu	s7,8(sp)
    2e2c:	008b8b93          	addi	s7,s7,8
    2e30:	01711423          	sh	s7,8(sp)

00002e34 <.L2021>:
    2e34:	0f000b93          	li	s7,240
    2e38:	006bc463          	blt	s7,t1,2e40 <.L2856>
    2e3c:	42c0106f          	j	4268 <.L2029>

00002e40 <.L2856>:
    2e40:	f5200b93          	li	s7,-174
    2e44:	0175c463          	blt	a1,s7,2e4c <.L2856+0xc>
    2e48:	21c0506f          	j	8064 <.L2026>
    2e4c:	03700b93          	li	s7,55
    2e50:	01fbd463          	bge	s7,t6,2e58 <.L2856+0x18>
    2e54:	15d0806f          	j	b7b0 <.L2038>
    2e58:	00a15b83          	lhu	s7,10(sp)
    2e5c:	01500c13          	li	s8,21
    2e60:	ffeb8b93          	addi	s7,s7,-2
    2e64:	01711523          	sh	s7,10(sp)
    2e68:	010c5463          	bge	s8,a6,2e70 <.L2035>
    2e6c:	5d80206f          	j	5444 <.L2039>

00002e70 <.L2035>:
    2e70:	02200b93          	li	s7,34
    2e74:	011bc463          	blt	s7,a7,2e7c <.L2035+0xc>
    2e78:	1b80506f          	j	8030 <.L2040>
    2e7c:	00c15b83          	lhu	s7,12(sp)
    2e80:	001b8b93          	addi	s7,s7,1
    2e84:	010b9b93          	slli	s7,s7,0x10
    2e88:	410bdb93          	srai	s7,s7,0x10

00002e8c <.L2043>:
    2e8c:	01711623          	sh	s7,12(sp)
    2e90:	01c04463          	bgtz	t3,2e98 <.L2045>
    2e94:	42c0106f          	j	42c0 <.L2816>

00002e98 <.L2045>:
    2e98:	ff600b93          	li	s7,-10
    2e9c:	01764463          	blt	a2,s7,2ea4 <.L2045+0xc>
    2ea0:	6ad0506f          	j	8d4c <.L2817>
    2ea4:	02900b93          	li	s7,41
    2ea8:	01dbd463          	bge	s7,t4,2eb0 <.L2045+0x18>
    2eac:	38c0806f          	j	b238 <.L2818>
    2eb0:	00e15b83          	lhu	s7,14(sp)
    2eb4:	ffbb8b93          	addi	s7,s7,-5
    2eb8:	010b9b93          	slli	s7,s7,0x10
    2ebc:	410bdb93          	srai	s7,s7,0x10

00002ec0 <.L2058>:
    2ec0:	01711723          	sh	s7,14(sp)
    2ec4:	0a900b93          	li	s7,169
    2ec8:	01ebd463          	bge	s7,t5,2ed0 <.L2050>
    2ecc:	4140106f          	j	42e0 <.L2056>

00002ed0 <.L2050>:
    2ed0:	01c00b13          	li	s6,28
    2ed4:	00fb5463          	bge	s6,a5,2edc <.L2050+0xc>
    2ed8:	5b00206f          	j	5488 <.L2048>
    2edc:	07300b13          	li	s6,115
    2ee0:	01eb5463          	bge	s6,t5,2ee8 <.L2050+0x18>
    2ee4:	7190706f          	j	adfc <.L2069>
    2ee8:	00815b03          	lhu	s6,8(sp)
    2eec:	005b0b13          	addi	s6,s6,5
    2ef0:	01611423          	sh	s6,8(sp)

00002ef4 <.L2070>:
    2ef4:	08300b13          	li	s6,131
    2ef8:	009b5463          	bge	s6,s1,2f00 <.L2070+0xc>
    2efc:	12c0206f          	j	5028 <.L2073>
    2f00:	01900b13          	li	s6,25
    2f04:	013b4463          	blt	s6,s3,2f0c <.L2070+0x18>
    2f08:	4040106f          	j	430c <.L2076>
    2f0c:	00a15b03          	lhu	s6,10(sp)
    2f10:	02700b93          	li	s7,39
    2f14:	fffb0b13          	addi	s6,s6,-1
    2f18:	01611523          	sh	s6,10(sp)
    2f1c:	006bd463          	bge	s7,t1,2f24 <.L2074>
    2f20:	4040106f          	j	4324 <.L2075>

00002f24 <.L2074>:
    2f24:	ff800b13          	li	s6,-8
    2f28:	01665463          	bge	a2,s6,2f30 <.L2092>
    2f2c:	16c0406f          	j	7098 <.L2089>

00002f30 <.L2092>:
    2f30:	00c15b03          	lhu	s6,12(sp)
    2f34:	ffeb0b13          	addi	s6,s6,-2
    2f38:	010b1b13          	slli	s6,s6,0x10
    2f3c:	410b5b13          	srai	s6,s6,0x10

00002f40 <.L2082>:
    2f40:	01611623          	sh	s6,12(sp)
    2f44:	c5700b13          	li	s6,-937
    2f48:	0165c463          	blt	a1,s6,2f50 <.L2858>
    2f4c:	40c0106f          	j	4358 <.L2094>

00002f50 <.L2858>:
    2f50:	00e15b03          	lhu	s6,14(sp)
    2f54:	006b0b13          	addi	s6,s6,6
    2f58:	01611723          	sh	s6,14(sp)

00002f5c <.L2095>:
    2f5c:	01e00b13          	li	s6,30
    2f60:	013b5463          	bge	s6,s3,2f68 <.L2095+0xc>
    2f64:	7d10106f          	j	4f34 <.L2108>
    2f68:	03d00b13          	li	s6,61
    2f6c:	01fb4463          	blt	s6,t6,2f74 <.L2095+0x18>
    2f70:	1440606f          	j	90b4 <.L2819>
    2f74:	07100b13          	li	s6,113
    2f78:	012b5463          	bge	s6,s2,2f80 <.L2095+0x24>
    2f7c:	1640706f          	j	a0e0 <.L2111>
    2f80:	00815b03          	lhu	s6,8(sp)
    2f84:	02e00b93          	li	s7,46
    2f88:	009b0b13          	addi	s6,s6,9
    2f8c:	01611423          	sh	s6,8(sp)
    2f90:	01dbc463          	blt	s7,t4,2f98 <.L2112>
    2f94:	4040106f          	j	4398 <.L2099>

00002f98 <.L2112>:
    2f98:	02b00b13          	li	s6,43
    2f9c:	011b5463          	bge	s6,a7,2fa4 <.L2112+0xc>
    2fa0:	65c0606f          	j	95fc <.L2121>
    2fa4:	00a15b03          	lhu	s6,10(sp)
    2fa8:	008b0b13          	addi	s6,s6,8
    2fac:	01611523          	sh	s6,10(sp)

00002fb0 <.L2115>:
    2fb0:	25b00b13          	li	s6,603
    2fb4:	00eb4463          	blt	s6,a4,2fbc <.L2860>
    2fb8:	4100106f          	j	43c8 <.L2120>

00002fbc <.L2860>:
    2fbc:	fe900b13          	li	s6,-23
    2fc0:	01664463          	blt	a2,s6,2fc8 <.L2860+0xc>
    2fc4:	0850406f          	j	7848 <.L2117>
    2fc8:	dde00b13          	li	s6,-546
    2fcc:	016a4463          	blt	s4,s6,2fd4 <.L2860+0x18>
    2fd0:	4610706f          	j	ac30 <.L2129>
    2fd4:	00c15b03          	lhu	s6,12(sp)
    2fd8:	005b0b13          	addi	s6,s6,5
    2fdc:	01611623          	sh	s6,12(sp)

00002fe0 <.L2124>:
    2fe0:	02600b13          	li	s6,38
    2fe4:	00db5463          	bge	s6,a3,2fec <.L2862>
    2fe8:	4100106f          	j	43f8 <.L2128>

00002fec <.L2862>:
    2fec:	01300b13          	li	s6,19
    2ff0:	00db5463          	bge	s6,a3,2ff8 <.L2862+0xc>
    2ff4:	6f80506f          	j	86ec <.L2127>
    2ff8:	08400b13          	li	s6,132
    2ffc:	007b5463          	bge	s6,t2,3004 <.L2862+0x18>
    3000:	7080406f          	j	7708 <.L2661>
    3004:	00e15b03          	lhu	s6,14(sp)
    3008:	00400b93          	li	s7,4
    300c:	003b0b13          	addi	s6,s6,3
    3010:	01611723          	sh	s6,14(sp)
    3014:	011bc463          	blt	s7,a7,301c <.L2862+0x30>
    3018:	7040206f          	j	571c <.L2148>
    301c:	ff800b13          	li	s6,-8
    3020:	296652e3          	bge	a2,s6,3aa4 <.L2154>

00003024 <.L2134>:
    3024:	01f00b13          	li	s6,31
    3028:	011b5463          	bge	s6,a7,3030 <.L2134+0xc>
    302c:	6440406f          	j	7670 <.L2820>
    3030:	00815b03          	lhu	s6,8(sp)
    3034:	002b0b13          	addi	s6,s6,2
    3038:	010b1b13          	slli	s6,s6,0x10
    303c:	410b5b13          	srai	s6,s6,0x10

00003040 <.L2135>:
    3040:	01611423          	sh	s6,8(sp)
    3044:	03b00b13          	li	s6,59
    3048:	26fb4ce3          	blt	s6,a5,3ac0 <.L2146>

0000304c <.L2834>:
    304c:	33f00b13          	li	s6,831
    3050:	00eb5463          	bge	s6,a4,3058 <.L2834+0xc>
    3054:	6400406f          	j	7694 <.L2149>
    3058:	01400b13          	li	s6,20
    305c:	011b4463          	blt	s6,a7,3064 <.L2153>
    3060:	6ec0206f          	j	574c <.L2151>

00003064 <.L2153>:
    3064:	00a15b03          	lhu	s6,10(sp)
    3068:	ffcb0b13          	addi	s6,s6,-4
    306c:	010b1b13          	slli	s6,s6,0x10
    3070:	410b5b13          	srai	s6,s6,0x10
    3074:	01611523          	sh	s6,10(sp)
    3078:	fdb00b13          	li	s6,-37
    307c:	01675463          	bge	a4,s6,3084 <.L2179>
    3080:	6ec0206f          	j	576c <.L2821>

00003084 <.L2179>:
    3084:	02600b13          	li	s6,38
    3088:	00eb5463          	bge	s6,a4,3090 <.L2179+0xc>
    308c:	6200406f          	j	76ac <.L2156>
    3090:	03c00b13          	li	s6,60
    3094:	00db5863          	bge	s6,a3,30a4 <.L2164>

00003098 <.L2171>:
    3098:	00c15683          	lhu	a3,12(sp)
    309c:	00668693          	addi	a3,a3,6
    30a0:	00d11623          	sh	a3,12(sp)

000030a4 <.L2164>:
    30a4:	03100693          	li	a3,49
    30a8:	00f6d463          	bge	a3,a5,30b0 <.L2894>
    30ac:	6e40206f          	j	5790 <.L2170>

000030b0 <.L2894>:
    30b0:	00e15683          	lhu	a3,14(sp)
    30b4:	ffa68693          	addi	a3,a3,-6
    30b8:	01069693          	slli	a3,a3,0x10
    30bc:	4106d693          	srai	a3,a3,0x10

000030c0 <.L2183>:
    30c0:	00d11723          	sh	a3,14(sp)
    30c4:	0a900b13          	li	s6,169
    30c8:	27eb42e3          	blt	s6,t5,3b2c <.L2187>

000030cc <.L2835>:
    30cc:	000e5463          	bgez	t3,30d4 <.L2835+0x8>
    30d0:	7650506f          	j	9034 <.L2822>
    30d4:	02d00f13          	li	t5,45
    30d8:	01ff5463          	bge	t5,t6,30e0 <.L2835+0x14>
    30dc:	3c00606f          	j	949c <.L2190>
    30e0:	00815f03          	lhu	t5,8(sp)
    30e4:	ffef0f13          	addi	t5,t5,-2
    30e8:	01e11423          	sh	t5,8(sp)

000030ec <.L2189>:
    30ec:	ef600f13          	li	t5,-266
    30f0:	27ead2e3          	bge	s5,t5,3b54 <.L2193>

000030f4 <.L2836>:
    30f4:	ff800f13          	li	t5,-8
    30f8:	01e64463          	blt	a2,t5,3100 <.L2836+0xc>
    30fc:	7450306f          	j	7040 <.L2194>
    3100:	01c51e83          	lh	t4,28(a0)
    3104:	01e00513          	li	a0,30
    3108:	01d55463          	bge	a0,t4,3110 <.L2836+0x1c>
    310c:	3e00706f          	j	a4ec <.L2195>
    3110:	00a15503          	lhu	a0,10(sp)
    3114:	00250513          	addi	a0,a0,2
    3118:	01051513          	slli	a0,a0,0x10
    311c:	41055513          	srai	a0,a0,0x10

00003120 <.L2196>:
    3120:	00a11523          	sh	a0,10(sp)
    3124:	25b00513          	li	a0,603
    3128:	26e540e3          	blt	a0,a4,3b88 <.L2205>

0000312c <.L2201>:
    312c:	00e00513          	li	a0,14
    3130:	01055463          	bge	a0,a6,3138 <.L2201+0xc>
    3134:	4d00406f          	j	7604 <.L2823>
    3138:	f6300513          	li	a0,-157
    313c:	00a5c463          	blt	a1,a0,3144 <.L2201+0x18>
    3140:	7410706f          	j	b080 <.L2206>
    3144:	00c15503          	lhu	a0,12(sp)
    3148:	ffc50513          	addi	a0,a0,-4
    314c:	01051513          	slli	a0,a0,0x10
    3150:	41055513          	srai	a0,a0,0x10

00003154 <.L2207>:
    3154:	00a11623          	sh	a0,12(sp)
    3158:	02800513          	li	a0,40
    315c:	00755463          	bge	a0,t2,3164 <.L2207+0x10>
    3160:	47c0206f          	j	55dc <.L2209>
    3164:	03c00513          	li	a0,60
    3168:	00f54463          	blt	a0,a5,3170 <.L2210>
    316c:	4b80406f          	j	7624 <.L2224>

00003170 <.L2210>:
    3170:	f7a00693          	li	a3,-134
    3174:	26da42e3          	blt	s4,a3,3bd8 <.L2824>

00003178 <.L2218>:
    3178:	00b00693          	li	a3,11
    317c:	0136d463          	bge	a3,s3,3184 <.L2218+0xc>
    3180:	3b10306f          	j	6d30 <.L2234>
    3184:	19f00693          	li	a3,415
    3188:	0126d463          	bge	a3,s2,3190 <.L2218+0x18>
    318c:	3ac0706f          	j	a538 <.L2235>
    3190:	00815683          	lhu	a3,8(sp)
    3194:	00868693          	addi	a3,a3,8
    3198:	01069693          	slli	a3,a3,0x10
    319c:	4106d693          	srai	a3,a3,0x10

000031a0 <.L2236>:
    31a0:	00d11423          	sh	a3,8(sp)

000031a4 <.L2233>:
    31a4:	03300693          	li	a3,51
    31a8:	25f6cee3          	blt	a3,t6,3c04 <.L2238>

000031ac <.L2838>:
    31ac:	11700693          	li	a3,279
    31b0:	00e6d463          	bge	a3,a4,31b8 <.L2838+0xc>
    31b4:	3780106f          	j	452c <.L2214>
    31b8:	ffe00713          	li	a4,-2
    31bc:	00e84463          	blt	a6,a4,31c4 <.L2838+0x18>
    31c0:	7280706f          	j	a8e8 <.L2239>
    31c4:	00a15703          	lhu	a4,10(sp)
    31c8:	f5b00693          	li	a3,-165
    31cc:	fff70713          	addi	a4,a4,-1
    31d0:	00e11523          	sh	a4,10(sp)
    31d4:	00d2c463          	blt	t0,a3,31dc <.L2669>
    31d8:	3780106f          	j	4550 <.L2240>

000031dc <.L2669>:
    31dc:	f5600793          	li	a5,-170
    31e0:	00fa4463          	blt	s4,a5,31e8 <.L2243>
    31e4:	2c00406f          	j	74a4 <.L2241>

000031e8 <.L2243>:
    31e8:	00c15783          	lhu	a5,12(sp)
    31ec:	ffe78793          	addi	a5,a5,-2
    31f0:	01079793          	slli	a5,a5,0x10
    31f4:	4107d793          	srai	a5,a5,0x10

000031f8 <.L2242>:
    31f8:	c0000713          	li	a4,-1024
    31fc:	26e5d4e3          	bge	a1,a4,3c64 <.L2249>

00003200 <.L2839>:
    3200:	00e15703          	lhu	a4,14(sp)
    3204:	00670713          	addi	a4,a4,6
    3208:	00e11723          	sh	a4,14(sp)

0000320c <.L2250>:
    320c:	cc817057          	vsetivli	zero,2,e16,m1,ta,ma
    3210:	00810693          	addi	a3,sp,8
    3214:	0206d087          	vle16.v	v1,(a3)
    3218:	02000713          	li	a4,32
    321c:	5e074157          	vmv.v.x	v2,a4
    3220:	00e15703          	lhu	a4,14(sp)
    3224:	02078793          	addi	a5,a5,32
    3228:	01079793          	slli	a5,a5,0x10
    322c:	021100d7          	vadd.vv	v1,v1,v2
    3230:	02070713          	addi	a4,a4,32
    3234:	01071713          	slli	a4,a4,0x10
    3238:	3e10b157          	vslidedown.vi	v2,v1,1
    323c:	42102557          	vmv.x.s	a0,v1
    3240:	0206d0a7          	vse16.v	v1,(a3)
    3244:	42202657          	vmv.x.s	a2,v2
    3248:	01051513          	slli	a0,a0,0x10
    324c:	01061613          	slli	a2,a2,0x10
    3250:	41065613          	srai	a2,a2,0x10
    3254:	41055513          	srai	a0,a0,0x10
    3258:	00c52533          	slt	a0,a0,a2
    325c:	4107d793          	srai	a5,a5,0x10
    3260:	41075713          	srai	a4,a4,0x10
    3264:	00151613          	slli	a2,a0,0x1
    3268:	00f11623          	sh	a5,12(sp)
    326c:	00c685b3          	add	a1,a3,a2
    3270:	00e11723          	sh	a4,14(sp)
    3274:	00059583          	lh	a1,0(a1)
    3278:	00f5d663          	bge	a1,a5,3284 <.L2252>
    327c:	00200513          	li	a0,2
    3280:	00400613          	li	a2,4

00003284 <.L2252>:
    3284:	00c686b3          	add	a3,a3,a2
    3288:	00069783          	lh	a5,0(a3)
    328c:	00e7d463          	bge	a5,a4,3294 <.L2540>
    3290:	00300513          	li	a0,3

00003294 <.L2540>:
    3294:	03c12403          	lw	s0,60(sp)
    3298:	03812483          	lw	s1,56(sp)
    329c:	03412903          	lw	s2,52(sp)
    32a0:	03012983          	lw	s3,48(sp)
    32a4:	02c12a03          	lw	s4,44(sp)
    32a8:	02812a83          	lw	s5,40(sp)
    32ac:	02412b03          	lw	s6,36(sp)
    32b0:	02012b83          	lw	s7,32(sp)
    32b4:	01c12c03          	lw	s8,28(sp)
    32b8:	01812c83          	lw	s9,24(sp)
    32bc:	04010113          	addi	sp,sp,64
    32c0:	00008067          	ret

000032c4 <.L934>:
    32c4:	00e15b83          	lhu	s7,14(sp)
    32c8:	ffab8b93          	addi	s7,s7,-6
    32cc:	01711723          	sh	s7,14(sp)
    32d0:	e99fd06f          	j	1168 <.L940>

000032d4 <.L712>:
    32d4:	00e15b83          	lhu	s7,14(sp)
    32d8:	0a900c13          	li	s8,169
    32dc:	00cb8b93          	addi	s7,s7,12
    32e0:	01711723          	sh	s7,14(sp)
    32e4:	01ec4463          	blt	s8,t5,32ec <.L712+0x18>
    32e8:	1250306f          	j	6c0c <.L2729>
    32ec:	10700b93          	li	s7,263
    32f0:	007bd463          	bge	s7,t2,32f8 <.L714>
    32f4:	75c0806f          	j	ba50 <.L2533>

000032f8 <.L714>:
    32f8:	00815b83          	lhu	s7,8(sp)
    32fc:	ffcb8b93          	addi	s7,s7,-4
    3300:	01711423          	sh	s7,8(sp)
    3304:	b5dfd06f          	j	e60 <.L715>

00003308 <.L348>:
    3308:	ff700b93          	li	s7,-9
    330c:	01764463          	blt	a2,s7,3314 <.L348+0xc>
    3310:	3c10306f          	j	6ed0 <.L360>
    3314:	03100b93          	li	s7,49
    3318:	01dbd463          	bge	s7,t4,3320 <.L348+0x18>
    331c:	2dd0306f          	j	6df8 <.L361>
    3320:	00a15b83          	lhu	s7,10(sp)
    3324:	17000c13          	li	s8,368
    3328:	ffab8b93          	addi	s7,s7,-6
    332c:	01711523          	sh	s7,10(sp)
    3330:	00dc5463          	bge	s8,a3,3338 <.L353>
    3334:	2dd0306f          	j	6e10 <.L362>

00003338 <.L353>:
    3338:	01200b93          	li	s7,18
    333c:	01dbd463          	bge	s7,t4,3344 <.L353+0xc>
    3340:	4140706f          	j	a754 <.L363>
    3344:	00c15b83          	lhu	s7,12(sp)
    3348:	006b8b93          	addi	s7,s7,6
    334c:	010b9b93          	slli	s7,s7,0x10
    3350:	410bdb93          	srai	s7,s7,0x10
    3354:	01711623          	sh	s7,12(sp)
    3358:	e9900b93          	li	s7,-359
    335c:	0175c463          	blt	a1,s7,3364 <.L368>
    3360:	cf4fd06f          	j	854 <.L372>

00003364 <.L368>:
    3364:	20200b93          	li	s7,514
    3368:	016bd463          	bge	s7,s6,3370 <.L368+0xc>
    336c:	1c40506f          	j	8530 <.L373>
    3370:	df000b93          	li	s7,-528
    3374:	0172c463          	blt	t0,s7,337c <.L368+0x18>
    3378:	2490606f          	j	9dc0 <.L374>
    337c:	00e15b83          	lhu	s7,14(sp)
    3380:	ff7b8b93          	addi	s7,s7,-9
    3384:	010b9b93          	slli	s7,s7,0x10
    3388:	410bdb93          	srai	s7,s7,0x10
    338c:	01711723          	sh	s7,14(sp)
    3390:	0a900b93          	li	s7,169
    3394:	01ebc463          	blt	s7,t5,339c <.L378>
    3398:	cf4fd06f          	j	88c <.L2825>

0000339c <.L378>:
    339c:	ea900b93          	li	s7,-343
    33a0:	017a4463          	blt	s4,s7,33a8 <.L378+0xc>
    33a4:	3490406f          	j	7eec <.L393>
    33a8:	00d00b93          	li	s7,13
    33ac:	013bd463          	bge	s7,s3,33b4 <.L378+0x18>
    33b0:	6e40606f          	j	9a94 <.L394>
    33b4:	00815b83          	lhu	s7,8(sp)
    33b8:	ffdb8b93          	addi	s7,s7,-3
    33bc:	010b9b93          	slli	s7,s7,0x10
    33c0:	410bdb93          	srai	s7,s7,0x10

000033c4 <.L395>:
    33c4:	01711423          	sh	s7,8(sp)
    33c8:	0b500b93          	li	s7,181
    33cc:	006bd463          	bge	s7,t1,33d4 <.L2928>
    33d0:	3490406f          	j	7f18 <.L397>

000033d4 <.L2928>:
    33d4:	00a00b93          	li	s7,10
    33d8:	011bc463          	blt	s7,a7,33e0 <.L2928+0xc>
    33dc:	4880306f          	j	6864 <.L382>
    33e0:	18f00b93          	li	s7,399
    33e4:	01ebc463          	blt	s7,t5,33ec <.L2928+0x18>
    33e8:	ce0fd06f          	j	8c8 <.L388>
    33ec:	00a15b83          	lhu	s7,10(sp)
    33f0:	ffdb8b93          	addi	s7,s7,-3
    33f4:	010b9b93          	slli	s7,s7,0x10
    33f8:	410bdb93          	srai	s7,s7,0x10
    33fc:	01711523          	sh	s7,10(sp)
    3400:	06300b93          	li	s7,99
    3404:	00dbc463          	blt	s7,a3,340c <.L400>
    3408:	ce0fd06f          	j	8e8 <.L2826>

0000340c <.L400>:
    340c:	ff700b93          	li	s7,-9
    3410:	01764463          	blt	a2,s7,3418 <.L400+0xc>
    3414:	1b50406f          	j	7dc8 <.L408>
    3418:	03300b93          	li	s7,51
    341c:	01dbc463          	blt	s7,t4,3424 <.L400+0x18>
    3420:	1950406f          	j	7db4 <.L410>
    3424:	00c15b83          	lhu	s7,12(sp)
    3428:	ffdb8b93          	addi	s7,s7,-3
    342c:	010b9b93          	slli	s7,s7,0x10
    3430:	410bdb93          	srai	s7,s7,0x10
    3434:	01711623          	sh	s7,12(sp)
    3438:	03b00b93          	li	s7,59
    343c:	00fbc463          	blt	s7,a5,3444 <.L411>
    3440:	ce0fd06f          	j	920 <.L2827>

00003444 <.L411>:
    3444:	e4700b93          	li	s7,-441
    3448:	0172c463          	blt	t0,s7,3450 <.L411+0xc>
    344c:	5180306f          	j	6964 <.L407>
    3450:	bf300b93          	li	s7,-1037
    3454:	0175c463          	blt	a1,s7,345c <.L411+0x18>
    3458:	4940306f          	j	68ec <.L406>
    345c:	00e15b83          	lhu	s7,14(sp)
    3460:	00ab8b93          	addi	s7,s7,10
    3464:	010b9b93          	slli	s7,s7,0x10
    3468:	410bdb93          	srai	s7,s7,0x10
    346c:	01711723          	sh	s7,14(sp)
    3470:	0a900b93          	li	s7,169
    3474:	01ebc463          	blt	s7,t5,347c <.L415>
    3478:	cd4fd06f          	j	94c <.L2828>

0000347c <.L415>:
    347c:	01e00b93          	li	s7,30
    3480:	013bd463          	bge	s7,s3,3488 <.L415+0xc>
    3484:	1240506f          	j	85a8 <.L422>
    3488:	ea900b93          	li	s7,-343
    348c:	017a4463          	blt	s4,s7,3494 <.L415+0x18>
    3490:	2480606f          	j	96d8 <.L423>
    3494:	00815b83          	lhu	s7,8(sp)
    3498:	ffbb8b93          	addi	s7,s7,-5
    349c:	010b9b93          	slli	s7,s7,0x10
    34a0:	410bdb93          	srai	s7,s7,0x10
    34a4:	01711423          	sh	s7,8(sp)
    34a8:	03900b93          	li	s7,57
    34ac:	00ebc463          	blt	s7,a4,34b4 <.L424>
    34b0:	cd8fd06f          	j	988 <.L2829>

000034b4 <.L424>:
    34b4:	08c00b93          	li	s7,140
    34b8:	006bd463          	bge	s7,t1,34c0 <.L424+0xc>
    34bc:	0ac0306f          	j	6568 <.L435>
    34c0:	00a00b93          	li	s7,10
    34c4:	011bd463          	bge	s7,a7,34cc <.L424+0x18>
    34c8:	2dc0606f          	j	97a4 <.L436>
    34cc:	00a15b83          	lhu	s7,10(sp)
    34d0:	008b8b93          	addi	s7,s7,8
    34d4:	010b9b93          	slli	s7,s7,0x10
    34d8:	410bdb93          	srai	s7,s7,0x10

000034dc <.L437>:
    34dc:	01711523          	sh	s7,10(sp)
    34e0:	06300b93          	li	s7,99
    34e4:	16dbde63          	bge	s7,a3,3660 <.L432>
    34e8:	ed000b93          	li	s7,-304
    34ec:	017ac463          	blt	s5,s7,34f4 <.L437+0x18>
    34f0:	59d0206f          	j	628c <.L430>
    34f4:	25b00b93          	li	s7,603
    34f8:	00ebc463          	blt	s7,a4,3500 <.L437+0x24>
    34fc:	cc8fd06f          	j	9c4 <.L433>
    3500:	00c15b83          	lhu	s7,12(sp)
    3504:	e2500c13          	li	s8,-475
    3508:	ffeb8b93          	addi	s7,s7,-2
    350c:	01711623          	sh	s7,12(sp)
    3510:	01845463          	bge	s0,s8,3518 <.L447>
    3514:	cd0fd06f          	j	9e4 <.L446>

00003518 <.L447>:
    3518:	03d00b93          	li	s7,61
    351c:	01fbd463          	bge	s7,t6,3524 <.L447+0xc>
    3520:	0a10706f          	j	adc0 <.L455>
    3524:	00e15b83          	lhu	s7,14(sp)
    3528:	ff8b8b93          	addi	s7,s7,-8
    352c:	010b9b93          	slli	s7,s7,0x10
    3530:	410bdb93          	srai	s7,s7,0x10

00003534 <.L454>:
    3534:	01711723          	sh	s7,14(sp)
    3538:	f5c00b93          	li	s7,-164
    353c:	01745463          	bge	s0,s7,3544 <.L454+0x10>
    3540:	cc8fd06f          	j	a08 <.L451>
    3544:	0bb00b93          	li	s7,187
    3548:	012bd463          	bge	s7,s2,3550 <.L454+0x1c>
    354c:	7f50206f          	j	6540 <.L462>
    3550:	18500b93          	li	s7,389
    3554:	009bd463          	bge	s7,s1,355c <.L454+0x28>
    3558:	1cc0606f          	j	9724 <.L463>
    355c:	00815b83          	lhu	s7,8(sp)
    3560:	0b500c13          	li	s8,181
    3564:	009b8b93          	addi	s7,s7,9
    3568:	01711423          	sh	s7,8(sp)
    356c:	006c4463          	blt	s8,t1,3574 <.L472>
    3570:	cd0fd06f          	j	a40 <.L465>

00003574 <.L472>:
    3574:	01300b93          	li	s7,19
    3578:	00ebd463          	bge	s7,a4,3580 <.L472+0xc>
    357c:	3840306f          	j	6900 <.L474>
    3580:	00a15b83          	lhu	s7,10(sp)
    3584:	2be00c13          	li	s8,702
    3588:	ffab8b93          	addi	s7,s7,-6
    358c:	01711523          	sh	s7,10(sp)
    3590:	00dc4463          	blt	s8,a3,3598 <.L472+0x24>
    3594:	3900306f          	j	6924 <.L475>
    3598:	e4e00b93          	li	s7,-434
    359c:	017ac463          	blt	s5,s7,35a4 <.L2571>
    35a0:	4d80806f          	j	ba78 <.L2572>

000035a4 <.L2571>:
    35a4:	00c15b83          	lhu	s7,12(sp)
    35a8:	00bb8b93          	addi	s7,s7,11
    35ac:	01711623          	sh	s7,12(sp)
    35b0:	41d0506f          	j	91cc <.L498>

000035b4 <.L2730>:
    35b4:	01fbd463          	bge	s7,t6,35bc <.L2730+0x8>
    35b8:	3d10606f          	j	a188 <.L1070>
    35bc:	08d00b93          	li	s7,141
    35c0:	00dbd463          	bge	s7,a3,35c8 <.L2730+0x14>
    35c4:	0090806f          	j	bdcc <.L1065>
    35c8:	00e15b83          	lhu	s7,14(sp)
    35cc:	ffe00c13          	li	s8,-2
    35d0:	004b8b93          	addi	s7,s7,4
    35d4:	01711723          	sh	s7,14(sp)
    35d8:	01884463          	blt	a6,s8,35e0 <.L1064>
    35dc:	d7dfd06f          	j	1358 <.L1062>

000035e0 <.L1064>:
    35e0:	de600b93          	li	s7,-538
    35e4:	017a4463          	blt	s4,s7,35ec <.L1064+0xc>
    35e8:	0a50806f          	j	be8c <.L1084>
    35ec:	00815b83          	lhu	s7,8(sp)
    35f0:	30000c13          	li	s8,768
    35f4:	ffab8b93          	addi	s7,s7,-6
    35f8:	01711423          	sh	s7,8(sp)
    35fc:	01ec4463          	blt	s8,t5,3604 <.L1086>
    3600:	d81fd06f          	j	1380 <.L1085>

00003604 <.L1086>:
    3604:	01c51c03          	lh	s8,28(a0)
    3608:	fdf00b93          	li	s7,-33
    360c:	017c4463          	blt	s8,s7,3614 <.L1086+0x10>
    3610:	5950106f          	j	53a4 <.L1100>
    3614:	04900b93          	li	s7,73
    3618:	011bc463          	blt	s7,a7,3620 <.L1086+0x1c>
    361c:	a39fe06f          	j	2054 <.L1104>
    3620:	08600b93          	li	s7,134
    3624:	01dbd463          	bge	s7,t4,362c <.L2258>
    3628:	0450406f          	j	7e6c <.L1110>

0000362c <.L2258>:
    362c:	e4a00b93          	li	s7,-438
    3630:	0172c463          	blt	t0,s7,3638 <.L2258+0xc>
    3634:	a41fe06f          	j	2074 <.L1112>
    3638:	5b50106f          	j	53ec <.L1115>

0000363c <.L425>:
    363c:	42700b93          	li	s7,1063
    3640:	007bd463          	bge	s7,t2,3648 <.L425+0xc>
    3644:	2080606f          	j	984c <.L434>
    3648:	00a15b83          	lhu	s7,10(sp)
    364c:	06300c13          	li	s8,99
    3650:	ff7b8b93          	addi	s7,s7,-9
    3654:	01711523          	sh	s7,10(sp)
    3658:	00dc5463          	bge	s8,a3,3660 <.L432>
    365c:	b5cfd06f          	j	9b8 <.L427>

00003660 <.L432>:
    3660:	f2100b93          	li	s7,-223
    3664:	0175c463          	blt	a1,s7,366c <.L432+0xc>
    3668:	4850206f          	j	62ec <.L2830>
    366c:	23000b93          	li	s7,560
    3670:	01ebd463          	bge	s7,t5,3678 <.L432+0x18>
    3674:	24c0606f          	j	98c0 <.L440>
    3678:	00c15b83          	lhu	s7,12(sp)
    367c:	ff7b8b93          	addi	s7,s7,-9
    3680:	010b9b93          	slli	s7,s7,0x10
    3684:	410bdb93          	srai	s7,s7,0x10
    3688:	01711623          	sh	s7,12(sp)
    368c:	e2500b93          	li	s7,-475
    3690:	01745463          	bge	s0,s7,3698 <.L443>
    3694:	b50fd06f          	j	9e4 <.L446>

00003698 <.L443>:
    3698:	03800b93          	li	s7,56
    369c:	e6ebcee3          	blt	s7,a4,3518 <.L447>
    36a0:	03a00b93          	li	s7,58
    36a4:	00fbd463          	bge	s7,a5,36ac <.L443+0x14>
    36a8:	4e10606f          	j	a388 <.L453>
    36ac:	00e15b83          	lhu	s7,14(sp)
    36b0:	ff9b8b93          	addi	s7,s7,-7
    36b4:	010b9b93          	slli	s7,s7,0x10
    36b8:	410bdb93          	srai	s7,s7,0x10
    36bc:	e79ff06f          	j	3534 <.L454>

000036c0 <.L192>:
    36c0:	00e15e03          	lhu	t3,14(sp)
    36c4:	0d900b93          	li	s7,217
    36c8:	002e0e13          	addi	t3,t3,2
    36cc:	01c11723          	sh	t3,14(sp)
    36d0:	01ebd463          	bge	s7,t5,36d8 <.L194>
    36d4:	f95fc06f          	j	668 <.L2356>

000036d8 <.L194>:
    36d8:	01a00e13          	li	t3,26
    36dc:	010e5463          	bge	t3,a6,36e4 <.L194+0xc>
    36e0:	42d0406f          	j	830c <.L206>
    36e4:	0da00e13          	li	t3,218
    36e8:	012e4463          	blt	t3,s2,36f0 <.L194+0x18>
    36ec:	0750606f          	j	9f60 <.L207>
    36f0:	08000e13          	li	t3,128
    36f4:	00ee4463          	blt	t3,a4,36fc <.L2556>
    36f8:	f95fc06f          	j	68c <.L215>

000036fc <.L2556>:
    36fc:	03d00e13          	li	t3,61
    3700:	00fe4463          	blt	t3,a5,3708 <.L213>
    3704:	51d0506f          	j	9420 <.L211>

00003708 <.L213>:
    3708:	00a15e03          	lhu	t3,10(sp)
    370c:	08c00b93          	li	s7,140
    3710:	ff7e0e13          	addi	t3,t3,-9
    3714:	01c11523          	sh	t3,10(sp)
    3718:	00dbd463          	bge	s7,a3,3720 <.L249>
    371c:	2310206f          	j	614c <.L2726>

00003720 <.L249>:
    3720:	01c51b83          	lh	s7,28(a0)
    3724:	03b00e13          	li	t3,59
    3728:	017e5463          	bge	t3,s7,3730 <.L249+0x10>
    372c:	0080806f          	j	b734 <.L260>
    3730:	00c15e03          	lhu	t3,12(sp)
    3734:	ff7e0e13          	addi	t3,t3,-9
    3738:	01c11623          	sh	t3,12(sp)

0000373c <.L259>:
    373c:	1e500e13          	li	t3,485
    3740:	01ee5463          	bge	t3,t5,3748 <.L259+0xc>
    3744:	3f10406f          	j	8334 <.L277>
    3748:	ec100e13          	li	t3,-319
    374c:	01c44463          	blt	s0,t3,3754 <.L259+0x18>
    3750:	5700606f          	j	9cc0 <.L278>
    3754:	00e15e03          	lhu	t3,14(sp)
    3758:	00ce0e13          	addi	t3,t3,12
    375c:	010e1e13          	slli	t3,t3,0x10
    3760:	410e5e13          	srai	t3,t3,0x10
    3764:	01c11723          	sh	t3,14(sp)
    3768:	efb00e13          	li	t3,-261
    376c:	01ca5463          	bge	s4,t3,3774 <.L280>
    3770:	fb1fc06f          	j	720 <.L2831>

00003774 <.L280>:
    3774:	01f00e13          	li	t3,31
    3778:	013e5463          	bge	t3,s3,3780 <.L280+0xc>
    377c:	13d0306f          	j	70b8 <.L302>
    3780:	0d800e13          	li	t3,216
    3784:	012e5463          	bge	t3,s2,378c <.L280+0x18>
    3788:	34c0706f          	j	aad4 <.L303>
    378c:	00815e03          	lhu	t3,8(sp)
    3790:	00be0e13          	addi	t3,t3,11
    3794:	010e1e13          	slli	t3,t3,0x10
    3798:	410e5e13          	srai	t3,t3,0x10

0000379c <.L304>:
    379c:	01c11423          	sh	t3,8(sp)
    37a0:	2df00e13          	li	t3,735
    37a4:	00ee4463          	blt	t3,a4,37ac <.L304+0x10>
    37a8:	50c0206f          	j	5cb4 <.L305>
    37ac:	00001e37          	lui	t3,0x1
    37b0:	bace0e13          	addi	t3,t3,-1108 # bac <.L552+0x4>
    37b4:	00de5463          	bge	t3,a3,37bc <.L304+0x20>
    37b8:	2140306f          	j	69cc <.L309>
    37bc:	f5100e13          	li	t3,-175
    37c0:	01ca5463          	bge	s4,t3,37c8 <.L304+0x2c>
    37c4:	1110806f          	j	c0d4 <.L2832>
    37c8:	00a15e03          	lhu	t3,10(sp)
    37cc:	08f00b93          	li	s7,143
    37d0:	ff8e0e13          	addi	t3,t3,-8
    37d4:	01c11523          	sh	t3,10(sp)
    37d8:	00dbd463          	bge	s7,a3,37e0 <.L304+0x44>
    37dc:	67c0606f          	j	9e58 <.L2563>
    37e0:	03300e13          	li	t3,51
    37e4:	00fe4463          	blt	t3,a5,37ec <.L2561>
    37e8:	4480806f          	j	bc30 <.L316>

000037ec <.L2561>:
    37ec:	02051e03          	lh	t3,32(a0)

000037f0 <.L313>:
    37f0:	01c51c03          	lh	s8,28(a0)
    37f4:	03b00b93          	li	s7,59
    37f8:	018bd463          	bge	s7,s8,3800 <.L313+0x10>
    37fc:	31c0606f          	j	9b18 <.L322>
    3800:	00c15b83          	lhu	s7,12(sp)
    3804:	ff8b8b93          	addi	s7,s7,-8
    3808:	010b9b93          	slli	s7,s7,0x10
    380c:	010bdb93          	srli	s7,s7,0x10

00003810 <.L323>:
    3810:	01711623          	sh	s7,12(sp)
    3814:	03c00b93          	li	s7,60
    3818:	00fbc463          	blt	s7,a5,3820 <.L325>
    381c:	4f40206f          	j	5d10 <.L319>

00003820 <.L325>:
    3820:	e2d00b93          	li	s7,-467
    3824:	0172c463          	blt	t0,s7,382c <.L325+0xc>
    3828:	2100306f          	j	6a38 <.L329>
    382c:	03e00b93          	li	s7,62
    3830:	00fbd463          	bge	s7,a5,3838 <.L325+0x18>
    3834:	6b40606f          	j	9ee8 <.L339>
    3838:	00e15b83          	lhu	s7,14(sp)
    383c:	ff7b8b93          	addi	s7,s7,-9
    3840:	010b9b93          	slli	s7,s7,0x10
    3844:	410bdb93          	srai	s7,s7,0x10
    3848:	01711723          	sh	s7,14(sp)
    384c:	efb00b93          	li	s7,-261
    3850:	017a5463          	bge	s4,s7,3858 <.L341>
    3854:	f81fc06f          	j	7d4 <.L2833>

00003858 <.L341>:
    3858:	01900b93          	li	s7,25
    385c:	013bd463          	bge	s7,s3,3864 <.L341+0xc>
    3860:	1350206f          	j	6194 <.L346>
    3864:	0be00b93          	li	s7,190
    3868:	012bd463          	bge	s7,s2,3870 <.L341+0x18>
    386c:	f8dfc06f          	j	7f8 <.L344>
    3870:	00815b83          	lhu	s7,8(sp)
    3874:	00ab8b93          	addi	s7,s7,10
    3878:	01711423          	sh	s7,8(sp)
    387c:	f7dfc06f          	j	7f8 <.L344>

00003880 <.L2318>:
    3880:	01e51583          	lh	a1,30(a0)
    3884:	00c51903          	lh	s2,12(a0)

00003888 <.L34>:
    3888:	0b400893          	li	a7,180
    388c:	0128c463          	blt	a7,s2,3894 <.L34+0xc>
    3890:	7640606f          	j	9ff4 <.L37>
    3894:	1b500893          	li	a7,437
    3898:	00e8c463          	blt	a7,a4,38a0 <.L44>
    389c:	ad5fc06f          	j	370 <.L2543>

000038a0 <.L44>:
    38a0:	40a00893          	li	a7,1034
    38a4:	00d8d463          	bge	a7,a3,38ac <.L44+0xc>
    38a8:	7250206f          	j	67cc <.L55>
    38ac:	10f00893          	li	a7,271
    38b0:	0098d463          	bge	a7,s1,38b8 <.L44+0x18>
    38b4:	1990606f          	j	a24c <.L56>
    38b8:	00a15883          	lhu	a7,10(sp)
    38bc:	df700e13          	li	t3,-521
    38c0:	ffe88893          	addi	a7,a7,-2
    38c4:	01111523          	sh	a7,10(sp)
    38c8:	01ca4463          	blt	s4,t3,38d0 <.L60>
    38cc:	7250206f          	j	67f0 <.L2547>

000038d0 <.L60>:
    38d0:	ff400893          	li	a7,-12
    38d4:	01165463          	bge	a2,a7,38dc <.L60+0xc>
    38d8:	1ad0406f          	j	8284 <.L2324>
    38dc:	02a51883          	lh	a7,42(a0)

000038e0 <.L59>:
    38e0:	00c15e03          	lhu	t3,12(sp)
    38e4:	ff6e0e13          	addi	t3,t3,-10
    38e8:	010e1e13          	slli	t3,t3,0x10
    38ec:	410e5e13          	srai	t3,t3,0x10
    38f0:	8ddfc06f          	j	1cc <.L65>

000038f4 <.L136>:
    38f4:	01c51b83          	lh	s7,28(a0)
    38f8:	03500e13          	li	t3,53
    38fc:	017e5463          	bge	t3,s7,3904 <.L136+0x10>
    3900:	1e80706f          	j	aae8 <.L141>
    3904:	00815e03          	lhu	t3,8(sp)
    3908:	0a600b93          	li	s7,166
    390c:	ff7e0e13          	addi	t3,t3,-9
    3910:	01c11423          	sh	t3,8(sp)
    3914:	00ebd463          	bge	s7,a4,391c <.L143>
    3918:	bc1fc06f          	j	4d8 <.L2551>

0000391c <.L143>:
    391c:	ffe00e13          	li	t3,-2
    3920:	01c64463          	blt	a2,t3,3928 <.L143+0xc>
    3924:	47c0306f          	j	6da0 <.L149>
    3928:	e2c00e13          	li	t3,-468
    392c:	01c2c463          	blt	t0,t3,3934 <.L143+0x18>
    3930:	44c0206f          	j	5d7c <.L150>
    3934:	00a15e03          	lhu	t3,10(sp)
    3938:	10b00b93          	li	s7,267
    393c:	001e0e13          	addi	t3,t3,1
    3940:	01c11523          	sh	t3,10(sp)
    3944:	00dbc463          	blt	s7,a3,394c <.L152>
    3948:	44c0206f          	j	5d94 <.L161>

0000394c <.L152>:
    394c:	00c15e03          	lhu	t3,12(sp)
    3950:	012e0e13          	addi	t3,t3,18
    3954:	010e1e13          	slli	t3,t3,0x10
    3958:	410e5e13          	srai	t3,t3,0x10

0000395c <.L175>:
    395c:	01c11623          	sh	t3,12(sp)
    3960:	03c00e13          	li	t3,60
    3964:	00fe5463          	bge	t3,a5,396c <.L170>
    3968:	cd1fc06f          	j	638 <.L174>

0000396c <.L170>:
    396c:	ce400e13          	li	t3,-796
    3970:	01c5c463          	blt	a1,t3,3978 <.L2899>
    3974:	4500206f          	j	5dc4 <.L188>

00003978 <.L2899>:
    3978:	19c00e13          	li	t3,412
    397c:	00ee5463          	bge	t3,a4,3984 <.L2899+0xc>
    3980:	7380206f          	j	60b8 <.L189>
    3984:	00e15e03          	lhu	t3,14(sp)
    3988:	012e0e13          	addi	t3,t3,18
    398c:	010e1e13          	slli	t3,t3,0x10
    3990:	410e5e13          	srai	t3,t3,0x10

00003994 <.L190>:
    3994:	01c11723          	sh	t3,14(sp)
    3998:	0d900e13          	li	t3,217
    399c:	d3ee5ee3          	bge	t3,t5,36d8 <.L194>
    39a0:	07a00e13          	li	t3,122
    39a4:	006e4463          	blt	t3,t1,39ac <.L190+0x18>
    39a8:	7f50306f          	j	799c <.L196>
    39ac:	02700e13          	li	t3,39
    39b0:	00fe5463          	bge	t3,a5,39b8 <.L190+0x24>
    39b4:	6f40806f          	j	c0a8 <.L221>
    39b8:	00815e03          	lhu	t3,8(sp)
    39bc:	08000b93          	li	s7,128
    39c0:	004e0e13          	addi	t3,t3,4
    39c4:	01c11423          	sh	t3,8(sp)
    39c8:	00ebc463          	blt	s7,a4,39d0 <.L190+0x3c>
    39cc:	cc1fc06f          	j	68c <.L215>
    39d0:	f2000e13          	li	t3,-224
    39d4:	01ca4463          	blt	s4,t3,39dc <.L190+0x48>
    39d8:	0800706f          	j	aa58 <.L223>
    39dc:	00a15e03          	lhu	t3,10(sp)
    39e0:	08c00b93          	li	s7,140
    39e4:	009e0e13          	addi	t3,t3,9
    39e8:	01c11523          	sh	t3,10(sp)
    39ec:	00dbc463          	blt	s7,a3,39f4 <.L225>
    39f0:	4580206f          	j	5e48 <.L224>

000039f4 <.L225>:
    39f4:	2df00e13          	li	t3,735
    39f8:	00ee4463          	blt	t3,a4,3a00 <.L225+0xc>
    39fc:	cc1fc06f          	j	6bc <.L236>
    3a00:	7e700e13          	li	t3,2023
    3a04:	00de5463          	bge	t3,a3,3a0c <.L225+0x18>
    3a08:	43d0706f          	j	b644 <.L268>
    3a0c:	00c15e03          	lhu	t3,12(sp)
    3a10:	03d00b93          	li	s7,61
    3a14:	ff6e0e13          	addi	t3,t3,-10
    3a18:	01c11623          	sh	t3,12(sp)
    3a1c:	01779463          	bne	a5,s7,3a24 <.L269>
    3a20:	43d0706f          	j	b65c <.L270>

00003a24 <.L269>:
    3a24:	ce400e13          	li	t3,-796
    3a28:	01c5c463          	blt	a1,t3,3a30 <.L276>
    3a2c:	6a00506f          	j	90cc <.L273>

00003a30 <.L276>:
    3a30:	00e15e03          	lhu	t3,14(sp)
    3a34:	ffae0e13          	addi	t3,t3,-6
    3a38:	010e1e13          	slli	t3,t3,0x10
    3a3c:	410e5e13          	srai	t3,t3,0x10
    3a40:	cd1fc06f          	j	710 <.L275>

00003a44 <.L1160>:
    3a44:	00815b83          	lhu	s7,8(sp)
    3a48:	1b900c13          	li	s8,441
    3a4c:	004b8b93          	addi	s7,s7,4
    3a50:	01711423          	sh	s7,8(sp)
    3a54:	01ec5463          	bge	s8,t5,3a5c <.L1161>
    3a58:	f20fe06f          	j	2178 <.L1162>

00003a5c <.L1161>:
    3a5c:	00a15b83          	lhu	s7,10(sp)
    3a60:	ff8b8b93          	addi	s7,s7,-8
    3a64:	010b9b93          	slli	s7,s7,0x10
    3a68:	410bdb93          	srai	s7,s7,0x10

00003a6c <.L1169>:
    3a6c:	01711523          	sh	s7,10(sp)
    3a70:	03c00b93          	li	s7,60
    3a74:	00fbd463          	bge	s7,a5,3a7c <.L1167>
    3a78:	f2cfe06f          	j	21a4 <.L1171>

00003a7c <.L1167>:
    3a7c:	00f00b93          	li	s7,15
    3a80:	010bc463          	blt	s7,a6,3a88 <.L1167+0xc>
    3a84:	ab1fd06f          	j	1534 <.L1188>
    3a88:	ffc00b93          	li	s7,-4
    3a8c:	65765ae3          	bge	a2,s7,48e0 <.L1192>

00003a90 <.L1196>:
    3a90:	00c15b83          	lhu	s7,12(sp)
    3a94:	005b8b93          	addi	s7,s7,5
    3a98:	010b9b93          	slli	s7,s7,0x10
    3a9c:	410bdb93          	srai	s7,s7,0x10
    3aa0:	f2cfe06f          	j	21cc <.L1189>

00003aa4 <.L2154>:
    3aa4:	00815b03          	lhu	s6,8(sp)
    3aa8:	ffcb0b13          	addi	s6,s6,-4
    3aac:	010b1b13          	slli	s6,s6,0x10
    3ab0:	410b5b13          	srai	s6,s6,0x10
    3ab4:	01611423          	sh	s6,8(sp)
    3ab8:	03b00b13          	li	s6,59
    3abc:	d8fb5863          	bge	s6,a5,304c <.L2834>

00003ac0 <.L2146>:
    3ac0:	ec100b13          	li	s6,-319
    3ac4:	01644463          	blt	s0,s6,3acc <.L2146+0xc>
    3ac8:	2750306f          	j	753c <.L2157>
    3acc:	ef600b13          	li	s6,-266
    3ad0:	016ac463          	blt	s5,s6,3ad8 <.L2146+0x18>
    3ad4:	18d0606f          	j	a460 <.L2158>
    3ad8:	00a15b03          	lhu	s6,10(sp)
    3adc:	fdb00b93          	li	s7,-37
    3ae0:	002b0b13          	addi	s6,s6,2
    3ae4:	01611523          	sh	s6,10(sp)
    3ae8:	01775463          	bge	a4,s7,3af0 <.L2159>
    3aec:	18d0606f          	j	a478 <.L2165>

00003af0 <.L2159>:
    3af0:	02600b13          	li	s6,38
    3af4:	00eb5463          	bge	s6,a4,3afc <.L2159+0xc>
    3af8:	4010706f          	j	b6f8 <.L2178>
    3afc:	03c00b13          	li	s6,60
    3b00:	d8db4c63          	blt	s6,a3,3098 <.L2171>

00003b04 <.L2161>:
    3b04:	05800693          	li	a3,88
    3b08:	0096d463          	bge	a3,s1,3b10 <.L2254>
    3b0c:	6c10306f          	j	79cc <.L2184>

00003b10 <.L2254>:
    3b10:	00e15683          	lhu	a3,14(sp)
    3b14:	0a900b13          	li	s6,169
    3b18:	00c68693          	addi	a3,a3,12
    3b1c:	01069693          	slli	a3,a3,0x10
    3b20:	4106d693          	srai	a3,a3,0x10
    3b24:	00d11723          	sh	a3,14(sp)
    3b28:	dbeb5263          	bge	s6,t5,30cc <.L2835>

00003b2c <.L2187>:
    3b2c:	0ba00f13          	li	t5,186
    3b30:	012f5463          	bge	t5,s2,3b38 <.L2187+0xc>
    3b34:	5510206f          	j	6884 <.L2191>
    3b38:	0ac00f13          	li	t5,172
    3b3c:	db2f5863          	bge	t5,s2,30ec <.L2189>
    3b40:	00815f03          	lhu	t5,8(sp)
    3b44:	007f0f13          	addi	t5,t5,7
    3b48:	01e11423          	sh	t5,8(sp)
    3b4c:	ef600f13          	li	t5,-266
    3b50:	dbeac263          	blt	s5,t5,30f4 <.L2836>

00003b54 <.L2193>:
    3b54:	00c00513          	li	a0,12
    3b58:	01155463          	bge	a0,a7,3b60 <.L2193+0xc>
    3b5c:	36d0306f          	j	76c8 <.L2202>
    3b60:	00b00513          	li	a0,11
    3b64:	01d55463          	bge	a0,t4,3b6c <.L2193+0x18>
    3b68:	1f90606f          	j	a560 <.L2203>
    3b6c:	00a15503          	lhu	a0,10(sp)
    3b70:	ffb50513          	addi	a0,a0,-5
    3b74:	01051513          	slli	a0,a0,0x10
    3b78:	41055513          	srai	a0,a0,0x10
    3b7c:	00a11523          	sh	a0,10(sp)
    3b80:	25b00513          	li	a0,603
    3b84:	dae55463          	bge	a0,a4,312c <.L2201>

00003b88 <.L2205>:
    3b88:	fe900513          	li	a0,-23
    3b8c:	00a64463          	blt	a2,a0,3b94 <.L2205+0xc>
    3b90:	4c80306f          	j	7058 <.L2198>
    3b94:	dde00513          	li	a0,-546
    3b98:	00aa4463          	blt	s4,a0,3ba0 <.L2205+0x18>
    3b9c:	3e00706f          	j	af7c <.L2211>
    3ba0:	00c15503          	lhu	a0,12(sp)
    3ba4:	02800e93          	li	t4,40
    3ba8:	00450513          	addi	a0,a0,4
    3bac:	00a11623          	sh	a0,12(sp)
    3bb0:	167ed2e3          	bge	t4,t2,4514 <.L2212>
    3bb4:	06b00513          	li	a0,107
    3bb8:	169544e3          	blt	a0,s1,4520 <.L2217>

00003bbc <.L2213>:
    3bbc:	f9500513          	li	a0,-107
    3bc0:	00a44463          	blt	s0,a0,3bc8 <.L2213+0xc>
    3bc4:	3440706f          	j	af08 <.L2837>
    3bc8:	00968693          	addi	a3,a3,9
    3bcc:	00d11723          	sh	a3,14(sp)
    3bd0:	f7a00693          	li	a3,-134
    3bd4:	dada5263          	bge	s4,a3,3178 <.L2218>

00003bd8 <.L2824>:
    3bd8:	f4000693          	li	a3,-192
    3bdc:	00da5463          	bge	s4,a3,3be4 <.L2824+0xc>
    3be0:	2310106f          	j	5610 <.L2219>
    3be4:	ff700693          	li	a3,-9
    3be8:	00d64463          	blt	a2,a3,3bf0 <.L2220>
    3bec:	2410106f          	j	562c <.L2230>

00003bf0 <.L2220>:
    3bf0:	00815683          	lhu	a3,8(sp)
    3bf4:	00768693          	addi	a3,a3,7
    3bf8:	00d11423          	sh	a3,8(sp)
    3bfc:	03300693          	li	a3,51
    3c00:	dbf6d663          	bge	a3,t6,31ac <.L2838>

00003c04 <.L2238>:
    3c04:	02b00693          	li	a3,43
    3c08:	0106d463          	bge	a3,a6,3c10 <.L2215>
    3c0c:	05c0506f          	j	8c68 <.L2245>

00003c10 <.L2215>:
    3c10:	00c00713          	li	a4,12
    3c14:	01c75463          	bge	a4,t3,3c1c <.L2215+0xc>
    3c18:	6f00606f          	j	a308 <.L2246>
    3c1c:	00a15703          	lhu	a4,10(sp)
    3c20:	00170713          	addi	a4,a4,1
    3c24:	01071713          	slli	a4,a4,0x10
    3c28:	41075713          	srai	a4,a4,0x10

00003c2c <.L2247>:
    3c2c:	00e11523          	sh	a4,10(sp)
    3c30:	f5b00713          	li	a4,-165
    3c34:	10e2dee3          	bge	t0,a4,4550 <.L2240>
    3c38:	f5600793          	li	a5,-170
    3c3c:	00fa4463          	blt	s4,a5,3c44 <.L2247+0x18>
    3c40:	0650306f          	j	74a4 <.L2241>
    3c44:	03a00793          	li	a5,58
    3c48:	dbf7d063          	bge	a5,t6,31e8 <.L2243>
    3c4c:	00c15783          	lhu	a5,12(sp)
    3c50:	c0000713          	li	a4,-1024
    3c54:	00278793          	addi	a5,a5,2
    3c58:	01079793          	slli	a5,a5,0x10
    3c5c:	4107d793          	srai	a5,a5,0x10
    3c60:	dae5c063          	blt	a1,a4,3200 <.L2839>

00003c64 <.L2249>:
    3c64:	02c00713          	li	a4,44
    3c68:	01175463          	bge	a4,a7,3c70 <.L2249+0xc>
    3c6c:	5680406f          	j	81d4 <.L2251>
    3c70:	d8e89e63          	bne	a7,a4,320c <.L2250>
    3c74:	00e15703          	lhu	a4,14(sp)
    3c78:	00870713          	addi	a4,a4,8
    3c7c:	00e11723          	sh	a4,14(sp)
    3c80:	d8cff06f          	j	320c <.L2250>

00003c84 <.L1543>:
    3c84:	00c15b83          	lhu	s7,12(sp)
    3c88:	01800c13          	li	s8,24
    3c8c:	016b8b93          	addi	s7,s7,22
    3c90:	01711623          	sh	s7,12(sp)
    3c94:	150c58e3          	bge	s8,a6,45e4 <.L1544>

00003c98 <.L1545>:
    3c98:	02600b93          	li	s7,38
    3c9c:	006bc463          	blt	s7,t1,3ca4 <.L1549>
    3ca0:	9fdfe06f          	j	269c <.L1539>

00003ca4 <.L1549>:
    3ca4:	00e15b83          	lhu	s7,14(sp)
    3ca8:	00bb8b93          	addi	s7,s7,11
    3cac:	01711723          	sh	s7,14(sp)
    3cb0:	0a900b93          	li	s7,169
    3cb4:	01ebc463          	blt	s7,t5,3cbc <.L1550>
    3cb8:	9f1fe06f          	j	26a8 <.L2840>

00003cbc <.L1550>:
    3cbc:	01700b93          	li	s7,23
    3cc0:	01dbd463          	bge	s7,t4,3cc8 <.L1550+0xc>
    3cc4:	0450306f          	j	7508 <.L1555>
    3cc8:	00815b83          	lhu	s7,8(sp)
    3ccc:	fffb8b93          	addi	s7,s7,-1
    3cd0:	010b9b93          	slli	s7,s7,0x10
    3cd4:	410bdb93          	srai	s7,s7,0x10
    3cd8:	01711423          	sh	s7,8(sp)
    3cdc:	03300b93          	li	s7,51
    3ce0:	01fbc463          	blt	s7,t6,3ce8 <.L1557>
    3ce4:	9fdfe06f          	j	26e0 <.L2841>

00003ce8 <.L1557>:
    3ce8:	06f00b93          	li	s7,111
    3cec:	00dbd463          	bge	s7,a3,3cf4 <.L1557+0xc>
    3cf0:	6590306f          	j	7b48 <.L1562>
    3cf4:	01b00b93          	li	s7,27
    3cf8:	00ebd463          	bge	s7,a4,3d00 <.L1557+0x18>
    3cfc:	4fc0506f          	j	91f8 <.L1563>
    3d00:	00a15b83          	lhu	s7,10(sp)
    3d04:	fffb8b93          	addi	s7,s7,-1
    3d08:	01711523          	sh	s7,10(sp)

00003d0c <.L1564>:
    3d0c:	02a00b93          	li	s7,42
    3d10:	00dbd463          	bge	s7,a3,3d18 <.L1564+0xc>
    3d14:	6810306f          	j	7b94 <.L1573>
    3d18:	00c15b83          	lhu	s7,12(sp)
    3d1c:	02700c13          	li	s8,39
    3d20:	ffeb8b93          	addi	s7,s7,-2
    3d24:	010b9b93          	slli	s7,s7,0x10
    3d28:	410bdb93          	srai	s7,s7,0x10
    3d2c:	01711623          	sh	s7,12(sp)
    3d30:	007c4463          	blt	s8,t2,3d38 <.L1577>
    3d34:	a15fe06f          	j	2748 <.L2842>

00003d38 <.L1577>:
    3d38:	05800c13          	li	s8,88
    3d3c:	009c5463          	bge	s8,s1,3d44 <.L1577+0xc>
    3d40:	6140406f          	j	8354 <.L1581>
    3d44:	f9500c13          	li	s8,-107
    3d48:	01844463          	blt	s0,s8,3d50 <.L1577+0x18>
    3d4c:	4a40406f          	j	81f0 <.L1579>
    3d50:	00e15c03          	lhu	s8,14(sp)
    3d54:	010c0c13          	addi	s8,s8,16
    3d58:	01811723          	sh	s8,14(sp)
    3d5c:	01f00c13          	li	s8,31
    3d60:	013c4463          	blt	s8,s3,3d68 <.L1582>
    3d64:	a15fe06f          	j	2778 <.L2843>

00003d68 <.L1582>:
    3d68:	e1800c13          	li	s8,-488
    3d6c:	018a4463          	blt	s4,s8,3d74 <.L1582+0xc>
    3d70:	3880406f          	j	80f8 <.L1589>
    3d74:	00815c03          	lhu	s8,8(sp)
    3d78:	ffec0c13          	addi	s8,s8,-2
    3d7c:	01811423          	sh	s8,8(sp)
    3d80:	e2c00c13          	li	s8,-468
    3d84:	0182c463          	blt	t0,s8,3d8c <.L1590>
    3d88:	a1dfe06f          	j	27a4 <.L2844>

00003d8c <.L1590>:
    3d8c:	e0200c13          	li	s8,-510
    3d90:	018ac463          	blt	s5,s8,3d98 <.L1590+0xc>
    3d94:	0d90406f          	j	866c <.L1588>
    3d98:	fef00c13          	li	s8,-17
    3d9c:	01864463          	blt	a2,s8,3da4 <.L1590+0x18>
    3da0:	4490106f          	j	59e8 <.L1592>
    3da4:	00a15c03          	lhu	s8,10(sp)
    3da8:	03c00c93          	li	s9,60
    3dac:	ffac0c13          	addi	s8,s8,-6
    3db0:	01811523          	sh	s8,10(sp)
    3db4:	00fcd463          	bge	s9,a5,3dbc <.L1590+0x30>
    3db8:	0d50406f          	j	868c <.L2711>
    3dbc:	00f00c13          	li	s8,15
    3dc0:	010c5463          	bge	s8,a6,3dc8 <.L1590+0x3c>
    3dc4:	1d40506f          	j	8f98 <.L1599>
    3dc8:	f6300b93          	li	s7,-157
    3dcc:	0175c463          	blt	a1,s7,3dd4 <.L1590+0x48>
    3dd0:	1b40806f          	j	bf84 <.L1600>
    3dd4:	00c15b83          	lhu	s7,12(sp)
    3dd8:	00300c13          	li	s8,3
    3ddc:	ffcb8b93          	addi	s7,s7,-4
    3de0:	01711623          	sh	s7,12(sp)
    3de4:	01cc5463          	bge	s8,t3,3dec <.L1621>
    3de8:	1c40506f          	j	8fac <.L1596>

00003dec <.L1621>:
    3dec:	0c100b93          	li	s7,193
    3df0:	012bc463          	blt	s7,s2,3df8 <.L1621+0xc>
    3df4:	a19fe06f          	j	280c <.L1635>
    3df8:	00e15b83          	lhu	s7,14(sp)
    3dfc:	ffdb8b93          	addi	s7,s7,-3
    3e00:	01711723          	sh	s7,14(sp)

00003e04 <.L1628>:
    3e04:	00400b93          	li	s7,4
    3e08:	011bc463          	blt	s7,a7,3e10 <.L1628+0xc>
    3e0c:	4910106f          	j	5a9c <.L1643>
    3e10:	00e00b93          	li	s7,14
    3e14:	01dbc463          	blt	s7,t4,3e1c <.L1645>
    3e18:	a25fe06f          	j	283c <.L1646>

00003e1c <.L1645>:
    3e1c:	ffc00b93          	li	s7,-4
    3e20:	01764863          	blt	a2,s7,3e30 <.L1673>

00003e24 <.L1665>:
    3e24:	00815b83          	lhu	s7,8(sp)
    3e28:	006b8b93          	addi	s7,s7,6
    3e2c:	01711423          	sh	s7,8(sp)

00003e30 <.L1673>:
    3e30:	02e00b93          	li	s7,46
    3e34:	01dbd463          	bge	s7,t4,3e3c <.L1666>
    3e38:	5910406f          	j	8bc8 <.L1674>

00003e3c <.L1666>:
    3e3c:	01d00b93          	li	s7,29
    3e40:	011bc463          	blt	s7,a7,3e48 <.L1666+0xc>
    3e44:	1ec0806f          	j	c030 <.L2845>
    3e48:	3b500b93          	li	s7,949
    3e4c:	00ebd463          	bge	s7,a4,3e54 <.L1666+0x18>
    3e50:	0840806f          	j	bed4 <.L1687>
    3e54:	00a15b83          	lhu	s7,10(sp)
    3e58:	00100c13          	li	s8,1
    3e5c:	ff7b8b93          	addi	s7,s7,-9
    3e60:	01711523          	sh	s7,10(sp)
    3e64:	01cc4463          	blt	s8,t3,3e6c <.L1689>
    3e68:	0840806f          	j	beec <.L1688>

00003e6c <.L1689>:
    3e6c:	02000b93          	li	s7,32
    3e70:	01dbc463          	blt	s7,t4,3e78 <.L1689+0xc>
    3e74:	a05fe06f          	j	2878 <.L1659>
    3e78:	4790106f          	j	5af0 <.L1692>

00003e7c <.L2770>:
    3e7c:	02c00b93          	li	s7,44
    3e80:	01dbde63          	bge	s7,t4,3e9c <.L1329>
    3e84:	00815b83          	lhu	s7,8(sp)
    3e88:	03400c13          	li	s8,52
    3e8c:	ffab8b93          	addi	s7,s7,-6
    3e90:	01711423          	sh	s7,8(sp)
    3e94:	01dc5463          	bge	s8,t4,3e9c <.L1329>
    3e98:	87dfd06f          	j	1714 <.L1323>

00003e9c <.L1329>:
    3e9c:	ff100b93          	li	s7,-15
    3ea0:	01764463          	blt	a2,s7,3ea8 <.L1329+0xc>
    3ea4:	6d40306f          	j	7578 <.L2846>
    3ea8:	00200b93          	li	s7,2
    3eac:	01cbd463          	bge	s7,t3,3eb4 <.L1329+0x18>
    3eb0:	3140706f          	j	b1c4 <.L1335>
    3eb4:	00a15b83          	lhu	s7,10(sp)
    3eb8:	02a00c13          	li	s8,42
    3ebc:	006b8b93          	addi	s7,s7,6
    3ec0:	01711523          	sh	s7,10(sp)
    3ec4:	00dc4463          	blt	s8,a3,3ecc <.L1329+0x30>
    3ec8:	6dc0306f          	j	75a4 <.L1345>
    3ecc:	02700b93          	li	s7,39
    3ed0:	00ebd463          	bge	s7,a4,3ed8 <.L2697>
    3ed4:	6150706f          	j	bce8 <.L1339>

00003ed8 <.L2697>:
    3ed8:	00900b93          	li	s7,9
    3edc:	012bd463          	bge	s7,s2,3ee4 <.L1346>
    3ee0:	5a50706f          	j	bc84 <.L1340>

00003ee4 <.L1346>:
    3ee4:	00c15b83          	lhu	s7,12(sp)
    3ee8:	03600c13          	li	s8,54
    3eec:	001b8b93          	addi	s7,s7,1
    3ef0:	01711623          	sh	s7,12(sp)
    3ef4:	00fc4463          	blt	s8,a5,3efc <.L1342>
    3ef8:	6c40106f          	j	55bc <.L1341>

00003efc <.L1342>:
    3efc:	00c00b93          	li	s7,12
    3f00:	01cbd463          	bge	s7,t3,3f08 <.L1364>
    3f04:	0e80206f          	j	5fec <.L1354>

00003f08 <.L1364>:
    3f08:	00e15b83          	lhu	s7,14(sp)
    3f0c:	ffab8b93          	addi	s7,s7,-6
    3f10:	010b9b93          	slli	s7,s7,0x10
    3f14:	410bdb93          	srai	s7,s7,0x10
    3f18:	01711723          	sh	s7,14(sp)
    3f1c:	fa300b93          	li	s7,-93
    3f20:	0172d463          	bge	t0,s7,3f28 <.L1367>
    3f24:	cd0fe06f          	j	23f4 <.L2847>

00003f28 <.L1367>:
    3f28:	01f00b93          	li	s7,31
    3f2c:	0d0bc2e3          	blt	s7,a6,47f0 <.L1376>
    3f30:	1a000b93          	li	s7,416
    3f34:	012bd463          	bge	s7,s2,3f3c <.L1367+0x14>
    3f38:	2080706f          	j	b140 <.L1384>
    3f3c:	00815b83          	lhu	s7,8(sp)
    3f40:	03900c13          	li	s8,57
    3f44:	009b8b93          	addi	s7,s7,9
    3f48:	01711423          	sh	s7,8(sp)
    3f4c:	0a6c5ce3          	bge	s8,t1,4804 <.L1372>

00003f50 <.L2619>:
    3f50:	ff800b93          	li	s7,-8
    3f54:	01765463          	bge	a2,s7,3f5c <.L1385>
    3f58:	cc8fe06f          	j	2420 <.L1373>

00003f5c <.L1385>:
    3f5c:	00100b93          	li	s7,1
    3f60:	01cbc463          	blt	s7,t3,3f68 <.L2624>
    3f64:	0e80206f          	j	604c <.L1375>

00003f68 <.L2624>:
    3f68:	02000b93          	li	s7,32
    3f6c:	01dbd463          	bge	s7,t4,3f74 <.L1394>
    3f70:	cecfe06f          	j	245c <.L1402>

00003f74 <.L1394>:
    3f74:	03c00b93          	li	s7,60
    3f78:	0cfbcee3          	blt	s7,a5,4854 <.L1390>

00003f7c <.L1403>:
    3f7c:	e4f00b93          	li	s7,-433
    3f80:	017ad463          	bge	s5,s7,3f88 <.L1403+0xc>
    3f84:	d08fe06f          	j	248c <.L1391>
    3f88:	01700b93          	li	s7,23
    3f8c:	01dbd463          	bge	s7,t4,3f94 <.L1392>
    3f90:	6080406f          	j	8598 <.L1416>

00003f94 <.L1392>:
    3f94:	00e15b83          	lhu	s7,14(sp)
    3f98:	ffbb8b93          	addi	s7,s7,-5
    3f9c:	01711723          	sh	s7,14(sp)
    3fa0:	01f00b93          	li	s7,31
    3fa4:	013bc463          	blt	s7,s3,3fac <.L1422>
    3fa8:	d08fe06f          	j	24b0 <.L1408>

00003fac <.L1422>:
    3fac:	00700b93          	li	s7,7
    3fb0:	011bd463          	bge	s7,a7,3fb8 <.L1422+0xc>
    3fb4:	5510306f          	j	7d04 <.L1409>
    3fb8:	00815b83          	lhu	s7,8(sp)
    3fbc:	fffb8b93          	addi	s7,s7,-1
    3fc0:	01711423          	sh	s7,8(sp)
    3fc4:	03300b93          	li	s7,51
    3fc8:	01fbc463          	blt	s7,t6,3fd0 <.L1426>
    3fcc:	d0cfe06f          	j	24d8 <.L2848>

00003fd0 <.L1426>:
    3fd0:	03b00b93          	li	s7,59
    3fd4:	00fbd463          	bge	s7,a5,3fdc <.L2917>
    3fd8:	2ac0306f          	j	7284 <.L1431>

00003fdc <.L2917>:
    3fdc:	0a500b93          	li	s7,165
    3fe0:	007bd463          	bge	s7,t2,3fe8 <.L2917+0xc>
    3fe4:	d14fe06f          	j	24f8 <.L1429>
    3fe8:	00a15b83          	lhu	s7,10(sp)
    3fec:	005b8b93          	addi	s7,s7,5
    3ff0:	01711523          	sh	s7,10(sp)
    3ff4:	f9800b93          	li	s7,-104
    3ff8:	01745463          	bge	s0,s7,4000 <.L1433>
    3ffc:	d08fe06f          	j	2504 <.L2849>

00004000 <.L1433>:
    4000:	f6d00b93          	li	s7,-147
    4004:	017ac463          	blt	s5,s7,400c <.L1433+0xc>
    4008:	3800306f          	j	7388 <.L1437>
    400c:	0c700b93          	li	s7,199
    4010:	01ebd463          	bge	s7,t5,4018 <.L1433+0x18>
    4014:	0510606f          	j	a864 <.L1438>
    4018:	00c15b83          	lhu	s7,12(sp)
    401c:	017b8b93          	addi	s7,s7,23
    4020:	01711623          	sh	s7,12(sp)
    4024:	d2a00b93          	li	s7,-726
    4028:	0175d463          	bge	a1,s7,4030 <.L1440>
    402c:	d04fe06f          	j	2530 <.L2850>

00004030 <.L1440>:
    4030:	02c00b93          	li	s7,44
    4034:	011bd463          	bge	s7,a7,403c <.L1440+0xc>
    4038:	1f50406f          	j	8a2c <.L1446>
    403c:	01789463          	bne	a7,s7,4044 <.L1440+0x14>
    4040:	3950106f          	j	5bd4 <.L2851>
    4044:	00400b93          	li	s7,4
    4048:	011bd463          	bge	s7,a7,4050 <.L1440+0x20>
    404c:	34d0106f          	j	5b98 <.L1444>
    4050:	03800b93          	li	s7,56
    4054:	01fbd463          	bge	s7,t6,405c <.L1440+0x2c>
    4058:	1a40306f          	j	71fc <.L1450>
    405c:	00815b83          	lhu	s7,8(sp)
    4060:	f8b00c13          	li	s8,-117
    4064:	00bb8b93          	addi	s7,s7,11
    4068:	01711423          	sh	s7,8(sp)
    406c:	0185d463          	bge	a1,s8,4074 <.L1464>
    4070:	d08fe06f          	j	2578 <.L2736>

00004074 <.L1464>:
    4074:	ffe00b93          	li	s7,-2
    4078:	01765463          	bge	a2,s7,4080 <.L1464+0xc>
    407c:	3490106f          	j	5bc4 <.L1468>
    4080:	00a15b83          	lhu	s7,10(sp)
    4084:	ffeb8b93          	addi	s7,s7,-2
    4088:	01711523          	sh	s7,10(sp)
    408c:	02700b93          	li	s7,39
    4090:	01dbc463          	blt	s7,t4,4098 <.L1477>
    4094:	d14fe06f          	j	25a8 <.L1476>

00004098 <.L1477>:
    4098:	34900b93          	li	s7,841
    409c:	00dbd463          	bge	s7,a3,40a4 <.L1477+0xc>
    40a0:	d20fe06f          	j	25c0 <.L1487>
    40a4:	00c15b83          	lhu	s7,12(sp)
    40a8:	ff7b8b93          	addi	s7,s7,-9
    40ac:	01711623          	sh	s7,12(sp)
    40b0:	0a000b93          	li	s7,160
    40b4:	009bc463          	blt	s7,s1,40bc <.L1491>
    40b8:	d14fe06f          	j	25cc <.L2852>

000040bc <.L1491>:
    40bc:	eb800b93          	li	s7,-328
    40c0:	01744463          	blt	s0,s7,40c8 <.L1491+0xc>
    40c4:	3c40306f          	j	7488 <.L1499>
    40c8:	eb100b93          	li	s7,-335
    40cc:	01744863          	blt	s0,s7,40dc <.L1497>
    40d0:	00e15b83          	lhu	s7,14(sp)
    40d4:	009b8b93          	addi	s7,s7,9
    40d8:	01711723          	sh	s7,14(sp)

000040dc <.L1497>:
    40dc:	39000b93          	li	s7,912
    40e0:	006bd463          	bge	s7,t1,40e8 <.L1497+0xc>
    40e4:	1680106f          	j	524c <.L1501>
    40e8:	0ba00b93          	li	s7,186
    40ec:	492bd263          	bge	s7,s2,4570 <.L1502>
    40f0:	00815b83          	lhu	s7,8(sp)
    40f4:	12e00c13          	li	s8,302
    40f8:	01c04463          	bgtz	t3,4100 <.L1497+0x24>
    40fc:	30c0706f          	j	b408 <.L2853>
    4100:	ffab8b93          	addi	s7,s7,-6
    4104:	01711423          	sh	s7,8(sp)
    4108:	006c5463          	bge	s8,t1,4110 <.L1504>
    410c:	d14fe06f          	j	2620 <.L1511>

00004110 <.L1504>:
    4110:	02a00b93          	li	s7,42
    4114:	00dbd463          	bge	s7,a3,411c <.L1504+0xc>
    4118:	1b00306f          	j	72c8 <.L1515>
    411c:	04b00b93          	li	s7,75
    4120:	00ebd463          	bge	s7,a4,4128 <.L1504+0x18>
    4124:	0f90506f          	j	9a1c <.L1516>
    4128:	00a15b83          	lhu	s7,10(sp)
    412c:	fffb8b93          	addi	s7,s7,-1
    4130:	010b9b93          	slli	s7,s7,0x10
    4134:	410bdb93          	srai	s7,s7,0x10

00004138 <.L1517>:
    4138:	01711523          	sh	s7,10(sp)
    413c:	f9800b93          	li	s7,-104
    4140:	47745a63          	bge	s0,s7,45b4 <.L1507>
    4144:	0c700b93          	li	s7,199
    4148:	016bc463          	blt	s7,s6,4150 <.L1529>
    414c:	4710406f          	j	8dbc <.L1528>

00004150 <.L1529>:
    4150:	0aa00b93          	li	s7,170
    4154:	006bd463          	bge	s7,t1,415c <.L1529+0xc>
    4158:	d04fe06f          	j	265c <.L1521>
    415c:	00c15b83          	lhu	s7,12(sp)
    4160:	002b8b93          	addi	s7,s7,2
    4164:	010b9b93          	slli	s7,s7,0x10
    4168:	410bdb93          	srai	s7,s7,0x10
    416c:	01711623          	sh	s7,12(sp)
    4170:	01800b93          	li	s7,24
    4174:	470bd863          	bge	s7,a6,45e4 <.L1544>

00004178 <.L1532>:
    4178:	eee00b93          	li	s7,-274
    417c:	b17adee3          	bge	s5,s7,3c98 <.L1545>
    4180:	01c51c03          	lh	s8,28(a0)
    4184:	02300b93          	li	s7,35
    4188:	018bc463          	blt	s7,s8,4190 <.L2806>
    418c:	d04fe06f          	j	2690 <.L1540>

00004190 <.L2806>:
    4190:	00e15b83          	lhu	s7,14(sp)
    4194:	ffab8b93          	addi	s7,s7,-6
    4198:	01711723          	sh	s7,14(sp)
    419c:	d00fe06f          	j	269c <.L1539>

000041a0 <.L1204>:
    41a0:	00e15b83          	lhu	s7,14(sp)
    41a4:	00400c13          	li	s8,4
    41a8:	ffcb8b93          	addi	s7,s7,-4
    41ac:	01711723          	sh	s7,14(sp)
    41b0:	571c54e3          	bge	s8,a7,4f18 <.L1209>
    41b4:	00e00b93          	li	s7,14
    41b8:	01dbd463          	bge	s7,t4,41c0 <.L1218>
    41bc:	874fe06f          	j	2230 <.L1210>

000041c0 <.L1218>:
    41c0:	00815b83          	lhu	s7,8(sp)
    41c4:	ffab8b93          	addi	s7,s7,-6
    41c8:	01711423          	sh	s7,8(sp)
    41cc:	864fe06f          	j	2230 <.L1210>

000041d0 <.L2004>:
    41d0:	fe900b93          	li	s7,-23
    41d4:	01764463          	blt	a2,s7,41dc <.L2004+0xc>
    41d8:	7280406f          	j	8900 <.L2011>
    41dc:	dde00b93          	li	s7,-546
    41e0:	017a4463          	blt	s4,s7,41e8 <.L2004+0x18>
    41e4:	3300606f          	j	a514 <.L2012>
    41e8:	00c15b83          	lhu	s7,12(sp)
    41ec:	005b8b93          	addi	s7,s7,5
    41f0:	01711623          	sh	s7,12(sp)
    41f4:	02700b93          	li	s7,39
    41f8:	007bc463          	blt	s7,t2,4200 <.L2013>
    41fc:	bf5fe06f          	j	2df0 <.L2854>

00004200 <.L2013>:
    4200:	03000b93          	li	s7,48
    4204:	007bd463          	bge	s7,t2,420c <.L2013+0xc>
    4208:	6890306f          	j	8090 <.L2016>
    420c:	0b800b93          	li	s7,184
    4210:	009bd463          	bge	s7,s1,4218 <.L2013+0x18>
    4214:	1bc0606f          	j	a3d0 <.L2017>
    4218:	00e15b83          	lhu	s7,14(sp)
    421c:	00bb8b93          	addi	s7,s7,11
    4220:	010b9b93          	slli	s7,s7,0x10
    4224:	410bdb93          	srai	s7,s7,0x10
    4228:	01711723          	sh	s7,14(sp)
    422c:	00400b93          	li	s7,4
    4230:	011bc463          	blt	s7,a7,4238 <.L2019>
    4234:	be9fe06f          	j	2e1c <.L2855>

00004238 <.L2019>:
    4238:	00e00b93          	li	s7,14
    423c:	01dbd463          	bge	s7,t4,4244 <.L2019+0xc>
    4240:	6050306f          	j	8044 <.L2027>
    4244:	f9c00b93          	li	s7,-100
    4248:	01744463          	blt	s0,s7,4250 <.L2019+0x18>
    424c:	6090306f          	j	8054 <.L2028>
    4250:	00815b83          	lhu	s7,8(sp)
    4254:	ffbb8b93          	addi	s7,s7,-5
    4258:	01711423          	sh	s7,8(sp)
    425c:	0f000b93          	li	s7,240
    4260:	006bd463          	bge	s7,t1,4268 <.L2029>
    4264:	bddfe06f          	j	2e40 <.L2856>

00004268 <.L2029>:
    4268:	00200b93          	li	s7,2
    426c:	01cbd463          	bge	s7,t3,4274 <.L2029+0xc>
    4270:	1b40106f          	j	5424 <.L2857>
    4274:	03500b93          	li	s7,53
    4278:	00fbd463          	bge	s7,a5,4280 <.L2029+0x18>
    427c:	7a50506f          	j	a220 <.L2031>
    4280:	00a15b83          	lhu	s7,10(sp)
    4284:	01500c13          	li	s8,21
    4288:	006b8b93          	addi	s7,s7,6
    428c:	01711523          	sh	s7,10(sp)
    4290:	010c4463          	blt	s8,a6,4298 <.L2051>
    4294:	5fc0106f          	j	5890 <.L2032>

00004298 <.L2051>:
    4298:	00b00b93          	li	s7,11
    429c:	011bc463          	blt	s7,a7,42a4 <.L2051+0xc>
    42a0:	3850506f          	j	9e24 <.L2033>
    42a4:	00c15b83          	lhu	s7,12(sp)
    42a8:	009b8b93          	addi	s7,s7,9
    42ac:	010b9b93          	slli	s7,s7,0x10
    42b0:	410bdb93          	srai	s7,s7,0x10
    42b4:	01711623          	sh	s7,12(sp)
    42b8:	01c05463          	blez	t3,42c0 <.L2816>
    42bc:	bddfe06f          	j	2e98 <.L2045>

000042c0 <.L2816>:
    42c0:	00e15b83          	lhu	s7,14(sp)
    42c4:	ffab8b93          	addi	s7,s7,-6
    42c8:	010b9b93          	slli	s7,s7,0x10
    42cc:	410bdb93          	srai	s7,s7,0x10
    42d0:	01711723          	sh	s7,14(sp)
    42d4:	0a900b93          	li	s7,169
    42d8:	01ebc463          	blt	s7,t5,42e0 <.L2056>
    42dc:	bf5fe06f          	j	2ed0 <.L2050>

000042e0 <.L2056>:
    42e0:	eba00b93          	li	s7,-326
    42e4:	0175c463          	blt	a1,s7,42ec <.L2056+0xc>
    42e8:	5ec0106f          	j	58d4 <.L2046>
    42ec:	01400b13          	li	s6,20
    42f0:	013b5463          	bge	s6,s3,42f8 <.L2056+0x18>
    42f4:	3450506f          	j	9e38 <.L2072>
    42f8:	00815b03          	lhu	s6,8(sp)
    42fc:	08300b93          	li	s7,131
    4300:	003b0b13          	addi	s6,s6,3
    4304:	01611423          	sh	s6,8(sp)
    4308:	529bc0e3          	blt	s7,s1,5028 <.L2073>

0000430c <.L2076>:
    430c:	00a15b03          	lhu	s6,10(sp)
    4310:	02700b93          	li	s7,39
    4314:	ff9b0b13          	addi	s6,s6,-7
    4318:	01611523          	sh	s6,10(sp)
    431c:	006bc463          	blt	s7,t1,4324 <.L2075>
    4320:	c05fe06f          	j	2f24 <.L2074>

00004324 <.L2075>:
    4324:	ecb00b13          	li	s6,-309
    4328:	016ac463          	blt	s5,s6,4330 <.L2075+0xc>
    432c:	2b00406f          	j	85dc <.L2081>
    4330:	ff900b13          	li	s6,-7
    4334:	536642e3          	blt	a2,s6,5058 <.L2088>

00004338 <.L2087>:
    4338:	00c15b03          	lhu	s6,12(sp)
    433c:	ffbb0b13          	addi	s6,s6,-5
    4340:	010b1b13          	slli	s6,s6,0x10
    4344:	410b5b13          	srai	s6,s6,0x10
    4348:	01611623          	sh	s6,12(sp)
    434c:	c5700b13          	li	s6,-937
    4350:	0165d463          	bge	a1,s6,4358 <.L2094>
    4354:	bfdfe06f          	j	2f50 <.L2858>

00004358 <.L2094>:
    4358:	02c00b13          	li	s6,44
    435c:	011b5463          	bge	s6,a7,4364 <.L2094+0xc>
    4360:	4a80306f          	j	7808 <.L2096>
    4364:	03100b13          	li	s6,49
    4368:	01fb5463          	bge	s6,t6,4370 <.L2094+0x18>
    436c:	bf1fe06f          	j	2f5c <.L2095>
    4370:	00e15b03          	lhu	s6,14(sp)
    4374:	01e00b93          	li	s7,30
    4378:	006b0b13          	addi	s6,s6,6
    437c:	01611723          	sh	s6,14(sp)
    4380:	013bd463          	bge	s7,s3,4388 <.L2094+0x30>
    4384:	2e00706f          	j	b664 <.L2097>
    4388:	01c04463          	bgtz	t3,4390 <.L2103>
    438c:	2890706f          	j	be14 <.L2098>

00004390 <.L2103>:
    4390:	02e00b13          	li	s6,46
    4394:	3ddb44e3          	blt	s6,t4,4f5c <.L2100>

00004398 <.L2099>:
    4398:	ff200b13          	li	s6,-14
    439c:	01664463          	blt	a2,s6,43a4 <.L2099+0xc>
    43a0:	4840306f          	j	7824 <.L2859>
    43a4:	ea400b13          	li	s6,-348
    43a8:	016ac463          	blt	s5,s6,43b0 <.L2099+0x18>
    43ac:	c05fe06f          	j	2fb0 <.L2115>
    43b0:	00a15b03          	lhu	s6,10(sp)
    43b4:	ff7b0b13          	addi	s6,s6,-9
    43b8:	01611523          	sh	s6,10(sp)
    43bc:	25b00b13          	li	s6,603
    43c0:	00eb5463          	bge	s6,a4,43c8 <.L2120>
    43c4:	bf9fe06f          	j	2fbc <.L2860>

000043c8 <.L2120>:
    43c8:	ec500b13          	li	s6,-315
    43cc:	0165c463          	blt	a1,s6,43d4 <.L2120+0xc>
    43d0:	5f10206f          	j	71c0 <.L2861>
    43d4:	22200b13          	li	s6,546
    43d8:	007b5463          	bge	s6,t2,43e0 <.L2120+0x18>
    43dc:	30c0306f          	j	76e8 <.L2123>
    43e0:	00c15b03          	lhu	s6,12(sp)
    43e4:	ffbb0b13          	addi	s6,s6,-5
    43e8:	01611623          	sh	s6,12(sp)
    43ec:	02600b13          	li	s6,38
    43f0:	00db4463          	blt	s6,a3,43f8 <.L2128>
    43f4:	bf9fe06f          	j	2fec <.L2862>

000043f8 <.L2128>:
    43f8:	00300b13          	li	s6,3
    43fc:	75cb48e3          	blt	s6,t3,534c <.L2143>
    4400:	03d00b13          	li	s6,61
    4404:	00fb4463          	blt	s6,a5,440c <.L2128+0x14>
    4408:	5f10506f          	j	a1f8 <.L2144>
    440c:	00400b13          	li	s6,4
    4410:	771b44e3          	blt	s6,a7,5378 <.L2140>
    4414:	06a00b13          	li	s6,106
    4418:	012b4463          	blt	s6,s2,4420 <.L2128+0x28>
    441c:	1a10706f          	j	bdbc <.L2863>
    4420:	00815b03          	lhu	s6,8(sp)
    4424:	001b0b13          	addi	s6,s6,1
    4428:	01611423          	sh	s6,8(sp)
    442c:	e94ff06f          	j	3ac0 <.L2146>

00004430 <.L2754>:
    4430:	00815b83          	lhu	s7,8(sp)
    4434:	34b00c13          	li	s8,843
    4438:	ff6b8b93          	addi	s7,s7,-10
    443c:	01711423          	sh	s7,8(sp)
    4440:	00ec5463          	bge	s8,a4,4448 <.L516>
    4444:	eb8fc06f          	j	afc <.L2574>

00004448 <.L516>:
    4448:	ff900b93          	li	s7,-7
    444c:	01764463          	blt	a2,s7,4454 <.L516+0xc>
    4450:	7e90206f          	j	7438 <.L520>
    4454:	1ba00b93          	li	s7,442
    4458:	016bc463          	blt	s7,s6,4460 <.L516+0x18>
    445c:	5190406f          	j	9174 <.L521>
    4460:	17000b93          	li	s7,368
    4464:	00dbd463          	bge	s7,a3,446c <.L522>
    4468:	5250406f          	j	918c <.L526>

0000446c <.L522>:
    446c:	02200b93          	li	s7,34
    4470:	01dbd463          	bge	s7,t4,4478 <.L2277>
    4474:	7f50206f          	j	7468 <.L536>

00004478 <.L2277>:
    4478:	00c15b83          	lhu	s7,12(sp)
    447c:	002b8b93          	addi	s7,s7,2
    4480:	010b9b93          	slli	s7,s7,0x10
    4484:	410bdb93          	srai	s7,s7,0x10
    4488:	eccfc06f          	j	b54 <.L538>

0000448c <.L501>:
    448c:	01d00b93          	li	s7,29
    4490:	010bd463          	bge	s7,a6,4498 <.L501+0xc>
    4494:	68d0206f          	j	7320 <.L510>
    4498:	11800b93          	li	s7,280
    449c:	012bd463          	bge	s7,s2,44a4 <.L501+0x18>
    44a0:	26c0606f          	j	a70c <.L511>
    44a4:	00815b83          	lhu	s7,8(sp)
    44a8:	009b8b93          	addi	s7,s7,9
    44ac:	010b9b93          	slli	s7,s7,0x10
    44b0:	410bdb93          	srai	s7,s7,0x10

000044b4 <.L512>:
    44b4:	01711423          	sh	s7,8(sp)
    44b8:	34b00b93          	li	s7,843
    44bc:	f8ebd6e3          	bge	s7,a4,4448 <.L516>
    44c0:	00001bb7          	lui	s7,0x1
    44c4:	a9db8b93          	addi	s7,s7,-1379 # a9d <.L470+0x35>
    44c8:	00dbd463          	bge	s7,a3,44d0 <.L512+0x1c>
    44cc:	e3cfc06f          	j	b08 <.L518>
    44d0:	f5100b93          	li	s7,-175
    44d4:	017a5463          	bge	s4,s7,44dc <.L512+0x28>
    44d8:	ab0fd06f          	j	1788 <.L517>
    44dc:	00a15b83          	lhu	s7,10(sp)
    44e0:	17000c13          	li	s8,368
    44e4:	ffbb8b93          	addi	s7,s7,-5
    44e8:	01711523          	sh	s7,10(sp)
    44ec:	00dc4463          	blt	s8,a3,44f4 <.L533>
    44f0:	ab0fd06f          	j	17a0 <.L2575>

000044f4 <.L533>:
    44f4:	3fa00b93          	li	s7,1018
    44f8:	00ebc463          	blt	s7,a4,4500 <.L532>
    44fc:	4910406f          	j	918c <.L526>

00004500 <.L532>:
    4500:	00c15b83          	lhu	s7,12(sp)
    4504:	ff7b8b93          	addi	s7,s7,-9
    4508:	010b9b93          	slli	s7,s7,0x10
    450c:	410bdb93          	srai	s7,s7,0x10
    4510:	e44fc06f          	j	b54 <.L538>

00004514 <.L2212>:
    4514:	03c00613          	li	a2,60
    4518:	00f64463          	blt	a2,a5,4520 <.L2217>
    451c:	0890706f          	j	bda4 <.L2864>

00004520 <.L2217>:
    4520:	03300713          	li	a4,51
    4524:	01f75463          	bge	a4,t6,452c <.L2214>
    4528:	5f00606f          	j	ab18 <.L2865>

0000452c <.L2214>:
    452c:	0ff00713          	li	a4,255
    4530:	00675463          	bge	a4,t1,4538 <.L2214+0xc>
    4534:	5e90506f          	j	a31c <.L2244>
    4538:	00a15703          	lhu	a4,10(sp)
    453c:	f5b00693          	li	a3,-165
    4540:	ffd70713          	addi	a4,a4,-3
    4544:	00e11523          	sh	a4,10(sp)
    4548:	00d2d463          	bge	t0,a3,4550 <.L2240>
    454c:	c91fe06f          	j	31dc <.L2669>

00004550 <.L2240>:
    4550:	01600713          	li	a4,22
    4554:	00f75463          	bge	a4,a5,455c <.L2240+0xc>
    4558:	7d10206f          	j	7528 <.L2248>
    455c:	00c15783          	lhu	a5,12(sp)
    4560:	00178793          	addi	a5,a5,1
    4564:	01079793          	slli	a5,a5,0x10
    4568:	4107d793          	srai	a5,a5,0x10
    456c:	c8dfe06f          	j	31f8 <.L2242>

00004570 <.L1502>:
    4570:	03800b93          	li	s7,56
    4574:	00fbd463          	bge	s7,a5,457c <.L1502+0xc>
    4578:	61c0606f          	j	ab94 <.L2866>
    457c:	00815b83          	lhu	s7,8(sp)
    4580:	12e00c13          	li	s8,302
    4584:	ffeb8b93          	addi	s7,s7,-2
    4588:	01711423          	sh	s7,8(sp)
    458c:	b86c52e3          	bge	s8,t1,4110 <.L1504>

00004590 <.L2630>:
    4590:	00c00b93          	li	s7,12
    4594:	01cbd463          	bge	s7,t3,459c <.L1508>
    4598:	894fe06f          	j	262c <.L1505>

0000459c <.L1508>:
    459c:	00a15b83          	lhu	s7,10(sp)
    45a0:	f9800c13          	li	s8,-104
    45a4:	006b8b93          	addi	s7,s7,6
    45a8:	01711523          	sh	s7,10(sp)
    45ac:	01845463          	bge	s0,s8,45b4 <.L1507>
    45b0:	8a0fe06f          	j	2650 <.L1506>

000045b4 <.L1507>:
    45b4:	f6d00b93          	li	s7,-147
    45b8:	017ac463          	blt	s5,s7,45c0 <.L1507+0xc>
    45bc:	6900306f          	j	7c4c <.L1542>
    45c0:	f4700b93          	li	s7,-185
    45c4:	ed7ad063          	bge	s5,s7,3c84 <.L1543>
    45c8:	00c15b83          	lhu	s7,12(sp)
    45cc:	005b8b93          	addi	s7,s7,5
    45d0:	010b9b93          	slli	s7,s7,0x10
    45d4:	410bdb93          	srai	s7,s7,0x10
    45d8:	01711623          	sh	s7,12(sp)
    45dc:	01800b93          	li	s7,24
    45e0:	b90bcce3          	blt	s7,a6,4178 <.L1532>

000045e4 <.L1544>:
    45e4:	11a00b93          	li	s7,282
    45e8:	007bc463          	blt	s7,t2,45f0 <.L1536>
    45ec:	6840306f          	j	7c70 <.L1537>

000045f0 <.L1536>:
    45f0:	ccd00b93          	li	s7,-819
    45f4:	0175c463          	blt	a1,s7,45fc <.L1536+0xc>
    45f8:	1a80606f          	j	a7a0 <.L1548>
    45fc:	00e15b83          	lhu	s7,14(sp)
    4600:	004b8b93          	addi	s7,s7,4
    4604:	01711723          	sh	s7,14(sp)
    4608:	894fe06f          	j	269c <.L1539>

0000460c <.L1254>:
    460c:	07000b93          	li	s7,112
    4610:	012bd463          	bge	s7,s2,4618 <.L1254+0xc>
    4614:	5f80306f          	j	7c0c <.L2867>
    4618:	00815b83          	lhu	s7,8(sp)
    461c:	008b8b93          	addi	s7,s7,8
    4620:	010b9b93          	slli	s7,s7,0x10
    4624:	410bdb93          	srai	s7,s7,0x10

00004628 <.L1253>:
    4628:	01711423          	sh	s7,8(sp)
    462c:	08c00b93          	li	s7,140
    4630:	006bc463          	blt	s7,t1,4638 <.L1253+0x10>
    4634:	ca1fd06f          	j	22d4 <.L1250>
    4638:	00c00b93          	li	s7,12
    463c:	01cbc463          	blt	s7,t3,4644 <.L1275>
    4640:	1440606f          	j	a784 <.L1251>

00004644 <.L1275>:
    4644:	1fa00b93          	li	s7,506
    4648:	016bc463          	blt	s7,s6,4650 <.L1275+0xc>
    464c:	6e80506f          	j	9d34 <.L1252>
    4650:	00a15b83          	lhu	s7,10(sp)
    4654:	002b8b93          	addi	s7,s7,2
    4658:	010b9b93          	slli	s7,s7,0x10
    465c:	010bdb93          	srli	s7,s7,0x10

00004660 <.L1297>:
    4660:	01711523          	sh	s7,10(sp)
    4664:	03300b93          	li	s7,51
    4668:	00fbd463          	bge	s7,a5,4670 <.L2733>
    466c:	6e40106f          	j	5d50 <.L1284>

00004670 <.L2733>:
    4670:	00900b93          	li	s7,9
    4674:	011bc463          	blt	s7,a7,467c <.L1287>
    4678:	69c0306f          	j	7d14 <.L2610>

0000467c <.L1287>:
    467c:	00300b93          	li	s7,3
    4680:	010bd463          	bge	s7,a6,4688 <.L1287+0xc>
    4684:	6fc0306f          	j	7d80 <.L1291>
    4688:	00c15b83          	lhu	s7,12(sp)
    468c:	ffeb8b93          	addi	s7,s7,-2
    4690:	01711623          	sh	s7,12(sp)

00004694 <.L1292>:
    4694:	f3900b93          	li	s7,-199
    4698:	017a5463          	bge	s4,s7,46a0 <.L1299>
    469c:	6910406f          	j	952c <.L1302>

000046a0 <.L1299>:
    46a0:	01800b93          	li	s7,24
    46a4:	012bc463          	blt	s7,s2,46ac <.L1299+0xc>
    46a8:	68c0306f          	j	7d34 <.L2613>
    46ac:	00e15b83          	lhu	s7,14(sp)
    46b0:	ffe00c13          	li	s8,-2
    46b4:	005b8b93          	addi	s7,s7,5
    46b8:	01711723          	sh	s7,14(sp)
    46bc:	01885463          	bge	a6,s8,46c4 <.L1301>
    46c0:	82cfd06f          	j	16ec <.L1300>

000046c4 <.L1301>:
    46c4:	00300b93          	li	s7,3
    46c8:	00dbd463          	bge	s7,a3,46d0 <.L1301+0xc>
    46cc:	4980506f          	j	9b64 <.L1331>
    46d0:	00815b83          	lhu	s7,8(sp)
    46d4:	003b8b93          	addi	s7,s7,3
    46d8:	010b9b93          	slli	s7,s7,0x10
    46dc:	410bdb93          	srai	s7,s7,0x10
    46e0:	c81fd06f          	j	2360 <.L1332>

000046e4 <.L956>:
    46e4:	fe200b93          	li	s7,-30
    46e8:	01764463          	blt	a2,s7,46f0 <.L956+0xc>
    46ec:	7700206f          	j	6e5c <.L2868>
    46f0:	e3d00b93          	li	s7,-451
    46f4:	09745263          	bge	s0,s7,4778 <.L958>
    46f8:	00a15b83          	lhu	s7,10(sp)
    46fc:	03900c13          	li	s8,57
    4700:	ff9b8b93          	addi	s7,s7,-7
    4704:	01711523          	sh	s7,10(sp)
    4708:	00dc4463          	blt	s8,a3,4710 <.L956+0x2c>
    470c:	ac1fc06f          	j	11cc <.L960>
    4710:	02700b93          	li	s7,39
    4714:	08ebc463          	blt	s7,a4,479c <.L966>

00004718 <.L961>:
    4718:	00c15b83          	lhu	s7,12(sp)
    471c:	cf000c13          	li	s8,-784
    4720:	fffb8b93          	addi	s7,s7,-1
    4724:	01711623          	sh	s7,12(sp)
    4728:	0985d463          	bge	a1,s8,47b0 <.L2408>

0000472c <.L962>:
    472c:	25d00b93          	li	s7,605
    4730:	009bc463          	blt	s7,s1,4738 <.L962+0xc>
    4734:	ac1fc06f          	j	11f4 <.L982>
    4738:	0f600b93          	li	s7,246
    473c:	007bd463          	bge	s7,t2,4744 <.L962+0x18>
    4740:	6a40106f          	j	5de4 <.L992>
    4744:	00e15b83          	lhu	s7,14(sp)
    4748:	fa300c13          	li	s8,-93
    474c:	ffab8b93          	addi	s7,s7,-6
    4750:	01711723          	sh	s7,14(sp)
    4754:	0182d463          	bge	t0,s8,475c <.L2595>
    4758:	6a40106f          	j	5dfc <.L985>

0000475c <.L2595>:
    475c:	11c00b93          	li	s7,284
    4760:	012bd463          	bge	s7,s2,4768 <.L990>
    4764:	6d80406f          	j	8e3c <.L991>

00004768 <.L990>:
    4768:	00815b83          	lhu	s7,8(sp)
    476c:	001b8b93          	addi	s7,s7,1
    4770:	01711423          	sh	s7,8(sp)
    4774:	aadfc06f          	j	1220 <.L1002>

00004778 <.L958>:
    4778:	00a15b83          	lhu	s7,10(sp)
    477c:	03900c13          	li	s8,57
    4780:	005b8b93          	addi	s7,s7,5
    4784:	01711523          	sh	s7,10(sp)
    4788:	00dc4463          	blt	s8,a3,4790 <.L958+0x18>
    478c:	a41fc06f          	j	11cc <.L960>
    4790:	02700b93          	li	s7,39
    4794:	00ebc463          	blt	s7,a4,479c <.L966>
    4798:	7100406f          	j	8ea8 <.L972>

0000479c <.L966>:
    479c:	00c15b83          	lhu	s7,12(sp)
    47a0:	cf000c13          	li	s8,-784
    47a4:	002b8b93          	addi	s7,s7,2
    47a8:	01711623          	sh	s7,12(sp)
    47ac:	f985c0e3          	blt	a1,s8,472c <.L962>

000047b0 <.L2408>:
    47b0:	0de00b93          	li	s7,222
    47b4:	012bd463          	bge	s7,s2,47bc <.L988>
    47b8:	5980206f          	j	6d50 <.L984>

000047bc <.L988>:
    47bc:	00e15b83          	lhu	s7,14(sp)
    47c0:	fa300c13          	li	s8,-93
    47c4:	ffab8b93          	addi	s7,s7,-6
    47c8:	01711723          	sh	s7,14(sp)
    47cc:	0182d463          	bge	t0,s8,47d4 <.L988+0x18>
    47d0:	62c0106f          	j	5dfc <.L985>
    47d4:	11c00b93          	li	s7,284
    47d8:	012bc463          	blt	s7,s2,47e0 <.L995>
    47dc:	eccfd06f          	j	1ea8 <.L994>

000047e0 <.L995>:
    47e0:	00815b83          	lhu	s7,8(sp)
    47e4:	006b8b93          	addi	s7,s7,6
    47e8:	01711423          	sh	s7,8(sp)
    47ec:	a35fc06f          	j	1220 <.L1002>

000047f0 <.L1376>:
    47f0:	00815b83          	lhu	s7,8(sp)
    47f4:	03900c13          	li	s8,57
    47f8:	ffdb8b93          	addi	s7,s7,-3
    47fc:	01711423          	sh	s7,8(sp)
    4800:	f46c4863          	blt	s8,t1,3f50 <.L2619>

00004804 <.L1372>:
    4804:	00800b93          	li	s7,8
    4808:	011bd463          	bge	s7,a7,4810 <.L1372+0xc>
    480c:	49c0306f          	j	7ca8 <.L2869>
    4810:	00900b93          	li	s7,9
    4814:	01dbd463          	bge	s7,t4,481c <.L1372+0x18>
    4818:	3280406f          	j	8b40 <.L1387>
    481c:	00a15b83          	lhu	s7,10(sp)
    4820:	00100c13          	li	s8,1
    4824:	ffbb8b93          	addi	s7,s7,-5
    4828:	01711523          	sh	s7,10(sp)
    482c:	01cc4463          	blt	s8,t3,4834 <.L1372+0x30>
    4830:	1400706f          	j	b970 <.L1388>
    4834:	ff000b93          	li	s7,-16
    4838:	01764463          	blt	a2,s7,4840 <.L1389>
    483c:	6400706f          	j	be7c <.L2870>

00004840 <.L1389>:
    4840:	00c15b83          	lhu	s7,12(sp)
    4844:	007b8b93          	addi	s7,s7,7
    4848:	01711623          	sh	s7,12(sp)
    484c:	03c00b93          	li	s7,60
    4850:	f2fbd663          	bge	s7,a5,3f7c <.L1403>

00004854 <.L1390>:
    4854:	0dc00b93          	li	s7,220
    4858:	00ebc463          	blt	s7,a4,4860 <.L1390+0xc>
    485c:	0050406f          	j	9060 <.L2871>
    4860:	01f00b93          	li	s7,31
    4864:	010bd463          	bge	s7,a6,486c <.L1390+0x18>
    4868:	6040606f          	j	ae6c <.L1421>
    486c:	00e15b83          	lhu	s7,14(sp)
    4870:	ff8b8b93          	addi	s7,s7,-8
    4874:	01711723          	sh	s7,14(sp)
    4878:	c2dfd06f          	j	24a4 <.L1411>

0000487c <.L1152>:
    487c:	00700b93          	li	s7,7
    4880:	011bd463          	bge	s7,a7,4888 <.L1152+0xc>
    4884:	2310206f          	j	72b4 <.L1165>
    4888:	00815b83          	lhu	s7,8(sp)
    488c:	fffb8b93          	addi	s7,s7,-1
    4890:	010b9b93          	slli	s7,s7,0x10
    4894:	010bdb93          	srli	s7,s7,0x10

00004898 <.L1166>:
    4898:	01711423          	sh	s7,8(sp)
    489c:	1b900b93          	li	s7,441
    48a0:	01ebd463          	bge	s7,t5,48a8 <.L1166+0x10>
    48a4:	8d5fd06f          	j	2178 <.L1162>
    48a8:	03b00b93          	li	s7,59
    48ac:	00fbc463          	blt	s7,a5,48b4 <.L1164>
    48b0:	4d40206f          	j	6d84 <.L1158>

000048b4 <.L1164>:
    48b4:	ffe00b93          	li	s7,-2
    48b8:	9b764263          	blt	a2,s7,3a5c <.L1161>
    48bc:	00a15b83          	lhu	s7,10(sp)
    48c0:	03c00c13          	li	s8,60
    48c4:	002b8b93          	addi	s7,s7,2
    48c8:	01711523          	sh	s7,10(sp)
    48cc:	00fc5463          	bge	s8,a5,48d4 <.L1164+0x20>
    48d0:	8d5fd06f          	j	21a4 <.L1171>
    48d4:	00f00b93          	li	s7,15
    48d8:	010bc463          	blt	s7,a6,48e0 <.L1192>
    48dc:	c59fc06f          	j	1534 <.L1188>

000048e0 <.L1192>:
    48e0:	00c15b83          	lhu	s7,12(sp)
    48e4:	ff8b8b93          	addi	s7,s7,-8
    48e8:	010b9b93          	slli	s7,s7,0x10
    48ec:	410bdb93          	srai	s7,s7,0x10
    48f0:	8ddfd06f          	j	21cc <.L1189>

000048f4 <.L1829>:
    48f4:	00815b83          	lhu	s7,8(sp)
    48f8:	03300c13          	li	s8,51
    48fc:	ff3b8b93          	addi	s7,s7,-13
    4900:	01711423          	sh	s7,8(sp)
    4904:	01fc5463          	bge	s8,t6,490c <.L1832>
    4908:	a04fe06f          	j	2b0c <.L1831>

0000490c <.L1832>:
    490c:	1c600b93          	li	s7,454
    4910:	00ebd463          	bge	s7,a4,4918 <.L1832+0xc>
    4914:	07c0406f          	j	8990 <.L1841>
    4918:	03300b93          	li	s7,51
    491c:	017f9463          	bne	t6,s7,4924 <.L1832+0x18>
    4920:	4a50606f          	j	b5c4 <.L1842>
    4924:	00a15b83          	lhu	s7,10(sp)
    4928:	ff8b8b93          	addi	s7,s7,-8
    492c:	010b9b93          	slli	s7,s7,0x10
    4930:	410bdb93          	srai	s7,s7,0x10
    4934:	01711523          	sh	s7,10(sp)

00004938 <.L2882>:
    4938:	00100b93          	li	s7,1
    493c:	01cbd463          	bge	s7,t3,4944 <.L2814>
    4940:	9ecfe06f          	j	2b2c <.L1849>

00004944 <.L2814>:
    4944:	01100b93          	li	s7,17
    4948:	011bd463          	bge	s7,a7,4950 <.L2814+0xc>
    494c:	6b80406f          	j	9004 <.L1850>
    4950:	00c15b83          	lhu	s7,12(sp)
    4954:	c0000c13          	li	s8,-1024
    4958:	ff8b8b93          	addi	s7,s7,-8
    495c:	01711623          	sh	s7,12(sp)
    4960:	0185d463          	bge	a1,s8,4968 <.L2814+0x24>
    4964:	1b10606f          	j	b314 <.L1851>
    4968:	01f00b93          	li	s7,31
    496c:	013bc463          	blt	s7,s3,4974 <.L2814+0x30>
    4970:	0280706f          	j	b998 <.L1852>
    4974:	00815b83          	lhu	s7,8(sp)
    4978:	f8b00c13          	li	s8,-117
    497c:	ff9b8b93          	addi	s7,s7,-7
    4980:	01711423          	sh	s7,8(sp)
    4984:	0185d463          	bge	a1,s8,498c <.L1855>
    4988:	a08fe06f          	j	2b90 <.L1874>

0000498c <.L1855>:
    498c:	00a15b83          	lhu	s7,10(sp)
    4990:	ffeb8b93          	addi	s7,s7,-2
    4994:	010b9b93          	slli	s7,s7,0x10
    4998:	410bdb93          	srai	s7,s7,0x10
    499c:	01711523          	sh	s7,10(sp)

000049a0 <.L2892>:
    49a0:	fdb00b93          	li	s7,-37
    49a4:	01775463          	bge	a4,s7,49ac <.L1882>
    49a8:	a18fe06f          	j	2bc0 <.L2872>

000049ac <.L1882>:
    49ac:	02700b93          	li	s7,39
    49b0:	00ebd463          	bge	s7,a4,49b8 <.L1882+0xc>
    49b4:	1bd0306f          	j	8370 <.L1888>
    49b8:	03c00b93          	li	s7,60
    49bc:	00dbd863          	bge	s7,a3,49cc <.L1889>
    49c0:	00c15b83          	lhu	s7,12(sp)
    49c4:	007b8b93          	addi	s7,s7,7
    49c8:	01711623          	sh	s7,12(sp)

000049cc <.L1889>:
    49cc:	05800b93          	li	s7,88
    49d0:	769bc263          	blt	s7,s1,5134 <.L1884>
    49d4:	f5300b93          	li	s7,-173
    49d8:	01745463          	bge	s0,s7,49e0 <.L1889+0x14>
    49dc:	1c50306f          	j	83a0 <.L1885>
    49e0:	ff900b93          	li	s7,-7
    49e4:	01775463          	bge	a4,s7,49ec <.L1899>
    49e8:	a08fe06f          	j	2bf0 <.L1886>

000049ec <.L1899>:
    49ec:	00e15b83          	lhu	s7,14(sp)
    49f0:	ffbb8b93          	addi	s7,s7,-5
    49f4:	010b9b93          	slli	s7,s7,0x10
    49f8:	410bdb93          	srai	s7,s7,0x10
    49fc:	01711723          	sh	s7,14(sp)
    4a00:	07300b93          	li	s7,115
    4a04:	012bd463          	bge	s7,s2,4a0c <.L1894>
    4a08:	a08fe06f          	j	2c10 <.L1900>

00004a0c <.L1894>:
    4a0c:	00c00b93          	li	s7,12
    4a10:	651bce63          	blt	s7,a7,506c <.L1901>
    4a14:	673bc663          	blt	s7,s3,5080 <.L1907>
    4a18:	00815b83          	lhu	s7,8(sp)
    4a1c:	02b00c13          	li	s8,43
    4a20:	009b8b93          	addi	s7,s7,9
    4a24:	01711423          	sh	s7,8(sp)
    4a28:	670c4263          	blt	s8,a6,508c <.L1903>

00004a2c <.L1912>:
    4a2c:	d7400b93          	li	s7,-652
    4a30:	017ac463          	blt	s5,s7,4a38 <.L1912+0xc>
    4a34:	a1cfe06f          	j	2c50 <.L1914>
    4a38:	00a15b83          	lhu	s7,10(sp)
    4a3c:	ff9b8b93          	addi	s7,s7,-7
    4a40:	01711523          	sh	s7,10(sp)
    4a44:	00100b93          	li	s7,1
    4a48:	01cbd463          	bge	s7,t3,4a50 <.L1916>
    4a4c:	a10fe06f          	j	2c5c <.L2495>

00004a50 <.L1916>:
    4a50:	02100b93          	li	s7,33
    4a54:	00ebd463          	bge	s7,a4,4a5c <.L1916+0xc>
    4a58:	0e80106f          	j	5b40 <.L2651>
    4a5c:	00c15b83          	lhu	s7,12(sp)
    4a60:	fffb8b93          	addi	s7,s7,-1
    4a64:	010b9b93          	slli	s7,s7,0x10
    4a68:	410bdb93          	srai	s7,s7,0x10
    4a6c:	01711623          	sh	s7,12(sp)
    4a70:	ff600b93          	li	s7,-10
    4a74:	01765463          	bge	a2,s7,4a7c <.L1930>
    4a78:	a1cfe06f          	j	2c94 <.L2873>

00004a7c <.L1930>:
    4a7c:	ff600b93          	li	s7,-10
    4a80:	01761463          	bne	a2,s7,4a88 <.L1930+0xc>
    4a84:	1450406f          	j	93c8 <.L2874>
    4a88:	01400b93          	li	s7,20
    4a8c:	013bd463          	bge	s7,s3,4a94 <.L1937>
    4a90:	5040106f          	j	5f94 <.L2652>

00004a94 <.L1937>:
    4a94:	00e15b83          	lhu	s7,14(sp)
    4a98:	fffb8b93          	addi	s7,s7,-1
    4a9c:	01711723          	sh	s7,14(sp)
    4aa0:	39000b93          	li	s7,912
    4aa4:	006bc463          	blt	s7,t1,4aac <.L1939>
    4aa8:	a1cfe06f          	j	2cc4 <.L2875>

00004aac <.L1939>:
    4aac:	01c00b93          	li	s7,28
    4ab0:	00ebd463          	bge	s7,a4,4ab8 <.L1939+0xc>
    4ab4:	6540306f          	j	8108 <.L1943>
    4ab8:	00815b83          	lhu	s7,8(sp)
    4abc:	00bb8b93          	addi	s7,s7,11
    4ac0:	01711423          	sh	s7,8(sp)
    4ac4:	e2400b93          	li	s7,-476
    4ac8:	0172d463          	bge	t0,s7,4ad0 <.L1945>
    4acc:	a24fe06f          	j	2cf0 <.L2876>

00004ad0 <.L1945>:
    4ad0:	03c00b93          	li	s7,60
    4ad4:	01fbd463          	bge	s7,t6,4adc <.L1945+0xc>
    4ad8:	0cd0206f          	j	73a4 <.L1956>
    4adc:	00900b93          	li	s7,9
    4ae0:	01cbd463          	bge	s7,t3,4ae8 <.L1945+0x18>
    4ae4:	6380606f          	j	b11c <.L1957>
    4ae8:	00a15b83          	lhu	s7,10(sp)
    4aec:	001b8b93          	addi	s7,s7,1
    4af0:	010b9b93          	slli	s7,s7,0x10
    4af4:	410bdb93          	srai	s7,s7,0x10
    4af8:	01711523          	sh	s7,10(sp)
    4afc:	03c00b93          	li	s7,60
    4b00:	00fbd463          	bge	s7,a5,4b08 <.L1963>
    4b04:	a24fe06f          	j	2d28 <.L1959>

00004b08 <.L1963>:
    4b08:	42200b93          	li	s7,1058
    4b0c:	007bc463          	blt	s7,t2,4b14 <.L1951>
    4b10:	3d80406f          	j	8ee8 <.L1950>

00004b14 <.L1951>:
    4b14:	e2300b93          	li	s7,-477
    4b18:	01744463          	blt	s0,s7,4b20 <.L1951+0xc>
    4b1c:	6c10406f          	j	99dc <.L1976>
    4b20:	00c15b83          	lhu	s7,12(sp)
    4b24:	05800c13          	li	s8,88
    4b28:	006b8b93          	addi	s7,s7,6
    4b2c:	01711623          	sh	s7,12(sp)
    4b30:	009c5463          	bge	s8,s1,4b38 <.L2655>
    4b34:	6cd0406f          	j	9a00 <.L1977>

00004b38 <.L2655>:
    4b38:	00e15b83          	lhu	s7,14(sp)
    4b3c:	00eb8b93          	addi	s7,s7,14
    4b40:	01711723          	sh	s7,14(sp)

00004b44 <.L1995>:
    4b44:	e7b00b93          	li	s7,-389
    4b48:	0175c463          	blt	a1,s7,4b50 <.L1995+0xc>
    4b4c:	4e40206f          	j	7030 <.L1988>
    4b50:	00815b83          	lhu	s7,8(sp)
    4b54:	ffab8b93          	addi	s7,s7,-6
    4b58:	01711423          	sh	s7,8(sp)
    4b5c:	02e00b93          	li	s7,46
    4b60:	01dbd463          	bge	s7,t4,4b68 <.L1993>
    4b64:	a38fe06f          	j	2d9c <.L2877>

00004b68 <.L1993>:
    4b68:	01d00b93          	li	s7,29
    4b6c:	011bd463          	bge	s7,a7,4b74 <.L1993+0xc>
    4b70:	56c0306f          	j	80dc <.L2878>
    4b74:	ffe00b93          	li	s7,-2
    4b78:	01784463          	blt	a6,s7,4b80 <.L2501>
    4b7c:	a38fe06f          	j	2db4 <.L1999>

00004b80 <.L2501>:
    4b80:	00a15b83          	lhu	s7,10(sp)
    4b84:	ff9b8b93          	addi	s7,s7,-7
    4b88:	01711523          	sh	s7,10(sp)
    4b8c:	a28fe06f          	j	2db4 <.L1999>

00004b90 <.L1778>:
    4b90:	ff800b93          	li	s7,-8
    4b94:	01764463          	blt	a2,s7,4b9c <.L1778+0xc>
    4b98:	5750206f          	j	790c <.L1785>
    4b9c:	01f00b93          	li	s7,31
    4ba0:	571bcce3          	blt	s7,a7,5918 <.L1786>
    4ba4:	00815b83          	lhu	s7,8(sp)
    4ba8:	02e00c13          	li	s8,46
    4bac:	003b8b93          	addi	s7,s7,3
    4bb0:	01711423          	sh	s7,8(sp)
    4bb4:	57dc4ce3          	blt	s8,t4,592c <.L1780>
    4bb8:	01700b93          	li	s7,23
    4bbc:	011bc463          	blt	s7,a7,4bc4 <.L1789>
    4bc0:	e91fd06f          	j	2a50 <.L1783>

00004bc4 <.L1789>:
    4bc4:	00a15b83          	lhu	s7,10(sp)
    4bc8:	01500c13          	li	s8,21
    4bcc:	ff9b8b93          	addi	s7,s7,-7
    4bd0:	01711523          	sh	s7,10(sp)
    4bd4:	330c50e3          	bge	s8,a6,56f4 <.L1787>
    4bd8:	03b00b93          	li	s7,59
    4bdc:	06fbd263          	bge	s7,a5,4c40 <.L1795>

00004be0 <.L1796>:
    4be0:	1df00b93          	li	s7,479
    4be4:	01ebc463          	blt	s7,t5,4bec <.L1796+0xc>
    4be8:	eadfd06f          	j	2a94 <.L2646>
    4bec:	00c15b83          	lhu	s7,12(sp)
    4bf0:	00300c13          	li	s8,3
    4bf4:	018b8bb3          	add	s7,s7,s8
    4bf8:	01711623          	sh	s7,12(sp)
    4bfc:	01cc5463          	bge	s8,t3,4c04 <.L1796+0x24>
    4c00:	3e90606f          	j	b7e8 <.L1810>
    4c04:	01300b93          	li	s7,19
    4c08:	01dbd463          	bge	s7,t4,4c10 <.L1796+0x30>
    4c0c:	0440706f          	j	bc50 <.L2879>
    4c10:	02e00b93          	li	s7,46
    4c14:	012bd463          	bge	s7,s2,4c1c <.L1796+0x3c>
    4c18:	34c0706f          	j	bf64 <.L2880>
    4c1c:	00e15c03          	lhu	s8,14(sp)
    4c20:	00815b83          	lhu	s7,8(sp)
    4c24:	ff9c0c13          	addi	s8,s8,-7

00004c28 <.L2649>:
    4c28:	fffb8b93          	addi	s7,s7,-1
    4c2c:	01711423          	sh	s7,8(sp)
    4c30:	01811723          	sh	s8,14(sp)
    4c34:	03300b93          	li	s7,51
    4c38:	09fbc463          	blt	s7,t6,4cc0 <.L1846>
    4c3c:	cd1ff06f          	j	490c <.L1832>

00004c40 <.L1795>:
    4c40:	00c15b83          	lhu	s7,12(sp)
    4c44:	008b8b93          	addi	s7,s7,8
    4c48:	01711623          	sh	s7,12(sp)
    4c4c:	00300b93          	li	s7,3
    4c50:	01cbc463          	blt	s7,t3,4c58 <.L1801>
    4c54:	e59fd06f          	j	2aac <.L2881>

00004c58 <.L1801>:
    4c58:	e4a00b93          	li	s7,-438
    4c5c:	0172c463          	blt	t0,s7,4c64 <.L1801+0xc>
    4c60:	1940406f          	j	8df4 <.L1821>
    4c64:	de700b93          	li	s7,-537
    4c68:	0175c863          	blt	a1,s7,4c78 <.L1822>

00004c6c <.L2647>:
    4c6c:	00e15b83          	lhu	s7,14(sp)
    4c70:	ff8b8b93          	addi	s7,s7,-8
    4c74:	01711723          	sh	s7,14(sp)

00004c78 <.L1822>:
    4c78:	0a900b93          	li	s7,169
    4c7c:	01ebc463          	blt	s7,t5,4c84 <.L1827>
    4c80:	e5dfd06f          	j	2adc <.L1818>

00004c84 <.L1827>:
    4c84:	01700b93          	li	s7,23
    4c88:	6fdbd2e3          	bge	s7,t4,5b6c <.L2648>

00004c8c <.L1836>:
    4c8c:	01c51c03          	lh	s8,28(a0)
    4c90:	02500b93          	li	s7,37
    4c94:	6d8bdce3          	bge	s7,s8,5b6c <.L2648>
    4c98:	00815b83          	lhu	s7,8(sp)
    4c9c:	004b8b93          	addi	s7,s7,4
    4ca0:	010b9b93          	slli	s7,s7,0x10
    4ca4:	410bdb93          	srai	s7,s7,0x10

00004ca8 <.L1835>:
    4ca8:	01711423          	sh	s7,8(sp)
    4cac:	03300b93          	li	s7,51
    4cb0:	c5fbdee3          	bge	s7,t6,490c <.L1832>
    4cb4:	03b00b93          	li	s7,59
    4cb8:	00fbc463          	blt	s7,a5,4cc0 <.L1846>
    4cbc:	e51fd06f          	j	2b0c <.L1831>

00004cc0 <.L1846>:
    4cc0:	17900b93          	li	s7,377
    4cc4:	009bd463          	bge	s7,s1,4ccc <.L1846+0xc>
    4cc8:	e59fd06f          	j	2b20 <.L1845>
    4ccc:	00a15b83          	lhu	s7,10(sp)
    4cd0:	ff9b8b93          	addi	s7,s7,-7
    4cd4:	01711523          	sh	s7,10(sp)
    4cd8:	c61ff06f          	j	4938 <.L2882>

00004cdc <.L1759>:
    4cdc:	faf00b93          	li	s7,-81
    4ce0:	01744463          	blt	s0,s7,4ce8 <.L1759+0xc>
    4ce4:	7440306f          	j	8428 <.L2883>
    4ce8:	00c15b83          	lhu	s7,12(sp)
    4cec:	02700c13          	li	s8,39
    4cf0:	001b8b93          	addi	s7,s7,1
    4cf4:	01711623          	sh	s7,12(sp)
    4cf8:	007c4463          	blt	s8,t2,4d00 <.L1763>
    4cfc:	7440306f          	j	8440 <.L1762>

00004d00 <.L1763>:
    4d00:	03000b93          	li	s7,48
    4d04:	007bd463          	bge	s7,t2,4d0c <.L1763+0xc>
    4d08:	68d0106f          	j	6b94 <.L1776>
    4d0c:	0b800b93          	li	s7,184
    4d10:	009bd463          	bge	s7,s1,4d18 <.L1763+0x18>
    4d14:	1680606f          	j	ae7c <.L1777>
    4d18:	00e15b83          	lhu	s7,14(sp)
    4d1c:	00db8b93          	addi	s7,s7,13
    4d20:	01711723          	sh	s7,14(sp)
    4d24:	cfdfd06f          	j	2a20 <.L1775>

00004d28 <.L1753>:
    4d28:	00c00b93          	li	s7,12
    4d2c:	01cbd463          	bge	s7,t3,4d34 <.L1753+0xc>
    4d30:	6810106f          	j	6bb0 <.L1757>
    4d34:	03300b93          	li	s7,51
    4d38:	01fbd463          	bge	s7,t6,4d40 <.L1753+0x18>
    4d3c:	4790306f          	j	89b4 <.L1758>
    4d40:	00a15b83          	lhu	s7,10(sp)
    4d44:	ffab8b93          	addi	s7,s7,-6
    4d48:	01711523          	sh	s7,10(sp)
    4d4c:	f9800b93          	li	s7,-104
    4d50:	01745463          	bge	s0,s7,4d58 <.L2812>
    4d54:	c7dfd06f          	j	29d0 <.L1768>

00004d58 <.L2812>:
    4d58:	faf00b93          	li	s7,-81
    4d5c:	01744463          	blt	s0,s7,4d64 <.L2812+0xc>
    4d60:	c85fd06f          	j	29e4 <.L1772>
    4d64:	03200b93          	li	s7,50
    4d68:	01fbd463          	bge	s7,t6,4d70 <.L2812+0x18>
    4d6c:	7280606f          	j	b494 <.L1773>
    4d70:	00c15b83          	lhu	s7,12(sp)
    4d74:	011b8b93          	addi	s7,s7,17
    4d78:	01711623          	sh	s7,12(sp)
    4d7c:	c75fd06f          	j	29f0 <.L1770>

00004d80 <.L1725>:
    4d80:	00a15b83          	lhu	s7,10(sp)
    4d84:	02200c13          	li	s8,34
    4d88:	ff5b8b93          	addi	s7,s7,-11
    4d8c:	01711523          	sh	s7,10(sp)
    4d90:	011c5463          	bge	s8,a7,4d98 <.L1725+0x18>
    4d94:	14d0606f          	j	b6e0 <.L1726>
    4d98:	01700b93          	li	s7,23
    4d9c:	01dbd463          	bge	s7,t4,4da4 <.L1725+0x24>
    4da0:	7380306f          	j	84d8 <.L1727>
    4da4:	1dc00b93          	li	s7,476
    4da8:	01ebd463          	bge	s7,t5,4db0 <.L1728>
    4dac:	b8dfd06f          	j	2938 <.L1729>

00004db0 <.L1728>:
    4db0:	01d00b93          	li	s7,29
    4db4:	453bc463          	blt	s7,s3,51fc <.L1745>
    4db8:	ff500b93          	li	s7,-11
    4dbc:	01794463          	blt	s2,s7,4dc4 <.L1728+0x14>
    4dc0:	6d40506f          	j	a494 <.L1746>
    4dc4:	00e15b83          	lhu	s7,14(sp)
    4dc8:	01500c13          	li	s8,21
    4dcc:	004b8b93          	addi	s7,s7,4
    4dd0:	01711723          	sh	s7,14(sp)
    4dd4:	447c4863          	blt	s8,t2,5224 <.L1742>

00004dd8 <.L1747>:
    4dd8:	00815b83          	lhu	s7,8(sp)
    4ddc:	008b8b93          	addi	s7,s7,8
    4de0:	01711423          	sh	s7,8(sp)
    4de4:	bb1fd06f          	j	2994 <.L1749>

00004de8 <.L769>:
    4de8:	00e15b83          	lhu	s7,14(sp)
    4dec:	004b8b93          	addi	s7,s7,4
    4df0:	010b9b93          	slli	s7,s7,0x10
    4df4:	410bdb93          	srai	s7,s7,0x10
    4df8:	01711723          	sh	s7,14(sp)
    4dfc:	ffe00b93          	li	s7,-2
    4e00:	01784463          	blt	a6,s7,4e08 <.L783>
    4e04:	d49fc06f          	j	1b4c <.L786>

00004e08 <.L783>:
    4e08:	0a400b93          	li	s7,164
    4e0c:	00dbd463          	bge	s7,a3,4e14 <.L783+0xc>
    4e10:	6110306f          	j	8c20 <.L776>
    4e14:	1aa00b93          	li	s7,426
    4e18:	016bd463          	bge	s7,s6,4e20 <.L783+0x18>
    4e1c:	76c0506f          	j	a588 <.L787>
    4e20:	00815b83          	lhu	s7,8(sp)
    4e24:	03300c13          	li	s8,51
    4e28:	007b8b93          	addi	s7,s7,7
    4e2c:	01711423          	sh	s7,8(sp)
    4e30:	01fc4463          	blt	s8,t6,4e38 <.L789>
    4e34:	d49fc06f          	j	1b7c <.L788>

00004e38 <.L789>:
    4e38:	0c400b93          	li	s7,196
    4e3c:	016bd463          	bge	s7,s6,4e44 <.L789+0xc>
    4e40:	2450606f          	j	b884 <.L802>
    4e44:	00a15b83          	lhu	s7,10(sp)
    4e48:	ff8b8b93          	addi	s7,s7,-8
    4e4c:	010b9b93          	slli	s7,s7,0x10
    4e50:	410bdb93          	srai	s7,s7,0x10

00004e54 <.L800>:
    4e54:	01711523          	sh	s7,10(sp)
    4e58:	ffc00b93          	li	s7,-4
    4e5c:	01765463          	bge	a2,s7,4e64 <.L800+0x10>
    4e60:	d49fc06f          	j	1ba8 <.L797>
    4e64:	01005463          	blez	a6,4e6c <.L803>
    4e68:	8d0fc06f          	j	f38 <.L812>

00004e6c <.L803>:
    4e6c:	03500b93          	li	s7,53
    4e70:	2efbc263          	blt	s7,a5,5154 <.L813>
    4e74:	00c15b83          	lhu	s7,12(sp)
    4e78:	03800c13          	li	s8,56
    4e7c:	ff9b8b93          	addi	s7,s7,-7
    4e80:	01711623          	sh	s7,12(sp)
    4e84:	00ec5463          	bge	s8,a4,4e8c <.L814>
    4e88:	5210306f          	j	8ba8 <.L815>

00004e8c <.L814>:
    4e8c:	00e15b83          	lhu	s7,14(sp)
    4e90:	ff7b8b93          	addi	s7,s7,-9
    4e94:	010b9b93          	slli	s7,s7,0x10
    4e98:	410bdb93          	srai	s7,s7,0x10
    4e9c:	8c4fc06f          	j	f60 <.L820>

00004ea0 <.L772>:
    4ea0:	00c15b83          	lhu	s7,12(sp)
    4ea4:	03e00c13          	li	s8,62
    4ea8:	004b8b93          	addi	s7,s7,4
    4eac:	01711623          	sh	s7,12(sp)
    4eb0:	00fc4463          	blt	s8,a5,4eb8 <.L752>
    4eb4:	c6dfc06f          	j	1b20 <.L751>

00004eb8 <.L752>:
    4eb8:	fec00b93          	li	s7,-20
    4ebc:	01765463          	bge	a2,s7,4ec4 <.L755>
    4ec0:	80cfc06f          	j	ecc <.L780>

00004ec4 <.L755>:
    4ec4:	00e15b83          	lhu	s7,14(sp)
    4ec8:	ffe00c13          	li	s8,-2
    4ecc:	009b8b93          	addi	s7,s7,9
    4ed0:	01711723          	sh	s7,14(sp)
    4ed4:	f3884ae3          	blt	a6,s8,4e08 <.L783>

00004ed8 <.L2387>:
    4ed8:	0ba00b93          	li	s7,186
    4edc:	012bc463          	blt	s7,s2,4ee4 <.L777>
    4ee0:	810fc06f          	j	ef0 <.L784>

00004ee4 <.L777>:
    4ee4:	00815b83          	lhu	s7,8(sp)
    4ee8:	01c04463          	bgtz	t3,4ef0 <.L777+0xc>
    4eec:	3f00606f          	j	b2dc <.L2884>
    4ef0:	ff8b8b93          	addi	s7,s7,-8
    4ef4:	010b9b93          	slli	s7,s7,0x10
    4ef8:	410bdb93          	srai	s7,s7,0x10
    4efc:	804fc06f          	j	f00 <.L778>

00004f00 <.L1211>:
    4f00:	00e15b83          	lhu	s7,14(sp)
    4f04:	00400c13          	li	s8,4
    4f08:	ff6b8b93          	addi	s7,s7,-10
    4f0c:	01711723          	sh	s7,14(sp)
    4f10:	011c5463          	bge	s8,a7,4f18 <.L1209>
    4f14:	39d0206f          	j	7ab0 <.L2605>

00004f18 <.L1209>:
    4f18:	03a00b93          	li	s7,58
    4f1c:	01fbd463          	bge	s7,t6,4f24 <.L1209+0xc>
    4f20:	2350306f          	j	8954 <.L1214>
    4f24:	00815b83          	lhu	s7,8(sp)
    4f28:	00cb8b93          	addi	s7,s7,12
    4f2c:	01711423          	sh	s7,8(sp)
    4f30:	b00fd06f          	j	2230 <.L1210>

00004f34 <.L2108>:
    4f34:	0a400b13          	li	s6,164
    4f38:	01eb5863          	bge	s6,t5,4f48 <.L2102>
    4f3c:	00815b03          	lhu	s6,8(sp)
    4f40:	ff9b0b13          	addi	s6,s6,-7
    4f44:	01611423          	sh	s6,8(sp)

00004f48 <.L2102>:
    4f48:	02e00b13          	li	s6,46
    4f4c:	c5db5663          	bge	s6,t4,4398 <.L2099>
    4f50:	03900b13          	li	s6,57
    4f54:	01fb5463          	bge	s6,t6,4f5c <.L2100>
    4f58:	840fe06f          	j	2f98 <.L2112>

00004f5c <.L2100>:
    4f5c:	00e00b13          	li	s6,14
    4f60:	010b5463          	bge	s6,a6,4f68 <.L2100+0xc>
    4f64:	6600406f          	j	95c4 <.L2885>
    4f68:	00a15b03          	lhu	s6,10(sp)
    4f6c:	004b0b13          	addi	s6,s6,4
    4f70:	01611523          	sh	s6,10(sp)
    4f74:	83cfe06f          	j	2fb0 <.L2115>

00004f78 <.L2888>:
    4f78:	07400b93          	li	s7,116
    4f7c:	007bd463          	bge	s7,t2,4f84 <.L2888+0xc>
    4f80:	6340606f          	j	b5b4 <.L1701>
    4f84:	00e15b83          	lhu	s7,14(sp)
    4f88:	e4300c13          	li	s8,-445
    4f8c:	ffdb8b93          	addi	s7,s7,-3
    4f90:	01711723          	sh	s7,14(sp)
    4f94:	01845463          	bge	s0,s8,4f9c <.L1703>
    4f98:	4140406f          	j	93ac <.L1702>

00004f9c <.L1703>:
    4f9c:	03b00b93          	li	s7,59
    4fa0:	00fbd463          	bge	s7,a5,4fa8 <.L1703+0xc>
    4fa4:	7f90206f          	j	7f9c <.L1714>
    4fa8:	d6700b93          	li	s7,-665
    4fac:	017ac463          	blt	s5,s7,4fb4 <.L1703+0x18>
    4fb0:	3fc0506f          	j	a3ac <.L1715>
    4fb4:	00815b83          	lhu	s7,8(sp)
    4fb8:	00fb8b93          	addi	s7,s7,15
    4fbc:	010b9b93          	slli	s7,s7,0x10
    4fc0:	010bdb93          	srli	s7,s7,0x10

00004fc4 <.L1716>:
    4fc4:	01711423          	sh	s7,8(sp)

00004fc8 <.L1712>:
    4fc8:	03500b93          	li	s7,53
    4fcc:	00ebc463          	blt	s7,a4,4fd4 <.L1712+0xc>
    4fd0:	2400306f          	j	8210 <.L1709>
    4fd4:	1a200b93          	li	s7,418
    4fd8:	007bc463          	blt	s7,t2,4fe0 <.L1712+0x18>
    4fdc:	929fd06f          	j	2904 <.L1710>
    4fe0:	00a15b83          	lhu	s7,10(sp)
    4fe4:	ffcb8b93          	addi	s7,s7,-4
    4fe8:	010b9b93          	slli	s7,s7,0x10
    4fec:	410bdb93          	srai	s7,s7,0x10
    4ff0:	01711523          	sh	s7,10(sp)
    4ff4:	02200b93          	li	s7,34
    4ff8:	011bc463          	blt	s7,a7,5000 <.L1730>
    4ffc:	929fd06f          	j	2924 <.L2886>

00005000 <.L1730>:
    5000:	e6b00b93          	li	s7,-405
    5004:	0172c463          	blt	t0,s7,500c <.L1730+0xc>
    5008:	5d10306f          	j	8dd8 <.L1737>
    500c:	03300b93          	li	s7,51
    5010:	01dbd463          	bge	s7,t4,5018 <.L1735>
    5014:	931fd06f          	j	2944 <.L1731>

00005018 <.L1735>:
    5018:	00c15b83          	lhu	s7,12(sp)
    501c:	009b8b93          	addi	s7,s7,9
    5020:	01711623          	sh	s7,12(sp)
    5024:	921fd06f          	j	2944 <.L1731>

00005028 <.L2073>:
    5028:	ff900b13          	li	s6,-7
    502c:	01664463          	blt	a2,s6,5034 <.L2073+0xc>
    5030:	5cc0306f          	j	85fc <.L2078>
    5034:	09000b13          	li	s6,144
    5038:	012b5463          	bge	s6,s2,5040 <.L2073+0x18>
    503c:	0380206f          	j	7074 <.L2079>
    5040:	02700b13          	li	s6,39
    5044:	006b4463          	blt	s6,t1,504c <.L2658>
    5048:	0440206f          	j	708c <.L2080>

0000504c <.L2658>:
    504c:	ecb00b13          	li	s6,-309
    5050:	016ac463          	blt	s5,s6,5058 <.L2088>
    5054:	5880306f          	j	85dc <.L2081>

00005058 <.L2088>:
    5058:	00c15b03          	lhu	s6,12(sp)
    505c:	001b0b13          	addi	s6,s6,1
    5060:	010b1b13          	slli	s6,s6,0x10
    5064:	410b5b13          	srai	s6,s6,0x10
    5068:	ed9fd06f          	j	2f40 <.L2082>

0000506c <.L1901>:
    506c:	03c00b93          	li	s7,60
    5070:	01fbd863          	bge	s7,t6,5080 <.L1907>
    5074:	00815b83          	lhu	s7,8(sp)
    5078:	006b8b93          	addi	s7,s7,6
    507c:	01711423          	sh	s7,8(sp)

00005080 <.L1907>:
    5080:	02b00b93          	li	s7,43
    5084:	010bc463          	blt	s7,a6,508c <.L1903>
    5088:	ba9fd06f          	j	2c30 <.L1909>

0000508c <.L1903>:
    508c:	01400b93          	li	s7,20
    5090:	01dbd463          	bge	s7,t4,5098 <.L1903+0xc>
    5094:	4140306f          	j	84a8 <.L1915>
    5098:	00a15b83          	lhu	s7,10(sp)
    509c:	00100c13          	li	s8,1
    50a0:	ff9b8b93          	addi	s7,s7,-7
    50a4:	01711523          	sh	s7,10(sp)
    50a8:	9bcc54e3          	bge	s8,t3,4a50 <.L1916>

000050ac <.L1923>:
    50ac:	0ff00b93          	li	s7,255
    50b0:	009bd463          	bge	s7,s1,50b8 <.L1923+0xc>
    50b4:	3cc0406f          	j	9480 <.L2887>
    50b8:	00c15b83          	lhu	s7,12(sp)
    50bc:	ff600c13          	li	s8,-10
    50c0:	ffeb8b93          	addi	s7,s7,-2
    50c4:	01711623          	sh	s7,12(sp)
    50c8:	9b865ae3          	bge	a2,s8,4a7c <.L1930>

000050cc <.L1931>:
    50cc:	03c00b93          	li	s7,60
    50d0:	01fbd463          	bge	s7,t6,50d8 <.L1931+0xc>
    50d4:	be5fd06f          	j	2cb8 <.L1927>
    50d8:	00e15b83          	lhu	s7,14(sp)
    50dc:	ff8b8b93          	addi	s7,s7,-8
    50e0:	01711723          	sh	s7,14(sp)
    50e4:	bd5fd06f          	j	2cb8 <.L1927>

000050e8 <.L2811>:
    50e8:	ff600b93          	li	s7,-10
    50ec:	01765463          	bge	a2,s7,50f4 <.L1683>
    50f0:	facfd06f          	j	289c <.L1682>

000050f4 <.L1683>:
    50f4:	ff600b93          	li	s7,-10
    50f8:	e97600e3          	beq	a2,s7,4f78 <.L2888>
    50fc:	f2700b93          	li	s7,-217
    5100:	0172c463          	blt	t0,s7,5108 <.L1683+0x14>
    5104:	2e00406f          	j	93e4 <.L1704>
    5108:	00e15b83          	lhu	s7,14(sp)
    510c:	ffdb8b93          	addi	s7,s7,-3
    5110:	010b9b93          	slli	s7,s7,0x10
    5114:	010bdb93          	srli	s7,s7,0x10
    5118:	fa0fd06f          	j	28b8 <.L1697>

0000511c <.L1890>:
    511c:	00c15b83          	lhu	s7,12(sp)
    5120:	05800c13          	li	s8,88
    5124:	001b8b93          	addi	s7,s7,1
    5128:	01711623          	sh	s7,12(sp)
    512c:	009c4463          	blt	s8,s1,5134 <.L1884>
    5130:	2640306f          	j	8394 <.L1891>

00005134 <.L1884>:
    5134:	03600b93          	li	s7,54
    5138:	00fbd463          	bge	s7,a5,5140 <.L1884+0xc>
    513c:	34d0206f          	j	7c88 <.L1898>
    5140:	00e15b83          	lhu	s7,14(sp)
    5144:	ff8b8b93          	addi	s7,s7,-8
    5148:	010b9b93          	slli	s7,s7,0x10
    514c:	410bdb93          	srai	s7,s7,0x10
    5150:	ab1fd06f          	j	2c00 <.L1897>

00005154 <.L813>:
    5154:	00c15b83          	lhu	s7,12(sp)
    5158:	03e00c13          	li	s8,62
    515c:	00db8b93          	addi	s7,s7,13
    5160:	01711623          	sh	s7,12(sp)
    5164:	00fc5463          	bge	s8,a5,516c <.L816>
    5168:	de9fb06f          	j	f50 <.L817>

0000516c <.L816>:
    516c:	03800b93          	li	s7,56
    5170:	00ebd463          	bge	s7,a4,5178 <.L816+0xc>
    5174:	2350306f          	j	8ba8 <.L815>
    5178:	03600b93          	li	s7,54
    517c:	d0fbd8e3          	bge	s7,a5,4e8c <.L814>

00005180 <.L821>:
    5180:	00e15b83          	lhu	s7,14(sp)
    5184:	003b8b93          	addi	s7,s7,3
    5188:	010b9b93          	slli	s7,s7,0x10
    518c:	410bdb93          	srai	s7,s7,0x10
    5190:	dd1fb06f          	j	f60 <.L820>

00005194 <.L749>:
    5194:	f5000b93          	li	s7,-176
    5198:	0175c463          	blt	a1,s7,51a0 <.L749+0xc>
    519c:	5b90306f          	j	8f54 <.L2889>
    51a0:	00f00b93          	li	s7,15
    51a4:	010bd463          	bge	s7,a6,51ac <.L749+0x18>
    51a8:	1000606f          	j	b2a8 <.L761>
    51ac:	00c15b83          	lhu	s7,12(sp)
    51b0:	ff8b8b93          	addi	s7,s7,-8
    51b4:	010b9b93          	slli	s7,s7,0x10
    51b8:	010bdb93          	srli	s7,s7,0x10

000051bc <.L762>:
    51bc:	01711623          	sh	s7,12(sp)
    51c0:	03e00b93          	li	s7,62
    51c4:	cefbcae3          	blt	s7,a5,4eb8 <.L752>

000051c8 <.L741>:
    51c8:	03800b93          	li	s7,56
    51cc:	00ebd463          	bge	s7,a4,51d4 <.L770>
    51d0:	951fc06f          	j	1b20 <.L751>

000051d4 <.L770>:
    51d4:	03600b93          	li	s7,54
    51d8:	c0fbc8e3          	blt	s7,a5,4de8 <.L769>
    51dc:	00e15b83          	lhu	s7,14(sp)
