
header_editado.o:     formato de ficheiro elf32-littleriscv


Desmontagem da secção .text:

00000000 <get_num_target>:
       0:	00100513          	li	a0,1
       4:	00008067          	ret

00000008 <get_num_class>:
       8:	00400793          	li	a5,4
       c:	00f52023          	sw	a5,0(a0)
      10:	00008067          	ret

00000014 <get_num_feature>:
      14:	01600513          	li	a0,22
      18:	00008067          	ret

0000001c <get_threshold_type>:
      1c:	00000517          	auipc	a0,0x0
      20:	00050513          	mv	a0,a0
      24:	00008067          	ret

00000028 <get_leaf_output_type>:
      28:	00000517          	auipc	a0,0x0
      2c:	00050513          	mv	a0,a0
      30:	00008067          	ret

00000034 <predict>:
      34:	00451303          	lh	t1,4(a0) # 2c <get_leaf_output_type+0x4>
      38:	fc010113          	addi	sp,sp,-64
      3c:	02812e23          	sw	s0,60(sp)
      40:	02912c23          	sw	s1,56(sp)
      44:	03212a23          	sw	s2,52(sp)
      48:	03312823          	sw	s3,48(sp)
      4c:	03412623          	sw	s4,44(sp)
      50:	03512423          	sw	s5,40(sp)
      54:	03612223          	sw	s6,36(sp)
      58:	03712023          	sw	s7,32(sp)
      5c:	01812e23          	sw	s8,28(sp)
      60:	01912c23          	sw	s9,24(sp)
      64:	04600793          	li	a5,70
      68:	2067c463          	blt	a5,t1,270 <.L8>
      6c:	02451983          	lh	s3,36(a0)
      70:	01900793          	li	a5,25
      74:	4d37c063          	blt	a5,s3,534 <.L9>
      78:	01651a03          	lh	s4,22(a0)
      7c:	efc00793          	li	a5,-260
      80:	4cfa4a63          	blt	s4,a5,554 <.L2291>
      84:	02251f03          	lh	t5,34(a0)
      88:	00e51f83          	lh	t6,14(a0)
      8c:	01a51403          	lh	s0,26(a0)
      90:	02400793          	li	a5,36

00000094 <.L10>:
      94:	00251703          	lh	a4,2(a0)
      98:	00f11423          	sh	a5,8(sp)
      9c:	2df00793          	li	a5,735
      a0:	20e7c463          	blt	a5,a4,2a8 <.L12>

000000a4 <.L2749>:
      a4:	01851603          	lh	a2,24(a0)
      a8:	ffd00793          	li	a5,-3
      ac:	00f64463          	blt	a2,a5,b4 <.L2749+0x10>
      b0:	5180606f          	j	65c8 <.L13>
      b4:	01251483          	lh	s1,18(a0)
      b8:	19100693          	li	a3,401
      bc:	ff600793          	li	a5,-10
      c0:	0096d463          	bge	a3,s1,c8 <.L14>
      c4:	00200793          	li	a5,2

000000c8 <.L14>:
      c8:	00651a83          	lh	s5,6(a0)
      cc:	00f11523          	sh	a5,10(sp)
      d0:	d5c00793          	li	a5,-676
      d4:	00fac463          	blt	s5,a5,dc <.L14+0x14>
      d8:	5040b06f          	j	b5dc <.L2745>
      dc:	ff400793          	li	a5,-12
      e0:	00f64463          	blt	a2,a5,e8 <.L14+0x20>
      e4:	50c0606f          	j	65f0 <.L16>
      e8:	00a51683          	lh	a3,10(a0)
      ec:	01051b03          	lh	s6,16(a0)
      f0:	02851e83          	lh	t4,40(a0)

000000f4 <.L21>:
      f4:	06300793          	li	a5,99
      f8:	01d7d463          	bge	a5,t4,100 <.L21+0xc>
      fc:	4a50a06f          	j	ada0 <.L25>
     100:	00051783          	lh	a5,0(a0)
     104:	02500593          	li	a1,37
     108:	00b11623          	sh	a1,12(sp)
     10c:	03e00593          	li	a1,62
     110:	01451283          	lh	t0,20(a0)
     114:	1ef5dc63          	bge	a1,a5,30c <.L26>

00000118 <.L27>:
     118:	ff600593          	li	a1,-10
     11c:	00b11723          	sh	a1,14(sp)
     120:	05700593          	li	a1,87
     124:	0065c463          	blt	a1,t1,12c <.L27+0x14>
     128:	3010906f          	j	9c28 <.L2341>
     12c:	01e51583          	lh	a1,30(a0)
     130:	00c51903          	lh	s2,12(a0)

00000134 <.L33>:
     134:	0ac00813          	li	a6,172
     138:	01685463          	bge	a6,s6,140 <.L33+0xc>
     13c:	4ec0606f          	j	6628 <.L45>
     140:	03a00813          	li	a6,58
     144:	00815883          	lhu	a7,8(sp)
     148:	01f85463          	bge	a6,t6,150 <.L33+0x1c>
     14c:	4190a06f          	j	ad64 <.L46>
     150:	01588893          	addi	a7,a7,21
     154:	00851803          	lh	a6,8(a0)
     158:	01089893          	slli	a7,a7,0x10
     15c:	4108d893          	srai	a7,a7,0x10

00000160 <.L47>:
     160:	01111423          	sh	a7,8(sp)
     164:	1b500893          	li	a7,437
     168:	00e8d463          	bge	a7,a4,170 <.L47+0x10>
     16c:	7340306f          	j	38a0 <.L44>
     170:	02a51883          	lh	a7,42(a0)
     174:	00800e13          	li	t3,8
     178:	011e4463          	blt	t3,a7,180 <.L47+0x20>
     17c:	0380806f          	j	81b4 <.L42>
     180:	0f200e13          	li	t3,242
     184:	1e6e5e63          	bge	t3,t1,380 <.L41>
     188:	00a15e03          	lhu	t3,10(sp)
     18c:	fffe0e13          	addi	t3,t3,-1
     190:	010e1e13          	slli	t3,t3,0x10
     194:	410e5e13          	srai	t3,t3,0x10

00000198 <.L51>:
     198:	01c11523          	sh	t3,10(sp)
     19c:	df700e13          	li	t3,-521
     1a0:	1fca5e63          	bge	s4,t3,39c <.L57>

000001a4 <.L52>:
     1a4:	ff400e13          	li	t3,-12
     1a8:	01c65463          	bge	a2,t3,1b0 <.L52+0xc>
     1ac:	0dc0806f          	j	8288 <.L58>
     1b0:	03b00e13          	li	t3,59
     1b4:	00ee5463          	bge	t3,a4,1bc <.L52+0x18>
     1b8:	7280306f          	j	38e0 <.L59>
     1bc:	00c15e03          	lhu	t3,12(sp)
     1c0:	012e0e13          	addi	t3,t3,18
     1c4:	010e1e13          	slli	t3,t3,0x10
     1c8:	410e5e13          	srai	t3,t3,0x10

000001cc <.L65>:
     1cc:	01c11623          	sh	t3,12(sp)
     1d0:	03d00e13          	li	t3,61
     1d4:	1efe5663          	bge	t3,a5,3c0 <.L66>
     1d8:	dce00e13          	li	t3,-562
     1dc:	01cac463          	blt	s5,t3,1e4 <.L65+0x18>
     1e0:	3c00606f          	j	65a0 <.L67>
     1e4:	00e15e03          	lhu	t3,14(sp)
     1e8:	0d900393          	li	t2,217
     1ec:	ff5e0e13          	addi	t3,t3,-11
     1f0:	01c11723          	sh	t3,14(sp)
     1f4:	21e3d263          	bge	t2,t5,3f8 <.L76>

000001f8 <.L2344>:
     1f8:	05700e13          	li	t3,87
     1fc:	006e4463          	blt	t3,t1,204 <.L82>
     200:	5350806f          	j	8f34 <.L83>

00000204 <.L82>:
     204:	00815e03          	lhu	t3,8(sp)
     208:	02651383          	lh	t2,38(a0)
     20c:	ff7e0e13          	addi	t3,t3,-9

00000210 <.L2548>:
     210:	01c11423          	sh	t3,8(sp)

00000214 <.L85>:
     214:	1de00e13          	li	t3,478
     218:	20ee5263          	bge	t3,a4,41c <.L90>

0000021c <.L93>:
     21c:	4ae00e13          	li	t3,1198
     220:	00de5463          	bge	t3,a3,228 <.L93+0xc>
     224:	5600806f          	j	8784 <.L92>
     228:	03e00e13          	li	t3,62
     22c:	00fe4463          	blt	t3,a5,234 <.L93+0x18>
     230:	64d0806f          	j	907c <.L91>
     234:	00a15e03          	lhu	t3,10(sp)
     238:	31a00b93          	li	s7,794
     23c:	ff5e0e13          	addi	t3,t3,-11
     240:	01c11523          	sh	t3,10(sp)
     244:	00dbd463          	bge	s7,a3,24c <.L93+0x30>
     248:	5fc0b06f          	j	b844 <.L2746>
     24c:	ea700e13          	li	t3,-345
     250:	01ca4463          	blt	s4,t3,258 <.L93+0x3c>
     254:	0350b06f          	j	ba88 <.L2747>
     258:	00c15e03          	lhu	t3,12(sp)
     25c:	ff6e0e13          	addi	t3,t3,-10
     260:	010e1e13          	slli	t3,t3,0x10
     264:	410e5e13          	srai	t3,t3,0x10
     268:	01c11623          	sh	t3,12(sp)
     26c:	20c0006f          	j	478 <.L121>

00000270 <.L8>:
     270:	02251f03          	lh	t5,34(a0)
     274:	0d900793          	li	a5,217
     278:	29e7ce63          	blt	a5,t5,514 <.L11>
     27c:	00e51f83          	lh	t6,14(a0)
     280:	03c00793          	li	a5,60
     284:	2ff7ce63          	blt	a5,t6,580 <.L2748>
     288:	00251703          	lh	a4,2(a0)
     28c:	01c00793          	li	a5,28
     290:	00f11423          	sh	a5,8(sp)
     294:	2df00793          	li	a5,735
     298:	02451983          	lh	s3,36(a0)
     29c:	01651a03          	lh	s4,22(a0)
     2a0:	01a51403          	lh	s0,26(a0)
     2a4:	e0e7d0e3          	bge	a5,a4,a4 <.L2749>

000002a8 <.L12>:
     2a8:	00a51683          	lh	a3,10(a0)
     2ac:	7e700793          	li	a5,2023
     2b0:	00d7d463          	bge	a5,a3,2b8 <.L12+0x10>
     2b4:	5440806f          	j	87f8 <.L18>
     2b8:	01051b03          	lh	s6,16(a0)
     2bc:	10100793          	li	a5,257
     2c0:	00651a83          	lh	s5,6(a0)
     2c4:	0167d463          	bge	a5,s6,2cc <.L12+0x24>
     2c8:	2000a06f          	j	a4c8 <.L19>
     2cc:	ffe00793          	li	a5,-2
     2d0:	00f11523          	sh	a5,10(sp)
     2d4:	d5c00793          	li	a5,-676
     2d8:	01851603          	lh	a2,24(a0)
     2dc:	00fac463          	blt	s5,a5,2e4 <.L2337>
     2e0:	2000a06f          	j	a4e0 <.L2542>

000002e4 <.L2337>:
     2e4:	ff400793          	li	a5,-12
     2e8:	01251483          	lh	s1,18(a0)
     2ec:	02851e83          	lh	t4,40(a0)
     2f0:	e0f642e3          	blt	a2,a5,f4 <.L21>

000002f4 <.L22>:
     2f4:	00051783          	lh	a5,0(a0)
     2f8:	ff500593          	li	a1,-11
     2fc:	00b11623          	sh	a1,12(sp)
     300:	03e00593          	li	a1,62
     304:	01451283          	lh	t0,20(a0)
     308:	e0f5c8e3          	blt	a1,a5,118 <.L27>

0000030c <.L26>:
     30c:	01e51583          	lh	a1,30(a0)
     310:	d8200813          	li	a6,-638
     314:	0105c463          	blt	a1,a6,31c <.L26+0x10>
     318:	1380806f          	j	8450 <.L31>
     31c:	27300813          	li	a6,627
     320:	01e84463          	blt	a6,t5,328 <.L26+0x1c>
     324:	4c50906f          	j	9fe8 <.L2299>
     328:	00c51903          	lh	s2,12(a0)
     32c:	ff900813          	li	a6,-7

00000330 <.L32>:
     330:	01011723          	sh	a6,14(sp)
     334:	05700813          	li	a6,87
     338:	de684ee3          	blt	a6,t1,134 <.L33>
     33c:	00851803          	lh	a6,8(a0)
     340:	02200893          	li	a7,34
     344:	0108c463          	blt	a7,a6,34c <.L32+0x1c>
     348:	5400306f          	j	3888 <.L34>
     34c:	fba00893          	li	a7,-70
     350:	011ad463          	bge	s5,a7,358 <.L32+0x28>
     354:	0ed0906f          	j	9c40 <.L35>
     358:	00815883          	lhu	a7,8(sp)
     35c:	1b500e13          	li	t3,437
     360:	00188893          	addi	a7,a7,1
     364:	01111423          	sh	a7,8(sp)
     368:	00ee5463          	bge	t3,a4,370 <.L2543>
     36c:	5340306f          	j	38a0 <.L44>

00000370 <.L2543>:
     370:	02a51883          	lh	a7,42(a0)
     374:	00800e13          	li	t3,8
     378:	011e4463          	blt	t3,a7,380 <.L41>
     37c:	6390706f          	j	81b4 <.L42>

00000380 <.L41>:
     380:	00a15e03          	lhu	t3,10(sp)
     384:	ff6e0e13          	addi	t3,t3,-10
     388:	010e1e13          	slli	t3,t3,0x10
     38c:	410e5e13          	srai	t3,t3,0x10
     390:	01c11523          	sh	t3,10(sp)
     394:	df700e13          	li	t3,-521
     398:	e1ca46e3          	blt	s4,t3,1a4 <.L52>

0000039c <.L57>:
     39c:	eef00e13          	li	t3,-273
     3a0:	01c2c463          	blt	t0,t3,3a8 <.L2908>
     3a4:	45c0606f          	j	6800 <.L68>

000003a8 <.L2908>:
     3a8:	03300e13          	li	t3,51
     3ac:	00fe5463          	bge	t3,a5,3b4 <.L2908+0xc>
     3b0:	42d0a06f          	j	afdc <.L69>
     3b4:	00c15e03          	lhu	t3,12(sp)
     3b8:	010e0e13          	addi	t3,t3,16
     3bc:	01c11623          	sh	t3,12(sp)

000003c0 <.L66>:
     3c0:	d8200e13          	li	t3,-638
     3c4:	01c5c463          	blt	a1,t3,3cc <.L66+0xc>
     3c8:	3a00606f          	j	6768 <.L71>
     3cc:	27300e13          	li	t3,627
     3d0:	01ee5463          	bge	t3,t5,3d8 <.L66+0x18>
     3d4:	1350a06f          	j	ad08 <.L72>
     3d8:	00e15e03          	lhu	t3,14(sp)
     3dc:	017e0e13          	addi	t3,t3,23
     3e0:	010e1e13          	slli	t3,t3,0x10
     3e4:	410e5e13          	srai	t3,t3,0x10

000003e8 <.L73>:
     3e8:	01c11723          	sh	t3,14(sp)
     3ec:	0d900e13          	li	t3,217
     3f0:	01ee5463          	bge	t3,t5,3f8 <.L76>
     3f4:	3a00606f          	j	6794 <.L74>

000003f8 <.L76>:
     3f8:	01a00e13          	li	t3,26
     3fc:	010e5463          	bge	t3,a6,404 <.L76+0xc>
     400:	31c0706f          	j	771c <.L80>
     404:	0da00e13          	li	t3,218
     408:	012e4463          	blt	t3,s2,410 <.L76+0x18>
     40c:	1680a06f          	j	a574 <.L84>
     410:	1de00e13          	li	t3,478
     414:	02651383          	lh	t2,38(a0)
     418:	e0ee42e3          	blt	t3,a4,21c <.L93>

0000041c <.L90>:
     41c:	ffd00e13          	li	t3,-3
     420:	01c64463          	blt	a2,t3,428 <.L90+0xc>
     424:	3080806f          	j	872c <.L94>
     428:	1b300e13          	li	t3,435
     42c:	009e5463          	bge	t3,s1,434 <.L90+0x18>
     430:	4290906f          	j	a058 <.L95>
     434:	00a15e03          	lhu	t3,10(sp)
     438:	31a00b93          	li	s7,794
     43c:	ff7e0e13          	addi	t3,t3,-9
     440:	01c11523          	sh	t3,10(sp)
     444:	00dbc463          	blt	s7,a3,44c <.L2349>
     448:	3080806f          	j	8750 <.L96>

0000044c <.L2349>:
     44c:	e4e00e13          	li	t3,-434
     450:	01cac463          	blt	s5,t3,458 <.L119>
     454:	3d50906f          	j	a028 <.L101>

00000458 <.L119>:
     458:	00c15e03          	lhu	t3,12(sp)
     45c:	015e0e13          	addi	t3,t3,21
     460:	010e1e13          	slli	t3,t3,0x10
     464:	410e5e13          	srai	t3,t3,0x10

00000468 <.L120>:
     468:	01c11623          	sh	t3,12(sp)
     46c:	03d00e13          	li	t3,61
     470:	00fe4463          	blt	t3,a5,478 <.L121>
     474:	0050506f          	j	5c78 <.L125>

00000478 <.L121>:
     478:	1f800e13          	li	t3,504
     47c:	13ee4663          	blt	t3,t5,5a8 <.L131>
     480:	03a00e13          	li	t3,58
     484:	01fe5463          	bge	t3,t6,48c <.L121+0x14>
     488:	1dc0a06f          	j	a664 <.L132>
     48c:	00e15e03          	lhu	t3,14(sp)
     490:	ff8e0e13          	addi	t3,t3,-8
     494:	010e1e13          	slli	t3,t3,0x10
     498:	410e5e13          	srai	t3,t3,0x10

0000049c <.L129>:
     49c:	01c11723          	sh	t3,14(sp)
     4a0:	0d900e13          	li	t3,217
     4a4:	13ee4263          	blt	t3,t5,5c8 <.L135>
     4a8:	01a00e13          	li	t3,26
     4ac:	010e5463          	bge	t3,a6,4b4 <.L129+0x18>
     4b0:	4440306f          	j	38f4 <.L136>
     4b4:	11800e13          	li	t3,280
     4b8:	012e5463          	bge	t3,s2,4c0 <.L129+0x24>
     4bc:	1700a06f          	j	a62c <.L137>
     4c0:	00815e03          	lhu	t3,8(sp)
     4c4:	0a600b93          	li	s7,166
     4c8:	00ee0e13          	addi	t3,t3,14
     4cc:	01c11423          	sh	t3,8(sp)
     4d0:	00ebc463          	blt	s7,a4,4d8 <.L2551>
     4d4:	4480306f          	j	391c <.L143>

000004d8 <.L2551>:
     4d8:	03d00e13          	li	t3,61
     4dc:	00fe4463          	blt	t3,a5,4e4 <.L164>
     4e0:	3950506f          	j	6074 <.L144>

000004e4 <.L164>:
     4e4:	00a15e03          	lhu	t3,10(sp)
     4e8:	10b00b93          	li	s7,267
     4ec:	ff5e0e13          	addi	t3,t3,-11
     4f0:	01c11523          	sh	t3,10(sp)
     4f4:	00dbd463          	bge	s7,a3,4fc <.L164+0x18>
     4f8:	1880906f          	j	9680 <.L2354>
     4fc:	d6700e13          	li	t3,-665
     500:	13ca5663          	bge	s4,t3,62c <.L173>
     504:	00c15e03          	lhu	t3,12(sp)
     508:	00be0e13          	addi	t3,t3,11
     50c:	01c11623          	sh	t3,12(sp)
     510:	1280006f          	j	638 <.L174>

00000514 <.L11>:
     514:	01a51403          	lh	s0,26(a0)
     518:	f2900793          	li	a5,-215
     51c:	06f45c63          	bge	s0,a5,594 <.L2750>
     520:	02451983          	lh	s3,36(a0)
     524:	01651a03          	lh	s4,22(a0)
     528:	00e51f83          	lh	t6,14(a0)
     52c:	ff500793          	li	a5,-11
     530:	b65ff06f          	j	94 <.L10>

00000534 <.L9>:
     534:	01f00793          	li	a5,31
     538:	0337c863          	blt	a5,s3,568 <.L2751>
     53c:	01651a03          	lh	s4,22(a0)
     540:	02251f03          	lh	t5,34(a0)
     544:	00e51f83          	lh	t6,14(a0)
     548:	01a51403          	lh	s0,26(a0)
     54c:	00900793          	li	a5,9
     550:	b45ff06f          	j	94 <.L10>

00000554 <.L2291>:
     554:	02251f03          	lh	t5,34(a0)
     558:	00e51f83          	lh	t6,14(a0)
     55c:	01a51403          	lh	s0,26(a0)
     560:	01300793          	li	a5,19
     564:	b31ff06f          	j	94 <.L10>

00000568 <.L2751>:
     568:	01651a03          	lh	s4,22(a0)
     56c:	02251f03          	lh	t5,34(a0)
     570:	00e51f83          	lh	t6,14(a0)
     574:	01a51403          	lh	s0,26(a0)
     578:	ff500793          	li	a5,-11
     57c:	b19ff06f          	j	94 <.L10>

00000580 <.L2748>:
     580:	02451983          	lh	s3,36(a0)
     584:	01651a03          	lh	s4,22(a0)
     588:	01a51403          	lh	s0,26(a0)
     58c:	ff500793          	li	a5,-11
     590:	b05ff06f          	j	94 <.L10>

00000594 <.L2750>:
     594:	02451983          	lh	s3,36(a0)
     598:	01651a03          	lh	s4,22(a0)
     59c:	00e51f83          	lh	t6,14(a0)
     5a0:	ffc00793          	li	a5,-4
     5a4:	af1ff06f          	j	94 <.L10>

000005a8 <.L131>:
     5a8:	b6f00e13          	li	t3,-1169
     5ac:	01c44463          	blt	s0,t3,5b4 <.L131+0xc>
     5b0:	1000a06f          	j	a6b0 <.L133>
     5b4:	00e15e03          	lhu	t3,14(sp)
     5b8:	00ce0e13          	addi	t3,t3,12
     5bc:	010e1e13          	slli	t3,t3,0x10
     5c0:	010e5e13          	srli	t3,t3,0x10
     5c4:	01c11723          	sh	t3,14(sp)

000005c8 <.L135>:
     5c8:	03e00e13          	li	t3,62
     5cc:	006e5463          	bge	t3,t1,5d4 <.L135+0xc>
     5d0:	6b90706f          	j	8488 <.L145>
     5d4:	02000e13          	li	t3,32
     5d8:	010e5463          	bge	t3,a6,5e0 <.L135+0x18>
     5dc:	18d0606f          	j	6f68 <.L146>
     5e0:	00815e03          	lhu	t3,8(sp)
     5e4:	009e0e13          	addi	t3,t3,9
     5e8:	010e1e13          	slli	t3,t3,0x10
     5ec:	410e5e13          	srai	t3,t3,0x10

000005f0 <.L147>:
     5f0:	01c11423          	sh	t3,8(sp)
     5f4:	0a600e13          	li	t3,166
     5f8:	00ee4463          	blt	t3,a4,600 <.L147+0x10>
     5fc:	3200306f          	j	391c <.L143>
     600:	03d00e13          	li	t3,61
     604:	00fe4463          	blt	t3,a5,60c <.L147+0x1c>
     608:	26d0506f          	j	6074 <.L144>
     60c:	21a00e13          	li	t3,538
     610:	edee5ae3          	bge	t3,t5,4e4 <.L164>
     614:	10b00e13          	li	t3,267
     618:	00de5463          	bge	t3,a3,620 <.L147+0x30>
     61c:	0640906f          	j	9680 <.L2354>
     620:	d6700e13          	li	t3,-665
     624:	01ca5463          	bge	s4,t3,62c <.L173>
     628:	2a50506f          	j	60cc <.L2752>

0000062c <.L173>:
     62c:	00c15e03          	lhu	t3,12(sp)
     630:	ff6e0e13          	addi	t3,t3,-10
     634:	01c11623          	sh	t3,12(sp)

00000638 <.L174>:
     638:	1e500e13          	li	t3,485
     63c:	01ee5463          	bge	t3,t5,644 <.L174+0xc>
     640:	2990506f          	j	60d8 <.L172>
     644:	ec100e13          	li	t3,-319
     648:	01c44463          	blt	s0,t3,650 <.L174+0x18>
     64c:	0740306f          	j	36c0 <.L192>
     650:	00e15e03          	lhu	t3,14(sp)
     654:	0d900b93          	li	s7,217
     658:	00ee0e13          	addi	t3,t3,14
     65c:	01c11723          	sh	t3,14(sp)
     660:	01ebc463          	blt	s7,t5,668 <.L2356>
     664:	0740306f          	j	36d8 <.L194>

00000668 <.L2356>:
     668:	07a00e13          	li	t3,122
     66c:	006e4463          	blt	t3,t1,674 <.L2356+0xc>
     670:	32c0706f          	j	799c <.L196>
     674:	00815e03          	lhu	t3,8(sp)
     678:	08000b93          	li	s7,128
     67c:	ff8e0e13          	addi	t3,t3,-8
     680:	01c11423          	sh	t3,8(sp)
     684:	00ebd463          	bge	s7,a4,68c <.L215>
     688:	5890806f          	j	9410 <.L2753>

0000068c <.L215>:
     68c:	ffd00e13          	li	t3,-3
     690:	01c64463          	blt	a2,t3,698 <.L215+0xc>
     694:	7840506f          	j	5e18 <.L231>
     698:	36800e13          	li	t3,872
     69c:	016e5463          	bge	t3,s6,6a4 <.L215+0x18>
     6a0:	30c0a06f          	j	a9ac <.L232>
     6a4:	00a15e03          	lhu	t3,10(sp)
     6a8:	08c00b93          	li	s7,140
     6ac:	ff7e0e13          	addi	t3,t3,-9
     6b0:	01c11523          	sh	t3,10(sp)
     6b4:	00dbc463          	blt	s7,a3,6bc <.L236>
     6b8:	7840506f          	j	5e3c <.L239>

000006bc <.L236>:
     6bc:	eef00e13          	li	t3,-273
     6c0:	01c2c463          	blt	t0,t3,6c8 <.L236+0xc>
     6c4:	1000a06f          	j	a7c4 <.L267>
     6c8:	00c15e03          	lhu	t3,12(sp)
     6cc:	00de0e13          	addi	t3,t3,13
     6d0:	010e1e13          	slli	t3,t3,0x10
     6d4:	410e5e13          	srai	t3,t3,0x10

000006d8 <.L263>:
     6d8:	01c11623          	sh	t3,12(sp)
     6dc:	03c00e13          	li	t3,60
     6e0:	00fe5463          	bge	t3,a5,6e8 <.L263+0x10>
     6e4:	0580306f          	j	373c <.L259>
     6e8:	ce400e13          	li	t3,-796
     6ec:	01c5c463          	blt	a1,t3,6f4 <.L252>
     6f0:	1dd0806f          	j	90cc <.L273>

000006f4 <.L252>:
     6f4:	19c00e13          	li	t3,412
     6f8:	00ee5463          	bge	t3,a4,700 <.L252+0xc>
     6fc:	3340306f          	j	3a30 <.L276>
     700:	00e15e03          	lhu	t3,14(sp)
     704:	00fe0e13          	addi	t3,t3,15
     708:	010e1e13          	slli	t3,t3,0x10
     70c:	410e5e13          	srai	t3,t3,0x10

00000710 <.L275>:
     710:	01c11723          	sh	t3,14(sp)
     714:	efb00e13          	li	t3,-261
     718:	01ca4463          	blt	s4,t3,720 <.L2831>
     71c:	0580306f          	j	3774 <.L280>

00000720 <.L2831>:
     720:	08700e13          	li	t3,135
     724:	006e5463          	bge	t3,t1,72c <.L2831+0xc>
     728:	3a80606f          	j	6ad0 <.L281>
     72c:	02200e13          	li	t3,34
     730:	010e5463          	bge	t3,a6,738 <.L2831+0x18>
     734:	3200606f          	j	6a54 <.L282>
     738:	00815e03          	lhu	t3,8(sp)
     73c:	2df00b93          	li	s7,735
     740:	002e0e13          	addi	t3,t3,2
     744:	01c11423          	sh	t3,8(sp)
     748:	00ebd463          	bge	s7,a4,750 <.L2683>
     74c:	3200606f          	j	6a6c <.L297>

00000750 <.L2683>:
     750:	02051e03          	lh	t3,32(a0)
     754:	00400b93          	li	s7,4
     758:	01cbd463          	bge	s7,t3,760 <.L2683+0x10>
     75c:	6100806f          	j	8d6c <.L299>
     760:	00a15b83          	lhu	s7,10(sp)
     764:	08f00c13          	li	s8,143
     768:	ffcb8b93          	addi	s7,s7,-4
     76c:	01711523          	sh	s7,10(sp)
     770:	00dc4463          	blt	s8,a3,778 <.L317>
     774:	39c0606f          	j	6b10 <.L2559>

00000778 <.L317>:
     778:	2b200b93          	li	s7,690
     77c:	00ebd463          	bge	s7,a4,784 <.L317+0xc>
     780:	25c0606f          	j	69dc <.L315>
     784:	ef500b93          	li	s7,-267
     788:	0172c463          	blt	t0,s7,790 <.L317+0x18>
     78c:	2940606f          	j	6a20 <.L324>
     790:	00c15b83          	lhu	s7,12(sp)
     794:	03c00c13          	li	s8,60
     798:	00bb8b93          	addi	s7,s7,11
     79c:	01711623          	sh	s7,12(sp)
     7a0:	00fc5463          	bge	s8,a5,7a8 <.L2562>
     7a4:	07c0306f          	j	3820 <.L325>

000007a8 <.L2562>:
     7a8:	d2500b93          	li	s7,-731
     7ac:	0175d463          	bge	a1,s7,7b4 <.L334>
     7b0:	3040606f          	j	6ab4 <.L337>

000007b4 <.L334>:
     7b4:	00e15b83          	lhu	s7,14(sp)
     7b8:	ff6b8b93          	addi	s7,s7,-10
     7bc:	010b9b93          	slli	s7,s7,0x10
     7c0:	410bdb93          	srai	s7,s7,0x10

000007c4 <.L338>:
     7c4:	01711723          	sh	s7,14(sp)
     7c8:	efb00b93          	li	s7,-261
     7cc:	017a4463          	blt	s4,s7,7d4 <.L2833>
     7d0:	0880306f          	j	3858 <.L341>

000007d4 <.L2833>:
     7d4:	00d00b93          	li	s7,13
     7d8:	013bd463          	bge	s7,s3,7e0 <.L2833+0xc>
     7dc:	0f10606f          	j	70cc <.L342>
     7e0:	0f400b93          	li	s7,244
     7e4:	006bd463          	bge	s7,t1,7ec <.L2833+0x18>
     7e8:	6d40906f          	j	9ebc <.L343>
     7ec:	00815b83          	lhu	s7,8(sp)
     7f0:	003b8b93          	addi	s7,s7,3
     7f4:	01711423          	sh	s7,8(sp)

000007f8 <.L344>:
     7f8:	07600b93          	li	s7,118
     7fc:	00ebd463          	bge	s7,a4,804 <.L344+0xc>
     800:	3090206f          	j	3308 <.L348>
     804:	ffe00b93          	li	s7,-2
     808:	01764463          	blt	a2,s7,810 <.L344+0x18>
     80c:	7bd0606f          	j	77c8 <.L349>
     810:	e2c00b93          	li	s7,-468
     814:	0172c463          	blt	t0,s7,81c <.L344+0x24>
     818:	03d0a06f          	j	b054 <.L350>
     81c:	00a15b83          	lhu	s7,10(sp)
     820:	17000c13          	li	s8,368
     824:	001b8b93          	addi	s7,s7,1
     828:	01711523          	sh	s7,10(sp)
     82c:	00dc4463          	blt	s8,a3,834 <.L355>
     830:	6c80606f          	j	6ef8 <.L351>

00000834 <.L355>:
     834:	00c15b83          	lhu	s7,12(sp)
     838:	00cb8b93          	addi	s7,s7,12
     83c:	010b9b93          	slli	s7,s7,0x10
     840:	410bdb93          	srai	s7,s7,0x10

00000844 <.L352>:
     844:	01711623          	sh	s7,12(sp)
     848:	e9900b93          	li	s7,-359
     84c:	0175d463          	bge	a1,s7,854 <.L372>
     850:	3150206f          	j	3364 <.L368>

00000854 <.L372>:
     854:	03d00b93          	li	s7,61
     858:	00fbd463          	bge	s7,a5,860 <.L372+0xc>
     85c:	6cc0606f          	j	6f28 <.L371>
     860:	03800b93          	li	s7,56
     864:	00ebd463          	bge	s7,a4,86c <.L372+0x18>
     868:	5e00606f          	j	6e48 <.L370>
     86c:	00e15b83          	lhu	s7,14(sp)
     870:	ffab8b93          	addi	s7,s7,-6
     874:	010b9b93          	slli	s7,s7,0x10
     878:	410bdb93          	srai	s7,s7,0x10

0000087c <.L375>:
     87c:	01711723          	sh	s7,14(sp)
     880:	0a900b93          	li	s7,169
     884:	01ebd463          	bge	s7,t5,88c <.L2825>
     888:	3150206f          	j	339c <.L378>

0000088c <.L2825>:
     88c:	01d00b93          	li	s7,29
     890:	010bd463          	bge	s7,a6,898 <.L2825+0xc>
     894:	78d0506f          	j	6820 <.L379>
     898:	11800b93          	li	s7,280
     89c:	012bd463          	bge	s7,s2,8a4 <.L2825+0x18>
     8a0:	1fd0906f          	j	a29c <.L380>
     8a4:	00815b83          	lhu	s7,8(sp)
     8a8:	0b500c13          	li	s8,181
     8ac:	00bb8b93          	addi	s7,s7,11
     8b0:	01711423          	sh	s7,8(sp)
     8b4:	006c5463          	bge	s8,t1,8bc <.L2565>
     8b8:	7910506f          	j	6848 <.L381>

000008bc <.L2565>:
     8bc:	00a00b93          	li	s7,10
     8c0:	011bc463          	blt	s7,a7,8c8 <.L388>
     8c4:	7a10506f          	j	6864 <.L382>

000008c8 <.L388>:
     8c8:	00a15b83          	lhu	s7,10(sp)
     8cc:	ff7b8b93          	addi	s7,s7,-9
     8d0:	010b9b93          	slli	s7,s7,0x10
     8d4:	410bdb93          	srai	s7,s7,0x10

000008d8 <.L383>:
     8d8:	01711523          	sh	s7,10(sp)
     8dc:	06300b93          	li	s7,99
     8e0:	00dbd463          	bge	s7,a3,8e8 <.L2826>
     8e4:	3290206f          	j	340c <.L400>

000008e8 <.L2826>:
     8e8:	f2100b93          	li	s7,-223
     8ec:	0175c463          	blt	a1,s7,8f4 <.L2826+0xc>
     8f0:	7d10506f          	j	68c0 <.L401>
     8f4:	21800b93          	li	s7,536
     8f8:	016bd463          	bge	s7,s6,900 <.L2826+0x18>
     8fc:	1e50906f          	j	a2e0 <.L402>
     900:	00c15b83          	lhu	s7,12(sp)
     904:	ff6b8b93          	addi	s7,s7,-10
     908:	010b9b93          	slli	s7,s7,0x10
     90c:	410bdb93          	srai	s7,s7,0x10

00000910 <.L403>:
     910:	01711623          	sh	s7,12(sp)
     914:	03b00b93          	li	s7,59
     918:	00fbd463          	bge	s7,a5,920 <.L2827>
     91c:	3290206f          	j	3444 <.L411>

00000920 <.L2827>:
     920:	cd800b93          	li	s7,-808
     924:	0175c463          	blt	a1,s7,92c <.L2827+0xc>
     928:	4410706f          	j	8568 <.L405>
     92c:	00e15b83          	lhu	s7,14(sp)
     930:	008b8b93          	addi	s7,s7,8
     934:	010b9b93          	slli	s7,s7,0x10
     938:	410bdb93          	srai	s7,s7,0x10

0000093c <.L412>:
     93c:	01711723          	sh	s7,14(sp)
     940:	0a900b93          	li	s7,169
     944:	01ebd463          	bge	s7,t5,94c <.L2828>
     948:	3350206f          	j	347c <.L415>

0000094c <.L2828>:
     94c:	01d00b93          	li	s7,29
     950:	010bc463          	blt	s7,a6,958 <.L2828+0xc>
     954:	0340606f          	j	6988 <.L418>
     958:	01c51c03          	lh	s8,28(a0)
     95c:	03800b93          	li	s7,56
     960:	018bd463          	bge	s7,s8,968 <.L2828+0x1c>
     964:	3640a06f          	j	acc8 <.L421>
     968:	00815b83          	lhu	s7,8(sp)
     96c:	ff8b8b93          	addi	s7,s7,-8
     970:	010b9b93          	slli	s7,s7,0x10
     974:	410bdb93          	srai	s7,s7,0x10

00000978 <.L420>:
     978:	01711423          	sh	s7,8(sp)
     97c:	03900b93          	li	s7,57
     980:	00ebd463          	bge	s7,a4,988 <.L2829>
     984:	3310206f          	j	34b4 <.L424>

00000988 <.L2829>:
     988:	00700b93          	li	s7,7
     98c:	011bd463          	bge	s7,a7,994 <.L2829+0xc>
     990:	4ad0206f          	j	363c <.L425>
     994:	00a00b93          	li	s7,10
     998:	01dbd463          	bge	s7,t4,9a0 <.L2829+0x18>
     99c:	6f50806f          	j	9890 <.L426>
     9a0:	00a15b83          	lhu	s7,10(sp)
     9a4:	06300c13          	li	s8,99
     9a8:	ffcb8b93          	addi	s7,s7,-4
     9ac:	01711523          	sh	s7,10(sp)
     9b0:	00dc4463          	blt	s8,a3,9b8 <.L427>
     9b4:	4ad0206f          	j	3660 <.L432>

000009b8 <.L427>:
     9b8:	ed000b93          	li	s7,-304
     9bc:	017ac463          	blt	s5,s7,9c4 <.L433>
     9c0:	0cd0506f          	j	628c <.L430>

000009c4 <.L433>:
     9c4:	00c15b83          	lhu	s7,12(sp)
     9c8:	008b8b93          	addi	s7,s7,8
     9cc:	010b9b93          	slli	s7,s7,0x10
     9d0:	410bdb93          	srai	s7,s7,0x10

000009d4 <.L431>:
     9d4:	01711623          	sh	s7,12(sp)
     9d8:	e2500b93          	li	s7,-475
     9dc:	01744463          	blt	s0,s7,9e4 <.L446>
     9e0:	4b90206f          	j	3698 <.L443>

000009e4 <.L446>:
     9e4:	25500b93          	li	s7,597
     9e8:	009bc463          	blt	s7,s1,9f0 <.L446+0xc>
     9ec:	1990506f          	j	6384 <.L444>
     9f0:	c2600b93          	li	s7,-986
     9f4:	0175c463          	blt	a1,s7,9fc <.L446+0x18>
     9f8:	1210506f          	j	6318 <.L445>
     9fc:	00e15b83          	lhu	s7,14(sp)
     a00:	008b8b93          	addi	s7,s7,8

00000a04 <.L2570>:
     a04:	01711723          	sh	s7,14(sp)

00000a08 <.L451>:
     a08:	02200b93          	li	s7,34
     a0c:	010bd463          	bge	s7,a6,a14 <.L2902>
     a10:	1210506f          	j	6330 <.L457>

00000a14 <.L2902>:
     a14:	0f600b93          	li	s7,246
     a18:	006bd463          	bge	s7,t1,a20 <.L2902+0xc>
     a1c:	6210806f          	j	983c <.L458>
     a20:	00815b83          	lhu	s7,8(sp)
     a24:	002b8b93          	addi	s7,s7,2
     a28:	010b9b93          	slli	s7,s7,0x10
     a2c:	410bdb93          	srai	s7,s7,0x10

00000a30 <.L459>:
     a30:	01711423          	sh	s7,8(sp)
     a34:	0b500b93          	li	s7,181
     a38:	006bd463          	bge	s7,t1,a40 <.L465>
     a3c:	11d0506f          	j	6358 <.L460>

00000a40 <.L465>:
     a40:	00200b93          	li	s7,2
     a44:	01cbd463          	bge	s7,t3,a4c <.L465+0xc>
     a48:	0850506f          	j	62cc <.L468>
     a4c:	00b00b93          	li	s7,11
     a50:	013bd463          	bge	s7,s3,a58 <.L465+0x18>
     a54:	5c10806f          	j	9814 <.L469>
     a58:	00a15b83          	lhu	s7,10(sp)
     a5c:	ff9b8b93          	addi	s7,s7,-7
     a60:	010b9b93          	slli	s7,s7,0x10
     a64:	410bdb93          	srai	s7,s7,0x10

00000a68 <.L470>:
     a68:	01711523          	sh	s7,10(sp)
     a6c:	2be00b93          	li	s7,702
     a70:	00dbd463          	bge	s7,a3,a78 <.L470+0x10>
     a74:	3c90406f          	j	563c <.L479>
     a78:	0a300b93          	li	s7,163
     a7c:	00ebd463          	bge	s7,a4,a84 <.L470+0x1c>
     a80:	72c0806f          	j	91ac <.L480>
     a84:	04d00b93          	li	s7,77
     a88:	00dbd463          	bge	s7,a3,a90 <.L470+0x28>
     a8c:	3810a06f          	j	b60c <.L481>
     a90:	00c15b83          	lhu	s7,12(sp)
     a94:	e0800c13          	li	s8,-504
     a98:	ffbb8b93          	addi	s7,s7,-5
     a9c:	01711623          	sh	s7,12(sp)
     aa0:	01844463          	blt	s0,s8,aa8 <.L482>
     aa4:	6990506f          	j	693c <.L2289>

00000aa8 <.L482>:
     aa8:	25500b93          	li	s7,597
     aac:	009bd463          	bge	s7,s1,ab4 <.L482+0xc>
     ab0:	4e10606f          	j	7790 <.L499>
     ab4:	df100b93          	li	s7,-527
     ab8:	017a4463          	blt	s4,s7,ac0 <.L482+0x18>
     abc:	2450906f          	j	a500 <.L500>
     ac0:	00e15b83          	lhu	s7,14(sp)
     ac4:	0a900c13          	li	s8,169
     ac8:	ff9b8b93          	addi	s7,s7,-7
     acc:	01711723          	sh	s7,14(sp)
     ad0:	01ec4463          	blt	s8,t5,ad8 <.L482+0x30>
     ad4:	1b90306f          	j	448c <.L501>
     ad8:	01e00b93          	li	s7,30
     adc:	013bd463          	bge	s7,s3,ae4 <.L502>
     ae0:	1510306f          	j	4430 <.L2754>

00000ae4 <.L502>:
     ae4:	00815b83          	lhu	s7,8(sp)
     ae8:	34b00c13          	li	s8,843
     aec:	ffcb8b93          	addi	s7,s7,-4
     af0:	01711423          	sh	s7,8(sp)
     af4:	00ec4463          	blt	s8,a4,afc <.L2574>
     af8:	1510306f          	j	4448 <.L516>

00000afc <.L2574>:
     afc:	00001bb7          	lui	s7,0x1
     b00:	a9db8b93          	addi	s7,s7,-1379 # a9d <.L470+0x35>
     b04:	48dbd2e3          	bge	s7,a3,1788 <.L517>

00000b08 <.L518>:
     b08:	00b00b93          	li	s7,11
     b0c:	01cbd463          	bge	s7,t3,b14 <.L518+0xc>
     b10:	3a00a06f          	j	aeb0 <.L534>
     b14:	00a15b83          	lhu	s7,10(sp)
     b18:	fffb8b93          	addi	s7,s7,-1
     b1c:	010b9b93          	slli	s7,s7,0x10
     b20:	010bdb93          	srli	s7,s7,0x10

00000b24 <.L535>:
     b24:	01711523          	sh	s7,10(sp)
     b28:	3fa00b93          	li	s7,1018
     b2c:	00ebc463          	blt	s7,a4,b34 <.L535+0x10>
     b30:	65c0806f          	j	918c <.L526>
     b34:	00001bb7          	lui	s7,0x1
     b38:	b13b8b93          	addi	s7,s7,-1261 # b13 <.L518+0xb>
     b3c:	00dbc463          	blt	s7,a3,b44 <.L535+0x20>
     b40:	1c10306f          	j	4500 <.L532>
     b44:	00c15b83          	lhu	s7,12(sp)
     b48:	009b8b93          	addi	s7,s7,9
     b4c:	010b9b93          	slli	s7,s7,0x10
     b50:	410bdb93          	srai	s7,s7,0x10

00000b54 <.L538>:
     b54:	01711623          	sh	s7,12(sp)
     b58:	e9900b93          	li	s7,-359
     b5c:	4775d6e3          	bge	a1,s7,17c8 <.L541>

00000b60 <.L2773>:
     b60:	20200b93          	li	s7,514
     b64:	016bd463          	bge	s7,s6,b6c <.L2773+0xc>
     b68:	0e40606f          	j	6c4c <.L542>
     b6c:	14600b93          	li	s7,326
     b70:	007bc863          	blt	s7,t2,b80 <.L543>
     b74:	00e15b83          	lhu	s7,14(sp)
     b78:	009b8b93          	addi	s7,s7,9
     b7c:	01711723          	sh	s7,14(sp)

00000b80 <.L543>:
     b80:	3c084ee3          	bltz	a6,175c <.L2755>

00000b84 <.L546>:
     b84:	00095463          	bgez	s2,b8c <.L546+0x8>
     b88:	0c00806f          	j	8c48 <.L2756>
     b8c:	02200b93          	li	s7,34
     b90:	010bc463          	blt	s7,a6,b98 <.L546+0x14>
     b94:	3780506f          	j	5f0c <.L2576>
     b98:	00815b83          	lhu	s7,8(sp)
     b9c:	ff7b8b93          	addi	s7,s7,-9
     ba0:	010b9b93          	slli	s7,s7,0x10
     ba4:	410bdb93          	srai	s7,s7,0x10

00000ba8 <.L552>:
     ba8:	01711423          	sh	s7,8(sp)
     bac:	0f000b93          	li	s7,240
     bb0:	446bdce3          	bge	s7,t1,1808 <.L549>
     bb4:	d6c00b93          	li	s7,-660
     bb8:	017ad463          	bge	s5,s7,bc0 <.L552+0x18>
     bbc:	1280806f          	j	8ce4 <.L2757>
     bc0:	18000b93          	li	s7,384
     bc4:	009bd863          	bge	s7,s1,bd4 <.L567>
     bc8:	00a15b83          	lhu	s7,10(sp)
     bcc:	007b8b93          	addi	s7,s7,7

00000bd0 <.L2577>:
     bd0:	01711523          	sh	s7,10(sp)

00000bd4 <.L567>:
     bd4:	17000b93          	li	s7,368
     bd8:	00dbd463          	bge	s7,a3,be0 <.L563>
     bdc:	4250406f          	j	5800 <.L575>

00000be0 <.L563>:
     be0:	f5200b93          	li	s7,-174
     be4:	0175c463          	blt	a1,s7,bec <.L563+0xc>
     be8:	7580606f          	j	7340 <.L576>
     bec:	03200b93          	li	s7,50
     bf0:	00fbd463          	bge	s7,a5,bf8 <.L563+0x18>
     bf4:	6180906f          	j	a20c <.L577>
     bf8:	00c15b83          	lhu	s7,12(sp)
     bfc:	002b8b93          	addi	s7,s7,2
     c00:	010b9b93          	slli	s7,s7,0x10
     c04:	010bdb93          	srli	s7,s7,0x10

00000c08 <.L578>:
     c08:	01711623          	sh	s7,12(sp)
     c0c:	e0800b93          	li	s7,-504
     c10:	01745463          	bge	s0,s7,c18 <.L581>
     c14:	41d0406f          	j	5830 <.L584>

00000c18 <.L581>:
     c18:	0de00b93          	li	s7,222
     c1c:	012bd463          	bge	s7,s2,c24 <.L581+0xc>
     c20:	2190706f          	j	8638 <.L586>
     c24:	02600b93          	li	s7,38
     c28:	42dbcee3          	blt	s7,a3,1864 <.L585>

00000c2c <.L607>:
     c2c:	0a900b93          	li	s7,169
     c30:	45ebd4e3          	bge	s7,t5,1878 <.L600>

00000c34 <.L610>:
     c34:	10700b93          	li	s7,263
     c38:	007bc463          	blt	s7,t2,c40 <.L610+0xc>
     c3c:	2b90506f          	j	66f4 <.L603>
     c40:	e4300b93          	li	s7,-445
     c44:	01745463          	bge	s0,s7,c4c <.L617>
     c48:	41d0406f          	j	5864 <.L602>

00000c4c <.L617>:
     c4c:	00815b83          	lhu	s7,8(sp)
     c50:	004b8b93          	addi	s7,s7,4
     c54:	01711423          	sh	s7,8(sp)

00000c58 <.L614>:
     c58:	03900b93          	li	s7,57
     c5c:	44ebc2e3          	blt	s7,a4,18a0 <.L618>

00000c60 <.L2775>:
     c60:	00900b93          	li	s7,9
     c64:	011bd463          	bge	s7,a7,c6c <.L2775+0xc>
     c68:	1e10506f          	j	6648 <.L619>
     c6c:	fff00b93          	li	s7,-1
     c70:	01775463          	bge	a4,s7,c78 <.L2775+0x18>
     c74:	6840a06f          	j	b2f8 <.L2758>
     c78:	00a15b83          	lhu	s7,10(sp)
     c7c:	08900c13          	li	s8,137
     c80:	006b8b93          	addi	s7,s7,6
     c84:	01711523          	sh	s7,10(sp)
     c88:	00dc5463          	bge	s8,a3,c90 <.L621>
     c8c:	5b50606f          	j	7a40 <.L2581>

00000c90 <.L621>:
     c90:	03700b93          	li	s7,55
     c94:	00fbd463          	bge	s7,a5,c9c <.L2274>
     c98:	1e10506f          	j	6678 <.L634>

00000c9c <.L2274>:
     c9c:	00c15b83          	lhu	s7,12(sp)
     ca0:	ff7b8b93          	addi	s7,s7,-9
     ca4:	01711623          	sh	s7,12(sp)

00000ca8 <.L636>:
     ca8:	03000b93          	li	s7,48
     cac:	45fbcae3          	blt	s7,t6,1900 <.L646>

00000cb0 <.L2776>:
     cb0:	00e15b83          	lhu	s7,14(sp)
     cb4:	0a900c13          	li	s8,169
     cb8:	0009d463          	bgez	s3,cc0 <.L2585>
     cbc:	7740a06f          	j	b430 <.L2759>

00000cc0 <.L2585>:
     cc0:	009b8b93          	addi	s7,s7,9
     cc4:	01711723          	sh	s7,14(sp)
     cc8:	45ec5ce3          	bge	s8,t5,1920 <.L648>

00000ccc <.L2583>:
     ccc:	01e00b93          	li	s7,30
     cd0:	013bd463          	bge	s7,s3,cd8 <.L652>
     cd4:	4fc0506f          	j	61d0 <.L653>

00000cd8 <.L652>:
     cd8:	00815b83          	lhu	s7,8(sp)
     cdc:	fffb8b93          	addi	s7,s7,-1
     ce0:	01711423          	sh	s7,8(sp)

00000ce4 <.L649>:
     ce4:	0b500b93          	li	s7,181
     ce8:	466bc0e3          	blt	s7,t1,1948 <.L659>

00000cec <.L2777>:
     cec:	00b00b93          	li	s7,11
     cf0:	011bd463          	bge	s7,a7,cf8 <.L2777+0xc>
     cf4:	4040606f          	j	70f8 <.L660>
     cf8:	f8700b93          	li	s7,-121
     cfc:	01744463          	blt	s0,s7,d04 <.L2777+0x18>
     d00:	2d90906f          	j	a7d8 <.L661>
     d04:	00a15b83          	lhu	s7,10(sp)
     d08:	006b8b93          	addi	s7,s7,6
     d0c:	010b9b93          	slli	s7,s7,0x10
     d10:	410bdb93          	srai	s7,s7,0x10

00000d14 <.L662>:
     d14:	01711523          	sh	s7,10(sp)
     d18:	27a00b93          	li	s7,634
     d1c:	46dbc0e3          	blt	s7,a3,197c <.L667>

00000d20 <.L2778>:
     d20:	02200b93          	li	s7,34
     d24:	01dbd463          	bge	s7,t4,d2c <.L2778+0xc>
     d28:	7440706f          	j	846c <.L668>
     d2c:	ff400b93          	li	s7,-12
     d30:	01764463          	blt	a2,s7,d38 <.L2778+0x18>
     d34:	7290806f          	j	9c5c <.L669>
     d38:	00c15b83          	lhu	s7,12(sp)
     d3c:	007b8b93          	addi	s7,s7,7
     d40:	01711623          	sh	s7,12(sp)

00000d44 <.L670>:
     d44:	d8200b93          	li	s7,-638
     d48:	4575dee3          	bge	a1,s7,19a4 <.L673>

00000d4c <.L2779>:
     d4c:	25500b93          	li	s7,597
     d50:	009bd463          	bge	s7,s1,d58 <.L2779+0xc>
     d54:	4ac0506f          	j	6200 <.L674>
     d58:	47700b93          	li	s7,1143
     d5c:	007bd463          	bge	s7,t2,d64 <.L2779+0x18>
     d60:	40d0806f          	j	996c <.L675>
     d64:	00e15b83          	lhu	s7,14(sp)
     d68:	00ab8b93          	addi	s7,s7,10
     d6c:	010b9b93          	slli	s7,s7,0x10
     d70:	410bdb93          	srai	s7,s7,0x10

00000d74 <.L676>:
     d74:	01711723          	sh	s7,14(sp)
     d78:	44084ee3          	bltz	a6,19d4 <.L2269>

00000d7c <.L682>:
     d7c:	00a00b93          	li	s7,10
     d80:	012bd463          	bge	s7,s2,d88 <.L682+0xc>
     d84:	1c40506f          	j	5f48 <.L693>
     d88:	02e00b93          	li	s7,46
     d8c:	01dbd463          	bge	s7,t4,d94 <.L682+0x18>
     d90:	71c0806f          	j	94ac <.L694>
     d94:	00815b83          	lhu	s7,8(sp)
     d98:	006b8b93          	addi	s7,s7,6
     d9c:	010b9b93          	slli	s7,s7,0x10
     da0:	410bdb93          	srai	s7,s7,0x10

00000da4 <.L692>:
     da4:	01711423          	sh	s7,8(sp)
     da8:	07200b93          	li	s7,114
     dac:	00ebd463          	bge	s7,a4,db4 <.L685>
     db0:	6fc0406f          	j	54ac <.L696>

00000db4 <.L685>:
     db4:	ffa00b93          	li	s7,-6
     db8:	01765463          	bge	a2,s7,dc0 <.L685+0xc>
     dbc:	06c0706f          	j	7e28 <.L688>
     dc0:	ed100b93          	li	s7,-303
     dc4:	017ac463          	blt	s5,s7,dcc <.L685+0x18>
     dc8:	0d40a06f          	j	ae9c <.L698>
     dcc:	00a15b83          	lhu	s7,10(sp)
     dd0:	00ab8b93          	addi	s7,s7,10
     dd4:	010b9b93          	slli	s7,s7,0x10
     dd8:	010bdb93          	srli	s7,s7,0x10

00000ddc <.L699>:
     ddc:	01711523          	sh	s7,10(sp)

00000de0 <.L703>:
     de0:	01c51c03          	lh	s8,28(a0)
     de4:	03c00b93          	li	s7,60
     de8:	018bd463          	bge	s7,s8,df0 <.L703+0x10>
     dec:	2c50706f          	j	88b0 <.L708>
     df0:	03600b93          	li	s7,54
     df4:	01fbd463          	bge	s7,t6,dfc <.L703+0x1c>
     df8:	72c0906f          	j	a524 <.L709>
     dfc:	00c15b83          	lhu	s7,12(sp)
     e00:	ffeb8b93          	addi	s7,s7,-2
     e04:	010b9b93          	slli	s7,s7,0x10
     e08:	410bdb93          	srai	s7,s7,0x10

00000e0c <.L706>:
     e0c:	01711623          	sh	s7,12(sp)
     e10:	03900b93          	li	s7,57
     e14:	44fbc4e3          	blt	s7,a5,1a5c <.L710>

00000e18 <.L2781>:
     e18:	feb00b93          	li	s7,-21
     e1c:	01734463          	blt	t1,s7,e24 <.L2781+0xc>
     e20:	2a50706f          	j	88c4 <.L711>
     e24:	07700b93          	li	s7,119
     e28:	007bd463          	bge	s7,t2,e30 <.L2781+0x18>
     e2c:	4a80206f          	j	32d4 <.L712>
     e30:	00e15b83          	lhu	s7,14(sp)
     e34:	0a900c13          	li	s8,169
     e38:	ffab8b93          	addi	s7,s7,-6
     e3c:	01711723          	sh	s7,14(sp)
     e40:	01ec4463          	blt	s8,t5,e48 <.L2781+0x30>
     e44:	5c90506f          	j	6c0c <.L2729>
     e48:	02400b93          	li	s7,36
     e4c:	007bd463          	bge	s7,t2,e54 <.L729>
     e50:	4a80206f          	j	32f8 <.L714>

00000e54 <.L729>:
     e54:	00815b83          	lhu	s7,8(sp)
     e58:	004b8b93          	addi	s7,s7,4
     e5c:	01711423          	sh	s7,8(sp)

00000e60 <.L715>:
     e60:	00200b93          	li	s7,2
     e64:	01cbd463          	bge	s7,t3,e6c <.L715+0xc>
     e68:	5c90506f          	j	6c30 <.L736>
     e6c:	03b00b93          	li	s7,59
     e70:	00fbc463          	blt	s7,a5,e78 <.L715+0x18>
     e74:	4c40906f          	j	a338 <.L2265>
     e78:	00a15b83          	lhu	s7,10(sp)
     e7c:	ff9b8b93          	addi	s7,s7,-7
     e80:	010b9b93          	slli	s7,s7,0x10
     e84:	410bdb93          	srai	s7,s7,0x10

00000e88 <.L745>:
     e88:	01711523          	sh	s7,10(sp)
     e8c:	0dd00b93          	li	s7,221
     e90:	00dbc463          	blt	s7,a3,e98 <.L745+0x10>
     e94:	3000406f          	j	5194 <.L749>
     e98:	25b00b93          	li	s7,603
     e9c:	44ebdae3          	bge	s7,a4,1af0 <.L750>
     ea0:	ddb00b93          	li	s7,-549
     ea4:	017ad463          	bge	s5,s7,eac <.L745+0x24>
     ea8:	7f90306f          	j	4ea0 <.L772>
     eac:	00c15b83          	lhu	s7,12(sp)
     eb0:	03e00c13          	li	s8,62
     eb4:	ff7b8b93          	addi	s7,s7,-9
     eb8:	01711623          	sh	s7,12(sp)
     ebc:	46fc52e3          	bge	s8,a5,1b20 <.L751>
     ec0:	fec00b93          	li	s7,-20
     ec4:	01764463          	blt	a2,s7,ecc <.L780>
     ec8:	5410706f          	j	8c08 <.L2760>

00000ecc <.L780>:
     ecc:	08900b93          	li	s7,137
     ed0:	012bd463          	bge	s7,s2,ed8 <.L780+0xc>
     ed4:	1f00906f          	j	a0c4 <.L782>
     ed8:	00e15b83          	lhu	s7,14(sp)
     edc:	ffe00c13          	li	s8,-2
     ee0:	ff9b8b93          	addi	s7,s7,-7
     ee4:	01711723          	sh	s7,14(sp)
     ee8:	01885463          	bge	a6,s8,ef0 <.L784>
     eec:	71d0306f          	j	4e08 <.L783>

00000ef0 <.L784>:
     ef0:	00815b83          	lhu	s7,8(sp)
     ef4:	002b8b93          	addi	s7,s7,2
     ef8:	010b9b93          	slli	s7,s7,0x10
     efc:	410bdb93          	srai	s7,s7,0x10

00000f00 <.L778>:
     f00:	01711423          	sh	s7,8(sp)
     f04:	03300b93          	li	s7,51
     f08:	47fbdae3          	bge	s7,t6,1b7c <.L788>

00000f0c <.L794>:
     f0c:	01400b93          	li	s7,20
     f10:	010bc463          	blt	s7,a6,f18 <.L794+0xc>
     f14:	7250306f          	j	4e38 <.L789>
     f18:	00b00b93          	li	s7,11
     f1c:	011bd463          	bge	s7,a7,f24 <.L794+0x18>
     f20:	79c0806f          	j	96bc <.L804>
     f24:	00a15b83          	lhu	s7,10(sp)
     f28:	ffc00c13          	li	s8,-4
     f2c:	005b8b93          	addi	s7,s7,5
     f30:	01711523          	sh	s7,10(sp)
     f34:	47864ae3          	blt	a2,s8,1ba8 <.L797>

00000f38 <.L812>:
     f38:	00c15b83          	lhu	s7,12(sp)
     f3c:	03e00c13          	li	s8,62
     f40:	ff7b8b93          	addi	s7,s7,-9
     f44:	01711623          	sh	s7,12(sp)
     f48:	00fc4463          	blt	s8,a5,f50 <.L817>
     f4c:	2200406f          	j	516c <.L816>

00000f50 <.L817>:
     f50:	00e15b83          	lhu	s7,14(sp)
     f54:	009b8b93          	addi	s7,s7,9
     f58:	010b9b93          	slli	s7,s7,0x10
     f5c:	410bdb93          	srai	s7,s7,0x10

00000f60 <.L820>:
     f60:	01711723          	sh	s7,14(sp)
     f64:	01f00b93          	li	s7,31
     f68:	493bcee3          	blt	s7,s3,1c04 <.L822>

00000f6c <.L2783>:
     f6c:	01c04463          	bgtz	t3,f74 <.L2783+0x8>
     f70:	0d40806f          	j	9044 <.L2761>
     f74:	00300b93          	li	s7,3
     f78:	01cbc463          	blt	s7,t3,f80 <.L2783+0x14>
     f7c:	16c0606f          	j	70e8 <.L824>
     f80:	00815b83          	lhu	s7,8(sp)
     f84:	001b8b93          	addi	s7,s7,1
     f88:	01711423          	sh	s7,8(sp)

00000f8c <.L825>:
     f8c:	1ac00b93          	li	s7,428
     f90:	496bc8e3          	blt	s7,s6,1c20 <.L826>

00000f94 <.L2784>:
     f94:	ff900b93          	li	s7,-7
     f98:	01764463          	blt	a2,s7,fa0 <.L2784+0xc>
     f9c:	4e90506f          	j	6c84 <.L827>
     fa0:	00100b93          	li	s7,1
     fa4:	01cbc463          	blt	s7,t3,fac <.L2784+0x18>
     fa8:	3b00a06f          	j	b358 <.L2762>
     fac:	00a15b83          	lhu	s7,10(sp)
     fb0:	ff8b8b93          	addi	s7,s7,-8
     fb4:	010b9b93          	slli	s7,s7,0x10
     fb8:	410bdb93          	srai	s7,s7,0x10

00000fbc <.L829>:
     fbc:	01711523          	sh	s7,10(sp)
     fc0:	27a00b93          	li	s7,634
     fc4:	48dbc8e3          	blt	s7,a3,1c54 <.L837>

00000fc8 <.L2785>:
     fc8:	02200b93          	li	s7,34
     fcc:	01dbd463          	bge	s7,t4,fd4 <.L2785+0xc>
     fd0:	4e50506f          	j	6cb4 <.L833>
     fd4:	ff000b93          	li	s7,-16
     fd8:	01765863          	bge	a2,s7,fe8 <.L838>
     fdc:	00c15b83          	lhu	s7,12(sp)
     fe0:	00ab8b93          	addi	s7,s7,10
     fe4:	01711623          	sh	s7,12(sp)

00000fe8 <.L838>:
     fe8:	d2a00b93          	li	s7,-726
     fec:	0175d463          	bge	a1,s7,ff4 <.L840>
     ff0:	1b90406f          	j	59a8 <.L850>

00000ff4 <.L840>:
     ff4:	eea00b93          	li	s7,-278
     ff8:	017a4463          	blt	s4,s7,1000 <.L840+0xc>
     ffc:	4f90506f          	j	6cf4 <.L845>
    1000:	02700b93          	li	s7,39
    1004:	48dbc6e3          	blt	s7,a3,1c90 <.L852>

00001008 <.L846>:
    1008:	0a900b93          	li	s7,169
    100c:	49ebdce3          	bge	s7,t5,1ca4 <.L860>

00001010 <.L2786>:
    1010:	01e00b93          	li	s7,30
    1014:	013bd463          	bge	s7,s3,101c <.L2786+0xc>
    1018:	5090506f          	j	6d20 <.L858>
    101c:	03c00b93          	li	s7,60
    1020:	00fbc463          	blt	s7,a5,1028 <.L2786+0x18>
    1024:	5640706f          	j	8588 <.L864>
    1028:	00815b83          	lhu	s7,8(sp)
    102c:	005b8b93          	addi	s7,s7,5
    1030:	01711423          	sh	s7,8(sp)

00001034 <.L859>:
    1034:	0b500b93          	li	s7,181
    1038:	486bcae3          	blt	s7,t1,1ccc <.L865>

0000103c <.L2788>:
    103c:	00300b93          	li	s7,3
    1040:	01cbc463          	blt	s7,t3,1048 <.L2788+0xc>
    1044:	3f00506f          	j	6434 <.L2261>
    1048:	47000b93          	li	s7,1136
    104c:	007bd463          	bge	s7,t2,1054 <.L2788+0x18>
    1050:	48d0906f          	j	acdc <.L875>
    1054:	00a15b83          	lhu	s7,10(sp)
    1058:	ff8b8b93          	addi	s7,s7,-8
    105c:	01711523          	sh	s7,10(sp)

00001060 <.L874>:
    1060:	f6a00b93          	li	s7,-150
    1064:	4975c6e3          	blt	a1,s7,1cf0 <.L878>
    1068:	f5b00b93          	li	s7,-165
    106c:	0172d463          	bge	t0,s7,1074 <.L874+0x14>
    1070:	4300506f          	j	64a0 <.L871>
    1074:	0ed00b93          	li	s7,237
    1078:	00dbc463          	blt	s7,a3,1080 <.L874+0x20>
    107c:	3e40506f          	j	6460 <.L894>
    1080:	00c15b83          	lhu	s7,12(sp)
    1084:	02f00c13          	li	s8,47
    1088:	003b8b93          	addi	s7,s7,3
    108c:	01711623          	sh	s7,12(sp)
    1090:	490c46e3          	blt	s8,a6,1d1c <.L889>

00001094 <.L888>:
    1094:	03800b93          	li	s7,56
    1098:	01fbd463          	bge	s7,t6,10a0 <.L890>
    109c:	3e40506f          	j	6480 <.L881>

000010a0 <.L890>:
    10a0:	00e15b83          	lhu	s7,14(sp)
    10a4:	ff8b8b93          	addi	s7,s7,-8
    10a8:	010b9b93          	slli	s7,s7,0x10
    10ac:	410bdb93          	srai	s7,s7,0x10

000010b0 <.L896>:
    10b0:	01711723          	sh	s7,14(sp)
    10b4:	ec600b93          	li	s7,-314
    10b8:	497446e3          	blt	s0,s7,1d44 <.L904>

000010bc <.L2789>:
    10bc:	ebf00b93          	li	s7,-321
    10c0:	0175c463          	blt	a1,s7,10c8 <.L2789+0xc>
    10c4:	60d0706f          	j	8ed0 <.L908>
    10c8:	03c00b93          	li	s7,60
    10cc:	00fbd463          	bge	s7,a5,10d4 <.L2594>
    10d0:	6a00806f          	j	9770 <.L901>

000010d4 <.L2594>:
    10d4:	00815b83          	lhu	s7,8(sp)
    10d8:	006b8b93          	addi	s7,s7,6
    10dc:	01711423          	sh	s7,8(sp)

000010e0 <.L906>:
    10e0:	03400b93          	li	s7,52
    10e4:	49dbc6e3          	blt	s7,t4,1d70 <.L909>

000010e8 <.L2791>:
    10e8:	ff800b93          	li	s7,-8
    10ec:	01764463          	blt	a2,s7,10f4 <.L2791+0xc>
    10f0:	6500606f          	j	7740 <.L910>
    10f4:	01e00b93          	li	s7,30
    10f8:	011bd463          	bge	s7,a7,1100 <.L2791+0x18>
    10fc:	6640606f          	j	7760 <.L911>
    1100:	00a15b83          	lhu	s7,10(sp)
    1104:	ffdb8b93          	addi	s7,s7,-3
    1108:	010b9b93          	slli	s7,s7,0x10
    110c:	410bdb93          	srai	s7,s7,0x10

00001110 <.L912>:
    1110:	01711523          	sh	s7,10(sp)
    1114:	03300b93          	li	s7,51
    1118:	00fbc463          	blt	s7,a5,1120 <.L914>
    111c:	1f00406f          	j	530c <.L923>

00001120 <.L914>:
    1120:	d7800b93          	li	s7,-648
    1124:	017a5463          	bge	s4,s7,112c <.L914+0xc>
    1128:	03d0606f          	j	7964 <.L927>
    112c:	01500c13          	li	s8,21
    1130:	47dc4ee3          	blt	s8,t4,1dac <.L920>
    1134:	00c15b83          	lhu	s7,12(sp)
    1138:	03900c93          	li	s9,57
    113c:	001b8b93          	addi	s7,s7,1
    1140:	01711623          	sh	s7,12(sp)
    1144:	48fcc4e3          	blt	s9,a5,1dcc <.L941>
    1148:	006c4463          	blt	s8,t1,1150 <.L933>
    114c:	1780206f          	j	32c4 <.L934>

00001150 <.L933>:
    1150:	27700b93          	li	s7,631
    1154:	012bd463          	bge	s7,s2,115c <.L933+0xc>
    1158:	5540806f          	j	96ac <.L942>
    115c:	00e15b83          	lhu	s7,14(sp)
    1160:	ff7b8b93          	addi	s7,s7,-9
    1164:	01711723          	sh	s7,14(sp)

00001168 <.L940>:
    1168:	00c00b93          	li	s7,12
    116c:	493bc4e3          	blt	s7,s3,1df4 <.L935>

00001170 <.L2792>:
    1170:	1b000b93          	li	s7,432
    1174:	009bd463          	bge	s7,s1,117c <.L2792+0xc>
    1178:	5500706f          	j	86c8 <.L946>
    117c:	10600b93          	li	s7,262
    1180:	00ebc463          	blt	s7,a4,1188 <.L2792+0x18>
    1184:	5390506f          	j	6ebc <.L952>
    1188:	00815b83          	lhu	s7,8(sp)
    118c:	03300c13          	li	s8,51
    1190:	008b8b93          	addi	s7,s7,8
    1194:	01711423          	sh	s7,8(sp)
    1198:	01fc4463          	blt	s8,t6,11a0 <.L949>
    119c:	5480306f          	j	46e4 <.L956>

000011a0 <.L949>:
    11a0:	03b00b93          	li	s7,59
    11a4:	00fbd463          	bge	s7,a5,11ac <.L949+0xc>
    11a8:	7dc0906f          	j	a984 <.L973>
    11ac:	00a15b83          	lhu	s7,10(sp)
    11b0:	005b8b93          	addi	s7,s7,5
    11b4:	010b9b93          	slli	s7,s7,0x10
    11b8:	410bdb93          	srai	s7,s7,0x10

000011bc <.L969>:
    11bc:	01711523          	sh	s7,10(sp)
    11c0:	03900b93          	li	s7,57
    11c4:	00dbd463          	bge	s7,a3,11cc <.L960>
    11c8:	4c10506f          	j	6e88 <.L970>

000011cc <.L960>:
    11cc:	01300b93          	li	s7,19
    11d0:	491bc4e3          	blt	s7,a7,1e58 <.L974>

000011d4 <.L2793>:
    11d4:	20f00b93          	li	s7,527
    11d8:	009bd463          	bge	s7,s1,11e0 <.L2793+0xc>
    11dc:	7800906f          	j	a95c <.L975>
    11e0:	00c15b83          	lhu	s7,12(sp)
    11e4:	cf000c13          	li	s8,-784
    11e8:	ffeb8b93          	addi	s7,s7,-2
    11ec:	01711623          	sh	s7,12(sp)
    11f0:	4985dae3          	bge	a1,s8,1e84 <.L976>

000011f4 <.L982>:
    11f4:	e2c00b93          	li	s7,-468
    11f8:	0172c463          	blt	t0,s7,1200 <.L982+0xc>
    11fc:	7300906f          	j	a92c <.L2763>
    1200:	00e15b83          	lhu	s7,14(sp)
    1204:	ffeb8b93          	addi	s7,s7,-2
    1208:	01711723          	sh	s7,14(sp)

0000120c <.L989>:
    120c:	00400b93          	li	s7,4
    1210:	011bc863          	blt	s7,a7,1220 <.L1002>
    1214:	00815b83          	lhu	s7,8(sp)
    1218:	00cb8b93          	addi	s7,s7,12
    121c:	01711423          	sh	s7,8(sp)

00001220 <.L1002>:
    1220:	1ac00b93          	li	s7,428
    1224:	4b6bc2e3          	blt	s7,s6,1ec8 <.L1004>

00001228 <.L2794>:
    1228:	00400b93          	li	s7,4
    122c:	01cbd463          	bge	s7,t3,1234 <.L2794+0xc>
    1230:	4510406f          	j	5e80 <.L1005>
    1234:	16a00b93          	li	s7,362
    1238:	007bd463          	bge	s7,t2,1240 <.L2794+0x18>
    123c:	4890906f          	j	aec4 <.L1006>
    1240:	00a15b83          	lhu	s7,10(sp)
    1244:	003b8b93          	addi	s7,s7,3
    1248:	010b9b93          	slli	s7,s7,0x10
    124c:	410bdb93          	srai	s7,s7,0x10

00001250 <.L1007>:
    1250:	01711523          	sh	s7,10(sp)
    1254:	03d00b93          	li	s7,61
    1258:	4afbc2e3          	blt	s7,a5,1efc <.L1017>

0000125c <.L1013>:
    125c:	00100b93          	li	s7,1
    1260:	01cbd463          	bge	s7,t3,1268 <.L1013+0xc>
    1264:	4490406f          	j	5eac <.L1016>
    1268:	e4e00b93          	li	s7,-434
    126c:	0175c463          	blt	a1,s7,1274 <.L1013+0x18>
    1270:	1440a06f          	j	b3b4 <.L1018>
    1274:	00c15b83          	lhu	s7,12(sp)
    1278:	004b8b93          	addi	s7,s7,4
    127c:	010b9b93          	slli	s7,s7,0x10
    1280:	410bdb93          	srai	s7,s7,0x10

00001284 <.L1019>:
    1284:	01711623          	sh	s7,12(sp)
    1288:	03900b93          	li	s7,57
    128c:	48fbcae3          	blt	s7,a5,1f20 <.L1014>
    1290:	03200b93          	li	s7,50
    1294:	01dbc463          	blt	s7,t4,129c <.L1019+0x18>
    1298:	4390406f          	j	5ed0 <.L1026>
    129c:	ebb00b93          	li	s7,-325
    12a0:	0172c463          	blt	t0,s7,12a8 <.L1019+0x24>
    12a4:	3790906f          	j	ae1c <.L1029>
    12a8:	00e15b83          	lhu	s7,14(sp)
    12ac:	ffbb8b93          	addi	s7,s7,-5
    12b0:	010b9b93          	slli	s7,s7,0x10
    12b4:	410bdb93          	srai	s7,s7,0x10

000012b8 <.L1028>:
    12b8:	01711723          	sh	s7,14(sp)
    12bc:	01f00b93          	li	s7,31
    12c0:	013bc463          	blt	s7,s3,12c8 <.L1037>
    12c4:	7d10306f          	j	5294 <.L1038>

000012c8 <.L1037>:
    12c8:	00600b93          	li	s7,6
    12cc:	011bd863          	bge	s7,a7,12dc <.L1043>

000012d0 <.L1046>:
    12d0:	00815b83          	lhu	s7,8(sp)
    12d4:	ff7b8b93          	addi	s7,s7,-9
    12d8:	01711423          	sh	s7,8(sp)

000012dc <.L1043>:
    12dc:	03100b93          	li	s7,49
    12e0:	01fbd463          	bge	s7,t6,12e8 <.L2891>
    12e4:	7d90306f          	j	52bc <.L1051>

000012e8 <.L2891>:
    12e8:	1f500b93          	li	s7,501
    12ec:	00ebd463          	bge	s7,a4,12f4 <.L1052>
    12f0:	75d0406f          	j	624c <.L1042>

000012f4 <.L1052>:
    12f4:	ff900b93          	li	s7,-7
    12f8:	01784463          	blt	a6,s7,1300 <.L1052+0xc>
    12fc:	0440806f          	j	9340 <.L1041>
    1300:	00a15b83          	lhu	s7,10(sp)
    1304:	ffeb8b93          	addi	s7,s7,-2
    1308:	010b9b93          	slli	s7,s7,0x10
    130c:	410bdb93          	srai	s7,s7,0x10

00001310 <.L1045>:
    1310:	01711523          	sh	s7,10(sp)
    1314:	0c100b93          	li	s7,193
    1318:	469bc8e3          	blt	s7,s1,1f88 <.L1056>

0000131c <.L2795>:
    131c:	03800b93          	li	s7,56
    1320:	00fbd463          	bge	s7,a5,1328 <.L2795+0xc>
    1324:	2c10506f          	j	6de4 <.L1057>
    1328:	ff900c13          	li	s8,-7
    132c:	01864463          	blt	a2,s8,1334 <.L2795+0x18>
    1330:	76c0706f          	j	8a9c <.L1058>
    1334:	00c15c03          	lhu	s8,12(sp)
    1338:	02f00c93          	li	s9,47
    133c:	005c0c13          	addi	s8,s8,5
    1340:	01811623          	sh	s8,12(sp)
    1344:	010cc463          	blt	s9,a6,134c <.L2795+0x30>
    1348:	26c0206f          	j	35b4 <.L2730>
    134c:	e1900b93          	li	s7,-487
    1350:	017a4463          	blt	s4,s7,1358 <.L1062>
    1354:	0cd0a06f          	j	bc20 <.L2764>

00001358 <.L1062>:
    1358:	00300b93          	li	s7,3
    135c:	00dbd463          	bge	s7,a3,1364 <.L1062+0xc>
    1360:	5540906f          	j	a8b4 <.L1073>
    1364:	00815b83          	lhu	s7,8(sp)
    1368:	003b8b93          	addi	s7,s7,3
    136c:	010b9b93          	slli	s7,s7,0x10
    1370:	410bdb93          	srai	s7,s7,0x10

00001374 <.L1092>:
    1374:	01711423          	sh	s7,8(sp)
    1378:	30000b93          	li	s7,768
    137c:	4bebc4e3          	blt	s7,t5,2024 <.L1095>

00001380 <.L1085>:
    1380:	ff800b93          	li	s7,-8
    1384:	01764463          	blt	a2,s7,138c <.L1085+0xc>
    1388:	7680706f          	j	8af0 <.L1096>
    138c:	1dc00b93          	li	s7,476
    1390:	016bc863          	blt	s7,s6,13a0 <.L1097>
    1394:	00a15b83          	lhu	s7,10(sp)
    1398:	ff9b8b93          	addi	s7,s7,-7
    139c:	01711523          	sh	s7,10(sp)

000013a0 <.L1097>:
    13a0:	04900b93          	li	s7,73
    13a4:	011bd463          	bge	s7,a7,13ac <.L1097+0xc>
    13a8:	0140406f          	j	53bc <.L1105>
    13ac:	02000b93          	li	s7,32
    13b0:	01dbd463          	bge	s7,t4,13b8 <.L1097+0x18>
    13b4:	2d50606f          	j	7e88 <.L1103>
    13b8:	16300b93          	li	s7,355
    13bc:	4bebc2e3          	blt	s7,t5,2060 <.L1102>
    13c0:	00c15b83          	lhu	s7,12(sp)
    13c4:	fffb8b93          	addi	s7,s7,-1
    13c8:	01711623          	sh	s7,12(sp)

000013cc <.L1108>:
    13cc:	e4a00b93          	li	s7,-438
    13d0:	4b72d2e3          	bge	t0,s7,2074 <.L1112>

000013d4 <.L2796>:
    13d4:	03d00b93          	li	s7,61
    13d8:	00fbc463          	blt	s7,a5,13e0 <.L2796+0xc>
    13dc:	0340606f          	j	7410 <.L1113>
    13e0:	01100b93          	li	s7,17
    13e4:	011bd463          	bge	s7,a7,13ec <.L2796+0x18>
    13e8:	0100406f          	j	53f8 <.L1114>
    13ec:	00e15b83          	lhu	s7,14(sp)
    13f0:	01500c13          	li	s8,21
    13f4:	008b8b93          	addi	s7,s7,8
    13f8:	01711723          	sh	s7,14(sp)
    13fc:	4a7c52e3          	bge	s8,t2,20a0 <.L1118>

00001400 <.L2601>:
    1400:	0fd00b93          	li	s7,253
    1404:	007bc463          	blt	s7,t2,140c <.L1120>
    1408:	17c0406f          	j	5584 <.L1119>

0000140c <.L1120>:
    140c:	e4300b93          	li	s7,-445
    1410:	01744463          	blt	s0,s7,1418 <.L1120+0xc>
    1414:	50c0806f          	j	9920 <.L1131>
    1418:	00815b83          	lhu	s7,8(sp)
    141c:	ff7b8b93          	addi	s7,s7,-9
    1420:	010b9b93          	slli	s7,s7,0x10
    1424:	410bdb93          	srai	s7,s7,0x10

00001428 <.L1127>:
    1428:	01711423          	sh	s7,8(sp)
    142c:	03300b93          	li	s7,51
    1430:	4bfbc2e3          	blt	s7,t6,20d4 <.L1129>

00001434 <.L2797>:
    1434:	fe200b93          	li	s7,-30
    1438:	01764463          	blt	a2,s7,1440 <.L2797+0xc>
    143c:	63c0606f          	j	7a78 <.L1128>
    1440:	e3d00b93          	li	s7,-451
    1444:	01744463          	blt	s0,s7,144c <.L2797+0x18>
    1448:	4fc0806f          	j	9944 <.L1132>
    144c:	00a15b83          	lhu	s7,10(sp)
    1450:	ffab8b93          	addi	s7,s7,-6
    1454:	010b9b93          	slli	s7,s7,0x10
    1458:	410bdb93          	srai	s7,s7,0x10

0000145c <.L1133>:
    145c:	01711523          	sh	s7,10(sp)
    1460:	00100b93          	li	s7,1
    1464:	4bcbd2e3          	bge	s7,t3,2108 <.L2765>

00001468 <.L1138>:
    1468:	01500b93          	li	s7,21
    146c:	01dbd463          	bge	s7,t4,1474 <.L1138+0xc>
    1470:	2810406f          	j	5ef0 <.L1142>
    1474:	20f00b93          	li	s7,527
    1478:	016bc463          	blt	s7,s6,1480 <.L1138+0x18>
    147c:	2e90406f          	j	5f64 <.L1144>
    1480:	00c15b83          	lhu	s7,12(sp)
    1484:	00ab8b93          	addi	s7,s7,10
    1488:	010b9b93          	slli	s7,s7,0x10
    148c:	410bdb93          	srai	s7,s7,0x10

00001490 <.L1140>:
    1490:	01711623          	sh	s7,12(sp)
    1494:	03e00b93          	li	s7,62
    1498:	48fbcce3          	blt	s7,a5,2130 <.L1145>

0000149c <.L2798>:
    149c:	03800b93          	li	s7,56
    14a0:	01fbd463          	bge	s7,t6,14a8 <.L2798+0xc>
    14a4:	2d90606f          	j	7f7c <.L1146>
    14a8:	f5400b93          	li	s7,-172
    14ac:	01744463          	blt	s0,s7,14b4 <.L2798+0x18>
    14b0:	6200806f          	j	9ad0 <.L1147>
    14b4:	00e15b83          	lhu	s7,14(sp)
    14b8:	005b8b93          	addi	s7,s7,5
    14bc:	010b9b93          	slli	s7,s7,0x10
    14c0:	410bdb93          	srai	s7,s7,0x10

000014c4 <.L1148>:
    14c4:	01711723          	sh	s7,14(sp)
    14c8:	01f00b93          	li	s7,31
    14cc:	013bd463          	bge	s7,s3,14d4 <.L1148+0x10>
    14d0:	3ac0306f          	j	487c <.L1152>
    14d4:	03b00b93          	li	s7,59
    14d8:	00fbd463          	bge	s7,a5,14e0 <.L1148+0x1c>
    14dc:	6a40706f          	j	8b80 <.L1153>
    14e0:	1ed00b93          	li	s7,493
    14e4:	009bd463          	bge	s7,s1,14ec <.L1148+0x28>
    14e8:	0850506f          	j	6d6c <.L1154>
    14ec:	00815b83          	lhu	s7,8(sp)
    14f0:	1b900c13          	li	s8,441
    14f4:	ffeb8b93          	addi	s7,s7,-2
    14f8:	01711423          	sh	s7,8(sp)
    14fc:	01ec4463          	blt	s8,t5,1504 <.L1155>
    1500:	0850506f          	j	6d84 <.L1158>

00001504 <.L1155>:
    1504:	03200b93          	li	s7,50
    1508:	01dbd463          	bge	s7,t4,1510 <.L1155+0xc>
    150c:	7590706f          	j	9464 <.L1176>
    1510:	ff200b93          	li	s7,-14
    1514:	01764463          	blt	a2,s7,151c <.L1155+0x18>
    1518:	6f80a06f          	j	bc10 <.L1177>
    151c:	00a15b83          	lhu	s7,10(sp)
    1520:	ff7b8b93          	addi	s7,s7,-9
    1524:	01711523          	sh	s7,10(sp)

00001528 <.L1174>:
    1528:	00f00b93          	li	s7,15
    152c:	010bd463          	bge	s7,a6,1534 <.L1188>
    1530:	5600206f          	j	3a90 <.L1196>

00001534 <.L1188>:
    1534:	f6300b93          	li	s7,-157
    1538:	0175c463          	blt	a1,s7,1540 <.L1188+0xc>
    153c:	7c10606f          	j	84fc <.L2766>
    1540:	00c15b83          	lhu	s7,12(sp)
    1544:	ffcb8b93          	addi	s7,s7,-4
    1548:	010b9b93          	slli	s7,s7,0x10
    154c:	410bdb93          	srai	s7,s7,0x10
    1550:	01711623          	sh	s7,12(sp)
    1554:	0d800b93          	li	s7,216
    1558:	492bd0e3          	bge	s7,s2,21d8 <.L2767>

0000155c <.L1195>:
    155c:	38f00b93          	li	s7,911
    1560:	006bd463          	bge	s7,t1,1568 <.L1195+0xc>
    1564:	5340606f          	j	7a98 <.L1203>
    1568:	1ca00b93          	li	s7,458
    156c:	01ebd463          	bge	s7,t5,1574 <.L1195+0x18>
    1570:	4310206f          	j	41a0 <.L1204>
    1574:	00e15b83          	lhu	s7,14(sp)
    1578:	00400c13          	li	s8,4
    157c:	007b8b93          	addi	s7,s7,7
    1580:	01711723          	sh	s7,14(sp)
    1584:	011c4463          	blt	s8,a7,158c <.L1195+0x30>
    1588:	1910306f          	j	4f18 <.L1209>
    158c:	00e00b93          	li	s7,14
    1590:	01dbc463          	blt	s7,t4,1598 <.L1195+0x3c>
    1594:	42d0206f          	j	41c0 <.L1218>
    1598:	0ac00b93          	li	s7,172
    159c:	01ebc463          	blt	s7,t5,15a4 <.L1195+0x48>
    15a0:	5280606f          	j	7ac8 <.L1219>
    15a4:	03500b93          	li	s7,53
    15a8:	00ebd463          	bge	s7,a4,15b0 <.L1215>
    15ac:	5340606f          	j	7ae0 <.L2606>

000015b0 <.L1215>:
    15b0:	01900b93          	li	s7,25
    15b4:	00dbd463          	bge	s7,a3,15bc <.L1215+0xc>
    15b8:	63c0606f          	j	7bf4 <.L1225>
    15bc:	00c00b93          	li	s7,12
    15c0:	49cbc8e3          	blt	s7,t3,2250 <.L2692>
    15c4:	00a15b83          	lhu	s7,10(sp)
    15c8:	0c100c13          	li	s8,193
    15cc:	001b8b93          	addi	s7,s7,1
    15d0:	01711523          	sh	s7,10(sp)
    15d4:	489c48e3          	blt	s8,s1,2264 <.L2607>

000015d8 <.L1228>:
    15d8:	fae00b93          	li	s7,-82
    15dc:	0175c463          	blt	a1,s7,15e4 <.L1228+0xc>
    15e0:	0ed0606f          	j	7ecc <.L1238>
    15e4:	ea900b93          	li	s7,-343
    15e8:	017a4463          	blt	s4,s7,15f0 <.L1228+0x18>
    15ec:	5600906f          	j	ab4c <.L1239>
    15f0:	00c15b83          	lhu	s7,12(sp)
    15f4:	002b8b93          	addi	s7,s7,2
    15f8:	010b9b93          	slli	s7,s7,0x10
    15fc:	410bdb93          	srai	s7,s7,0x10
    1600:	01711623          	sh	s7,12(sp)
    1604:	03600b93          	li	s7,54
    1608:	48fbd2e3          	bge	s7,a5,228c <.L2768>

0000160c <.L1244>:
    160c:	e4a00b93          	li	s7,-438
    1610:	0172c463          	blt	t0,s7,1618 <.L1244+0xc>
    1614:	3c90506f          	j	71dc <.L1257>
    1618:	03d00b93          	li	s7,61
    161c:	00fbd463          	bge	s7,a5,1624 <.L1244+0x18>
    1620:	4910706f          	j	92b0 <.L1258>
    1624:	00e15b83          	lhu	s7,14(sp)
    1628:	ff8b8b93          	addi	s7,s7,-8
    162c:	010b9b93          	slli	s7,s7,0x10
    1630:	410bdb93          	srai	s7,s7,0x10

00001634 <.L1259>:
    1634:	01711723          	sh	s7,14(sp)
    1638:	01500b93          	li	s7,21
    163c:	007bc463          	blt	s7,t2,1644 <.L1259+0x10>
    1640:	7cd0206f          	j	460c <.L1254>
    1644:	11d00b93          	li	s7,285
    1648:	007bd463          	bge	s7,t2,1650 <.L1259+0x1c>
    164c:	4890706f          	j	92d4 <.L1256>
    1650:	03b00b93          	li	s7,59
    1654:	00fbc463          	blt	s7,a5,165c <.L1260>
    1658:	4d40706f          	j	8b2c <.L1255>

0000165c <.L1260>:
    165c:	00815b83          	lhu	s7,8(sp)
    1660:	08c00c13          	li	s8,140
    1664:	001b8b93          	addi	s7,s7,1
    1668:	01711423          	sh	s7,8(sp)
    166c:	466c54e3          	bge	s8,t1,22d4 <.L1250>
    1670:	00c00b93          	li	s7,12
    1674:	01cbd463          	bge	s7,t3,167c <.L1260+0x20>
    1678:	7cd0206f          	j	4644 <.L1275>
    167c:	01700b93          	li	s7,23
    1680:	49dbd0e3          	bge	s7,t4,2300 <.L1279>

00001684 <.L1268>:
    1684:	00a15b83          	lhu	s7,10(sp)
    1688:	03300c13          	li	s8,51
    168c:	007b8b93          	addi	s7,s7,7
    1690:	01711523          	sh	s7,10(sp)
    1694:	00fc4463          	blt	s8,a5,169c <.L1268+0x18>
    1698:	7d90206f          	j	4670 <.L2733>
    169c:	04700b93          	li	s7,71
    16a0:	007bd463          	bge	s7,t2,16a8 <.L1266>
    16a4:	6c40406f          	j	5d68 <.L1295>

000016a8 <.L1266>:
    16a8:	2bd00b93          	li	s7,701
    16ac:	009bd463          	bge	s7,s1,16b4 <.L1266+0xc>
    16b0:	5490806f          	j	a3f8 <.L2769>
    16b4:	00c15b83          	lhu	s7,12(sp)
    16b8:	03c00c13          	li	s8,60
    16bc:	ff7b8b93          	addi	s7,s7,-9
    16c0:	01711623          	sh	s7,12(sp)
    16c4:	00fc4463          	blt	s8,a5,16cc <.L2611>
    16c8:	7cd0206f          	j	4694 <.L1292>

000016cc <.L2611>:
    16cc:	0d400b93          	li	s7,212
    16d0:	00ebd463          	bge	s7,a4,16d8 <.L1310>
    16d4:	7840706f          	j	8e58 <.L1307>

000016d8 <.L1310>:
    16d8:	00e15b83          	lhu	s7,14(sp)
    16dc:	ffe00c13          	li	s8,-2
    16e0:	008b8b93          	addi	s7,s7,8
    16e4:	01711723          	sh	s7,14(sp)
    16e8:	45885ee3          	bge	a6,s8,2344 <.L1321>

000016ec <.L1300>:
    16ec:	0ce00b93          	li	s7,206
    16f0:	00dbd463          	bge	s7,a3,16f8 <.L1300+0xc>
    16f4:	7880206f          	j	3e7c <.L2770>
    16f8:	01c51c03          	lh	s8,28(a0)
    16fc:	03500b93          	li	s7,53
    1700:	018bc463          	blt	s7,s8,1708 <.L1300+0x1c>
    1704:	05d0906f          	j	af60 <.L1322>
    1708:	03400b93          	li	s7,52
    170c:	01dbc463          	blt	s7,t4,1714 <.L1323>
    1710:	78c0206f          	j	3e9c <.L1329>

00001714 <.L1323>:
    1714:	1db00b93          	li	s7,475
    1718:	016bd463          	bge	s7,s6,1720 <.L1330>
    171c:	6c80606f          	j	7de4 <.L1326>

00001720 <.L1330>:
    1720:	00a15b83          	lhu	s7,10(sp)
    1724:	02a00c13          	li	s8,42
    1728:	005b8b93          	addi	s7,s7,5
    172c:	01711523          	sh	s7,10(sp)
    1730:	46dc54e3          	bge	s8,a3,2398 <.L1327>

00001734 <.L1328>:
    1734:	02700b93          	li	s7,39
    1738:	00ebd463          	bge	s7,a4,1740 <.L1328+0xc>
    173c:	65d0306f          	j	5598 <.L2771>
    1740:	00900b93          	li	s7,9
    1744:	012bd463          	bge	s7,s2,174c <.L1328+0x18>
    1748:	5e10906f          	j	b528 <.L2772>
    174c:	00c15b83          	lhu	s7,12(sp)
    1750:	001b8b93          	addi	s7,s7,1
    1754:	01711623          	sh	s7,12(sp)
    1758:	4590006f          	j	23b0 <.L1360>

0000175c <.L2755>:
    175c:	18f00b93          	li	s7,399
    1760:	00dbd463          	bge	s7,a3,1768 <.L2755+0xc>
    1764:	0580406f          	j	57bc <.L550>
    1768:	1aa00b93          	li	s7,426
    176c:	016bd463          	bge	s7,s6,1774 <.L2755+0x18>
    1770:	5e90906f          	j	b558 <.L551>
    1774:	00815b83          	lhu	s7,8(sp)
    1778:	007b8b93          	addi	s7,s7,7
    177c:	010b9b93          	slli	s7,s7,0x10
    1780:	410bdb93          	srai	s7,s7,0x10
    1784:	c24ff06f          	j	ba8 <.L552>

00001788 <.L517>:
    1788:	00a15b83          	lhu	s7,10(sp)
    178c:	17000c13          	li	s8,368
    1790:	009b8b93          	addi	s7,s7,9
    1794:	01711523          	sh	s7,10(sp)
    1798:	00dc5463          	bge	s8,a3,17a0 <.L2575>
    179c:	5590206f          	j	44f4 <.L533>

000017a0 <.L2575>:
    17a0:	02200b93          	li	s7,34
    17a4:	01dbc463          	blt	s7,t4,17ac <.L531>
    17a8:	2b10706f          	j	9258 <.L530>

000017ac <.L531>:
    17ac:	00c15b83          	lhu	s7,12(sp)
    17b0:	ff6b8b93          	addi	s7,s7,-10
    17b4:	010b9b93          	slli	s7,s7,0x10
    17b8:	410bdb93          	srai	s7,s7,0x10
    17bc:	01711623          	sh	s7,12(sp)
    17c0:	e9900b93          	li	s7,-359
    17c4:	b975ce63          	blt	a1,s7,b60 <.L2773>

000017c8 <.L541>:
    17c8:	ee600b93          	li	s7,-282
    17cc:	017ac463          	blt	s5,s7,17d4 <.L541+0xc>
    17d0:	4180506f          	j	6be8 <.L545>
    17d4:	ffc00b93          	li	s7,-4
    17d8:	01734463          	blt	t1,s7,17e0 <.L541+0x18>
    17dc:	1f40406f          	j	59d0 <.L544>
    17e0:	00e15b83          	lhu	s7,14(sp)
    17e4:	002b8b93          	addi	s7,s7,2
    17e8:	01711723          	sh	s7,14(sp)
    17ec:	b8085c63          	bgez	a6,b84 <.L546>
    17f0:	18f00b93          	li	s7,399
    17f4:	00dbc463          	blt	s7,a3,17fc <.L547>
    17f8:	6540a06f          	j	be4c <.L2774>

000017fc <.L547>:
    17fc:	00815b83          	lhu	s7,8(sp)
    1800:	007b8b93          	addi	s7,s7,7
    1804:	01711423          	sh	s7,8(sp)

00001808 <.L549>:
    1808:	00400b93          	li	s7,4
    180c:	01cbd463          	bge	s7,t3,1814 <.L549+0xc>
    1810:	25d0406f          	j	626c <.L561>
    1814:	12e00b93          	li	s7,302
    1818:	00ebd463          	bge	s7,a4,1820 <.L549+0x18>
    181c:	4740806f          	j	9c90 <.L562>
    1820:	00a15b83          	lhu	s7,10(sp)
    1824:	17000c13          	li	s8,368
    1828:	ffeb8b93          	addi	s7,s7,-2
    182c:	01711523          	sh	s7,10(sp)
    1830:	badc5863          	bge	s8,a3,be0 <.L563>

00001834 <.L564>:
    1834:	ea700b93          	li	s7,-345
    1838:	017ad463          	bge	s5,s7,1840 <.L564+0xc>
    183c:	4d80706f          	j	8d14 <.L571>
    1840:	00c15b83          	lhu	s7,12(sp)
    1844:	e0800c13          	li	s8,-504
    1848:	ffdb8b93          	addi	s7,s7,-3
    184c:	01711623          	sh	s7,12(sp)
    1850:	01845463          	bge	s0,s8,1858 <.L2375>
    1854:	7dd0306f          	j	5830 <.L584>

00001858 <.L2375>:
    1858:	0de00b93          	li	s7,222
    185c:	012bd463          	bge	s7,s2,1864 <.L585>
    1860:	5d90606f          	j	8638 <.L586>

00001864 <.L585>:
    1864:	00e15b83          	lhu	s7,14(sp)
    1868:	ff8b8b93          	addi	s7,s7,-8
    186c:	01711723          	sh	s7,14(sp)
    1870:	0a900b93          	li	s7,169
    1874:	bdebc063          	blt	s7,t5,c34 <.L610>

00001878 <.L600>:
    1878:	01a00b93          	li	s7,26
    187c:	010bd463          	bge	s7,a6,1884 <.L600+0xc>
    1880:	0990506f          	j	7118 <.L611>
    1884:	11800b93          	li	s7,280
    1888:	bd2bc863          	blt	s7,s2,c58 <.L614>
    188c:	00815b83          	lhu	s7,8(sp)
    1890:	009b8b93          	addi	s7,s7,9
    1894:	01711423          	sh	s7,8(sp)
    1898:	03900b93          	li	s7,57
    189c:	bcebd263          	bge	s7,a4,c60 <.L2775>

000018a0 <.L618>:
    18a0:	ff900b93          	li	s7,-7
    18a4:	01764463          	blt	a2,s7,18ac <.L618+0xc>
    18a8:	6690406f          	j	6710 <.L627>
    18ac:	1d700b93          	li	s7,471
    18b0:	016bd463          	bge	s7,s6,18b8 <.L618+0x18>
    18b4:	5200906f          	j	add4 <.L628>
    18b8:	00a15b83          	lhu	s7,10(sp)
    18bc:	ff9b8b93          	addi	s7,s7,-7
    18c0:	010b9b93          	slli	s7,s7,0x10
    18c4:	410bdb93          	srai	s7,s7,0x10

000018c8 <.L629>:
    18c8:	01711523          	sh	s7,10(sp)
    18cc:	08900b93          	li	s7,137
    18d0:	00dbd463          	bge	s7,a3,18d8 <.L2907>
    18d4:	6690406f          	j	673c <.L633>

000018d8 <.L2907>:
    18d8:	03700b93          	li	s7,55
    18dc:	00fbd463          	bge	s7,a5,18e4 <.L2907+0xc>
    18e0:	5990406f          	j	6678 <.L634>
    18e4:	00900b93          	li	s7,9
    18e8:	bb1bda63          	bge	s7,a7,c9c <.L2274>

000018ec <.L635>:
    18ec:	00c15b83          	lhu	s7,12(sp)
    18f0:	002b8b93          	addi	s7,s7,2
    18f4:	01711623          	sh	s7,12(sp)
    18f8:	03000b93          	li	s7,48
    18fc:	bbfbda63          	bge	s7,t6,cb0 <.L2776>

00001900 <.L646>:
    1900:	faf00b93          	li	s7,-81
    1904:	017a4463          	blt	s4,s7,190c <.L646+0xc>
    1908:	6410806f          	j	a748 <.L654>
    190c:	00e15b83          	lhu	s7,14(sp)
    1910:	0a900c13          	li	s8,169
    1914:	ff6b8b93          	addi	s7,s7,-10
    1918:	01711723          	sh	s7,14(sp)
    191c:	bbec4863          	blt	s8,t5,ccc <.L2583>

00001920 <.L648>:
    1920:	01a00b93          	li	s7,26
    1924:	010bd463          	bge	s7,a6,192c <.L648+0xc>
    1928:	7c90506f          	j	78f0 <.L651>
    192c:	11800b93          	li	s7,280
    1930:	bb2bca63          	blt	s7,s2,ce4 <.L649>
    1934:	00815b83          	lhu	s7,8(sp)
    1938:	008b8b93          	addi	s7,s7,8
    193c:	01711423          	sh	s7,8(sp)
    1940:	0b500b93          	li	s7,181
    1944:	ba6bd463          	bge	s7,t1,cec <.L2777>

00001948 <.L659>:
    1948:	00400b93          	li	s7,4
    194c:	01cbd463          	bge	s7,t3,1954 <.L659+0xc>
    1950:	0250406f          	j	6174 <.L664>
    1954:	0bb00b93          	li	s7,187
    1958:	016bd463          	bge	s7,s6,1960 <.L659+0x18>
    195c:	5a50706f          	j	9700 <.L665>
    1960:	00a15b83          	lhu	s7,10(sp)
    1964:	ff7b8b93          	addi	s7,s7,-9
    1968:	010b9b93          	slli	s7,s7,0x10
    196c:	410bdb93          	srai	s7,s7,0x10
    1970:	01711523          	sh	s7,10(sp)
    1974:	27a00b93          	li	s7,634
    1978:	badbd463          	bge	s7,a3,d20 <.L2778>

0000197c <.L667>:
    197c:	ed100b93          	li	s7,-303
    1980:	017ac463          	blt	s5,s7,1988 <.L667+0xc>
    1984:	0380506f          	j	69bc <.L672>
    1988:	3fa00b93          	li	s7,1018
    198c:	baebcc63          	blt	s7,a4,d44 <.L670>
    1990:	00c15b83          	lhu	s7,12(sp)
    1994:	00ab8b93          	addi	s7,s7,10
    1998:	01711623          	sh	s7,12(sp)
    199c:	d8200b93          	li	s7,-638
    19a0:	bb75c663          	blt	a1,s7,d4c <.L2779>

000019a4 <.L673>:
    19a4:	0de00b93          	li	s7,222
    19a8:	012bd463          	bge	s7,s2,19b0 <.L673+0xc>
    19ac:	5740406f          	j	5f20 <.L678>
    19b0:	03e00b93          	li	s7,62
    19b4:	00fbd463          	bge	s7,a5,19bc <.L673+0x18>
    19b8:	2b40806f          	j	9c6c <.L679>
    19bc:	00e15b83          	lhu	s7,14(sp)
    19c0:	ffbb8b93          	addi	s7,s7,-5
    19c4:	010b9b93          	slli	s7,s7,0x10
    19c8:	410bdb93          	srai	s7,s7,0x10
    19cc:	01711723          	sh	s7,14(sp)
    19d0:	ba085663          	bgez	a6,d7c <.L682>

000019d4 <.L2269>:
    19d4:	0cd00b93          	li	s7,205
    19d8:	00dbd463          	bge	s7,a3,19e0 <.L2269+0xc>
    19dc:	6380706f          	j	9014 <.L683>
    19e0:	1aa00b93          	li	s7,426
    19e4:	016bd463          	bge	s7,s6,19ec <.L2269+0x18>
    19e8:	1e10906f          	j	b3c8 <.L684>
    19ec:	00815b83          	lhu	s7,8(sp)
    19f0:	07200c13          	li	s8,114
    19f4:	006b8b93          	addi	s7,s7,6
    19f8:	01711423          	sh	s7,8(sp)
    19fc:	baec5c63          	bge	s8,a4,db4 <.L685>

00001a00 <.L690>:
    1a00:	03300b93          	li	s7,51
    1a04:	01fbd463          	bge	s7,t6,1a0c <.L690+0xc>
    1a08:	3540806f          	j	9d5c <.L2780>
    1a0c:	00a15b83          	lhu	s7,10(sp)
    1a10:	ffab8b93          	addi	s7,s7,-6
    1a14:	010b9b93          	slli	s7,s7,0x10
    1a18:	410bdb93          	srai	s7,s7,0x10

00001a1c <.L701>:
    1a1c:	01711523          	sh	s7,10(sp)
    1a20:	ffa00b93          	li	s7,-6
    1a24:	bb765e63          	bge	a2,s7,de0 <.L703>

00001a28 <.L2268>:
    1a28:	01000b93          	li	s7,16
    1a2c:	01dbd463          	bge	s7,t4,1a34 <.L2927>
    1a30:	41c0606f          	j	7e4c <.L704>

00001a34 <.L2927>:
    1a34:	00c00b93          	li	s7,12
    1a38:	011bd463          	bge	s7,a7,1a40 <.L2927+0xc>
    1a3c:	7450706f          	j	9980 <.L705>
    1a40:	00c15b83          	lhu	s7,12(sp)
    1a44:	001b8b93          	addi	s7,s7,1
    1a48:	010b9b93          	slli	s7,s7,0x10
    1a4c:	410bdb93          	srai	s7,s7,0x10
    1a50:	01711623          	sh	s7,12(sp)
    1a54:	03900b93          	li	s7,57
    1a58:	bcfbd063          	bge	s7,a5,e18 <.L2781>

00001a5c <.L710>:
    1a5c:	e4a00b93          	li	s7,-438
    1a60:	0172c463          	blt	t0,s7,1a68 <.L710+0xc>
    1a64:	1680506f          	j	6bcc <.L723>
    1a68:	03d00b93          	li	s7,61
    1a6c:	00fbd463          	bge	s7,a5,1a74 <.L710+0x18>
    1a70:	1a80806f          	j	9c18 <.L724>
    1a74:	00e15b83          	lhu	s7,14(sp)
    1a78:	ff8b8b93          	addi	s7,s7,-8
    1a7c:	01711723          	sh	s7,14(sp)

00001a80 <.L722>:
    1a80:	0a900b93          	li	s7,169
    1a84:	01ebd463          	bge	s7,t5,1a8c <.L722+0xc>
    1a88:	6690306f          	j	58f0 <.L725>
    1a8c:	01a00b93          	li	s7,26
    1a90:	010bd463          	bge	s7,a6,1a98 <.L722+0x18>
    1a94:	0810706f          	j	9314 <.L726>
    1a98:	11800b93          	li	s7,280
    1a9c:	012bc863          	blt	s7,s2,1aac <.L718>
    1aa0:	00815b83          	lhu	s7,8(sp)
    1aa4:	008b8b93          	addi	s7,s7,8
    1aa8:	01711423          	sh	s7,8(sp)

00001aac <.L718>:
    1aac:	0f000b93          	li	s7,240
    1ab0:	ba6bd863          	bge	s7,t1,e60 <.L715>
    1ab4:	d6c00b93          	li	s7,-660
    1ab8:	017ac463          	blt	s5,s7,1ac0 <.L718+0x14>
    1abc:	4f10506f          	j	77ac <.L747>
    1ac0:	ff400b93          	li	s7,-12
    1ac4:	01764463          	blt	a2,s7,1acc <.L718+0x20>
    1ac8:	66c0506f          	j	7134 <.L748>
    1acc:	00a15b83          	lhu	s7,10(sp)
    1ad0:	0dd00c13          	li	s8,221
    1ad4:	ff7b8b93          	addi	s7,s7,-9
    1ad8:	01711523          	sh	s7,10(sp)
    1adc:	00dc4463          	blt	s8,a3,1ae4 <.L718+0x38>
    1ae0:	6b40306f          	j	5194 <.L749>
    1ae4:	25b00b93          	li	s7,603
    1ae8:	00ebd463          	bge	s7,a4,1af0 <.L750>
    1aec:	3b40306f          	j	4ea0 <.L772>

00001af0 <.L750>:
    1af0:	03d00b93          	li	s7,61
    1af4:	00fbc463          	blt	s7,a5,1afc <.L750+0xc>
    1af8:	5bc0806f          	j	a0b4 <.L753>
    1afc:	00c15b83          	lhu	s7,12(sp)
    1b00:	03e00c13          	li	s8,62
    1b04:	ffcb8b93          	addi	s7,s7,-4
    1b08:	01711623          	sh	s7,12(sp)
    1b0c:	01878463          	beq	a5,s8,1b14 <.L754>
    1b10:	3a80306f          	j	4eb8 <.L752>

00001b14 <.L754>:
    1b14:	03800b93          	li	s7,56
    1b18:	00ebc463          	blt	s7,a4,1b20 <.L751>
    1b1c:	2cc0306f          	j	4de8 <.L769>

00001b20 <.L751>:
    1b20:	c3900b93          	li	s7,-967
    1b24:	0175c463          	blt	a1,s7,1b2c <.L751+0xc>
    1b28:	45c0706f          	j	8f84 <.L767>
    1b2c:	00e15b83          	lhu	s7,14(sp)
    1b30:	008b8b93          	addi	s7,s7,8
    1b34:	010b9b93          	slli	s7,s7,0x10
    1b38:	410bdb93          	srai	s7,s7,0x10

00001b3c <.L779>:
    1b3c:	01711723          	sh	s7,14(sp)
    1b40:	ffe00b93          	li	s7,-2
    1b44:	01785463          	bge	a6,s7,1b4c <.L786>
    1b48:	2c00306f          	j	4e08 <.L783>

00001b4c <.L786>:
    1b4c:	0ba00b93          	li	s7,186
    1b50:	012bd463          	bge	s7,s2,1b58 <.L786+0xc>
    1b54:	3900306f          	j	4ee4 <.L777>
    1b58:	03800b93          	li	s7,56
    1b5c:	b8fbca63          	blt	s7,a5,ef0 <.L784>

00001b60 <.L792>:
    1b60:	00815b83          	lhu	s7,8(sp)
    1b64:	ffdb8b93          	addi	s7,s7,-3
    1b68:	010b9b93          	slli	s7,s7,0x10
    1b6c:	410bdb93          	srai	s7,s7,0x10
    1b70:	01711423          	sh	s7,8(sp)
    1b74:	03300b93          	li	s7,51
    1b78:	b9fbca63          	blt	s7,t6,f0c <.L794>

00001b7c <.L788>:
    1b7c:	fe200b93          	li	s7,-30
    1b80:	01764463          	blt	a2,s7,1b88 <.L788+0xc>
    1b84:	61c0506f          	j	71a0 <.L795>
    1b88:	e3d00b93          	li	s7,-451
    1b8c:	01744463          	blt	s0,s7,1b94 <.L788+0x18>
    1b90:	5000806f          	j	a090 <.L796>
    1b94:	00a15b83          	lhu	s7,10(sp)
    1b98:	ff8b8b93          	addi	s7,s7,-8
    1b9c:	010b9b93          	slli	s7,s7,0x10
    1ba0:	010bdb93          	srli	s7,s7,0x10
    1ba4:	01711523          	sh	s7,10(sp)

00001ba8 <.L797>:
    1ba8:	01000b93          	li	s7,16
    1bac:	01dbd463          	bge	s7,t4,1bb4 <.L797+0xc>
    1bb0:	5850606f          	j	8934 <.L808>
    1bb4:	00100b93          	li	s7,1
    1bb8:	01cbc463          	blt	s7,t3,1bc0 <.L797+0x18>
    1bbc:	7b00906f          	j	b36c <.L2782>
    1bc0:	00c15b83          	lhu	s7,12(sp)
    1bc4:	009b8b93          	addi	s7,s7,9
    1bc8:	010b9b93          	slli	s7,s7,0x10
    1bcc:	410bdb93          	srai	s7,s7,0x10

00001bd0 <.L810>:
    1bd0:	01711623          	sh	s7,12(sp)
    1bd4:	03e00b93          	li	s7,62
    1bd8:	00fbc463          	blt	s7,a5,1be0 <.L810+0x10>
    1bdc:	5900306f          	j	516c <.L816>
    1be0:	fec00b93          	li	s7,-20
    1be4:	b7765663          	bge	a2,s7,f50 <.L817>
    1be8:	00e15b83          	lhu	s7,14(sp)
    1bec:	ffeb8b93          	addi	s7,s7,-2
    1bf0:	010b9b93          	slli	s7,s7,0x10
    1bf4:	410bdb93          	srai	s7,s7,0x10
    1bf8:	01711723          	sh	s7,14(sp)
    1bfc:	01f00b93          	li	s7,31
    1c00:	b73bd663          	bge	s7,s3,f6c <.L2783>

00001c04 <.L822>:
    1c04:	00500b93          	li	s7,5
    1c08:	b91bd263          	bge	s7,a7,f8c <.L825>
    1c0c:	00815b83          	lhu	s7,8(sp)
    1c10:	ff7b8b93          	addi	s7,s7,-9
    1c14:	01711423          	sh	s7,8(sp)
    1c18:	1ac00b93          	li	s7,428
    1c1c:	b76bdc63          	bge	s7,s6,f94 <.L2784>

00001c20 <.L826>:
    1c20:	0a500b93          	li	s7,165
    1c24:	00ebd463          	bge	s7,a4,1c2c <.L826+0xc>
    1c28:	5880406f          	j	61b0 <.L834>
    1c2c:	1ff00b93          	li	s7,511
    1c30:	009bd463          	bge	s7,s1,1c38 <.L826+0x18>
    1c34:	2590806f          	j	a68c <.L835>
    1c38:	00a15b83          	lhu	s7,10(sp)
    1c3c:	006b8b93          	addi	s7,s7,6
    1c40:	010b9b93          	slli	s7,s7,0x10
    1c44:	410bdb93          	srai	s7,s7,0x10
    1c48:	01711523          	sh	s7,10(sp)
    1c4c:	27a00b93          	li	s7,634
    1c50:	b6dbdc63          	bge	s7,a3,fc8 <.L2785>

00001c54 <.L837>:
    1c54:	ff700b93          	li	s7,-9
    1c58:	01764463          	blt	a2,s7,1c60 <.L837+0xc>
    1c5c:	5290306f          	j	5984 <.L831>
    1c60:	0e600b93          	li	s7,230
    1c64:	009bd463          	bge	s7,s1,1c6c <.L837+0x18>
    1c68:	3990806f          	j	a800 <.L843>
    1c6c:	00c15b83          	lhu	s7,12(sp)
    1c70:	d2a00c13          	li	s8,-726
    1c74:	ffcb8b93          	addi	s7,s7,-4
    1c78:	01711623          	sh	s7,12(sp)
    1c7c:	0185d463          	bge	a1,s8,1c84 <.L2592>
    1c80:	0580506f          	j	6cd8 <.L844>

00001c84 <.L2592>:
    1c84:	eea00b93          	li	s7,-278
    1c88:	017a4463          	blt	s4,s7,1c90 <.L852>
    1c8c:	0680506f          	j	6cf4 <.L845>

00001c90 <.L852>:
    1c90:	00e15b83          	lhu	s7,14(sp)
    1c94:	ff8b8b93          	addi	s7,s7,-8
    1c98:	01711723          	sh	s7,14(sp)
    1c9c:	0a900b93          	li	s7,169
    1ca0:	b7ebc863          	blt	s7,t5,1010 <.L2786>

00001ca4 <.L860>:
    1ca4:	fff00b93          	li	s7,-1
    1ca8:	017e5463          	bge	t3,s7,1cb0 <.L860+0xc>
    1cac:	75c0406f          	j	6408 <.L2787>
    1cb0:	09e00b93          	li	s7,158
    1cb4:	b92bc063          	blt	s7,s2,1034 <.L859>
    1cb8:	00815b83          	lhu	s7,8(sp)
    1cbc:	008b8b93          	addi	s7,s7,8
    1cc0:	01711423          	sh	s7,8(sp)
    1cc4:	0b500b93          	li	s7,181
    1cc8:	b66bda63          	bge	s7,t1,103c <.L2788>

00001ccc <.L865>:
    1ccc:	f5700b93          	li	s7,-169
    1cd0:	0175c463          	blt	a1,s7,1cd8 <.L865+0xc>
    1cd4:	0110406f          	j	64e4 <.L876>
    1cd8:	ff100b93          	li	s7,-15
    1cdc:	01764463          	blt	a2,s7,1ce4 <.L865+0x18>
    1ce0:	2610706f          	j	9740 <.L877>
    1ce4:	00a15b83          	lhu	s7,10(sp)
    1ce8:	fffb8b93          	addi	s7,s7,-1
    1cec:	01711523          	sh	s7,10(sp)

00001cf0 <.L878>:
    1cf0:	17000b93          	li	s7,368
    1cf4:	00dbc463          	blt	s7,a3,1cfc <.L880>
    1cf8:	0380706f          	j	8d30 <.L885>

00001cfc <.L880>:
    1cfc:	2ba00b93          	li	s7,698
    1d00:	00ebd463          	bge	s7,a4,1d08 <.L880+0xc>
    1d04:	7a10706f          	j	9ca4 <.L887>
    1d08:	00c15b83          	lhu	s7,12(sp)
    1d0c:	02f00c13          	li	s8,47
    1d10:	006b8b93          	addi	s7,s7,6
    1d14:	01711623          	sh	s7,12(sp)
    1d18:	b70c5e63          	bge	s8,a6,1094 <.L888>

00001d1c <.L889>:
    1d1c:	e0400b93          	li	s7,-508
    1d20:	0172c463          	blt	t0,s7,1d28 <.L889+0xc>
    1d24:	0090406f          	j	652c <.L903>
    1d28:	00e15b83          	lhu	s7,14(sp)
    1d2c:	ffdb8b93          	addi	s7,s7,-3
    1d30:	010b9b93          	slli	s7,s7,0x10
    1d34:	410bdb93          	srai	s7,s7,0x10
    1d38:	01711723          	sh	s7,14(sp)
    1d3c:	ec600b93          	li	s7,-314
    1d40:	b7745e63          	bge	s0,s7,10bc <.L2789>

00001d44 <.L904>:
    1d44:	01c51c03          	lh	s8,28(a0)
    1d48:	02600b93          	li	s7,38
    1d4c:	018bd463          	bge	s7,s8,1d54 <.L904+0x10>
    1d50:	3300606f          	j	8080 <.L2790>
    1d54:	e9900b93          	li	s7,-359
    1d58:	b972d463          	bge	t0,s7,10e0 <.L906>

00001d5c <.L907>:
    1d5c:	00815b83          	lhu	s7,8(sp)
    1d60:	ff7b8b93          	addi	s7,s7,-9
    1d64:	01711423          	sh	s7,8(sp)
    1d68:	03400b93          	li	s7,52
    1d6c:	b7dbde63          	bge	s7,t4,10e8 <.L2791>

00001d70 <.L909>:
    1d70:	1db00b93          	li	s7,475
    1d74:	016bd463          	bge	s7,s6,1d7c <.L909+0xc>
    1d78:	5700306f          	j	52e8 <.L916>
    1d7c:	ff400b93          	li	s7,-12
    1d80:	01764463          	blt	a2,s7,1d88 <.L909+0x18>
    1d84:	7690806f          	j	acec <.L917>
    1d88:	00a15b83          	lhu	s7,10(sp)
    1d8c:	03300c13          	li	s8,51
    1d90:	ffeb8b93          	addi	s7,s7,-2
    1d94:	01711523          	sh	s7,10(sp)
    1d98:	00fc4463          	blt	s8,a5,1da0 <.L918>
    1d9c:	5700306f          	j	530c <.L923>

00001da0 <.L918>:
    1da0:	d7800b93          	li	s7,-648
    1da4:	017a5463          	bge	s4,s7,1dac <.L920>
    1da8:	3bd0506f          	j	7964 <.L927>

00001dac <.L920>:
    1dac:	00c15b83          	lhu	s7,12(sp)
    1db0:	ffbb8b93          	addi	s7,s7,-5
    1db4:	010b9b93          	slli	s7,s7,0x10
    1db8:	410bdb93          	srai	s7,s7,0x10

00001dbc <.L931>:
    1dbc:	01711623          	sh	s7,12(sp)
    1dc0:	03900b93          	li	s7,57
    1dc4:	00fbc463          	blt	s7,a5,1dcc <.L941>
    1dc8:	55c0306f          	j	5324 <.L928>

00001dcc <.L941>:
    1dcc:	e4a00b93          	li	s7,-438
    1dd0:	0172d463          	bge	t0,s7,1dd8 <.L941+0xc>
    1dd4:	7b90606f          	j	8d8c <.L943>
    1dd8:	02200b93          	li	s7,34
    1ddc:	b90bd663          	bge	s7,a6,1168 <.L940>
    1de0:	00e15b83          	lhu	s7,14(sp)
    1de4:	008b8b93          	addi	s7,s7,8
    1de8:	01711723          	sh	s7,14(sp)
    1dec:	00c00b93          	li	s7,12
    1df0:	b93bd063          	bge	s7,s3,1170 <.L2792>

00001df4 <.L935>:
    1df4:	01c51c03          	lh	s8,28(a0)
    1df8:	03500b93          	li	s7,53
    1dfc:	018bd463          	bge	s7,s8,1e04 <.L935+0x10>
    1e00:	1480506f          	j	6f48 <.L953>
    1e04:	ffa00b93          	li	s7,-6
    1e08:	01794463          	blt	s2,s7,1e10 <.L935+0x1c>
    1e0c:	7c80706f          	j	95d4 <.L954>
    1e10:	00815b83          	lhu	s7,8(sp)
    1e14:	004b8b93          	addi	s7,s7,4
    1e18:	010b9b93          	slli	s7,s7,0x10
    1e1c:	410bdb93          	srai	s7,s7,0x10

00001e20 <.L948>:
    1e20:	01711423          	sh	s7,8(sp)
    1e24:	03300b93          	li	s7,51
    1e28:	01fbc463          	blt	s7,t6,1e30 <.L948+0x10>
    1e2c:	0b90206f          	j	46e4 <.L956>
    1e30:	01b00b93          	li	s7,27
    1e34:	b6ebc663          	blt	s7,a4,11a0 <.L949>
    1e38:	fcd00b93          	li	s7,-51
    1e3c:	0176c463          	blt	a3,s7,1e44 <.L948+0x24>
    1e40:	0500706f          	j	8e90 <.L971>
    1e44:	00a15b83          	lhu	s7,10(sp)
    1e48:	006b8b93          	addi	s7,s7,6
    1e4c:	01711523          	sh	s7,10(sp)
    1e50:	01300b93          	li	s7,19
    1e54:	b91bd063          	bge	s7,a7,11d4 <.L2793>

00001e58 <.L974>:
    1e58:	d8400b93          	li	s7,-636
    1e5c:	0172c463          	blt	t0,s7,1e64 <.L974+0xc>
    1e60:	2b90806f          	j	a918 <.L980>
    1e64:	00c15b83          	lhu	s7,12(sp)
    1e68:	002b8b93          	addi	s7,s7,2
    1e6c:	010b9b93          	slli	s7,s7,0x10
    1e70:	410bdb93          	srai	s7,s7,0x10

00001e74 <.L979>:
    1e74:	01711623          	sh	s7,12(sp)
    1e78:	cf000b93          	li	s7,-784
    1e7c:	0175d463          	bge	a1,s7,1e84 <.L976>
    1e80:	0ad0206f          	j	472c <.L962>

00001e84 <.L976>:
    1e84:	0de00b93          	li	s7,222
    1e88:	012bd463          	bge	s7,s2,1e90 <.L976+0xc>
    1e8c:	6c50406f          	j	6d50 <.L984>
    1e90:	02600b93          	li	s7,38
    1e94:	00dbd463          	bge	s7,a3,1e9c <.L976+0x18>
    1e98:	1250206f          	j	47bc <.L988>
    1e9c:	fa300b93          	li	s7,-93
    1ea0:	0172d463          	bge	t0,s7,1ea8 <.L994>
    1ea4:	7590306f          	j	5dfc <.L985>

00001ea8 <.L994>:
    1ea8:	efb00b93          	li	s7,-261
    1eac:	0175d463          	bge	a1,s7,1eb4 <.L994+0xc>
    1eb0:	0b90206f          	j	4768 <.L990>
    1eb4:	00815b83          	lhu	s7,8(sp)
    1eb8:	00ab8b93          	addi	s7,s7,10
    1ebc:	01711423          	sh	s7,8(sp)
    1ec0:	1ac00b93          	li	s7,428
    1ec4:	b76bd263          	bge	s7,s6,1228 <.L2794>

00001ec8 <.L1004>:
    1ec8:	0a500b93          	li	s7,165
    1ecc:	00ebd463          	bge	s7,a4,1ed4 <.L1004+0xc>
    1ed0:	5e80506f          	j	74b8 <.L1010>
    1ed4:	1ff00b93          	li	s7,511
    1ed8:	009bc463          	blt	s7,s1,1ee0 <.L1004+0x18>
    1edc:	1890506f          	j	7864 <.L1012>
    1ee0:	00a15b83          	lhu	s7,10(sp)
    1ee4:	ffab8b93          	addi	s7,s7,-6
    1ee8:	010b9b93          	slli	s7,s7,0x10
    1eec:	410bdb93          	srai	s7,s7,0x10
    1ef0:	01711523          	sh	s7,10(sp)
    1ef4:	03d00b93          	li	s7,61
    1ef8:	b6fbd263          	bge	s7,a5,125c <.L1013>

00001efc <.L1017>:
    1efc:	d9500b93          	li	s7,-619
    1f00:	017ad463          	bge	s5,s7,1f08 <.L1017+0xc>
    1f04:	5d40506f          	j	74d8 <.L1024>
    1f08:	55900b93          	li	s7,1369
    1f0c:	00dbd463          	bge	s7,a3,1f14 <.L1017+0x18>
    1f10:	2340806f          	j	a144 <.L1025>
    1f14:	00c15b83          	lhu	s7,12(sp)
    1f18:	ff7b8b93          	addi	s7,s7,-9
    1f1c:	01711623          	sh	s7,12(sp)

00001f20 <.L1014>:
    1f20:	11a00b93          	li	s7,282
    1f24:	007bd463          	bge	s7,t2,1f2c <.L1014+0xc>
    1f28:	47c0406f          	j	63a4 <.L1030>
    1f2c:	0db00b93          	li	s7,219
    1f30:	00ebd463          	bge	s7,a4,1f38 <.L1014+0x18>
    1f34:	1b50706f          	j	98e8 <.L1031>
    1f38:	00e15b83          	lhu	s7,14(sp)
    1f3c:	01f00c13          	li	s8,31
    1f40:	005b8b93          	addi	s7,s7,5
    1f44:	01711723          	sh	s7,14(sp)
    1f48:	013c4463          	blt	s8,s3,1f50 <.L1014+0x30>
    1f4c:	3480306f          	j	5294 <.L1038>
    1f50:	00600b93          	li	s7,6
    1f54:	b71bce63          	blt	s7,a7,12d0 <.L1046>
    1f58:	03100b93          	li	s7,49
    1f5c:	b9fbdc63          	bge	s7,t6,12f4 <.L1052>
    1f60:	01400b93          	li	s7,20
    1f64:	010bc463          	blt	s7,a6,1f6c <.L1054>
    1f68:	3600306f          	j	52c8 <.L2260>

00001f6c <.L1054>:
    1f6c:	00a15b83          	lhu	s7,10(sp)
    1f70:	003b8b93          	addi	s7,s7,3
    1f74:	010b9b93          	slli	s7,s7,0x10
    1f78:	410bdb93          	srai	s7,s7,0x10
    1f7c:	01711523          	sh	s7,10(sp)
    1f80:	0c100b93          	li	s7,193
    1f84:	b89bdc63          	bge	s7,s1,131c <.L2795>

00001f88 <.L1056>:
    1f88:	f6900b93          	li	s7,-151
    1f8c:	0175c463          	blt	a1,s7,1f94 <.L1056+0xc>
    1f90:	2500406f          	j	61e0 <.L1075>
    1f94:	11400b93          	li	s7,276
    1f98:	00dbd463          	bge	s7,a3,1fa0 <.L1056+0x18>
    1f9c:	1500706f          	j	90ec <.L1076>
    1fa0:	00c15b83          	lhu	s7,12(sp)
    1fa4:	ffdb8b93          	addi	s7,s7,-3
    1fa8:	010b9b93          	slli	s7,s7,0x10
    1fac:	410bdb93          	srai	s7,s7,0x10

00001fb0 <.L1074>:
    1fb0:	01711623          	sh	s7,12(sp)
    1fb4:	02f00b93          	li	s7,47
    1fb8:	010bd463          	bge	s7,a6,1fc0 <.L1074+0x10>
    1fbc:	0b90306f          	j	5874 <.L1082>
    1fc0:	03800b93          	li	s7,56
    1fc4:	01fbd463          	bge	s7,t6,1fcc <.L1074+0x1c>
    1fc8:	1480706f          	j	9110 <.L1078>
    1fcc:	08d00b93          	li	s7,141
    1fd0:	00dbd463          	bge	s7,a3,1fd8 <.L1074+0x28>
    1fd4:	0bd0806f          	j	a890 <.L1067>
    1fd8:	00e15b83          	lhu	s7,14(sp)
    1fdc:	ffe00c13          	li	s8,-2
    1fe0:	004b8b93          	addi	s7,s7,4
    1fe4:	01711723          	sh	s7,14(sp)
    1fe8:	01885463          	bge	a6,s8,1ff0 <.L1080>
    1fec:	5f40106f          	j	35e0 <.L1064>

00001ff0 <.L1080>:
    1ff0:	03c00b93          	li	s7,60
    1ff4:	b6fbd263          	bge	s7,a5,1358 <.L1062>

00001ff8 <.L1089>:
    1ff8:	01c51c03          	lh	s8,28(a0)
    1ffc:	01e00b93          	li	s7,30
    2000:	018bd463          	bge	s7,s8,2008 <.L1089+0x10>
    2004:	0650706f          	j	9868 <.L1094>
    2008:	00815b83          	lhu	s7,8(sp)
    200c:	ff9b8b93          	addi	s7,s7,-7
    2010:	010b9b93          	slli	s7,s7,0x10
    2014:	410bdb93          	srai	s7,s7,0x10
    2018:	01711423          	sh	s7,8(sp)
    201c:	30000b93          	li	s7,768
    2020:	b7ebd063          	bge	s7,t5,1380 <.L1085>

00002024 <.L1095>:
    2024:	03d00b93          	li	s7,61
    2028:	01fbc463          	blt	s7,t6,2030 <.L1095+0xc>
    202c:	5d80106f          	j	3604 <.L1086>
    2030:	ff300b93          	li	s7,-13
    2034:	01764463          	blt	a2,s7,203c <.L1095+0x18>
    2038:	59d0706f          	j	9dd4 <.L1106>
    203c:	00a15b83          	lhu	s7,10(sp)
    2040:	04900c13          	li	s8,73
    2044:	ff5b8b93          	addi	s7,s7,-11
    2048:	01711523          	sh	s7,10(sp)
    204c:	011c5463          	bge	s8,a7,2054 <.L1104>
    2050:	36c0306f          	j	53bc <.L1105>

00002054 <.L1104>:
    2054:	02000b93          	li	s7,32
    2058:	01dbd463          	bge	s7,t4,2060 <.L1102>
    205c:	62d0506f          	j	7e88 <.L1103>

00002060 <.L1102>:
    2060:	00c15b83          	lhu	s7,12(sp)
    2064:	004b8b93          	addi	s7,s7,4
    2068:	01711623          	sh	s7,12(sp)
    206c:	e4a00b93          	li	s7,-438
    2070:	b772c263          	blt	t0,s7,13d4 <.L2796>

00002074 <.L1112>:
    2074:	00300b93          	li	s7,3
    2078:	01cbd463          	bge	s7,t3,2080 <.L1112+0xc>
    207c:	4bc0306f          	j	5538 <.L1121>
    2080:	f0e00b93          	li	s7,-242
    2084:	0172c463          	blt	t0,s7,208c <.L1112+0x18>
    2088:	4c80306f          	j	5550 <.L1122>
    208c:	00e15b83          	lhu	s7,14(sp)
    2090:	01500c13          	li	s8,21
    2094:	ff6b8b93          	addi	s7,s7,-10
    2098:	01711723          	sh	s7,14(sp)
    209c:	b67c4263          	blt	s8,t2,1400 <.L2601>

000020a0 <.L1118>:
    20a0:	0ac00b93          	li	s7,172
    20a4:	006bd463          	bge	s7,t1,20ac <.L1118+0xc>
    20a8:	4dc0306f          	j	5584 <.L1119>
    20ac:	ffe00b93          	li	s7,-2
    20b0:	01764463          	blt	a2,s7,20b8 <.L1118+0x18>
    20b4:	1ad0506f          	j	7a60 <.L1126>
    20b8:	00815b83          	lhu	s7,8(sp)
    20bc:	009b8b93          	addi	s7,s7,9
    20c0:	010b9b93          	slli	s7,s7,0x10
    20c4:	410bdb93          	srai	s7,s7,0x10
    20c8:	01711423          	sh	s7,8(sp)
    20cc:	03300b93          	li	s7,51
    20d0:	b7fbd263          	bge	s7,t6,1434 <.L2797>

000020d4 <.L1129>:
    20d4:	01400b93          	li	s7,20
    20d8:	010bd463          	bge	s7,a6,20e0 <.L1129+0xc>
    20dc:	3dc0606f          	j	84b8 <.L1135>
    20e0:	01300b93          	li	s7,19
    20e4:	00ebd463          	bge	s7,a4,20ec <.L1129+0x18>
    20e8:	4890706f          	j	9d70 <.L1136>
    20ec:	00a15b83          	lhu	s7,10(sp)
    20f0:	ffcb8b93          	addi	s7,s7,-4
    20f4:	010b9b93          	slli	s7,s7,0x10
    20f8:	410bdb93          	srai	s7,s7,0x10
    20fc:	01711523          	sh	s7,10(sp)
    2100:	00100b93          	li	s7,1
    2104:	b7cbc263          	blt	s7,t3,1468 <.L1138>

00002108 <.L2765>:
    2108:	e4e00b93          	li	s7,-434
    210c:	0175c463          	blt	a1,s7,2114 <.L2765+0xc>
    2110:	6d50606f          	j	8fe4 <.L1139>
    2114:	00c15b83          	lhu	s7,12(sp)
    2118:	003b8b93          	addi	s7,s7,3
    211c:	010b9b93          	slli	s7,s7,0x10
    2120:	410bdb93          	srai	s7,s7,0x10
    2124:	01711623          	sh	s7,12(sp)
    2128:	03e00b93          	li	s7,62
    212c:	b6fbd863          	bge	s7,a5,149c <.L2798>

00002130 <.L1145>:
    2130:	fec00b93          	li	s7,-20
    2134:	01764463          	blt	a2,s7,213c <.L1145+0xc>
    2138:	2310606f          	j	8b68 <.L1150>
    213c:	00e15b83          	lhu	s7,14(sp)
    2140:	01f00c13          	li	s8,31
    2144:	ffdb8b93          	addi	s7,s7,-3
    2148:	01711723          	sh	s7,14(sp)
    214c:	013c5463          	bge	s8,s3,2154 <.L1145+0x24>
    2150:	72c0206f          	j	487c <.L1152>
    2154:	e2100b93          	li	s7,-479
    2158:	0172c463          	blt	t0,s7,2160 <.L1145+0x30>
    215c:	0e90106f          	j	3a44 <.L1160>
    2160:	00815b83          	lhu	s7,8(sp)
    2164:	1b900c13          	li	s8,441
    2168:	ff7b8b93          	addi	s7,s7,-9
    216c:	01711423          	sh	s7,8(sp)
    2170:	01ec4463          	blt	s8,t5,2178 <.L1162>
    2174:	0e90106f          	j	3a5c <.L1161>

00002178 <.L1162>:
    2178:	03200b93          	li	s7,50
    217c:	01dbd463          	bge	s7,t4,2184 <.L1162+0xc>
    2180:	0940706f          	j	9214 <.L1178>
    2184:	ff200b93          	li	s7,-14
    2188:	01764463          	blt	a2,s7,2190 <.L1162+0x18>
    218c:	36c0906f          	j	b4f8 <.L1179>
    2190:	00a15b83          	lhu	s7,10(sp)
    2194:	03c00c13          	li	s8,60
    2198:	ff7b8b93          	addi	s7,s7,-9
    219c:	01711523          	sh	s7,10(sp)
    21a0:	b8fc5463          	bge	s8,a5,1528 <.L1174>

000021a4 <.L1171>:
    21a4:	daa00b93          	li	s7,-598
    21a8:	017ad463          	bge	s5,s7,21b0 <.L1171+0xc>
    21ac:	33c0506f          	j	74e8 <.L1187>
    21b0:	00b00b93          	li	s7,11
    21b4:	01dbd463          	bge	s7,t4,21bc <.L1171+0x18>
    21b8:	08c0706f          	j	9244 <.L1184>
    21bc:	00c15b83          	lhu	s7,12(sp)
    21c0:	004b8b93          	addi	s7,s7,4
    21c4:	010b9b93          	slli	s7,s7,0x10
    21c8:	410bdb93          	srai	s7,s7,0x10

000021cc <.L1189>:
    21cc:	01711623          	sh	s7,12(sp)
    21d0:	0d800b93          	li	s7,216
    21d4:	b92bc463          	blt	s7,s2,155c <.L1195>

000021d8 <.L2767>:
    21d8:	cf000b93          	li	s7,-784
    21dc:	0175c463          	blt	a1,s7,21e4 <.L2767+0xc>
    21e0:	3340606f          	j	8514 <.L1194>
    21e4:	e1800b93          	li	s7,-488
    21e8:	017a4463          	blt	s4,s7,21f0 <.L2767+0x18>
    21ec:	41d0706f          	j	9e08 <.L1198>
    21f0:	00e15b83          	lhu	s7,14(sp)
    21f4:	fffb8b93          	addi	s7,s7,-1
    21f8:	010b9b93          	slli	s7,s7,0x10
    21fc:	010bdb93          	srli	s7,s7,0x10

00002200 <.L1199>:
    2200:	01711723          	sh	s7,14(sp)

00002204 <.L1201>:
    2204:	00400b93          	li	s7,4
    2208:	011bc463          	blt	s7,a7,2210 <.L1201+0xc>
    220c:	50d0206f          	j	4f18 <.L1209>
    2210:	00e00b93          	li	s7,14
    2214:	01dbd463          	bge	s7,t4,221c <.L1201+0x18>
    2218:	0a50506f          	j	7abc <.L1217>
    221c:	00094463          	bltz	s2,2224 <.L1201+0x20>
    2220:	7a10106f          	j	41c0 <.L1218>
    2224:	00815b83          	lhu	s7,8(sp)
    2228:	008b8b93          	addi	s7,s7,8
    222c:	01711423          	sh	s7,8(sp)

00002230 <.L1210>:
    2230:	03500b93          	li	s7,53
    2234:	b6ebde63          	bge	s7,a4,15b0 <.L1215>
    2238:	0e100b93          	li	s7,225
    223c:	00dbd463          	bge	s7,a3,2244 <.L1220>
    2240:	5890606f          	j	8fc8 <.L1223>

00002244 <.L1220>:
    2244:	03200b93          	li	s7,50
    2248:	01fbd463          	bge	s7,t6,2250 <.L2692>
    224c:	7280606f          	j	8974 <.L1222>

00002250 <.L2692>:
    2250:	00a15b83          	lhu	s7,10(sp)
    2254:	0c100c13          	li	s8,193
    2258:	ff7b8b93          	addi	s7,s7,-9
    225c:	01711523          	sh	s7,10(sp)
    2260:	b69c5c63          	bge	s8,s1,15d8 <.L1228>

00002264 <.L2607>:
    2264:	f6900b93          	li	s7,-151
    2268:	0175c463          	blt	a1,s7,2270 <.L1230>
    226c:	79c0506f          	j	7a08 <.L1235>

00002270 <.L1230>:
    2270:	00c15b83          	lhu	s7,12(sp)
    2274:	fffb8b93          	addi	s7,s7,-1
    2278:	010b9b93          	slli	s7,s7,0x10
    227c:	410bdb93          	srai	s7,s7,0x10

00002280 <.L1240>:
    2280:	01711623          	sh	s7,12(sp)
    2284:	03600b93          	li	s7,54
    2288:	b8fbc263          	blt	s7,a5,160c <.L1244>

0000228c <.L2768>:
    228c:	04c00b93          	li	s7,76
    2290:	016bd463          	bge	s7,s6,2298 <.L2768+0xc>
    2294:	0790606f          	j	8b0c <.L1245>
    2298:	00e15b83          	lhu	s7,14(sp)
    229c:	01500c13          	li	s8,21
    22a0:	002b8b93          	addi	s7,s7,2
    22a4:	01711723          	sh	s7,14(sp)
    22a8:	007c4463          	blt	s8,t2,22b0 <.L2768+0x24>
    22ac:	3600206f          	j	460c <.L1254>
    22b0:	11d00b93          	li	s7,285
    22b4:	007bd463          	bge	s7,t2,22bc <.L2768+0x30>
    22b8:	25d0706f          	j	9d14 <.L1249>
    22bc:	00815b83          	lhu	s7,8(sp)
    22c0:	08c00c13          	li	s8,140
    22c4:	ffdb8b93          	addi	s7,s7,-3
    22c8:	01711423          	sh	s7,8(sp)
    22cc:	006c5463          	bge	s8,t1,22d4 <.L1250>
    22d0:	4ac0806f          	j	a77c <.L2799>

000022d4 <.L1250>:
    22d4:	00900b93          	li	s7,9
    22d8:	011bd463          	bge	s7,a7,22e0 <.L1250+0xc>
    22dc:	2750506f          	j	7d50 <.L2800>
    22e0:	01dbd463          	bge	s7,t4,22e8 <.L1250+0x14>
    22e4:	2550306f          	j	5d38 <.L1278>
    22e8:	00a15b83          	lhu	s7,10(sp)
    22ec:	03300c13          	li	s8,51
    22f0:	ffab8b93          	addi	s7,s7,-6
    22f4:	01711523          	sh	s7,10(sp)
    22f8:	00fc4463          	blt	s8,a5,2300 <.L1279>
    22fc:	2190506f          	j	7d14 <.L2610>

00002300 <.L1279>:
    2300:	04700b93          	li	s7,71
    2304:	ba7bd263          	bge	s7,t2,16a8 <.L1266>

00002308 <.L1289>:
    2308:	00c15b83          	lhu	s7,12(sp)
    230c:	003b8b93          	addi	s7,s7,3
    2310:	010b9b93          	slli	s7,s7,0x10
    2314:	410bdb93          	srai	s7,s7,0x10

00002318 <.L1281>:
    2318:	01711623          	sh	s7,12(sp)
    231c:	03c00b93          	li	s7,60
    2320:	00fbc463          	blt	s7,a5,2328 <.L1281+0x10>
    2324:	3700206f          	j	4694 <.L1292>
    2328:	0d400b93          	li	s7,212
    232c:	00ebd463          	bge	s7,a4,2334 <.L1281+0x1c>
    2330:	3290606f          	j	8e58 <.L1307>
    2334:	0a100b93          	li	s7,161
    2338:	ba7bd063          	bge	s7,t2,16d8 <.L1310>
    233c:	ffe00b93          	li	s7,-2
    2340:	bb784663          	blt	a6,s7,16ec <.L1300>

00002344 <.L1321>:
    2344:	ec700b93          	li	s7,-313
    2348:	01744463          	blt	s0,s7,2350 <.L2939>
    234c:	3310606f          	j	8e7c <.L1333>

00002350 <.L2939>:
    2350:	00815b83          	lhu	s7,8(sp)
    2354:	fffb8b93          	addi	s7,s7,-1
    2358:	010b9b93          	slli	s7,s7,0x10
    235c:	410bdb93          	srai	s7,s7,0x10

00002360 <.L1332>:
    2360:	01711423          	sh	s7,8(sp)
    2364:	03400b93          	li	s7,52
    2368:	01dbc463          	blt	s7,t4,2370 <.L1332+0x10>
    236c:	3310106f          	j	3e9c <.L1329>
    2370:	1db00b93          	li	s7,475
    2374:	016bd463          	bge	s7,s6,237c <.L1332+0x1c>
    2378:	26d0506f          	j	7de4 <.L1326>
    237c:	00800b93          	li	s7,8
    2380:	bb0bd063          	bge	s7,a6,1720 <.L1330>
    2384:	00a15b83          	lhu	s7,10(sp)
    2388:	02a00c13          	li	s8,42
    238c:	ff4b8b93          	addi	s7,s7,-12
    2390:	01711523          	sh	s7,10(sp)
    2394:	badc4063          	blt	s8,a3,1734 <.L1328>

00002398 <.L1327>:
    2398:	fba00b93          	li	s7,-70
    239c:	0175c463          	blt	a1,s7,23a4 <.L1357>
    23a0:	7010606f          	j	92a0 <.L1338>

000023a4 <.L1357>:
    23a4:	00c15b83          	lhu	s7,12(sp)
    23a8:	ffbb8b93          	addi	s7,s7,-5
    23ac:	01711623          	sh	s7,12(sp)

000023b0 <.L1360>:
    23b0:	03600b93          	li	s7,54
    23b4:	00fbc463          	blt	s7,a5,23bc <.L1356>
    23b8:	2040306f          	j	55bc <.L1341>

000023bc <.L1356>:
    23bc:	ff600b93          	li	s7,-10
    23c0:	01765463          	bge	a2,s7,23c8 <.L1355>
    23c4:	3390106f          	j	3efc <.L1342>

000023c8 <.L1355>:
    23c8:	eea00b93          	li	s7,-278
    23cc:	017a4463          	blt	s4,s7,23d4 <.L1355+0xc>
    23d0:	36d0806f          	j	af3c <.L1370>
    23d4:	00e15b83          	lhu	s7,14(sp)
    23d8:	ffdb8b93          	addi	s7,s7,-3
    23dc:	010b9b93          	slli	s7,s7,0x10
    23e0:	410bdb93          	srai	s7,s7,0x10

000023e4 <.L1366>:
    23e4:	01711723          	sh	s7,14(sp)
    23e8:	fa300b93          	li	s7,-93
    23ec:	0172c463          	blt	t0,s7,23f4 <.L2847>
    23f0:	3390106f          	j	3f28 <.L1367>

000023f4 <.L2847>:
    23f4:	fa100b93          	li	s7,-95
    23f8:	0172c463          	blt	t0,s7,2400 <.L2847+0xc>
    23fc:	2a90506f          	j	7ea4 <.L1369>
    2400:	01c04463          	bgtz	t3,2408 <.L2847+0x14>
    2404:	77d0806f          	j	b380 <.L2801>
    2408:	03900b93          	li	s7,57
    240c:	006bc463          	blt	s7,t1,2414 <.L2847+0x20>
    2410:	3f40206f          	j	4804 <.L1372>
    2414:	ff800b93          	li	s7,-8
    2418:	01764463          	blt	a2,s7,2420 <.L1373>
    241c:	1790906f          	j	bd94 <.L2802>

00002420 <.L1373>:
    2420:	01c51c03          	lh	s8,28(a0)
    2424:	01e00b93          	li	s7,30
    2428:	018bd463          	bge	s7,s8,2430 <.L1373+0x10>
    242c:	3840806f          	j	a7b0 <.L2803>
    2430:	00a15b83          	lhu	s7,10(sp)
    2434:	002b8b93          	addi	s7,s7,2
    2438:	010b9b93          	slli	s7,s7,0x10
    243c:	410bdb93          	srai	s7,s7,0x10

00002440 <.L1399>:
    2440:	01711523          	sh	s7,10(sp)
    2444:	00100b93          	li	s7,1
    2448:	01cbc463          	blt	s7,t3,2450 <.L1396>
    244c:	4010306f          	j	604c <.L1375>

00002450 <.L1396>:
    2450:	02000b93          	li	s7,32
    2454:	01dbc463          	blt	s7,t4,245c <.L1402>
    2458:	0b80706f          	j	9510 <.L2804>

0000245c <.L1402>:
    245c:	34700b93          	li	s7,839
    2460:	00dbd463          	bge	s7,a3,2468 <.L1402+0xc>
    2464:	0700706f          	j	94d4 <.L1414>
    2468:	00c15b83          	lhu	s7,12(sp)
    246c:	03c00c13          	li	s8,60
    2470:	ff9b8b93          	addi	s7,s7,-7
    2474:	01711623          	sh	s7,12(sp)
    2478:	00fc5463          	bge	s8,a5,2480 <.L2625>
    247c:	3d80206f          	j	4854 <.L1390>

00002480 <.L2625>:
    2480:	e4f00b93          	li	s7,-433
    2484:	017ac463          	blt	s5,s7,248c <.L1391>
    2488:	1100606f          	j	8598 <.L1416>

0000248c <.L1391>:
    248c:	c5a00b93          	li	s7,-934
    2490:	0175d463          	bge	a1,s7,2498 <.L1391+0xc>
    2494:	1040606f          	j	8598 <.L1416>
    2498:	00e15b83          	lhu	s7,14(sp)
    249c:	ff6b8b93          	addi	s7,s7,-10
    24a0:	01711723          	sh	s7,14(sp)

000024a4 <.L1411>:
    24a4:	01f00b93          	li	s7,31
    24a8:	013bd463          	bge	s7,s3,24b0 <.L1408>
    24ac:	3010106f          	j	3fac <.L1422>

000024b0 <.L1408>:
    24b0:	03d00b93          	li	s7,61
    24b4:	01fbd463          	bge	s7,t6,24bc <.L1408+0xc>
    24b8:	5a90406f          	j	7260 <.L1423>
    24bc:	01c04863          	bgtz	t3,24cc <.L1424>
    24c0:	00815b83          	lhu	s7,8(sp)
    24c4:	005b8b93          	addi	s7,s7,5
    24c8:	01711423          	sh	s7,8(sp)

000024cc <.L1424>:
    24cc:	03300b93          	li	s7,51
    24d0:	01fbd463          	bge	s7,t6,24d8 <.L2848>
    24d4:	2fd0106f          	j	3fd0 <.L1426>

000024d8 <.L2848>:
    24d8:	1c600c13          	li	s8,454
    24dc:	00ec5463          	bge	s8,a4,24e4 <.L2848+0xc>
    24e0:	5450406f          	j	7224 <.L1427>
    24e4:	017f9463          	bne	t6,s7,24ec <.L2848+0x14>
    24e8:	0bc0906f          	j	b5a4 <.L1428>
    24ec:	00a15b83          	lhu	s7,10(sp)
    24f0:	ff7b8b93          	addi	s7,s7,-9
    24f4:	01711523          	sh	s7,10(sp)

000024f8 <.L1429>:
    24f8:	f9800b93          	li	s7,-104
    24fc:	01744463          	blt	s0,s7,2504 <.L2849>
    2500:	3010106f          	j	4000 <.L1433>

00002504 <.L2849>:
    2504:	0c700b93          	li	s7,199
    2508:	016bd463          	bge	s7,s6,2510 <.L2849+0xc>
    250c:	5040606f          	j	8a10 <.L1434>
    2510:	ea900b93          	li	s7,-343
    2514:	017a4863          	blt	s4,s7,2524 <.L1435>
    2518:	00c15b83          	lhu	s7,12(sp)
    251c:	ff7b8b93          	addi	s7,s7,-9
    2520:	01711623          	sh	s7,12(sp)

00002524 <.L1435>:
    2524:	d2a00b93          	li	s7,-726
    2528:	0175c463          	blt	a1,s7,2530 <.L2850>
    252c:	3050106f          	j	4030 <.L1440>

00002530 <.L2850>:
    2530:	25d00b93          	li	s7,605
    2534:	009bd463          	bge	s7,s1,253c <.L2850+0xc>
    2538:	6480306f          	j	5b80 <.L1441>
    253c:	e2e00b93          	li	s7,-466
    2540:	0172d463          	bge	t0,s7,2548 <.L2850+0x18>
    2544:	3cc0706f          	j	9910 <.L1442>
    2548:	00e15b83          	lhu	s7,14(sp)
    254c:	00400c13          	li	s8,4
    2550:	008b8b93          	addi	s7,s7,8
    2554:	01711723          	sh	s7,14(sp)
    2558:	011c5463          	bge	s8,a7,2560 <.L1445>
    255c:	63c0306f          	j	5b98 <.L1444>

00002560 <.L1445>:
    2560:	03800b93          	li	s7,56
    2564:	01fbd463          	bge	s7,t6,256c <.L1445+0xc>
    2568:	4950406f          	j	71fc <.L1450>
    256c:	00815b83          	lhu	s7,8(sp)
    2570:	00bb8b93          	addi	s7,s7,11
    2574:	01711423          	sh	s7,8(sp)

00002578 <.L2736>:
    2578:	00c00b93          	li	s7,12
    257c:	01cbc463          	blt	s7,t3,2584 <.L2736+0xc>
    2580:	6c90606f          	j	9448 <.L1453>
    2584:	23200b93          	li	s7,562
    2588:	01ebd463          	bge	s7,t5,2590 <.L2736+0x18>
    258c:	4900806f          	j	aa1c <.L1454>
    2590:	00a15b83          	lhu	s7,10(sp)
    2594:	ff7b8b93          	addi	s7,s7,-9
    2598:	01711523          	sh	s7,10(sp)

0000259c <.L1455>:
    259c:	02700b93          	li	s7,39
    25a0:	01dbd463          	bge	s7,t4,25a8 <.L1476>
    25a4:	2f50106f          	j	4098 <.L1477>

000025a8 <.L1476>:
    25a8:	15500b93          	li	s7,341
    25ac:	01ebd463          	bge	s7,t5,25b4 <.L1476+0xc>
    25b0:	4840806f          	j	aa34 <.L1482>
    25b4:	00c15b83          	lhu	s7,12(sp)
    25b8:	ffeb8b93          	addi	s7,s7,-2
    25bc:	01711623          	sh	s7,12(sp)

000025c0 <.L1487>:
    25c0:	0a000b93          	li	s7,160
    25c4:	009bd463          	bge	s7,s1,25cc <.L2852>
    25c8:	2f50106f          	j	40bc <.L1491>

000025cc <.L2852>:
    25cc:	09b00b93          	li	s7,155
    25d0:	009bd463          	bge	s7,s1,25d8 <.L2852+0xc>
    25d4:	0140506f          	j	75e8 <.L1492>
    25d8:	0a300b93          	li	s7,163
    25dc:	012bd463          	bge	s7,s2,25e4 <.L2852+0x18>
    25e0:	2c50806f          	j	b0a4 <.L1493>
    25e4:	00e15b83          	lhu	s7,14(sp)
    25e8:	39000c13          	li	s8,912
    25ec:	ffcb8b93          	addi	s7,s7,-4
    25f0:	01711723          	sh	s7,14(sp)
    25f4:	006c4463          	blt	s8,t1,25fc <.L2852+0x30>
    25f8:	7790106f          	j	4570 <.L1502>
    25fc:	14e00b93          	li	s7,334
    2600:	00dbd463          	bge	s7,a3,2608 <.L1512>
    2604:	6b80906f          	j	bcbc <.L2805>

00002608 <.L1512>:
    2608:	00900b93          	li	s7,9
    260c:	013bd463          	bge	s7,s3,2614 <.L1512+0xc>
    2610:	0390706f          	j	9e48 <.L1514>
    2614:	00815b83          	lhu	s7,8(sp)
    2618:	003b8b93          	addi	s7,s7,3
    261c:	01711423          	sh	s7,8(sp)

00002620 <.L1511>:
    2620:	00c00b93          	li	s7,12
    2624:	01cbc463          	blt	s7,t3,262c <.L1505>
    2628:	4490206f          	j	5270 <.L1520>

0000262c <.L1505>:
    262c:	1dc00b93          	li	s7,476
    2630:	016bd463          	bge	s7,s6,2638 <.L1505+0xc>
    2634:	3940806f          	j	a9c8 <.L1525>
    2638:	00a15b83          	lhu	s7,10(sp)
    263c:	f9800c13          	li	s8,-104
    2640:	ff3b8b93          	addi	s7,s7,-13
    2644:	01711523          	sh	s7,10(sp)
    2648:	01844463          	blt	s0,s8,2650 <.L1506>
    264c:	7690106f          	j	45b4 <.L1507>

00002650 <.L1506>:
    2650:	0c700b93          	li	s7,199
    2654:	016bc463          	blt	s7,s6,265c <.L1521>
    2658:	7640606f          	j	8dbc <.L1528>

0000265c <.L1521>:
    265c:	00c15b83          	lhu	s7,12(sp)
    2660:	01800c13          	li	s8,24
    2664:	fffb8b93          	addi	s7,s7,-1
    2668:	01711623          	sh	s7,12(sp)
    266c:	010c4463          	blt	s8,a6,2674 <.L1534>
    2670:	7750106f          	j	45e4 <.L1544>

00002674 <.L1534>:
    2674:	eee00b93          	li	s7,-274
    2678:	017ac463          	blt	s5,s7,2680 <.L1534+0xc>
    267c:	6280106f          	j	3ca4 <.L1549>
    2680:	01c51c03          	lh	s8,28(a0)
    2684:	02300b93          	li	s7,35
    2688:	018bd463          	bge	s7,s8,2690 <.L1540>
    268c:	3050106f          	j	4190 <.L2806>

00002690 <.L1540>:
    2690:	00e15b83          	lhu	s7,14(sp)
    2694:	005b8b93          	addi	s7,s7,5
    2698:	01711723          	sh	s7,14(sp)

0000269c <.L1539>:
    269c:	0a900b93          	li	s7,169
    26a0:	01ebd463          	bge	s7,t5,26a8 <.L2840>
    26a4:	6180106f          	j	3cbc <.L1550>

000026a8 <.L2840>:
    26a8:	01c00b93          	li	s7,28
    26ac:	00fbd463          	bge	s7,a5,26b4 <.L2840+0xc>
    26b0:	5350506f          	j	83e4 <.L1551>
    26b4:	07300b93          	li	s7,115
    26b8:	01ebd463          	bge	s7,t5,26c0 <.L2840+0x18>
    26bc:	1190706f          	j	9fd4 <.L1552>
    26c0:	00815b83          	lhu	s7,8(sp)
    26c4:	006b8b93          	addi	s7,s7,6
    26c8:	010b9b93          	slli	s7,s7,0x10
    26cc:	410bdb93          	srai	s7,s7,0x10

000026d0 <.L1553>:
    26d0:	01711423          	sh	s7,8(sp)
    26d4:	03300b93          	li	s7,51
    26d8:	01fbd463          	bge	s7,t6,26e0 <.L2841>
    26dc:	60c0106f          	j	3ce8 <.L1557>

000026e0 <.L2841>:
    26e0:	00001bb7          	lui	s7,0x1
    26e4:	cbbb8b93          	addi	s7,s7,-837 # cbb <.L2776+0xb>
    26e8:	00ebd463          	bge	s7,a4,26f0 <.L2841+0x10>
    26ec:	4c90506f          	j	83b4 <.L1558>
    26f0:	dba00b93          	li	s7,-582
    26f4:	0175c863          	blt	a1,s7,2704 <.L1559>
    26f8:	00a15b83          	lhu	s7,10(sp)
    26fc:	ff9b8b93          	addi	s7,s7,-7
    2700:	01711523          	sh	s7,10(sp)

00002704 <.L1559>:
    2704:	10b00b93          	li	s7,267
    2708:	00dbc463          	blt	s7,a3,2710 <.L1568>
    270c:	2f90606f          	j	9204 <.L1565>

00002710 <.L1568>:
    2710:	e8500b93          	li	s7,-379
    2714:	017ad463          	bge	s5,s7,271c <.L1568+0xc>
    2718:	4ed0506f          	j	8404 <.L1572>
    271c:	18c00b93          	li	s7,396
    2720:	00ebd463          	bge	s7,a4,2728 <.L1568+0x18>
    2724:	4ad0506f          	j	83d0 <.L1569>
    2728:	00c15b83          	lhu	s7,12(sp)
    272c:	001b8b93          	addi	s7,s7,1
    2730:	010b9b93          	slli	s7,s7,0x10
    2734:	410bdb93          	srai	s7,s7,0x10

00002738 <.L1574>:
    2738:	01711623          	sh	s7,12(sp)
    273c:	02700c13          	li	s8,39
    2740:	007c5463          	bge	s8,t2,2748 <.L2842>
    2744:	5f40106f          	j	3d38 <.L1577>

00002748 <.L2842>:
    2748:	03d00c13          	li	s8,61
    274c:	00fc5463          	bge	s8,a5,2754 <.L2842+0xc>
    2750:	2b10506f          	j	8200 <.L1578>
    2754:	02000c13          	li	s8,32
    2758:	010c5463          	bge	s8,a6,2760 <.L2842+0x18>
    275c:	2950506f          	j	81f0 <.L1579>
    2760:	00e15c03          	lhu	s8,14(sp)
    2764:	ff7c0c13          	addi	s8,s8,-9
    2768:	01811723          	sh	s8,14(sp)

0000276c <.L1580>:
    276c:	01f00c13          	li	s8,31
    2770:	013c5463          	bge	s8,s3,2778 <.L2843>
    2774:	5f40106f          	j	3d68 <.L1582>

00002778 <.L2843>:
    2778:	03d00c13          	li	s8,61
    277c:	01fc5463          	bge	s8,t6,2784 <.L2843+0xc>
    2780:	1a50506f          	j	8124 <.L1583>
    2784:	f7800c13          	li	s8,-136
    2788:	018a4863          	blt	s4,s8,2798 <.L1584>
    278c:	00815c03          	lhu	s8,8(sp)
    2790:	004c0c13          	addi	s8,s8,4
    2794:	01811423          	sh	s8,8(sp)

00002798 <.L1584>:
    2798:	e2c00c13          	li	s8,-468
    279c:	0182d463          	bge	t0,s8,27a4 <.L2844>
    27a0:	5ec0106f          	j	3d8c <.L1590>

000027a4 <.L2844>:
    27a4:	03c00b93          	li	s7,60
    27a8:	01fbd463          	bge	s7,t6,27b0 <.L2844+0xc>
    27ac:	1990506f          	j	8144 <.L1586>
    27b0:	00900c13          	li	s8,9
    27b4:	01cc5463          	bge	s8,t3,27bc <.L2844+0x18>
    27b8:	29c0306f          	j	5a54 <.L1611>
    27bc:	00a15b83          	lhu	s7,10(sp)
    27c0:	001b8b93          	addi	s7,s7,1
    27c4:	010b9b93          	slli	s7,s7,0x10
    27c8:	410bdb93          	srai	s7,s7,0x10

000027cc <.L1612>:
    27cc:	01711523          	sh	s7,10(sp)
    27d0:	03c00b93          	li	s7,60
    27d4:	00fbc463          	blt	s7,a5,27dc <.L1615>
    27d8:	2280306f          	j	5a00 <.L1604>

000027dc <.L1615>:
    27dc:	e6500b93          	li	s7,-411
    27e0:	0172d463          	bge	t0,s7,27e8 <.L1615+0xc>
    27e4:	7fc0906f          	j	bfe0 <.L1617>
    27e8:	00e00b93          	li	s7,14
    27ec:	01dbd463          	bge	s7,t4,27f4 <.L1615+0x18>
    27f0:	71c0706f          	j	9f0c <.L1619>
    27f4:	00300b93          	li	s7,3
    27f8:	01cbd463          	bge	s7,t3,2800 <.L1615+0x24>
    27fc:	2800306f          	j	5a7c <.L1618>
    2800:	0c100b93          	li	s7,193
    2804:	012bd463          	bge	s7,s2,280c <.L1635>
    2808:	4980906f          	j	bca0 <.L2807>

0000280c <.L1635>:
    280c:	02f00b93          	li	s7,47
    2810:	01fbd463          	bge	s7,t6,2818 <.L1635+0xc>
    2814:	6e80706f          	j	9efc <.L2808>
    2818:	00e15b83          	lhu	s7,14(sp)
    281c:	00400c13          	li	s8,4
    2820:	018b8bb3          	add	s7,s7,s8
    2824:	01711723          	sh	s7,14(sp)
    2828:	011c4463          	blt	s8,a7,2830 <.L1635+0x24>
    282c:	2f00406f          	j	6b1c <.L1651>
    2830:	00e00b93          	li	s7,14
    2834:	01dbd463          	bge	s7,t4,283c <.L1646>
    2838:	51d0606f          	j	9554 <.L2809>

0000283c <.L1646>:
    283c:	f9c00b93          	li	s7,-100
    2840:	01744463          	blt	s0,s7,2848 <.L1644>
    2844:	3110606f          	j	9354 <.L1668>

00002848 <.L1644>:
    2848:	00815b83          	lhu	s7,8(sp)
    284c:	01d00c13          	li	s8,29
    2850:	ffab8b93          	addi	s7,s7,-6
    2854:	01711423          	sh	s7,8(sp)
    2858:	011c5463          	bge	s8,a7,2860 <.L2716>
    285c:	3110606f          	j	936c <.L1669>

00002860 <.L2716>:
    2860:	00a15b83          	lhu	s7,10(sp)
    2864:	00100c13          	li	s8,1
    2868:	ffeb8b93          	addi	s7,s7,-2
    286c:	01711523          	sh	s7,10(sp)
    2870:	01cc4463          	blt	s8,t3,2878 <.L1659>
    2874:	4640906f          	j	bcd8 <.L2810>

00002878 <.L1659>:
    2878:	ff000b93          	li	s7,-16
    287c:	01764463          	blt	a2,s7,2884 <.L1659+0xc>
    2880:	0690206f          	j	50e8 <.L2811>
    2884:	00c15b83          	lhu	s7,12(sp)
    2888:	ff600c13          	li	s8,-10
    288c:	007b8b93          	addi	s7,s7,7
    2890:	01711623          	sh	s7,12(sp)
    2894:	01864463          	blt	a2,s8,289c <.L1682>
    2898:	05d0206f          	j	50f4 <.L1683>

0000289c <.L1682>:
    289c:	0da00b93          	li	s7,218
    28a0:	012bd463          	bge	s7,s2,28a8 <.L1682+0xc>
    28a4:	50d0606f          	j	95b0 <.L1696>
    28a8:	00e15b83          	lhu	s7,14(sp)
    28ac:	ff9b8b93          	addi	s7,s7,-7
    28b0:	010b9b93          	slli	s7,s7,0x10
    28b4:	010bdb93          	srli	s7,s7,0x10

000028b8 <.L1697>:
    28b8:	01711723          	sh	s7,14(sp)

000028bc <.L1699>:
    28bc:	e4300b93          	li	s7,-445
    28c0:	01744463          	blt	s0,s7,28c8 <.L1699+0xc>
    28c4:	6d80206f          	j	4f9c <.L1703>
    28c8:	0d400b93          	li	s7,212
    28cc:	007bd463          	bge	s7,t2,28d4 <.L1699+0x18>
    28d0:	6740506f          	j	7f44 <.L1706>
    28d4:	0d100b93          	li	s7,209
    28d8:	007bc463          	blt	s7,t2,28e0 <.L1699+0x24>
    28dc:	2d10606f          	j	93ac <.L1702>
    28e0:	00815b83          	lhu	s7,8(sp)
    28e4:	03b00c13          	li	s8,59
    28e8:	008b8b93          	addi	s7,s7,8
    28ec:	01711423          	sh	s7,8(sp)
    28f0:	00fc5463          	bge	s8,a5,28f8 <.L2643>
    28f4:	6680506f          	j	7f5c <.L1708>

000028f8 <.L2643>:
    28f8:	03500b93          	li	s7,53
    28fc:	00ebc463          	blt	s7,a4,2904 <.L1710>
    2900:	1110506f          	j	8210 <.L1709>

00002904 <.L1710>:
    2904:	00a15b83          	lhu	s7,10(sp)
    2908:	005b8b93          	addi	s7,s7,5
    290c:	010b9b93          	slli	s7,s7,0x10
    2910:	410bdb93          	srai	s7,s7,0x10

00002914 <.L1721>:
    2914:	01711523          	sh	s7,10(sp)
    2918:	02200b93          	li	s7,34
    291c:	011bd463          	bge	s7,a7,2924 <.L2886>
    2920:	6e00206f          	j	5000 <.L1730>

00002924 <.L2886>:
    2924:	01700b93          	li	s7,23
    2928:	01dbd463          	bge	s7,t4,2930 <.L2886+0xc>
    292c:	3ad0506f          	j	84d8 <.L1727>
    2930:	1dc00b93          	li	s7,476
    2934:	01ebd863          	bge	s7,t5,2944 <.L1731>

00002938 <.L1729>:
    2938:	00c15b83          	lhu	s7,12(sp)
    293c:	008b8b93          	addi	s7,s7,8
    2940:	01711623          	sh	s7,12(sp)

00002944 <.L1731>:
    2944:	02600b93          	li	s7,38
    2948:	00dbd463          	bge	s7,a3,2950 <.L1731+0xc>
    294c:	4640206f          	j	4db0 <.L1728>
    2950:	00f00b93          	li	s7,15
    2954:	00dbd463          	bge	s7,a3,295c <.L1731+0x18>
    2958:	7890506f          	j	88e0 <.L1738>
    295c:	08c00b93          	li	s7,140
    2960:	007bd463          	bge	s7,t2,2968 <.L1731+0x24>
    2964:	5280806f          	j	ae8c <.L1739>
    2968:	00e15b83          	lhu	s7,14(sp)
    296c:	01500c13          	li	s8,21
    2970:	003b8b93          	addi	s7,s7,3
    2974:	01711723          	sh	s7,14(sp)
    2978:	007c4463          	blt	s8,t2,2980 <.L1741>
    297c:	2990206f          	j	5414 <.L1740>

00002980 <.L1741>:
    2980:	ff700b93          	li	s7,-9
    2984:	01764863          	blt	a2,s7,2994 <.L1749>
    2988:	00815b83          	lhu	s7,8(sp)
    298c:	ffcb8b93          	addi	s7,s7,-4
    2990:	01711423          	sh	s7,8(sp)

00002994 <.L1749>:
    2994:	0f000b93          	li	s7,240
    2998:	006bd463          	bge	s7,t1,29a0 <.L1749+0xc>
    299c:	38c0206f          	j	4d28 <.L1753>
    29a0:	00200b93          	li	s7,2
    29a4:	01cbd463          	bge	s7,t3,29ac <.L1749+0x18>
    29a8:	04c0606f          	j	89f4 <.L1754>
    29ac:	03500b93          	li	s7,53
    29b0:	00fbd463          	bge	s7,a5,29b8 <.L1749+0x24>
    29b4:	4090706f          	j	a5bc <.L1755>
    29b8:	00a15b83          	lhu	s7,10(sp)
    29bc:	007b8b93          	addi	s7,s7,7
    29c0:	01711523          	sh	s7,10(sp)

000029c4 <.L1756>:
    29c4:	f9800b93          	li	s7,-104
    29c8:	01744463          	blt	s0,s7,29d0 <.L1768>
    29cc:	38c0206f          	j	4d58 <.L2812>

000029d0 <.L1768>:
    29d0:	f6600b93          	li	s7,-154
    29d4:	01744463          	blt	s0,s7,29dc <.L1768+0xc>
    29d8:	0000606f          	j	89d8 <.L1760>
    29dc:	0c600b93          	li	s7,198
    29e0:	009bc863          	blt	s7,s1,29f0 <.L1770>

000029e4 <.L1772>:
    29e4:	00c15b83          	lhu	s7,12(sp)
    29e8:	ffbb8b93          	addi	s7,s7,-5
    29ec:	01711623          	sh	s7,12(sp)

000029f0 <.L1770>:
    29f0:	02700b93          	li	s7,39
    29f4:	007bd463          	bge	s7,t2,29fc <.L1770+0xc>
    29f8:	3080206f          	j	4d00 <.L1763>
    29fc:	0e400b93          	li	s7,228
    2a00:	006bd463          	bge	s7,t1,2a08 <.L1770+0x18>
    2a04:	23d0506f          	j	8440 <.L1762>
    2a08:	01b00b93          	li	s7,27
    2a0c:	010bd463          	bge	s7,a6,2a14 <.L1770+0x24>
    2a10:	18c0706f          	j	9b9c <.L1774>
    2a14:	00e15b83          	lhu	s7,14(sp)
    2a18:	ff8b8b93          	addi	s7,s7,-8
    2a1c:	01711723          	sh	s7,14(sp)

00002a20 <.L1775>:
    2a20:	00400b93          	li	s7,4
    2a24:	011bd463          	bge	s7,a7,2a2c <.L1775+0xc>
    2a28:	1680206f          	j	4b90 <.L1778>
    2a2c:	03a00b93          	li	s7,58
    2a30:	01fbd463          	bge	s7,t6,2a38 <.L1775+0x18>
    2a34:	4950206f          	j	56c8 <.L1779>
    2a38:	00815b83          	lhu	s7,8(sp)
    2a3c:	02e00c13          	li	s8,46
    2a40:	009b8b93          	addi	s7,s7,9
    2a44:	01711423          	sh	s7,8(sp)
    2a48:	01dc5463          	bge	s8,t4,2a50 <.L1783>
    2a4c:	6e10206f          	j	592c <.L1780>

00002a50 <.L1783>:
    2a50:	01200b93          	li	s7,18
    2a54:	01dbd463          	bge	s7,t4,2a5c <.L1783+0xc>
    2a58:	5600806f          	j	afb8 <.L2813>
    2a5c:	00a15b83          	lhu	s7,10(sp)
    2a60:	ffeb8b93          	addi	s7,s7,-2
    2a64:	010b9b93          	slli	s7,s7,0x10
    2a68:	410bdb93          	srai	s7,s7,0x10

00002a6c <.L1793>:
    2a6c:	01711523          	sh	s7,10(sp)
    2a70:	01500b93          	li	s7,21
    2a74:	010bc463          	blt	s7,a6,2a7c <.L1793+0x10>
    2a78:	47d0206f          	j	56f4 <.L1787>
    2a7c:	03b00b93          	li	s7,59
    2a80:	00fbd463          	bge	s7,a5,2a88 <.L1793+0x1c>
    2a84:	15c0206f          	j	4be0 <.L1796>
    2a88:	ffb00b93          	li	s7,-5
    2a8c:	01765463          	bge	a2,s7,2a94 <.L2646>
    2a90:	1b00206f          	j	4c40 <.L1795>

00002a94 <.L2646>:
    2a94:	00c15b83          	lhu	s7,12(sp)
    2a98:	ffab8b93          	addi	s7,s7,-6
    2a9c:	01711623          	sh	s7,12(sp)

00002aa0 <.L1808>:
    2aa0:	00300b93          	li	s7,3
    2aa4:	01cbd463          	bge	s7,t3,2aac <.L2881>
    2aa8:	1b00206f          	j	4c58 <.L1801>

00002aac <.L2881>:
    2aac:	01300b93          	li	s7,19
    2ab0:	01dbd463          	bge	s7,t4,2ab8 <.L2881+0xc>
    2ab4:	1b80206f          	j	4c6c <.L2647>
    2ab8:	02e00b93          	li	s7,46
    2abc:	012bd463          	bge	s7,s2,2ac4 <.L2881+0x18>
    2ac0:	0940306f          	j	5b54 <.L1815>
    2ac4:	00e15b83          	lhu	s7,14(sp)
    2ac8:	0a900c13          	li	s8,169
    2acc:	ff9b8b93          	addi	s7,s7,-7
    2ad0:	01711723          	sh	s7,14(sp)
    2ad4:	01ec5463          	bge	s8,t5,2adc <.L1818>
    2ad8:	0940306f          	j	5b6c <.L2648>

00002adc <.L1818>:
    2adc:	01c00b93          	li	s7,28
    2ae0:	00fbd463          	bge	s7,a5,2ae8 <.L1818+0xc>
    2ae4:	75c0406f          	j	7240 <.L1828>
    2ae8:	06700b93          	li	s7,103
    2aec:	016bd463          	bge	s7,s6,2af4 <.L1818+0x18>
    2af0:	6050106f          	j	48f4 <.L1829>
    2af4:	00815b83          	lhu	s7,8(sp)
    2af8:	03300c13          	li	s8,51
    2afc:	005b8b93          	addi	s7,s7,5
    2b00:	01711423          	sh	s7,8(sp)
    2b04:	01fc4463          	blt	s8,t6,2b0c <.L1831>
    2b08:	6050106f          	j	490c <.L1832>

00002b0c <.L1831>:
    2b0c:	08000b93          	li	s7,128
    2b10:	00ebd863          	bge	s7,a4,2b20 <.L1845>
    2b14:	00a15b83          	lhu	s7,10(sp)
    2b18:	005b8b93          	addi	s7,s7,5
    2b1c:	01711523          	sh	s7,10(sp)

00002b20 <.L1845>:
    2b20:	00100b93          	li	s7,1
    2b24:	01cbc463          	blt	s7,t3,2b2c <.L1849>
    2b28:	61d0106f          	j	4944 <.L2814>

00002b2c <.L1849>:
    2b2c:	02700b93          	li	s7,39
    2b30:	006bd463          	bge	s7,t1,2b38 <.L1849+0xc>
    2b34:	4440306f          	j	5f78 <.L1857>
    2b38:	ff800b93          	li	s7,-8
    2b3c:	01764463          	blt	a2,s7,2b44 <.L1849+0x18>
    2b40:	1c10606f          	j	9500 <.L1858>
    2b44:	00c15b83          	lhu	s7,12(sp)
    2b48:	ffcb8b93          	addi	s7,s7,-4
    2b4c:	01711623          	sh	s7,12(sp)

00002b50 <.L1856>:
    2b50:	c0000b93          	li	s7,-1024
    2b54:	0175c463          	blt	a1,s7,2b5c <.L1856+0xc>
    2b58:	1810206f          	j	54d8 <.L1859>
    2b5c:	00e15b83          	lhu	s7,14(sp)
    2b60:	01f00c13          	li	s8,31
    2b64:	007b8b93          	addi	s7,s7,7
    2b68:	01711723          	sh	s7,14(sp)
    2b6c:	013c4c63          	blt	s8,s3,2b84 <.L1860>
    2b70:	04600b93          	li	s7,70
    2b74:	011bc463          	blt	s7,a7,2b7c <.L1856+0x2c>
    2b78:	2b10806f          	j	b628 <.L2815>
    2b7c:	03b00b93          	li	s7,59
    2b80:	006bd863          	bge	s7,t1,2b90 <.L1874>

00002b84 <.L1860>:
    2b84:	00815b83          	lhu	s7,8(sp)
    2b88:	ff9b8b93          	addi	s7,s7,-7
    2b8c:	01711423          	sh	s7,8(sp)

00002b90 <.L1874>:
    2b90:	ff900b93          	li	s7,-7
    2b94:	01764463          	blt	a2,s7,2b9c <.L1874+0xc>
    2b98:	5280506f          	j	80c0 <.L1876>
    2b9c:	1d800b93          	li	s7,472
    2ba0:	016bd463          	bge	s7,s6,2ba8 <.L1874+0x18>
    2ba4:	5250706f          	j	a8c8 <.L1877>
    2ba8:	00a15b83          	lhu	s7,10(sp)
    2bac:	ffdb8b93          	addi	s7,s7,-3
    2bb0:	01711523          	sh	s7,10(sp)

00002bb4 <.L1880>:
    2bb4:	fdb00b93          	li	s7,-37
    2bb8:	01774463          	blt	a4,s7,2bc0 <.L2872>
    2bbc:	5f10106f          	j	49ac <.L1882>

00002bc0 <.L2872>:
    2bc0:	01200b93          	li	s7,18
    2bc4:	010bd463          	bge	s7,a6,2bcc <.L2872+0xc>
    2bc8:	3b40406f          	j	6f7c <.L1883>
    2bcc:	00c15b83          	lhu	s7,12(sp)
    2bd0:	05800c13          	li	s8,88
    2bd4:	ff8b8b93          	addi	s7,s7,-8
    2bd8:	01711623          	sh	s7,12(sp)
    2bdc:	009c5463          	bge	s8,s1,2be4 <.L2872+0x24>
    2be0:	5540206f          	j	5134 <.L1884>
    2be4:	f5300b93          	li	s7,-173
    2be8:	01745463          	bge	s0,s7,2bf0 <.L1886>
    2bec:	7b40506f          	j	83a0 <.L1885>

00002bf0 <.L1886>:
    2bf0:	00e15b83          	lhu	s7,14(sp)
    2bf4:	003b8b93          	addi	s7,s7,3
    2bf8:	010b9b93          	slli	s7,s7,0x10
    2bfc:	410bdb93          	srai	s7,s7,0x10

00002c00 <.L1897>:
    2c00:	01711723          	sh	s7,14(sp)
    2c04:	07300b93          	li	s7,115
    2c08:	012bc463          	blt	s7,s2,2c10 <.L1900>
    2c0c:	6010106f          	j	4a0c <.L1894>

00002c10 <.L1900>:
    2c10:	00600b93          	li	s7,6
    2c14:	010bd463          	bge	s7,a6,2c1c <.L1900+0xc>
    2c18:	3a00406f          	j	6fb8 <.L1895>
    2c1c:	ffe00b93          	li	s7,-2
    2c20:	01784863          	blt	a6,s7,2c30 <.L1909>
    2c24:	00815b83          	lhu	s7,8(sp)
    2c28:	ff7b8b93          	addi	s7,s7,-9
    2c2c:	01711423          	sh	s7,8(sp)

00002c30 <.L1909>:
    2c30:	01e00b93          	li	s7,30
    2c34:	013bc463          	blt	s7,s3,2c3c <.L1909+0xc>
    2c38:	5f50106f          	j	4a2c <.L1912>
    2c3c:	efa00b93          	li	s7,-262
    2c40:	01745863          	bge	s0,s7,2c50 <.L1914>
    2c44:	00a15b83          	lhu	s7,10(sp)
    2c48:	009b8b93          	addi	s7,s7,9
    2c4c:	01711523          	sh	s7,10(sp)

00002c50 <.L1914>:
    2c50:	00100b93          	li	s7,1
    2c54:	01cbc463          	blt	s7,t3,2c5c <.L2495>
    2c58:	5f90106f          	j	4a50 <.L1916>

00002c5c <.L2495>:
    2c5c:	01f00b93          	li	s7,31
    2c60:	01dbc463          	blt	s7,t4,2c68 <.L2495+0xc>
    2c64:	4480206f          	j	50ac <.L1923>
    2c68:	11500b93          	li	s7,277
    2c6c:	00dbc463          	blt	s7,a3,2c74 <.L2495+0x18>
    2c70:	6d10206f          	j	5b40 <.L2651>
    2c74:	00c15b83          	lhu	s7,12(sp)
    2c78:	001b8b93          	addi	s7,s7,1
    2c7c:	010b9b93          	slli	s7,s7,0x10
    2c80:	410bdb93          	srai	s7,s7,0x10

00002c84 <.L1922>:
    2c84:	01711623          	sh	s7,12(sp)
    2c88:	ff600b93          	li	s7,-10
    2c8c:	01764463          	blt	a2,s7,2c94 <.L2873>
    2c90:	5ed0106f          	j	4a7c <.L1930>

00002c94 <.L2873>:
    2c94:	02800b93          	li	s7,40
    2c98:	01dbc463          	blt	s7,t4,2ca0 <.L2873+0xc>
    2c9c:	4300206f          	j	50cc <.L1931>
    2ca0:	03900b93          	li	s7,57
    2ca4:	01fbc463          	blt	s7,t6,2cac <.L2873+0x18>
    2ca8:	2ec0306f          	j	5f94 <.L2652>
    2cac:	00e15b83          	lhu	s7,14(sp)
    2cb0:	ffbb8b93          	addi	s7,s7,-5
    2cb4:	01711723          	sh	s7,14(sp)

00002cb8 <.L1927>:
    2cb8:	39000b93          	li	s7,912
    2cbc:	006bd463          	bge	s7,t1,2cc4 <.L2875>
    2cc0:	5ed0106f          	j	4aac <.L1939>

00002cc4 <.L2875>:
    2cc4:	0ba00b93          	li	s7,186
    2cc8:	012bd463          	bge	s7,s2,2cd0 <.L2875+0xc>
    2ccc:	6610406f          	j	7b2c <.L1940>
    2cd0:	0b700b93          	li	s7,183
    2cd4:	012bd863          	bge	s7,s2,2ce4 <.L1941>
    2cd8:	00815b83          	lhu	s7,8(sp)
    2cdc:	008b8b93          	addi	s7,s7,8
    2ce0:	01711423          	sh	s7,8(sp)

00002ce4 <.L1941>:
    2ce4:	e2400b93          	li	s7,-476
    2ce8:	0172c463          	blt	t0,s7,2cf0 <.L2876>
    2cec:	5e50106f          	j	4ad0 <.L1945>

00002cf0 <.L2876>:
    2cf0:	e0200b93          	li	s7,-510
    2cf4:	017ac463          	blt	s5,s7,2cfc <.L2876+0xc>
    2cf8:	2dc0406f          	j	6fd4 <.L1946>
    2cfc:	ff400b93          	li	s7,-12
    2d00:	01764463          	blt	a2,s7,2d08 <.L2876+0x18>
    2d04:	2ec0806f          	j	aff0 <.L1947>
    2d08:	00a15b83          	lhu	s7,10(sp)
    2d0c:	ffbb8b93          	addi	s7,s7,-5
    2d10:	010b9b93          	slli	s7,s7,0x10
    2d14:	410bdb93          	srai	s7,s7,0x10

00002d18 <.L1948>:
    2d18:	01711523          	sh	s7,10(sp)
    2d1c:	03c00b93          	li	s7,60
    2d20:	00fbc463          	blt	s7,a5,2d28 <.L1959>
    2d24:	5e50106f          	j	4b08 <.L1963>

00002d28 <.L1959>:
    2d28:	daa00b93          	li	s7,-598
    2d2c:	017ac463          	blt	s5,s7,2d34 <.L1959+0xc>
    2d30:	2d00406f          	j	7000 <.L1953>
    2d34:	ff300b93          	li	s7,-13
    2d38:	01764463          	blt	a2,s7,2d40 <.L1981>
    2d3c:	2d80806f          	j	b014 <.L1952>

00002d40 <.L1981>:
    2d40:	00c15b83          	lhu	s7,12(sp)
    2d44:	05800c13          	li	s8,88
    2d48:	006b8b93          	addi	s7,s7,6
    2d4c:	01711623          	sh	s7,12(sp)
    2d50:	009c4463          	blt	s8,s1,2d58 <.L1984>
    2d54:	5140506f          	j	8268 <.L1982>

00002d58 <.L1984>:
    2d58:	1a500b93          	li	s7,421
    2d5c:	007bd463          	bge	s7,t2,2d64 <.L1983>
    2d60:	6f40806f          	j	b454 <.L1990>

00002d64 <.L1983>:
    2d64:	00e15b83          	lhu	s7,14(sp)
    2d68:	001b8b93          	addi	s7,s7,1
    2d6c:	01711723          	sh	s7,14(sp)

00002d70 <.L1968>:
    2d70:	01500b93          	li	s7,21
    2d74:	007bd463          	bge	s7,t2,2d7c <.L1966>
    2d78:	6740406f          	j	73ec <.L1975>

00002d7c <.L1966>:
    2d7c:	07000b93          	li	s7,112
    2d80:	012bc863          	blt	s7,s2,2d90 <.L1972>
    2d84:	00815b83          	lhu	s7,8(sp)
    2d88:	007b8b93          	addi	s7,s7,7
    2d8c:	01711423          	sh	s7,8(sp)

00002d90 <.L1972>:
    2d90:	02e00b93          	li	s7,46
    2d94:	01dbc463          	blt	s7,t4,2d9c <.L2877>
    2d98:	5d10106f          	j	4b68 <.L1993>

00002d9c <.L2877>:
    2d9c:	03900b93          	li	s7,57
    2da0:	01fbc463          	blt	s7,t6,2da8 <.L2877+0xc>
    2da4:	54c0506f          	j	82f0 <.L1998>
    2da8:	03d00b93          	li	s7,61
    2dac:	00fbc463          	blt	s7,a5,2db4 <.L1999>
    2db0:	4950606f          	j	9a44 <.L2006>

00002db4 <.L1999>:
    2db4:	25b00b93          	li	s7,603
    2db8:	00ebd463          	bge	s7,a4,2dc0 <.L1999+0xc>
    2dbc:	4140106f          	j	41d0 <.L2004>
    2dc0:	0fe00b93          	li	s7,254
    2dc4:	00dbd463          	bge	s7,a3,2dcc <.L1999+0x18>
    2dc8:	3550506f          	j	891c <.L2008>
    2dcc:	f5600b93          	li	s7,-170
    2dd0:	017a4463          	blt	s4,s7,2dd8 <.L1999+0x24>
    2dd4:	2dc0506f          	j	80b0 <.L2009>
    2dd8:	00c15b83          	lhu	s7,12(sp)
    2ddc:	fffb8b93          	addi	s7,s7,-1
    2de0:	01711623          	sh	s7,12(sp)

00002de4 <.L2010>:
    2de4:	02700b93          	li	s7,39
    2de8:	007bd463          	bge	s7,t2,2df0 <.L2854>
    2dec:	4140106f          	j	4200 <.L2013>

00002df0 <.L2854>:
    2df0:	03d00b93          	li	s7,61
    2df4:	00fbd463          	bge	s7,a5,2dfc <.L2854+0xc>
    2df8:	1ec0506f          	j	7fe4 <.L2014>
    2dfc:	00e15b83          	lhu	s7,14(sp)
    2e00:	ff9b8b93          	addi	s7,s7,-7
    2e04:	010b9b93          	slli	s7,s7,0x10
    2e08:	410bdb93          	srai	s7,s7,0x10

00002e0c <.L2015>:
    2e0c:	01711723          	sh	s7,14(sp)
    2e10:	00400b93          	li	s7,4
    2e14:	011bd463          	bge	s7,a7,2e1c <.L2855>
    2e18:	4200106f          	j	4238 <.L2019>

00002e1c <.L2855>:
    2e1c:	03800b93          	li	s7,56
    2e20:	01fbd463          	bge	s7,t6,2e28 <.L2855+0xc>
    2e24:	1d40506f          	j	7ff8 <.L2020>
    2e28:	00815b83          	lhu	s7,8(sp)
    2e2c:	008b8b93          	addi	s7,s7,8
    2e30:	01711423          	sh	s7,8(sp)

00002e34 <.L2021>:
    2e34:	0f000b93          	li	s7,240
    2e38:	006bc463          	blt	s7,t1,2e40 <.L2856>
    2e3c:	42c0106f          	j	4268 <.L2029>

00002e40 <.L2856>:
    2e40:	f5200b93          	li	s7,-174
    2e44:	0175c463          	blt	a1,s7,2e4c <.L2856+0xc>
    2e48:	21c0506f          	j	8064 <.L2026>
    2e4c:	03700b93          	li	s7,55
    2e50:	01fbd463          	bge	s7,t6,2e58 <.L2856+0x18>
    2e54:	15d0806f          	j	b7b0 <.L2038>
    2e58:	00a15b83          	lhu	s7,10(sp)
    2e5c:	01500c13          	li	s8,21
    2e60:	ffeb8b93          	addi	s7,s7,-2
    2e64:	01711523          	sh	s7,10(sp)
    2e68:	010c5463          	bge	s8,a6,2e70 <.L2035>
    2e6c:	5d80206f          	j	5444 <.L2039>

00002e70 <.L2035>:
    2e70:	02200b93          	li	s7,34
    2e74:	011bc463          	blt	s7,a7,2e7c <.L2035+0xc>
    2e78:	1b80506f          	j	8030 <.L2040>
    2e7c:	00c15b83          	lhu	s7,12(sp)
    2e80:	001b8b93          	addi	s7,s7,1
    2e84:	010b9b93          	slli	s7,s7,0x10
    2e88:	410bdb93          	srai	s7,s7,0x10

00002e8c <.L2043>:
    2e8c:	01711623          	sh	s7,12(sp)
    2e90:	01c04463          	bgtz	t3,2e98 <.L2045>
    2e94:	42c0106f          	j	42c0 <.L2816>

00002e98 <.L2045>:
    2e98:	ff600b93          	li	s7,-10
    2e9c:	01764463          	blt	a2,s7,2ea4 <.L2045+0xc>
    2ea0:	6ad0506f          	j	8d4c <.L2817>
    2ea4:	02900b93          	li	s7,41
    2ea8:	01dbd463          	bge	s7,t4,2eb0 <.L2045+0x18>
    2eac:	38c0806f          	j	b238 <.L2818>
    2eb0:	00e15b83          	lhu	s7,14(sp)
    2eb4:	ffbb8b93          	addi	s7,s7,-5
    2eb8:	010b9b93          	slli	s7,s7,0x10
    2ebc:	410bdb93          	srai	s7,s7,0x10

00002ec0 <.L2058>:
    2ec0:	01711723          	sh	s7,14(sp)
    2ec4:	0a900b93          	li	s7,169
    2ec8:	01ebd463          	bge	s7,t5,2ed0 <.L2050>
    2ecc:	4140106f          	j	42e0 <.L2056>

00002ed0 <.L2050>:
    2ed0:	01c00b13          	li	s6,28
    2ed4:	00fb5463          	bge	s6,a5,2edc <.L2050+0xc>
    2ed8:	5b00206f          	j	5488 <.L2048>
    2edc:	07300b13          	li	s6,115
    2ee0:	01eb5463          	bge	s6,t5,2ee8 <.L2050+0x18>
    2ee4:	7190706f          	j	adfc <.L2069>
    2ee8:	00815b03          	lhu	s6,8(sp)
    2eec:	005b0b13          	addi	s6,s6,5
    2ef0:	01611423          	sh	s6,8(sp)

00002ef4 <.L2070>:
    2ef4:	08300b13          	li	s6,131
    2ef8:	009b5463          	bge	s6,s1,2f00 <.L2070+0xc>
    2efc:	12c0206f          	j	5028 <.L2073>
    2f00:	01900b13          	li	s6,25
    2f04:	013b4463          	blt	s6,s3,2f0c <.L2070+0x18>
    2f08:	4040106f          	j	430c <.L2076>
    2f0c:	00a15b03          	lhu	s6,10(sp)
    2f10:	02700b93          	li	s7,39
    2f14:	fffb0b13          	addi	s6,s6,-1
    2f18:	01611523          	sh	s6,10(sp)
    2f1c:	006bd463          	bge	s7,t1,2f24 <.L2074>
    2f20:	4040106f          	j	4324 <.L2075>

00002f24 <.L2074>:
    2f24:	ff800b13          	li	s6,-8
    2f28:	01665463          	bge	a2,s6,2f30 <.L2092>
    2f2c:	16c0406f          	j	7098 <.L2089>

00002f30 <.L2092>:
    2f30:	00c15b03          	lhu	s6,12(sp)
    2f34:	ffeb0b13          	addi	s6,s6,-2
    2f38:	010b1b13          	slli	s6,s6,0x10
    2f3c:	410b5b13          	srai	s6,s6,0x10

00002f40 <.L2082>:
    2f40:	01611623          	sh	s6,12(sp)
    2f44:	c5700b13          	li	s6,-937
    2f48:	0165c463          	blt	a1,s6,2f50 <.L2858>
    2f4c:	40c0106f          	j	4358 <.L2094>

00002f50 <.L2858>:
    2f50:	00e15b03          	lhu	s6,14(sp)
    2f54:	006b0b13          	addi	s6,s6,6
    2f58:	01611723          	sh	s6,14(sp)

00002f5c <.L2095>:
    2f5c:	01e00b13          	li	s6,30
    2f60:	013b5463          	bge	s6,s3,2f68 <.L2095+0xc>
    2f64:	7d10106f          	j	4f34 <.L2108>
    2f68:	03d00b13          	li	s6,61
    2f6c:	01fb4463          	blt	s6,t6,2f74 <.L2095+0x18>
    2f70:	1440606f          	j	90b4 <.L2819>
    2f74:	07100b13          	li	s6,113
    2f78:	012b5463          	bge	s6,s2,2f80 <.L2095+0x24>
    2f7c:	1640706f          	j	a0e0 <.L2111>
    2f80:	00815b03          	lhu	s6,8(sp)
    2f84:	02e00b93          	li	s7,46
    2f88:	009b0b13          	addi	s6,s6,9
    2f8c:	01611423          	sh	s6,8(sp)
    2f90:	01dbc463          	blt	s7,t4,2f98 <.L2112>
    2f94:	4040106f          	j	4398 <.L2099>

00002f98 <.L2112>:
    2f98:	02b00b13          	li	s6,43
    2f9c:	011b5463          	bge	s6,a7,2fa4 <.L2112+0xc>
    2fa0:	65c0606f          	j	95fc <.L2121>
    2fa4:	00a15b03          	lhu	s6,10(sp)
    2fa8:	008b0b13          	addi	s6,s6,8
    2fac:	01611523          	sh	s6,10(sp)

00002fb0 <.L2115>:
    2fb0:	25b00b13          	li	s6,603
    2fb4:	00eb4463          	blt	s6,a4,2fbc <.L2860>
    2fb8:	4100106f          	j	43c8 <.L2120>

00002fbc <.L2860>:
    2fbc:	fe900b13          	li	s6,-23
    2fc0:	01664463          	blt	a2,s6,2fc8 <.L2860+0xc>
    2fc4:	0850406f          	j	7848 <.L2117>
    2fc8:	dde00b13          	li	s6,-546
    2fcc:	016a4463          	blt	s4,s6,2fd4 <.L2860+0x18>
    2fd0:	4610706f          	j	ac30 <.L2129>
    2fd4:	00c15b03          	lhu	s6,12(sp)
    2fd8:	005b0b13          	addi	s6,s6,5
    2fdc:	01611623          	sh	s6,12(sp)

00002fe0 <.L2124>:
    2fe0:	02600b13          	li	s6,38
    2fe4:	00db5463          	bge	s6,a3,2fec <.L2862>
    2fe8:	4100106f          	j	43f8 <.L2128>

00002fec <.L2862>:
    2fec:	01300b13          	li	s6,19
    2ff0:	00db5463          	bge	s6,a3,2ff8 <.L2862+0xc>
    2ff4:	6f80506f          	j	86ec <.L2127>
    2ff8:	08400b13          	li	s6,132
    2ffc:	007b5463          	bge	s6,t2,3004 <.L2862+0x18>
    3000:	7080406f          	j	7708 <.L2661>
    3004:	00e15b03          	lhu	s6,14(sp)
    3008:	00400b93          	li	s7,4
    300c:	003b0b13          	addi	s6,s6,3
    3010:	01611723          	sh	s6,14(sp)
    3014:	011bc463          	blt	s7,a7,301c <.L2862+0x30>
    3018:	7040206f          	j	571c <.L2148>
    301c:	ff800b13          	li	s6,-8
    3020:	296652e3          	bge	a2,s6,3aa4 <.L2154>

00003024 <.L2134>:
    3024:	01f00b13          	li	s6,31
    3028:	011b5463          	bge	s6,a7,3030 <.L2134+0xc>
    302c:	6440406f          	j	7670 <.L2820>
    3030:	00815b03          	lhu	s6,8(sp)
    3034:	002b0b13          	addi	s6,s6,2
    3038:	010b1b13          	slli	s6,s6,0x10
    303c:	410b5b13          	srai	s6,s6,0x10

00003040 <.L2135>:
    3040:	01611423          	sh	s6,8(sp)
    3044:	03b00b13          	li	s6,59
    3048:	26fb4ce3          	blt	s6,a5,3ac0 <.L2146>

0000304c <.L2834>:
    304c:	33f00b13          	li	s6,831
    3050:	00eb5463          	bge	s6,a4,3058 <.L2834+0xc>
    3054:	6400406f          	j	7694 <.L2149>
    3058:	01400b13          	li	s6,20
    305c:	011b4463          	blt	s6,a7,3064 <.L2153>
    3060:	6ec0206f          	j	574c <.L2151>

00003064 <.L2153>:
    3064:	00a15b03          	lhu	s6,10(sp)
    3068:	ffcb0b13          	addi	s6,s6,-4
    306c:	010b1b13          	slli	s6,s6,0x10
    3070:	410b5b13          	srai	s6,s6,0x10
    3074:	01611523          	sh	s6,10(sp)
    3078:	fdb00b13          	li	s6,-37
    307c:	01675463          	bge	a4,s6,3084 <.L2179>
    3080:	6ec0206f          	j	576c <.L2821>

00003084 <.L2179>:
    3084:	02600b13          	li	s6,38
    3088:	00eb5463          	bge	s6,a4,3090 <.L2179+0xc>
    308c:	6200406f          	j	76ac <.L2156>
    3090:	03c00b13          	li	s6,60
    3094:	00db5863          	bge	s6,a3,30a4 <.L2164>

00003098 <.L2171>:
    3098:	00c15683          	lhu	a3,12(sp)
    309c:	00668693          	addi	a3,a3,6
    30a0:	00d11623          	sh	a3,12(sp)

000030a4 <.L2164>:
    30a4:	03100693          	li	a3,49
    30a8:	00f6d463          	bge	a3,a5,30b0 <.L2894>
    30ac:	6e40206f          	j	5790 <.L2170>

000030b0 <.L2894>:
    30b0:	00e15683          	lhu	a3,14(sp)
    30b4:	ffa68693          	addi	a3,a3,-6
    30b8:	01069693          	slli	a3,a3,0x10
    30bc:	4106d693          	srai	a3,a3,0x10

000030c0 <.L2183>:
    30c0:	00d11723          	sh	a3,14(sp)
    30c4:	0a900b13          	li	s6,169
    30c8:	27eb42e3          	blt	s6,t5,3b2c <.L2187>

000030cc <.L2835>:
    30cc:	000e5463          	bgez	t3,30d4 <.L2835+0x8>
    30d0:	7650506f          	j	9034 <.L2822>
    30d4:	02d00f13          	li	t5,45
    30d8:	01ff5463          	bge	t5,t6,30e0 <.L2835+0x14>
    30dc:	3c00606f          	j	949c <.L2190>
    30e0:	00815f03          	lhu	t5,8(sp)
    30e4:	ffef0f13          	addi	t5,t5,-2
    30e8:	01e11423          	sh	t5,8(sp)

000030ec <.L2189>:
    30ec:	ef600f13          	li	t5,-266
    30f0:	27ead2e3          	bge	s5,t5,3b54 <.L2193>

000030f4 <.L2836>:
    30f4:	ff800f13          	li	t5,-8
    30f8:	01e64463          	blt	a2,t5,3100 <.L2836+0xc>
    30fc:	7450306f          	j	7040 <.L2194>
    3100:	01c51e83          	lh	t4,28(a0)
    3104:	01e00513          	li	a0,30
    3108:	01d55463          	bge	a0,t4,3110 <.L2836+0x1c>
    310c:	3e00706f          	j	a4ec <.L2195>
    3110:	00a15503          	lhu	a0,10(sp)
    3114:	00250513          	addi	a0,a0,2
    3118:	01051513          	slli	a0,a0,0x10
    311c:	41055513          	srai	a0,a0,0x10

00003120 <.L2196>:
    3120:	00a11523          	sh	a0,10(sp)
    3124:	25b00513          	li	a0,603
    3128:	26e540e3          	blt	a0,a4,3b88 <.L2205>

0000312c <.L2201>:
    312c:	00e00513          	li	a0,14
    3130:	01055463          	bge	a0,a6,3138 <.L2201+0xc>
    3134:	4d00406f          	j	7604 <.L2823>
    3138:	f6300513          	li	a0,-157
    313c:	00a5c463          	blt	a1,a0,3144 <.L2201+0x18>
    3140:	7410706f          	j	b080 <.L2206>
    3144:	00c15503          	lhu	a0,12(sp)
    3148:	ffc50513          	addi	a0,a0,-4
    314c:	01051513          	slli	a0,a0,0x10
    3150:	41055513          	srai	a0,a0,0x10

00003154 <.L2207>:
    3154:	00a11623          	sh	a0,12(sp)
    3158:	02800513          	li	a0,40
    315c:	00755463          	bge	a0,t2,3164 <.L2207+0x10>
    3160:	47c0206f          	j	55dc <.L2209>
    3164:	03c00513          	li	a0,60
    3168:	00f54463          	blt	a0,a5,3170 <.L2210>
    316c:	4b80406f          	j	7624 <.L2224>

00003170 <.L2210>:
    3170:	f7a00693          	li	a3,-134
    3174:	26da42e3          	blt	s4,a3,3bd8 <.L2824>

00003178 <.L2218>:
    3178:	00b00693          	li	a3,11
    317c:	0136d463          	bge	a3,s3,3184 <.L2218+0xc>
    3180:	3b10306f          	j	6d30 <.L2234>
    3184:	19f00693          	li	a3,415
    3188:	0126d463          	bge	a3,s2,3190 <.L2218+0x18>
    318c:	3ac0706f          	j	a538 <.L2235>
    3190:	00815683          	lhu	a3,8(sp)
    3194:	00868693          	addi	a3,a3,8
    3198:	01069693          	slli	a3,a3,0x10
    319c:	4106d693          	srai	a3,a3,0x10

000031a0 <.L2236>:
    31a0:	00d11423          	sh	a3,8(sp)

000031a4 <.L2233>:
    31a4:	03300693          	li	a3,51
    31a8:	25f6cee3          	blt	a3,t6,3c04 <.L2238>

000031ac <.L2838>:
    31ac:	11700693          	li	a3,279
    31b0:	00e6d463          	bge	a3,a4,31b8 <.L2838+0xc>
    31b4:	3780106f          	j	452c <.L2214>
    31b8:	ffe00713          	li	a4,-2
    31bc:	00e84463          	blt	a6,a4,31c4 <.L2838+0x18>
    31c0:	7280706f          	j	a8e8 <.L2239>
    31c4:	00a15703          	lhu	a4,10(sp)
    31c8:	f5b00693          	li	a3,-165
    31cc:	fff70713          	addi	a4,a4,-1
    31d0:	00e11523          	sh	a4,10(sp)
    31d4:	00d2c463          	blt	t0,a3,31dc <.L2669>
    31d8:	3780106f          	j	4550 <.L2240>

000031dc <.L2669>:
    31dc:	f5600793          	li	a5,-170
    31e0:	00fa4463          	blt	s4,a5,31e8 <.L2243>
    31e4:	2c00406f          	j	74a4 <.L2241>

000031e8 <.L2243>:
    31e8:	00c15783          	lhu	a5,12(sp)
    31ec:	ffe78793          	addi	a5,a5,-2
    31f0:	01079793          	slli	a5,a5,0x10
    31f4:	4107d793          	srai	a5,a5,0x10

000031f8 <.L2242>:
    31f8:	c0000713          	li	a4,-1024
    31fc:	26e5d4e3          	bge	a1,a4,3c64 <.L2249>

00003200 <.L2839>:
    3200:	00e15703          	lhu	a4,14(sp)
    3204:	00670713          	addi	a4,a4,6
    3208:	00e11723          	sh	a4,14(sp)

0000320c <.L2250>:
    320c:	cc817057          	vsetivli	zero,2,e16,m1,ta,ma
    3210:	00810693          	addi	a3,sp,8
    3214:	0206d087          	vle16.v	v1,(a3)
    3218:	02000713          	li	a4,32
    321c:	5e074157          	vmv.v.x	v2,a4
    3220:	00e15703          	lhu	a4,14(sp)
    3224:	02078793          	addi	a5,a5,32
    3228:	01079793          	slli	a5,a5,0x10
    322c:	021100d7          	vadd.vv	v1,v1,v2
    3230:	02070713          	addi	a4,a4,32
    3234:	01071713          	slli	a4,a4,0x10
    3238:	3e10b157          	vslidedown.vi	v2,v1,1
    323c:	42102557          	vmv.x.s	a0,v1
    3240:	0206d0a7          	vse16.v	v1,(a3)
    3244:	42202657          	vmv.x.s	a2,v2
    3248:	01051513          	slli	a0,a0,0x10
    324c:	01061613          	slli	a2,a2,0x10
    3250:	41065613          	srai	a2,a2,0x10
    3254:	41055513          	srai	a0,a0,0x10
    3258:	00c52533          	slt	a0,a0,a2
    325c:	4107d793          	srai	a5,a5,0x10
    3260:	41075713          	srai	a4,a4,0x10
    3264:	00151613          	slli	a2,a0,0x1
    3268:	00f11623          	sh	a5,12(sp)
    326c:	00c685b3          	add	a1,a3,a2
    3270:	00e11723          	sh	a4,14(sp)
    3274:	00059583          	lh	a1,0(a1)
    3278:	00f5d663          	bge	a1,a5,3284 <.L2252>
    327c:	00200513          	li	a0,2
    3280:	00400613          	li	a2,4

00003284 <.L2252>:
    3284:	00c686b3          	add	a3,a3,a2
    3288:	00069783          	lh	a5,0(a3)
    328c:	00e7d463          	bge	a5,a4,3294 <.L2540>
    3290:	00300513          	li	a0,3

00003294 <.L2540>:
    3294:	03c12403          	lw	s0,60(sp)
    3298:	03812483          	lw	s1,56(sp)
    329c:	03412903          	lw	s2,52(sp)
    32a0:	03012983          	lw	s3,48(sp)
    32a4:	02c12a03          	lw	s4,44(sp)
    32a8:	02812a83          	lw	s5,40(sp)
    32ac:	02412b03          	lw	s6,36(sp)
    32b0:	02012b83          	lw	s7,32(sp)
    32b4:	01c12c03          	lw	s8,28(sp)
    32b8:	01812c83          	lw	s9,24(sp)
    32bc:	04010113          	addi	sp,sp,64
    32c0:	00008067          	ret

000032c4 <.L934>:
    32c4:	00e15b83          	lhu	s7,14(sp)
    32c8:	ffab8b93          	addi	s7,s7,-6
    32cc:	01711723          	sh	s7,14(sp)
    32d0:	e99fd06f          	j	1168 <.L940>

000032d4 <.L712>:
    32d4:	00e15b83          	lhu	s7,14(sp)
    32d8:	0a900c13          	li	s8,169
    32dc:	00cb8b93          	addi	s7,s7,12
    32e0:	01711723          	sh	s7,14(sp)
    32e4:	01ec4463          	blt	s8,t5,32ec <.L712+0x18>
    32e8:	1250306f          	j	6c0c <.L2729>
    32ec:	10700b93          	li	s7,263
    32f0:	007bd463          	bge	s7,t2,32f8 <.L714>
    32f4:	75c0806f          	j	ba50 <.L2533>

000032f8 <.L714>:
    32f8:	00815b83          	lhu	s7,8(sp)
    32fc:	ffcb8b93          	addi	s7,s7,-4
    3300:	01711423          	sh	s7,8(sp)
    3304:	b5dfd06f          	j	e60 <.L715>

00003308 <.L348>:
    3308:	ff700b93          	li	s7,-9
    330c:	01764463          	blt	a2,s7,3314 <.L348+0xc>
    3310:	3c10306f          	j	6ed0 <.L360>
    3314:	03100b93          	li	s7,49
    3318:	01dbd463          	bge	s7,t4,3320 <.L348+0x18>
    331c:	2dd0306f          	j	6df8 <.L361>
    3320:	00a15b83          	lhu	s7,10(sp)
    3324:	17000c13          	li	s8,368
    3328:	ffab8b93          	addi	s7,s7,-6
    332c:	01711523          	sh	s7,10(sp)
    3330:	00dc5463          	bge	s8,a3,3338 <.L353>
    3334:	2dd0306f          	j	6e10 <.L362>

00003338 <.L353>:
    3338:	01200b93          	li	s7,18
    333c:	01dbd463          	bge	s7,t4,3344 <.L353+0xc>
    3340:	4140706f          	j	a754 <.L363>
    3344:	00c15b83          	lhu	s7,12(sp)
    3348:	006b8b93          	addi	s7,s7,6
    334c:	010b9b93          	slli	s7,s7,0x10
    3350:	410bdb93          	srai	s7,s7,0x10
    3354:	01711623          	sh	s7,12(sp)
    3358:	e9900b93          	li	s7,-359
    335c:	0175c463          	blt	a1,s7,3364 <.L368>
    3360:	cf4fd06f          	j	854 <.L372>

00003364 <.L368>:
    3364:	20200b93          	li	s7,514
    3368:	016bd463          	bge	s7,s6,3370 <.L368+0xc>
    336c:	1c40506f          	j	8530 <.L373>
    3370:	df000b93          	li	s7,-528
    3374:	0172c463          	blt	t0,s7,337c <.L368+0x18>
    3378:	2490606f          	j	9dc0 <.L374>
    337c:	00e15b83          	lhu	s7,14(sp)
    3380:	ff7b8b93          	addi	s7,s7,-9
    3384:	010b9b93          	slli	s7,s7,0x10
    3388:	410bdb93          	srai	s7,s7,0x10
    338c:	01711723          	sh	s7,14(sp)
    3390:	0a900b93          	li	s7,169
    3394:	01ebc463          	blt	s7,t5,339c <.L378>
    3398:	cf4fd06f          	j	88c <.L2825>

0000339c <.L378>:
    339c:	ea900b93          	li	s7,-343
    33a0:	017a4463          	blt	s4,s7,33a8 <.L378+0xc>
    33a4:	3490406f          	j	7eec <.L393>
    33a8:	00d00b93          	li	s7,13
    33ac:	013bd463          	bge	s7,s3,33b4 <.L378+0x18>
    33b0:	6e40606f          	j	9a94 <.L394>
    33b4:	00815b83          	lhu	s7,8(sp)
    33b8:	ffdb8b93          	addi	s7,s7,-3
    33bc:	010b9b93          	slli	s7,s7,0x10
    33c0:	410bdb93          	srai	s7,s7,0x10

000033c4 <.L395>:
    33c4:	01711423          	sh	s7,8(sp)
    33c8:	0b500b93          	li	s7,181
    33cc:	006bd463          	bge	s7,t1,33d4 <.L2928>
    33d0:	3490406f          	j	7f18 <.L397>

000033d4 <.L2928>:
    33d4:	00a00b93          	li	s7,10
    33d8:	011bc463          	blt	s7,a7,33e0 <.L2928+0xc>
    33dc:	4880306f          	j	6864 <.L382>
    33e0:	18f00b93          	li	s7,399
    33e4:	01ebc463          	blt	s7,t5,33ec <.L2928+0x18>
    33e8:	ce0fd06f          	j	8c8 <.L388>
    33ec:	00a15b83          	lhu	s7,10(sp)
    33f0:	ffdb8b93          	addi	s7,s7,-3
    33f4:	010b9b93          	slli	s7,s7,0x10
    33f8:	410bdb93          	srai	s7,s7,0x10
    33fc:	01711523          	sh	s7,10(sp)
    3400:	06300b93          	li	s7,99
    3404:	00dbc463          	blt	s7,a3,340c <.L400>
    3408:	ce0fd06f          	j	8e8 <.L2826>

0000340c <.L400>:
    340c:	ff700b93          	li	s7,-9
    3410:	01764463          	blt	a2,s7,3418 <.L400+0xc>
    3414:	1b50406f          	j	7dc8 <.L408>
    3418:	03300b93          	li	s7,51
    341c:	01dbc463          	blt	s7,t4,3424 <.L400+0x18>
    3420:	1950406f          	j	7db4 <.L410>
    3424:	00c15b83          	lhu	s7,12(sp)
    3428:	ffdb8b93          	addi	s7,s7,-3
    342c:	010b9b93          	slli	s7,s7,0x10
    3430:	410bdb93          	srai	s7,s7,0x10
    3434:	01711623          	sh	s7,12(sp)
    3438:	03b00b93          	li	s7,59
    343c:	00fbc463          	blt	s7,a5,3444 <.L411>
    3440:	ce0fd06f          	j	920 <.L2827>

00003444 <.L411>:
    3444:	e4700b93          	li	s7,-441
    3448:	0172c463          	blt	t0,s7,3450 <.L411+0xc>
    344c:	5180306f          	j	6964 <.L407>
    3450:	bf300b93          	li	s7,-1037
    3454:	0175c463          	blt	a1,s7,345c <.L411+0x18>
    3458:	4940306f          	j	68ec <.L406>
    345c:	00e15b83          	lhu	s7,14(sp)
    3460:	00ab8b93          	addi	s7,s7,10
    3464:	010b9b93          	slli	s7,s7,0x10
    3468:	410bdb93          	srai	s7,s7,0x10
    346c:	01711723          	sh	s7,14(sp)
    3470:	0a900b93          	li	s7,169
    3474:	01ebc463          	blt	s7,t5,347c <.L415>
    3478:	cd4fd06f          	j	94c <.L2828>

0000347c <.L415>:
    347c:	01e00b93          	li	s7,30
    3480:	013bd463          	bge	s7,s3,3488 <.L415+0xc>
    3484:	1240506f          	j	85a8 <.L422>
    3488:	ea900b93          	li	s7,-343
    348c:	017a4463          	blt	s4,s7,3494 <.L415+0x18>
    3490:	2480606f          	j	96d8 <.L423>
    3494:	00815b83          	lhu	s7,8(sp)
    3498:	ffbb8b93          	addi	s7,s7,-5
    349c:	010b9b93          	slli	s7,s7,0x10
    34a0:	410bdb93          	srai	s7,s7,0x10
    34a4:	01711423          	sh	s7,8(sp)
    34a8:	03900b93          	li	s7,57
    34ac:	00ebc463          	blt	s7,a4,34b4 <.L424>
    34b0:	cd8fd06f          	j	988 <.L2829>

000034b4 <.L424>:
    34b4:	08c00b93          	li	s7,140
    34b8:	006bd463          	bge	s7,t1,34c0 <.L424+0xc>
    34bc:	0ac0306f          	j	6568 <.L435>
    34c0:	00a00b93          	li	s7,10
    34c4:	011bd463          	bge	s7,a7,34cc <.L424+0x18>
    34c8:	2dc0606f          	j	97a4 <.L436>
    34cc:	00a15b83          	lhu	s7,10(sp)
    34d0:	008b8b93          	addi	s7,s7,8
    34d4:	010b9b93          	slli	s7,s7,0x10
    34d8:	410bdb93          	srai	s7,s7,0x10

000034dc <.L437>:
    34dc:	01711523          	sh	s7,10(sp)
    34e0:	06300b93          	li	s7,99
    34e4:	16dbde63          	bge	s7,a3,3660 <.L432>
    34e8:	ed000b93          	li	s7,-304
    34ec:	017ac463          	blt	s5,s7,34f4 <.L437+0x18>
    34f0:	59d0206f          	j	628c <.L430>
    34f4:	25b00b93          	li	s7,603
    34f8:	00ebc463          	blt	s7,a4,3500 <.L437+0x24>
    34fc:	cc8fd06f          	j	9c4 <.L433>
    3500:	00c15b83          	lhu	s7,12(sp)
    3504:	e2500c13          	li	s8,-475
    3508:	ffeb8b93          	addi	s7,s7,-2
    350c:	01711623          	sh	s7,12(sp)
    3510:	01845463          	bge	s0,s8,3518 <.L447>
    3514:	cd0fd06f          	j	9e4 <.L446>

00003518 <.L447>:
    3518:	03d00b93          	li	s7,61
    351c:	01fbd463          	bge	s7,t6,3524 <.L447+0xc>
    3520:	0a10706f          	j	adc0 <.L455>
    3524:	00e15b83          	lhu	s7,14(sp)
    3528:	ff8b8b93          	addi	s7,s7,-8
    352c:	010b9b93          	slli	s7,s7,0x10
    3530:	410bdb93          	srai	s7,s7,0x10

00003534 <.L454>:
    3534:	01711723          	sh	s7,14(sp)
    3538:	f5c00b93          	li	s7,-164
    353c:	01745463          	bge	s0,s7,3544 <.L454+0x10>
    3540:	cc8fd06f          	j	a08 <.L451>
    3544:	0bb00b93          	li	s7,187
    3548:	012bd463          	bge	s7,s2,3550 <.L454+0x1c>
    354c:	7f50206f          	j	6540 <.L462>
    3550:	18500b93          	li	s7,389
    3554:	009bd463          	bge	s7,s1,355c <.L454+0x28>
    3558:	1cc0606f          	j	9724 <.L463>
    355c:	00815b83          	lhu	s7,8(sp)
    3560:	0b500c13          	li	s8,181
    3564:	009b8b93          	addi	s7,s7,9
    3568:	01711423          	sh	s7,8(sp)
    356c:	006c4463          	blt	s8,t1,3574 <.L472>
    3570:	cd0fd06f          	j	a40 <.L465>

00003574 <.L472>:
    3574:	01300b93          	li	s7,19
    3578:	00ebd463          	bge	s7,a4,3580 <.L472+0xc>
    357c:	3840306f          	j	6900 <.L474>
    3580:	00a15b83          	lhu	s7,10(sp)
    3584:	2be00c13          	li	s8,702
    3588:	ffab8b93          	addi	s7,s7,-6
    358c:	01711523          	sh	s7,10(sp)
    3590:	00dc4463          	blt	s8,a3,3598 <.L472+0x24>
    3594:	3900306f          	j	6924 <.L475>
    3598:	e4e00b93          	li	s7,-434
    359c:	017ac463          	blt	s5,s7,35a4 <.L2571>
    35a0:	4d80806f          	j	ba78 <.L2572>

000035a4 <.L2571>:
    35a4:	00c15b83          	lhu	s7,12(sp)
    35a8:	00bb8b93          	addi	s7,s7,11
    35ac:	01711623          	sh	s7,12(sp)
    35b0:	41d0506f          	j	91cc <.L498>

000035b4 <.L2730>:
    35b4:	01fbd463          	bge	s7,t6,35bc <.L2730+0x8>
    35b8:	3d10606f          	j	a188 <.L1070>
    35bc:	08d00b93          	li	s7,141
    35c0:	00dbd463          	bge	s7,a3,35c8 <.L2730+0x14>
    35c4:	0090806f          	j	bdcc <.L1065>
    35c8:	00e15b83          	lhu	s7,14(sp)
    35cc:	ffe00c13          	li	s8,-2
    35d0:	004b8b93          	addi	s7,s7,4
    35d4:	01711723          	sh	s7,14(sp)
    35d8:	01884463          	blt	a6,s8,35e0 <.L1064>
    35dc:	d7dfd06f          	j	1358 <.L1062>

000035e0 <.L1064>:
    35e0:	de600b93          	li	s7,-538
    35e4:	017a4463          	blt	s4,s7,35ec <.L1064+0xc>
    35e8:	0a50806f          	j	be8c <.L1084>
    35ec:	00815b83          	lhu	s7,8(sp)
    35f0:	30000c13          	li	s8,768
    35f4:	ffab8b93          	addi	s7,s7,-6
    35f8:	01711423          	sh	s7,8(sp)
    35fc:	01ec4463          	blt	s8,t5,3604 <.L1086>
    3600:	d81fd06f          	j	1380 <.L1085>

00003604 <.L1086>:
    3604:	01c51c03          	lh	s8,28(a0)
    3608:	fdf00b93          	li	s7,-33
    360c:	017c4463          	blt	s8,s7,3614 <.L1086+0x10>
    3610:	5950106f          	j	53a4 <.L1100>
    3614:	04900b93          	li	s7,73
    3618:	011bc463          	blt	s7,a7,3620 <.L1086+0x1c>
    361c:	a39fe06f          	j	2054 <.L1104>
    3620:	08600b93          	li	s7,134
    3624:	01dbd463          	bge	s7,t4,362c <.L2258>
    3628:	0450406f          	j	7e6c <.L1110>

0000362c <.L2258>:
    362c:	e4a00b93          	li	s7,-438
    3630:	0172c463          	blt	t0,s7,3638 <.L2258+0xc>
    3634:	a41fe06f          	j	2074 <.L1112>
    3638:	5b50106f          	j	53ec <.L1115>

0000363c <.L425>:
    363c:	42700b93          	li	s7,1063
    3640:	007bd463          	bge	s7,t2,3648 <.L425+0xc>
    3644:	2080606f          	j	984c <.L434>
    3648:	00a15b83          	lhu	s7,10(sp)
    364c:	06300c13          	li	s8,99
    3650:	ff7b8b93          	addi	s7,s7,-9
    3654:	01711523          	sh	s7,10(sp)
    3658:	00dc5463          	bge	s8,a3,3660 <.L432>
    365c:	b5cfd06f          	j	9b8 <.L427>

00003660 <.L432>:
    3660:	f2100b93          	li	s7,-223
    3664:	0175c463          	blt	a1,s7,366c <.L432+0xc>
    3668:	4850206f          	j	62ec <.L2830>
    366c:	23000b93          	li	s7,560
    3670:	01ebd463          	bge	s7,t5,3678 <.L432+0x18>
    3674:	24c0606f          	j	98c0 <.L440>
    3678:	00c15b83          	lhu	s7,12(sp)
    367c:	ff7b8b93          	addi	s7,s7,-9
    3680:	010b9b93          	slli	s7,s7,0x10
    3684:	410bdb93          	srai	s7,s7,0x10
    3688:	01711623          	sh	s7,12(sp)
    368c:	e2500b93          	li	s7,-475
    3690:	01745463          	bge	s0,s7,3698 <.L443>
    3694:	b50fd06f          	j	9e4 <.L446>

00003698 <.L443>:
    3698:	03800b93          	li	s7,56
    369c:	e6ebcee3          	blt	s7,a4,3518 <.L447>
    36a0:	03a00b93          	li	s7,58
    36a4:	00fbd463          	bge	s7,a5,36ac <.L443+0x14>
    36a8:	4e10606f          	j	a388 <.L453>
    36ac:	00e15b83          	lhu	s7,14(sp)
    36b0:	ff9b8b93          	addi	s7,s7,-7
    36b4:	010b9b93          	slli	s7,s7,0x10
    36b8:	410bdb93          	srai	s7,s7,0x10
    36bc:	e79ff06f          	j	3534 <.L454>

000036c0 <.L192>:
    36c0:	00e15e03          	lhu	t3,14(sp)
    36c4:	0d900b93          	li	s7,217
    36c8:	002e0e13          	addi	t3,t3,2
    36cc:	01c11723          	sh	t3,14(sp)
    36d0:	01ebd463          	bge	s7,t5,36d8 <.L194>
    36d4:	f95fc06f          	j	668 <.L2356>

000036d8 <.L194>:
    36d8:	01a00e13          	li	t3,26
    36dc:	010e5463          	bge	t3,a6,36e4 <.L194+0xc>
    36e0:	42d0406f          	j	830c <.L206>
    36e4:	0da00e13          	li	t3,218
    36e8:	012e4463          	blt	t3,s2,36f0 <.L194+0x18>
    36ec:	0750606f          	j	9f60 <.L207>
    36f0:	08000e13          	li	t3,128
    36f4:	00ee4463          	blt	t3,a4,36fc <.L2556>
    36f8:	f95fc06f          	j	68c <.L215>

000036fc <.L2556>:
    36fc:	03d00e13          	li	t3,61
    3700:	00fe4463          	blt	t3,a5,3708 <.L213>
    3704:	51d0506f          	j	9420 <.L211>

00003708 <.L213>:
    3708:	00a15e03          	lhu	t3,10(sp)
    370c:	08c00b93          	li	s7,140
    3710:	ff7e0e13          	addi	t3,t3,-9
    3714:	01c11523          	sh	t3,10(sp)
    3718:	00dbd463          	bge	s7,a3,3720 <.L249>
    371c:	2310206f          	j	614c <.L2726>

00003720 <.L249>:
    3720:	01c51b83          	lh	s7,28(a0)
    3724:	03b00e13          	li	t3,59
    3728:	017e5463          	bge	t3,s7,3730 <.L249+0x10>
    372c:	0080806f          	j	b734 <.L260>
    3730:	00c15e03          	lhu	t3,12(sp)
    3734:	ff7e0e13          	addi	t3,t3,-9
    3738:	01c11623          	sh	t3,12(sp)

0000373c <.L259>:
    373c:	1e500e13          	li	t3,485
    3740:	01ee5463          	bge	t3,t5,3748 <.L259+0xc>
    3744:	3f10406f          	j	8334 <.L277>
    3748:	ec100e13          	li	t3,-319
    374c:	01c44463          	blt	s0,t3,3754 <.L259+0x18>
    3750:	5700606f          	j	9cc0 <.L278>
    3754:	00e15e03          	lhu	t3,14(sp)
    3758:	00ce0e13          	addi	t3,t3,12
    375c:	010e1e13          	slli	t3,t3,0x10
    3760:	410e5e13          	srai	t3,t3,0x10
    3764:	01c11723          	sh	t3,14(sp)
    3768:	efb00e13          	li	t3,-261
    376c:	01ca5463          	bge	s4,t3,3774 <.L280>
    3770:	fb1fc06f          	j	720 <.L2831>

00003774 <.L280>:
    3774:	01f00e13          	li	t3,31
    3778:	013e5463          	bge	t3,s3,3780 <.L280+0xc>
    377c:	13d0306f          	j	70b8 <.L302>
    3780:	0d800e13          	li	t3,216
    3784:	012e5463          	bge	t3,s2,378c <.L280+0x18>
    3788:	34c0706f          	j	aad4 <.L303>
    378c:	00815e03          	lhu	t3,8(sp)
    3790:	00be0e13          	addi	t3,t3,11
    3794:	010e1e13          	slli	t3,t3,0x10
    3798:	410e5e13          	srai	t3,t3,0x10

0000379c <.L304>:
    379c:	01c11423          	sh	t3,8(sp)
    37a0:	2df00e13          	li	t3,735
    37a4:	00ee4463          	blt	t3,a4,37ac <.L304+0x10>
    37a8:	50c0206f          	j	5cb4 <.L305>
    37ac:	00001e37          	lui	t3,0x1
    37b0:	bace0e13          	addi	t3,t3,-1108 # bac <.L552+0x4>
    37b4:	00de5463          	bge	t3,a3,37bc <.L304+0x20>
    37b8:	2140306f          	j	69cc <.L309>
    37bc:	f5100e13          	li	t3,-175
    37c0:	01ca5463          	bge	s4,t3,37c8 <.L304+0x2c>
    37c4:	1110806f          	j	c0d4 <.L2832>
    37c8:	00a15e03          	lhu	t3,10(sp)
    37cc:	08f00b93          	li	s7,143
    37d0:	ff8e0e13          	addi	t3,t3,-8
    37d4:	01c11523          	sh	t3,10(sp)
    37d8:	00dbd463          	bge	s7,a3,37e0 <.L304+0x44>
    37dc:	67c0606f          	j	9e58 <.L2563>
    37e0:	03300e13          	li	t3,51
    37e4:	00fe4463          	blt	t3,a5,37ec <.L2561>
    37e8:	4480806f          	j	bc30 <.L316>

000037ec <.L2561>:
    37ec:	02051e03          	lh	t3,32(a0)

000037f0 <.L313>:
    37f0:	01c51c03          	lh	s8,28(a0)
    37f4:	03b00b93          	li	s7,59
    37f8:	018bd463          	bge	s7,s8,3800 <.L313+0x10>
    37fc:	31c0606f          	j	9b18 <.L322>
    3800:	00c15b83          	lhu	s7,12(sp)
    3804:	ff8b8b93          	addi	s7,s7,-8
    3808:	010b9b93          	slli	s7,s7,0x10
    380c:	010bdb93          	srli	s7,s7,0x10

00003810 <.L323>:
    3810:	01711623          	sh	s7,12(sp)
    3814:	03c00b93          	li	s7,60
    3818:	00fbc463          	blt	s7,a5,3820 <.L325>
    381c:	4f40206f          	j	5d10 <.L319>

00003820 <.L325>:
    3820:	e2d00b93          	li	s7,-467
    3824:	0172c463          	blt	t0,s7,382c <.L325+0xc>
    3828:	2100306f          	j	6a38 <.L329>
    382c:	03e00b93          	li	s7,62
    3830:	00fbd463          	bge	s7,a5,3838 <.L325+0x18>
    3834:	6b40606f          	j	9ee8 <.L339>
    3838:	00e15b83          	lhu	s7,14(sp)
    383c:	ff7b8b93          	addi	s7,s7,-9
    3840:	010b9b93          	slli	s7,s7,0x10
    3844:	410bdb93          	srai	s7,s7,0x10
    3848:	01711723          	sh	s7,14(sp)
    384c:	efb00b93          	li	s7,-261
    3850:	017a5463          	bge	s4,s7,3858 <.L341>
    3854:	f81fc06f          	j	7d4 <.L2833>

00003858 <.L341>:
    3858:	01900b93          	li	s7,25
    385c:	013bd463          	bge	s7,s3,3864 <.L341+0xc>
    3860:	1350206f          	j	6194 <.L346>
    3864:	0be00b93          	li	s7,190
    3868:	012bd463          	bge	s7,s2,3870 <.L341+0x18>
    386c:	f8dfc06f          	j	7f8 <.L344>
    3870:	00815b83          	lhu	s7,8(sp)
    3874:	00ab8b93          	addi	s7,s7,10
    3878:	01711423          	sh	s7,8(sp)
    387c:	f7dfc06f          	j	7f8 <.L344>

00003880 <.L2318>:
    3880:	01e51583          	lh	a1,30(a0)
    3884:	00c51903          	lh	s2,12(a0)

00003888 <.L34>:
    3888:	0b400893          	li	a7,180
    388c:	0128c463          	blt	a7,s2,3894 <.L34+0xc>
    3890:	7640606f          	j	9ff4 <.L37>
    3894:	1b500893          	li	a7,437
    3898:	00e8c463          	blt	a7,a4,38a0 <.L44>
    389c:	ad5fc06f          	j	370 <.L2543>

000038a0 <.L44>:
    38a0:	40a00893          	li	a7,1034
    38a4:	00d8d463          	bge	a7,a3,38ac <.L44+0xc>
    38a8:	7250206f          	j	67cc <.L55>
    38ac:	10f00893          	li	a7,271
    38b0:	0098d463          	bge	a7,s1,38b8 <.L44+0x18>
    38b4:	1990606f          	j	a24c <.L56>
    38b8:	00a15883          	lhu	a7,10(sp)
    38bc:	df700e13          	li	t3,-521
    38c0:	ffe88893          	addi	a7,a7,-2
    38c4:	01111523          	sh	a7,10(sp)
    38c8:	01ca4463          	blt	s4,t3,38d0 <.L60>
    38cc:	7250206f          	j	67f0 <.L2547>

000038d0 <.L60>:
    38d0:	ff400893          	li	a7,-12
    38d4:	01165463          	bge	a2,a7,38dc <.L60+0xc>
    38d8:	1ad0406f          	j	8284 <.L2324>
    38dc:	02a51883          	lh	a7,42(a0)

000038e0 <.L59>:
    38e0:	00c15e03          	lhu	t3,12(sp)
    38e4:	ff6e0e13          	addi	t3,t3,-10
    38e8:	010e1e13          	slli	t3,t3,0x10
    38ec:	410e5e13          	srai	t3,t3,0x10
    38f0:	8ddfc06f          	j	1cc <.L65>

000038f4 <.L136>:
    38f4:	01c51b83          	lh	s7,28(a0)
    38f8:	03500e13          	li	t3,53
    38fc:	017e5463          	bge	t3,s7,3904 <.L136+0x10>
    3900:	1e80706f          	j	aae8 <.L141>
    3904:	00815e03          	lhu	t3,8(sp)
    3908:	0a600b93          	li	s7,166
    390c:	ff7e0e13          	addi	t3,t3,-9
    3910:	01c11423          	sh	t3,8(sp)
    3914:	00ebd463          	bge	s7,a4,391c <.L143>
    3918:	bc1fc06f          	j	4d8 <.L2551>

0000391c <.L143>:
    391c:	ffe00e13          	li	t3,-2
    3920:	01c64463          	blt	a2,t3,3928 <.L143+0xc>
    3924:	47c0306f          	j	6da0 <.L149>
    3928:	e2c00e13          	li	t3,-468
    392c:	01c2c463          	blt	t0,t3,3934 <.L143+0x18>
    3930:	44c0206f          	j	5d7c <.L150>
    3934:	00a15e03          	lhu	t3,10(sp)
    3938:	10b00b93          	li	s7,267
    393c:	001e0e13          	addi	t3,t3,1
    3940:	01c11523          	sh	t3,10(sp)
    3944:	00dbc463          	blt	s7,a3,394c <.L152>
    3948:	44c0206f          	j	5d94 <.L161>

0000394c <.L152>:
    394c:	00c15e03          	lhu	t3,12(sp)
    3950:	012e0e13          	addi	t3,t3,18
    3954:	010e1e13          	slli	t3,t3,0x10
    3958:	410e5e13          	srai	t3,t3,0x10

0000395c <.L175>:
    395c:	01c11623          	sh	t3,12(sp)
    3960:	03c00e13          	li	t3,60
    3964:	00fe5463          	bge	t3,a5,396c <.L170>
    3968:	cd1fc06f          	j	638 <.L174>

0000396c <.L170>:
    396c:	ce400e13          	li	t3,-796
    3970:	01c5c463          	blt	a1,t3,3978 <.L2899>
    3974:	4500206f          	j	5dc4 <.L188>

00003978 <.L2899>:
    3978:	19c00e13          	li	t3,412
    397c:	00ee5463          	bge	t3,a4,3984 <.L2899+0xc>
    3980:	7380206f          	j	60b8 <.L189>
    3984:	00e15e03          	lhu	t3,14(sp)
    3988:	012e0e13          	addi	t3,t3,18
    398c:	010e1e13          	slli	t3,t3,0x10
    3990:	410e5e13          	srai	t3,t3,0x10

00003994 <.L190>:
    3994:	01c11723          	sh	t3,14(sp)
    3998:	0d900e13          	li	t3,217
    399c:	d3ee5ee3          	bge	t3,t5,36d8 <.L194>
    39a0:	07a00e13          	li	t3,122
    39a4:	006e4463          	blt	t3,t1,39ac <.L190+0x18>
    39a8:	7f50306f          	j	799c <.L196>
    39ac:	02700e13          	li	t3,39
    39b0:	00fe5463          	bge	t3,a5,39b8 <.L190+0x24>
    39b4:	6f40806f          	j	c0a8 <.L221>
    39b8:	00815e03          	lhu	t3,8(sp)
    39bc:	08000b93          	li	s7,128
    39c0:	004e0e13          	addi	t3,t3,4
    39c4:	01c11423          	sh	t3,8(sp)
    39c8:	00ebc463          	blt	s7,a4,39d0 <.L190+0x3c>
    39cc:	cc1fc06f          	j	68c <.L215>
    39d0:	f2000e13          	li	t3,-224
    39d4:	01ca4463          	blt	s4,t3,39dc <.L190+0x48>
    39d8:	0800706f          	j	aa58 <.L223>
    39dc:	00a15e03          	lhu	t3,10(sp)
    39e0:	08c00b93          	li	s7,140
    39e4:	009e0e13          	addi	t3,t3,9
    39e8:	01c11523          	sh	t3,10(sp)
    39ec:	00dbc463          	blt	s7,a3,39f4 <.L225>
    39f0:	4580206f          	j	5e48 <.L224>

000039f4 <.L225>:
    39f4:	2df00e13          	li	t3,735
    39f8:	00ee4463          	blt	t3,a4,3a00 <.L225+0xc>
    39fc:	cc1fc06f          	j	6bc <.L236>
    3a00:	7e700e13          	li	t3,2023
    3a04:	00de5463          	bge	t3,a3,3a0c <.L225+0x18>
    3a08:	43d0706f          	j	b644 <.L268>
    3a0c:	00c15e03          	lhu	t3,12(sp)
    3a10:	03d00b93          	li	s7,61
    3a14:	ff6e0e13          	addi	t3,t3,-10
    3a18:	01c11623          	sh	t3,12(sp)
    3a1c:	01779463          	bne	a5,s7,3a24 <.L269>
    3a20:	43d0706f          	j	b65c <.L270>

00003a24 <.L269>:
    3a24:	ce400e13          	li	t3,-796
    3a28:	01c5c463          	blt	a1,t3,3a30 <.L276>
    3a2c:	6a00506f          	j	90cc <.L273>

00003a30 <.L276>:
    3a30:	00e15e03          	lhu	t3,14(sp)
    3a34:	ffae0e13          	addi	t3,t3,-6
    3a38:	010e1e13          	slli	t3,t3,0x10
    3a3c:	410e5e13          	srai	t3,t3,0x10
    3a40:	cd1fc06f          	j	710 <.L275>

00003a44 <.L1160>:
    3a44:	00815b83          	lhu	s7,8(sp)
    3a48:	1b900c13          	li	s8,441
    3a4c:	004b8b93          	addi	s7,s7,4
    3a50:	01711423          	sh	s7,8(sp)
    3a54:	01ec5463          	bge	s8,t5,3a5c <.L1161>
    3a58:	f20fe06f          	j	2178 <.L1162>

00003a5c <.L1161>:
    3a5c:	00a15b83          	lhu	s7,10(sp)
    3a60:	ff8b8b93          	addi	s7,s7,-8
    3a64:	010b9b93          	slli	s7,s7,0x10
    3a68:	410bdb93          	srai	s7,s7,0x10

00003a6c <.L1169>:
    3a6c:	01711523          	sh	s7,10(sp)
    3a70:	03c00b93          	li	s7,60
    3a74:	00fbd463          	bge	s7,a5,3a7c <.L1167>
    3a78:	f2cfe06f          	j	21a4 <.L1171>

00003a7c <.L1167>:
    3a7c:	00f00b93          	li	s7,15
    3a80:	010bc463          	blt	s7,a6,3a88 <.L1167+0xc>
    3a84:	ab1fd06f          	j	1534 <.L1188>
    3a88:	ffc00b93          	li	s7,-4
    3a8c:	65765ae3          	bge	a2,s7,48e0 <.L1192>

00003a90 <.L1196>:
    3a90:	00c15b83          	lhu	s7,12(sp)
    3a94:	005b8b93          	addi	s7,s7,5
    3a98:	010b9b93          	slli	s7,s7,0x10
    3a9c:	410bdb93          	srai	s7,s7,0x10
    3aa0:	f2cfe06f          	j	21cc <.L1189>

00003aa4 <.L2154>:
    3aa4:	00815b03          	lhu	s6,8(sp)
    3aa8:	ffcb0b13          	addi	s6,s6,-4
    3aac:	010b1b13          	slli	s6,s6,0x10
    3ab0:	410b5b13          	srai	s6,s6,0x10
    3ab4:	01611423          	sh	s6,8(sp)
    3ab8:	03b00b13          	li	s6,59
    3abc:	d8fb5863          	bge	s6,a5,304c <.L2834>

00003ac0 <.L2146>:
    3ac0:	ec100b13          	li	s6,-319
    3ac4:	01644463          	blt	s0,s6,3acc <.L2146+0xc>
    3ac8:	2750306f          	j	753c <.L2157>
    3acc:	ef600b13          	li	s6,-266
    3ad0:	016ac463          	blt	s5,s6,3ad8 <.L2146+0x18>
    3ad4:	18d0606f          	j	a460 <.L2158>
    3ad8:	00a15b03          	lhu	s6,10(sp)
    3adc:	fdb00b93          	li	s7,-37
    3ae0:	002b0b13          	addi	s6,s6,2
    3ae4:	01611523          	sh	s6,10(sp)
    3ae8:	01775463          	bge	a4,s7,3af0 <.L2159>
    3aec:	18d0606f          	j	a478 <.L2165>

00003af0 <.L2159>:
    3af0:	02600b13          	li	s6,38
    3af4:	00eb5463          	bge	s6,a4,3afc <.L2159+0xc>
    3af8:	4010706f          	j	b6f8 <.L2178>
    3afc:	03c00b13          	li	s6,60
    3b00:	d8db4c63          	blt	s6,a3,3098 <.L2171>

00003b04 <.L2161>:
    3b04:	05800693          	li	a3,88
    3b08:	0096d463          	bge	a3,s1,3b10 <.L2254>
    3b0c:	6c10306f          	j	79cc <.L2184>

00003b10 <.L2254>:
    3b10:	00e15683          	lhu	a3,14(sp)
    3b14:	0a900b13          	li	s6,169
    3b18:	00c68693          	addi	a3,a3,12
    3b1c:	01069693          	slli	a3,a3,0x10
    3b20:	4106d693          	srai	a3,a3,0x10
    3b24:	00d11723          	sh	a3,14(sp)
    3b28:	dbeb5263          	bge	s6,t5,30cc <.L2835>

00003b2c <.L2187>:
    3b2c:	0ba00f13          	li	t5,186
    3b30:	012f5463          	bge	t5,s2,3b38 <.L2187+0xc>
    3b34:	5510206f          	j	6884 <.L2191>
    3b38:	0ac00f13          	li	t5,172
    3b3c:	db2f5863          	bge	t5,s2,30ec <.L2189>
    3b40:	00815f03          	lhu	t5,8(sp)
    3b44:	007f0f13          	addi	t5,t5,7
    3b48:	01e11423          	sh	t5,8(sp)
    3b4c:	ef600f13          	li	t5,-266
    3b50:	dbeac263          	blt	s5,t5,30f4 <.L2836>

00003b54 <.L2193>:
    3b54:	00c00513          	li	a0,12
    3b58:	01155463          	bge	a0,a7,3b60 <.L2193+0xc>
    3b5c:	36d0306f          	j	76c8 <.L2202>
    3b60:	00b00513          	li	a0,11
    3b64:	01d55463          	bge	a0,t4,3b6c <.L2193+0x18>
    3b68:	1f90606f          	j	a560 <.L2203>
    3b6c:	00a15503          	lhu	a0,10(sp)
    3b70:	ffb50513          	addi	a0,a0,-5
    3b74:	01051513          	slli	a0,a0,0x10
    3b78:	41055513          	srai	a0,a0,0x10
    3b7c:	00a11523          	sh	a0,10(sp)
    3b80:	25b00513          	li	a0,603
    3b84:	dae55463          	bge	a0,a4,312c <.L2201>

00003b88 <.L2205>:
    3b88:	fe900513          	li	a0,-23
    3b8c:	00a64463          	blt	a2,a0,3b94 <.L2205+0xc>
    3b90:	4c80306f          	j	7058 <.L2198>
    3b94:	dde00513          	li	a0,-546
    3b98:	00aa4463          	blt	s4,a0,3ba0 <.L2205+0x18>
    3b9c:	3e00706f          	j	af7c <.L2211>
    3ba0:	00c15503          	lhu	a0,12(sp)
    3ba4:	02800e93          	li	t4,40
    3ba8:	00450513          	addi	a0,a0,4
    3bac:	00a11623          	sh	a0,12(sp)
    3bb0:	167ed2e3          	bge	t4,t2,4514 <.L2212>
    3bb4:	06b00513          	li	a0,107
    3bb8:	169544e3          	blt	a0,s1,4520 <.L2217>

00003bbc <.L2213>:
    3bbc:	f9500513          	li	a0,-107
    3bc0:	00a44463          	blt	s0,a0,3bc8 <.L2213+0xc>
    3bc4:	3440706f          	j	af08 <.L2837>
    3bc8:	00968693          	addi	a3,a3,9
    3bcc:	00d11723          	sh	a3,14(sp)
    3bd0:	f7a00693          	li	a3,-134
    3bd4:	dada5263          	bge	s4,a3,3178 <.L2218>

00003bd8 <.L2824>:
    3bd8:	f4000693          	li	a3,-192
    3bdc:	00da5463          	bge	s4,a3,3be4 <.L2824+0xc>
    3be0:	2310106f          	j	5610 <.L2219>
    3be4:	ff700693          	li	a3,-9
    3be8:	00d64463          	blt	a2,a3,3bf0 <.L2220>
    3bec:	2410106f          	j	562c <.L2230>

00003bf0 <.L2220>:
    3bf0:	00815683          	lhu	a3,8(sp)
    3bf4:	00768693          	addi	a3,a3,7
    3bf8:	00d11423          	sh	a3,8(sp)
    3bfc:	03300693          	li	a3,51
    3c00:	dbf6d663          	bge	a3,t6,31ac <.L2838>

00003c04 <.L2238>:
    3c04:	02b00693          	li	a3,43
    3c08:	0106d463          	bge	a3,a6,3c10 <.L2215>
    3c0c:	05c0506f          	j	8c68 <.L2245>

00003c10 <.L2215>:
    3c10:	00c00713          	li	a4,12
    3c14:	01c75463          	bge	a4,t3,3c1c <.L2215+0xc>
    3c18:	6f00606f          	j	a308 <.L2246>
    3c1c:	00a15703          	lhu	a4,10(sp)
    3c20:	00170713          	addi	a4,a4,1
    3c24:	01071713          	slli	a4,a4,0x10
    3c28:	41075713          	srai	a4,a4,0x10

00003c2c <.L2247>:
    3c2c:	00e11523          	sh	a4,10(sp)
    3c30:	f5b00713          	li	a4,-165
    3c34:	10e2dee3          	bge	t0,a4,4550 <.L2240>
    3c38:	f5600793          	li	a5,-170
    3c3c:	00fa4463          	blt	s4,a5,3c44 <.L2247+0x18>
    3c40:	0650306f          	j	74a4 <.L2241>
    3c44:	03a00793          	li	a5,58
    3c48:	dbf7d063          	bge	a5,t6,31e8 <.L2243>
    3c4c:	00c15783          	lhu	a5,12(sp)
    3c50:	c0000713          	li	a4,-1024
    3c54:	00278793          	addi	a5,a5,2
    3c58:	01079793          	slli	a5,a5,0x10
    3c5c:	4107d793          	srai	a5,a5,0x10
    3c60:	dae5c063          	blt	a1,a4,3200 <.L2839>

00003c64 <.L2249>:
    3c64:	02c00713          	li	a4,44
    3c68:	01175463          	bge	a4,a7,3c70 <.L2249+0xc>
    3c6c:	5680406f          	j	81d4 <.L2251>
    3c70:	d8e89e63          	bne	a7,a4,320c <.L2250>
    3c74:	00e15703          	lhu	a4,14(sp)
    3c78:	00870713          	addi	a4,a4,8
    3c7c:	00e11723          	sh	a4,14(sp)
    3c80:	d8cff06f          	j	320c <.L2250>

00003c84 <.L1543>:
    3c84:	00c15b83          	lhu	s7,12(sp)
    3c88:	01800c13          	li	s8,24
    3c8c:	016b8b93          	addi	s7,s7,22
    3c90:	01711623          	sh	s7,12(sp)
    3c94:	150c58e3          	bge	s8,a6,45e4 <.L1544>

00003c98 <.L1545>:
    3c98:	02600b93          	li	s7,38
    3c9c:	006bc463          	blt	s7,t1,3ca4 <.L1549>
    3ca0:	9fdfe06f          	j	269c <.L1539>

00003ca4 <.L1549>:
    3ca4:	00e15b83          	lhu	s7,14(sp)
    3ca8:	00bb8b93          	addi	s7,s7,11
    3cac:	01711723          	sh	s7,14(sp)
    3cb0:	0a900b93          	li	s7,169
    3cb4:	01ebc463          	blt	s7,t5,3cbc <.L1550>
    3cb8:	9f1fe06f          	j	26a8 <.L2840>

00003cbc <.L1550>:
    3cbc:	01700b93          	li	s7,23
    3cc0:	01dbd463          	bge	s7,t4,3cc8 <.L1550+0xc>
    3cc4:	0450306f          	j	7508 <.L1555>
    3cc8:	00815b83          	lhu	s7,8(sp)
    3ccc:	fffb8b93          	addi	s7,s7,-1
    3cd0:	010b9b93          	slli	s7,s7,0x10
    3cd4:	410bdb93          	srai	s7,s7,0x10
    3cd8:	01711423          	sh	s7,8(sp)
    3cdc:	03300b93          	li	s7,51
    3ce0:	01fbc463          	blt	s7,t6,3ce8 <.L1557>
    3ce4:	9fdfe06f          	j	26e0 <.L2841>

00003ce8 <.L1557>:
    3ce8:	06f00b93          	li	s7,111
    3cec:	00dbd463          	bge	s7,a3,3cf4 <.L1557+0xc>
    3cf0:	6590306f          	j	7b48 <.L1562>
    3cf4:	01b00b93          	li	s7,27
    3cf8:	00ebd463          	bge	s7,a4,3d00 <.L1557+0x18>
    3cfc:	4fc0506f          	j	91f8 <.L1563>
    3d00:	00a15b83          	lhu	s7,10(sp)
    3d04:	fffb8b93          	addi	s7,s7,-1
    3d08:	01711523          	sh	s7,10(sp)

00003d0c <.L1564>:
    3d0c:	02a00b93          	li	s7,42
    3d10:	00dbd463          	bge	s7,a3,3d18 <.L1564+0xc>
    3d14:	6810306f          	j	7b94 <.L1573>
    3d18:	00c15b83          	lhu	s7,12(sp)
    3d1c:	02700c13          	li	s8,39
    3d20:	ffeb8b93          	addi	s7,s7,-2
    3d24:	010b9b93          	slli	s7,s7,0x10
    3d28:	410bdb93          	srai	s7,s7,0x10
    3d2c:	01711623          	sh	s7,12(sp)
    3d30:	007c4463          	blt	s8,t2,3d38 <.L1577>
    3d34:	a15fe06f          	j	2748 <.L2842>

00003d38 <.L1577>:
    3d38:	05800c13          	li	s8,88
    3d3c:	009c5463          	bge	s8,s1,3d44 <.L1577+0xc>
    3d40:	6140406f          	j	8354 <.L1581>
    3d44:	f9500c13          	li	s8,-107
    3d48:	01844463          	blt	s0,s8,3d50 <.L1577+0x18>
    3d4c:	4a40406f          	j	81f0 <.L1579>
    3d50:	00e15c03          	lhu	s8,14(sp)
    3d54:	010c0c13          	addi	s8,s8,16
    3d58:	01811723          	sh	s8,14(sp)
    3d5c:	01f00c13          	li	s8,31
    3d60:	013c4463          	blt	s8,s3,3d68 <.L1582>
    3d64:	a15fe06f          	j	2778 <.L2843>

00003d68 <.L1582>:
    3d68:	e1800c13          	li	s8,-488
    3d6c:	018a4463          	blt	s4,s8,3d74 <.L1582+0xc>
    3d70:	3880406f          	j	80f8 <.L1589>
    3d74:	00815c03          	lhu	s8,8(sp)
    3d78:	ffec0c13          	addi	s8,s8,-2
    3d7c:	01811423          	sh	s8,8(sp)
    3d80:	e2c00c13          	li	s8,-468
    3d84:	0182c463          	blt	t0,s8,3d8c <.L1590>
    3d88:	a1dfe06f          	j	27a4 <.L2844>

00003d8c <.L1590>:
    3d8c:	e0200c13          	li	s8,-510
    3d90:	018ac463          	blt	s5,s8,3d98 <.L1590+0xc>
    3d94:	0d90406f          	j	866c <.L1588>
    3d98:	fef00c13          	li	s8,-17
    3d9c:	01864463          	blt	a2,s8,3da4 <.L1590+0x18>
    3da0:	4490106f          	j	59e8 <.L1592>
    3da4:	00a15c03          	lhu	s8,10(sp)
    3da8:	03c00c93          	li	s9,60
    3dac:	ffac0c13          	addi	s8,s8,-6
    3db0:	01811523          	sh	s8,10(sp)
    3db4:	00fcd463          	bge	s9,a5,3dbc <.L1590+0x30>
    3db8:	0d50406f          	j	868c <.L2711>
    3dbc:	00f00c13          	li	s8,15
    3dc0:	010c5463          	bge	s8,a6,3dc8 <.L1590+0x3c>
    3dc4:	1d40506f          	j	8f98 <.L1599>
    3dc8:	f6300b93          	li	s7,-157
    3dcc:	0175c463          	blt	a1,s7,3dd4 <.L1590+0x48>
    3dd0:	1b40806f          	j	bf84 <.L1600>
    3dd4:	00c15b83          	lhu	s7,12(sp)
    3dd8:	00300c13          	li	s8,3
    3ddc:	ffcb8b93          	addi	s7,s7,-4
    3de0:	01711623          	sh	s7,12(sp)
    3de4:	01cc5463          	bge	s8,t3,3dec <.L1621>
    3de8:	1c40506f          	j	8fac <.L1596>

00003dec <.L1621>:
    3dec:	0c100b93          	li	s7,193
    3df0:	012bc463          	blt	s7,s2,3df8 <.L1621+0xc>
    3df4:	a19fe06f          	j	280c <.L1635>
    3df8:	00e15b83          	lhu	s7,14(sp)
    3dfc:	ffdb8b93          	addi	s7,s7,-3
    3e00:	01711723          	sh	s7,14(sp)

00003e04 <.L1628>:
    3e04:	00400b93          	li	s7,4
    3e08:	011bc463          	blt	s7,a7,3e10 <.L1628+0xc>
    3e0c:	4910106f          	j	5a9c <.L1643>
    3e10:	00e00b93          	li	s7,14
    3e14:	01dbc463          	blt	s7,t4,3e1c <.L1645>
    3e18:	a25fe06f          	j	283c <.L1646>

00003e1c <.L1645>:
    3e1c:	ffc00b93          	li	s7,-4
    3e20:	01764863          	blt	a2,s7,3e30 <.L1673>

00003e24 <.L1665>:
    3e24:	00815b83          	lhu	s7,8(sp)
    3e28:	006b8b93          	addi	s7,s7,6
    3e2c:	01711423          	sh	s7,8(sp)

00003e30 <.L1673>:
    3e30:	02e00b93          	li	s7,46
    3e34:	01dbd463          	bge	s7,t4,3e3c <.L1666>
    3e38:	5910406f          	j	8bc8 <.L1674>

00003e3c <.L1666>:
    3e3c:	01d00b93          	li	s7,29
    3e40:	011bc463          	blt	s7,a7,3e48 <.L1666+0xc>
    3e44:	1ec0806f          	j	c030 <.L2845>
    3e48:	3b500b93          	li	s7,949
    3e4c:	00ebd463          	bge	s7,a4,3e54 <.L1666+0x18>
    3e50:	0840806f          	j	bed4 <.L1687>
    3e54:	00a15b83          	lhu	s7,10(sp)
    3e58:	00100c13          	li	s8,1
    3e5c:	ff7b8b93          	addi	s7,s7,-9
    3e60:	01711523          	sh	s7,10(sp)
    3e64:	01cc4463          	blt	s8,t3,3e6c <.L1689>
    3e68:	0840806f          	j	beec <.L1688>

00003e6c <.L1689>:
    3e6c:	02000b93          	li	s7,32
    3e70:	01dbc463          	blt	s7,t4,3e78 <.L1689+0xc>
    3e74:	a05fe06f          	j	2878 <.L1659>
    3e78:	4790106f          	j	5af0 <.L1692>

00003e7c <.L2770>:
    3e7c:	02c00b93          	li	s7,44
    3e80:	01dbde63          	bge	s7,t4,3e9c <.L1329>
    3e84:	00815b83          	lhu	s7,8(sp)
    3e88:	03400c13          	li	s8,52
    3e8c:	ffab8b93          	addi	s7,s7,-6
    3e90:	01711423          	sh	s7,8(sp)
    3e94:	01dc5463          	bge	s8,t4,3e9c <.L1329>
    3e98:	87dfd06f          	j	1714 <.L1323>

00003e9c <.L1329>:
    3e9c:	ff100b93          	li	s7,-15
    3ea0:	01764463          	blt	a2,s7,3ea8 <.L1329+0xc>
    3ea4:	6d40306f          	j	7578 <.L2846>
    3ea8:	00200b93          	li	s7,2
    3eac:	01cbd463          	bge	s7,t3,3eb4 <.L1329+0x18>
    3eb0:	3140706f          	j	b1c4 <.L1335>
    3eb4:	00a15b83          	lhu	s7,10(sp)
    3eb8:	02a00c13          	li	s8,42
    3ebc:	006b8b93          	addi	s7,s7,6
    3ec0:	01711523          	sh	s7,10(sp)
    3ec4:	00dc4463          	blt	s8,a3,3ecc <.L1329+0x30>
    3ec8:	6dc0306f          	j	75a4 <.L1345>
    3ecc:	02700b93          	li	s7,39
    3ed0:	00ebd463          	bge	s7,a4,3ed8 <.L2697>
    3ed4:	6150706f          	j	bce8 <.L1339>

00003ed8 <.L2697>:
    3ed8:	00900b93          	li	s7,9
    3edc:	012bd463          	bge	s7,s2,3ee4 <.L1346>
    3ee0:	5a50706f          	j	bc84 <.L1340>

00003ee4 <.L1346>:
    3ee4:	00c15b83          	lhu	s7,12(sp)
    3ee8:	03600c13          	li	s8,54
    3eec:	001b8b93          	addi	s7,s7,1
    3ef0:	01711623          	sh	s7,12(sp)
    3ef4:	00fc4463          	blt	s8,a5,3efc <.L1342>
    3ef8:	6c40106f          	j	55bc <.L1341>

00003efc <.L1342>:
    3efc:	00c00b93          	li	s7,12
    3f00:	01cbd463          	bge	s7,t3,3f08 <.L1364>
    3f04:	0e80206f          	j	5fec <.L1354>

00003f08 <.L1364>:
    3f08:	00e15b83          	lhu	s7,14(sp)
    3f0c:	ffab8b93          	addi	s7,s7,-6
    3f10:	010b9b93          	slli	s7,s7,0x10
    3f14:	410bdb93          	srai	s7,s7,0x10
    3f18:	01711723          	sh	s7,14(sp)
    3f1c:	fa300b93          	li	s7,-93
    3f20:	0172d463          	bge	t0,s7,3f28 <.L1367>
    3f24:	cd0fe06f          	j	23f4 <.L2847>

00003f28 <.L1367>:
    3f28:	01f00b93          	li	s7,31
    3f2c:	0d0bc2e3          	blt	s7,a6,47f0 <.L1376>
    3f30:	1a000b93          	li	s7,416
    3f34:	012bd463          	bge	s7,s2,3f3c <.L1367+0x14>
    3f38:	2080706f          	j	b140 <.L1384>
    3f3c:	00815b83          	lhu	s7,8(sp)
    3f40:	03900c13          	li	s8,57
    3f44:	009b8b93          	addi	s7,s7,9
    3f48:	01711423          	sh	s7,8(sp)
    3f4c:	0a6c5ce3          	bge	s8,t1,4804 <.L1372>

00003f50 <.L2619>:
    3f50:	ff800b93          	li	s7,-8
    3f54:	01765463          	bge	a2,s7,3f5c <.L1385>
    3f58:	cc8fe06f          	j	2420 <.L1373>

00003f5c <.L1385>:
    3f5c:	00100b93          	li	s7,1
    3f60:	01cbc463          	blt	s7,t3,3f68 <.L2624>
    3f64:	0e80206f          	j	604c <.L1375>

00003f68 <.L2624>:
    3f68:	02000b93          	li	s7,32
    3f6c:	01dbd463          	bge	s7,t4,3f74 <.L1394>
    3f70:	cecfe06f          	j	245c <.L1402>

00003f74 <.L1394>:
    3f74:	03c00b93          	li	s7,60
    3f78:	0cfbcee3          	blt	s7,a5,4854 <.L1390>

00003f7c <.L1403>:
    3f7c:	e4f00b93          	li	s7,-433
    3f80:	017ad463          	bge	s5,s7,3f88 <.L1403+0xc>
    3f84:	d08fe06f          	j	248c <.L1391>
    3f88:	01700b93          	li	s7,23
    3f8c:	01dbd463          	bge	s7,t4,3f94 <.L1392>
    3f90:	6080406f          	j	8598 <.L1416>

00003f94 <.L1392>:
    3f94:	00e15b83          	lhu	s7,14(sp)
    3f98:	ffbb8b93          	addi	s7,s7,-5
    3f9c:	01711723          	sh	s7,14(sp)
    3fa0:	01f00b93          	li	s7,31
    3fa4:	013bc463          	blt	s7,s3,3fac <.L1422>
    3fa8:	d08fe06f          	j	24b0 <.L1408>

00003fac <.L1422>:
    3fac:	00700b93          	li	s7,7
    3fb0:	011bd463          	bge	s7,a7,3fb8 <.L1422+0xc>
    3fb4:	5510306f          	j	7d04 <.L1409>
    3fb8:	00815b83          	lhu	s7,8(sp)
    3fbc:	fffb8b93          	addi	s7,s7,-1
    3fc0:	01711423          	sh	s7,8(sp)
    3fc4:	03300b93          	li	s7,51
    3fc8:	01fbc463          	blt	s7,t6,3fd0 <.L1426>
    3fcc:	d0cfe06f          	j	24d8 <.L2848>

00003fd0 <.L1426>:
    3fd0:	03b00b93          	li	s7,59
    3fd4:	00fbd463          	bge	s7,a5,3fdc <.L2917>
    3fd8:	2ac0306f          	j	7284 <.L1431>

00003fdc <.L2917>:
    3fdc:	0a500b93          	li	s7,165
    3fe0:	007bd463          	bge	s7,t2,3fe8 <.L2917+0xc>
    3fe4:	d14fe06f          	j	24f8 <.L1429>
    3fe8:	00a15b83          	lhu	s7,10(sp)
    3fec:	005b8b93          	addi	s7,s7,5
    3ff0:	01711523          	sh	s7,10(sp)
    3ff4:	f9800b93          	li	s7,-104
    3ff8:	01745463          	bge	s0,s7,4000 <.L1433>
    3ffc:	d08fe06f          	j	2504 <.L2849>

00004000 <.L1433>:
    4000:	f6d00b93          	li	s7,-147
    4004:	017ac463          	blt	s5,s7,400c <.L1433+0xc>
    4008:	3800306f          	j	7388 <.L1437>
    400c:	0c700b93          	li	s7,199
    4010:	01ebd463          	bge	s7,t5,4018 <.L1433+0x18>
    4014:	0510606f          	j	a864 <.L1438>
    4018:	00c15b83          	lhu	s7,12(sp)
    401c:	017b8b93          	addi	s7,s7,23
    4020:	01711623          	sh	s7,12(sp)
    4024:	d2a00b93          	li	s7,-726
    4028:	0175d463          	bge	a1,s7,4030 <.L1440>
    402c:	d04fe06f          	j	2530 <.L2850>

00004030 <.L1440>:
    4030:	02c00b93          	li	s7,44
    4034:	011bd463          	bge	s7,a7,403c <.L1440+0xc>
    4038:	1f50406f          	j	8a2c <.L1446>
    403c:	01789463          	bne	a7,s7,4044 <.L1440+0x14>
    4040:	3950106f          	j	5bd4 <.L2851>
    4044:	00400b93          	li	s7,4
    4048:	011bd463          	bge	s7,a7,4050 <.L1440+0x20>
    404c:	34d0106f          	j	5b98 <.L1444>
    4050:	03800b93          	li	s7,56
    4054:	01fbd463          	bge	s7,t6,405c <.L1440+0x2c>
    4058:	1a40306f          	j	71fc <.L1450>
    405c:	00815b83          	lhu	s7,8(sp)
    4060:	f8b00c13          	li	s8,-117
    4064:	00bb8b93          	addi	s7,s7,11
    4068:	01711423          	sh	s7,8(sp)
    406c:	0185d463          	bge	a1,s8,4074 <.L1464>
    4070:	d08fe06f          	j	2578 <.L2736>

00004074 <.L1464>:
    4074:	ffe00b93          	li	s7,-2
    4078:	01765463          	bge	a2,s7,4080 <.L1464+0xc>
    407c:	3490106f          	j	5bc4 <.L1468>
    4080:	00a15b83          	lhu	s7,10(sp)
    4084:	ffeb8b93          	addi	s7,s7,-2
    4088:	01711523          	sh	s7,10(sp)
    408c:	02700b93          	li	s7,39
    4090:	01dbc463          	blt	s7,t4,4098 <.L1477>
    4094:	d14fe06f          	j	25a8 <.L1476>

00004098 <.L1477>:
    4098:	34900b93          	li	s7,841
    409c:	00dbd463          	bge	s7,a3,40a4 <.L1477+0xc>
    40a0:	d20fe06f          	j	25c0 <.L1487>
    40a4:	00c15b83          	lhu	s7,12(sp)
    40a8:	ff7b8b93          	addi	s7,s7,-9
    40ac:	01711623          	sh	s7,12(sp)
    40b0:	0a000b93          	li	s7,160
    40b4:	009bc463          	blt	s7,s1,40bc <.L1491>
    40b8:	d14fe06f          	j	25cc <.L2852>

000040bc <.L1491>:
    40bc:	eb800b93          	li	s7,-328
    40c0:	01744463          	blt	s0,s7,40c8 <.L1491+0xc>
    40c4:	3c40306f          	j	7488 <.L1499>
    40c8:	eb100b93          	li	s7,-335
    40cc:	01744863          	blt	s0,s7,40dc <.L1497>
    40d0:	00e15b83          	lhu	s7,14(sp)
    40d4:	009b8b93          	addi	s7,s7,9
    40d8:	01711723          	sh	s7,14(sp)

000040dc <.L1497>:
    40dc:	39000b93          	li	s7,912
    40e0:	006bd463          	bge	s7,t1,40e8 <.L1497+0xc>
    40e4:	1680106f          	j	524c <.L1501>
    40e8:	0ba00b93          	li	s7,186
    40ec:	492bd263          	bge	s7,s2,4570 <.L1502>
    40f0:	00815b83          	lhu	s7,8(sp)
    40f4:	12e00c13          	li	s8,302
    40f8:	01c04463          	bgtz	t3,4100 <.L1497+0x24>
    40fc:	30c0706f          	j	b408 <.L2853>
    4100:	ffab8b93          	addi	s7,s7,-6
    4104:	01711423          	sh	s7,8(sp)
    4108:	006c5463          	bge	s8,t1,4110 <.L1504>
    410c:	d14fe06f          	j	2620 <.L1511>

00004110 <.L1504>:
    4110:	02a00b93          	li	s7,42
    4114:	00dbd463          	bge	s7,a3,411c <.L1504+0xc>
    4118:	1b00306f          	j	72c8 <.L1515>
    411c:	04b00b93          	li	s7,75
    4120:	00ebd463          	bge	s7,a4,4128 <.L1504+0x18>
    4124:	0f90506f          	j	9a1c <.L1516>
    4128:	00a15b83          	lhu	s7,10(sp)
    412c:	fffb8b93          	addi	s7,s7,-1
    4130:	010b9b93          	slli	s7,s7,0x10
    4134:	410bdb93          	srai	s7,s7,0x10

00004138 <.L1517>:
    4138:	01711523          	sh	s7,10(sp)
    413c:	f9800b93          	li	s7,-104
    4140:	47745a63          	bge	s0,s7,45b4 <.L1507>
    4144:	0c700b93          	li	s7,199
    4148:	016bc463          	blt	s7,s6,4150 <.L1529>
    414c:	4710406f          	j	8dbc <.L1528>

00004150 <.L1529>:
    4150:	0aa00b93          	li	s7,170
    4154:	006bd463          	bge	s7,t1,415c <.L1529+0xc>
    4158:	d04fe06f          	j	265c <.L1521>
    415c:	00c15b83          	lhu	s7,12(sp)
    4160:	002b8b93          	addi	s7,s7,2
    4164:	010b9b93          	slli	s7,s7,0x10
    4168:	410bdb93          	srai	s7,s7,0x10
    416c:	01711623          	sh	s7,12(sp)
    4170:	01800b93          	li	s7,24
    4174:	470bd863          	bge	s7,a6,45e4 <.L1544>

00004178 <.L1532>:
    4178:	eee00b93          	li	s7,-274
    417c:	b17adee3          	bge	s5,s7,3c98 <.L1545>
    4180:	01c51c03          	lh	s8,28(a0)
    4184:	02300b93          	li	s7,35
    4188:	018bc463          	blt	s7,s8,4190 <.L2806>
    418c:	d04fe06f          	j	2690 <.L1540>

00004190 <.L2806>:
    4190:	00e15b83          	lhu	s7,14(sp)
    4194:	ffab8b93          	addi	s7,s7,-6
    4198:	01711723          	sh	s7,14(sp)
    419c:	d00fe06f          	j	269c <.L1539>

000041a0 <.L1204>:
    41a0:	00e15b83          	lhu	s7,14(sp)
    41a4:	00400c13          	li	s8,4
    41a8:	ffcb8b93          	addi	s7,s7,-4
    41ac:	01711723          	sh	s7,14(sp)
    41b0:	571c54e3          	bge	s8,a7,4f18 <.L1209>
    41b4:	00e00b93          	li	s7,14
    41b8:	01dbd463          	bge	s7,t4,41c0 <.L1218>
    41bc:	874fe06f          	j	2230 <.L1210>

000041c0 <.L1218>:
    41c0:	00815b83          	lhu	s7,8(sp)
    41c4:	ffab8b93          	addi	s7,s7,-6
    41c8:	01711423          	sh	s7,8(sp)
    41cc:	864fe06f          	j	2230 <.L1210>

000041d0 <.L2004>:
    41d0:	fe900b93          	li	s7,-23
    41d4:	01764463          	blt	a2,s7,41dc <.L2004+0xc>
    41d8:	7280406f          	j	8900 <.L2011>
    41dc:	dde00b93          	li	s7,-546
    41e0:	017a4463          	blt	s4,s7,41e8 <.L2004+0x18>
    41e4:	3300606f          	j	a514 <.L2012>
    41e8:	00c15b83          	lhu	s7,12(sp)
    41ec:	005b8b93          	addi	s7,s7,5
    41f0:	01711623          	sh	s7,12(sp)
    41f4:	02700b93          	li	s7,39
    41f8:	007bc463          	blt	s7,t2,4200 <.L2013>
    41fc:	bf5fe06f          	j	2df0 <.L2854>

00004200 <.L2013>:
    4200:	03000b93          	li	s7,48
    4204:	007bd463          	bge	s7,t2,420c <.L2013+0xc>
    4208:	6890306f          	j	8090 <.L2016>
    420c:	0b800b93          	li	s7,184
    4210:	009bd463          	bge	s7,s1,4218 <.L2013+0x18>
    4214:	1bc0606f          	j	a3d0 <.L2017>
    4218:	00e15b83          	lhu	s7,14(sp)
    421c:	00bb8b93          	addi	s7,s7,11
    4220:	010b9b93          	slli	s7,s7,0x10
    4224:	410bdb93          	srai	s7,s7,0x10
    4228:	01711723          	sh	s7,14(sp)
    422c:	00400b93          	li	s7,4
    4230:	011bc463          	blt	s7,a7,4238 <.L2019>
    4234:	be9fe06f          	j	2e1c <.L2855>

00004238 <.L2019>:
    4238:	00e00b93          	li	s7,14
    423c:	01dbd463          	bge	s7,t4,4244 <.L2019+0xc>
    4240:	6050306f          	j	8044 <.L2027>
    4244:	f9c00b93          	li	s7,-100
    4248:	01744463          	blt	s0,s7,4250 <.L2019+0x18>
    424c:	6090306f          	j	8054 <.L2028>
    4250:	00815b83          	lhu	s7,8(sp)
    4254:	ffbb8b93          	addi	s7,s7,-5
    4258:	01711423          	sh	s7,8(sp)
    425c:	0f000b93          	li	s7,240
    4260:	006bd463          	bge	s7,t1,4268 <.L2029>
    4264:	bddfe06f          	j	2e40 <.L2856>

00004268 <.L2029>:
    4268:	00200b93          	li	s7,2
    426c:	01cbd463          	bge	s7,t3,4274 <.L2029+0xc>
    4270:	1b40106f          	j	5424 <.L2857>
    4274:	03500b93          	li	s7,53
    4278:	00fbd463          	bge	s7,a5,4280 <.L2029+0x18>
    427c:	7a50506f          	j	a220 <.L2031>
    4280:	00a15b83          	lhu	s7,10(sp)
    4284:	01500c13          	li	s8,21
    4288:	006b8b93          	addi	s7,s7,6
    428c:	01711523          	sh	s7,10(sp)
    4290:	010c4463          	blt	s8,a6,4298 <.L2051>
    4294:	5fc0106f          	j	5890 <.L2032>

00004298 <.L2051>:
    4298:	00b00b93          	li	s7,11
    429c:	011bc463          	blt	s7,a7,42a4 <.L2051+0xc>
    42a0:	3850506f          	j	9e24 <.L2033>
    42a4:	00c15b83          	lhu	s7,12(sp)
    42a8:	009b8b93          	addi	s7,s7,9
    42ac:	010b9b93          	slli	s7,s7,0x10
    42b0:	410bdb93          	srai	s7,s7,0x10
    42b4:	01711623          	sh	s7,12(sp)
    42b8:	01c05463          	blez	t3,42c0 <.L2816>
    42bc:	bddfe06f          	j	2e98 <.L2045>

000042c0 <.L2816>:
    42c0:	00e15b83          	lhu	s7,14(sp)
    42c4:	ffab8b93          	addi	s7,s7,-6
    42c8:	010b9b93          	slli	s7,s7,0x10
    42cc:	410bdb93          	srai	s7,s7,0x10
    42d0:	01711723          	sh	s7,14(sp)
    42d4:	0a900b93          	li	s7,169
    42d8:	01ebc463          	blt	s7,t5,42e0 <.L2056>
    42dc:	bf5fe06f          	j	2ed0 <.L2050>

000042e0 <.L2056>:
    42e0:	eba00b93          	li	s7,-326
    42e4:	0175c463          	blt	a1,s7,42ec <.L2056+0xc>
    42e8:	5ec0106f          	j	58d4 <.L2046>
    42ec:	01400b13          	li	s6,20
    42f0:	013b5463          	bge	s6,s3,42f8 <.L2056+0x18>
    42f4:	3450506f          	j	9e38 <.L2072>
    42f8:	00815b03          	lhu	s6,8(sp)
    42fc:	08300b93          	li	s7,131
    4300:	003b0b13          	addi	s6,s6,3
    4304:	01611423          	sh	s6,8(sp)
    4308:	529bc0e3          	blt	s7,s1,5028 <.L2073>

0000430c <.L2076>:
    430c:	00a15b03          	lhu	s6,10(sp)
    4310:	02700b93          	li	s7,39
    4314:	ff9b0b13          	addi	s6,s6,-7
    4318:	01611523          	sh	s6,10(sp)
    431c:	006bc463          	blt	s7,t1,4324 <.L2075>
    4320:	c05fe06f          	j	2f24 <.L2074>

00004324 <.L2075>:
    4324:	ecb00b13          	li	s6,-309
    4328:	016ac463          	blt	s5,s6,4330 <.L2075+0xc>
    432c:	2b00406f          	j	85dc <.L2081>
    4330:	ff900b13          	li	s6,-7
    4334:	536642e3          	blt	a2,s6,5058 <.L2088>

00004338 <.L2087>:
    4338:	00c15b03          	lhu	s6,12(sp)
    433c:	ffbb0b13          	addi	s6,s6,-5
    4340:	010b1b13          	slli	s6,s6,0x10
    4344:	410b5b13          	srai	s6,s6,0x10
    4348:	01611623          	sh	s6,12(sp)
    434c:	c5700b13          	li	s6,-937
    4350:	0165d463          	bge	a1,s6,4358 <.L2094>
    4354:	bfdfe06f          	j	2f50 <.L2858>

00004358 <.L2094>:
    4358:	02c00b13          	li	s6,44
    435c:	011b5463          	bge	s6,a7,4364 <.L2094+0xc>
    4360:	4a80306f          	j	7808 <.L2096>
    4364:	03100b13          	li	s6,49
    4368:	01fb5463          	bge	s6,t6,4370 <.L2094+0x18>
    436c:	bf1fe06f          	j	2f5c <.L2095>
    4370:	00e15b03          	lhu	s6,14(sp)
    4374:	01e00b93          	li	s7,30
    4378:	006b0b13          	addi	s6,s6,6
    437c:	01611723          	sh	s6,14(sp)
    4380:	013bd463          	bge	s7,s3,4388 <.L2094+0x30>
    4384:	2e00706f          	j	b664 <.L2097>
    4388:	01c04463          	bgtz	t3,4390 <.L2103>
    438c:	2890706f          	j	be14 <.L2098>

00004390 <.L2103>:
    4390:	02e00b13          	li	s6,46
    4394:	3ddb44e3          	blt	s6,t4,4f5c <.L2100>

00004398 <.L2099>:
    4398:	ff200b13          	li	s6,-14
    439c:	01664463          	blt	a2,s6,43a4 <.L2099+0xc>
    43a0:	4840306f          	j	7824 <.L2859>
    43a4:	ea400b13          	li	s6,-348
    43a8:	016ac463          	blt	s5,s6,43b0 <.L2099+0x18>
    43ac:	c05fe06f          	j	2fb0 <.L2115>
    43b0:	00a15b03          	lhu	s6,10(sp)
    43b4:	ff7b0b13          	addi	s6,s6,-9
    43b8:	01611523          	sh	s6,10(sp)
    43bc:	25b00b13          	li	s6,603
    43c0:	00eb5463          	bge	s6,a4,43c8 <.L2120>
    43c4:	bf9fe06f          	j	2fbc <.L2860>

000043c8 <.L2120>:
    43c8:	ec500b13          	li	s6,-315
    43cc:	0165c463          	blt	a1,s6,43d4 <.L2120+0xc>
    43d0:	5f10206f          	j	71c0 <.L2861>
    43d4:	22200b13          	li	s6,546
    43d8:	007b5463          	bge	s6,t2,43e0 <.L2120+0x18>
    43dc:	30c0306f          	j	76e8 <.L2123>
    43e0:	00c15b03          	lhu	s6,12(sp)
    43e4:	ffbb0b13          	addi	s6,s6,-5
    43e8:	01611623          	sh	s6,12(sp)
    43ec:	02600b13          	li	s6,38
    43f0:	00db4463          	blt	s6,a3,43f8 <.L2128>
    43f4:	bf9fe06f          	j	2fec <.L2862>

000043f8 <.L2128>:
    43f8:	00300b13          	li	s6,3
    43fc:	75cb48e3          	blt	s6,t3,534c <.L2143>
    4400:	03d00b13          	li	s6,61
    4404:	00fb4463          	blt	s6,a5,440c <.L2128+0x14>
    4408:	5f10506f          	j	a1f8 <.L2144>
    440c:	00400b13          	li	s6,4
    4410:	771b44e3          	blt	s6,a7,5378 <.L2140>
    4414:	06a00b13          	li	s6,106
    4418:	012b4463          	blt	s6,s2,4420 <.L2128+0x28>
    441c:	1a10706f          	j	bdbc <.L2863>
    4420:	00815b03          	lhu	s6,8(sp)
    4424:	001b0b13          	addi	s6,s6,1
    4428:	01611423          	sh	s6,8(sp)
    442c:	e94ff06f          	j	3ac0 <.L2146>

00004430 <.L2754>:
    4430:	00815b83          	lhu	s7,8(sp)
    4434:	34b00c13          	li	s8,843
    4438:	ff6b8b93          	addi	s7,s7,-10
    443c:	01711423          	sh	s7,8(sp)
    4440:	00ec5463          	bge	s8,a4,4448 <.L516>
    4444:	eb8fc06f          	j	afc <.L2574>

00004448 <.L516>:
    4448:	ff900b93          	li	s7,-7
    444c:	01764463          	blt	a2,s7,4454 <.L516+0xc>
    4450:	7e90206f          	j	7438 <.L520>
    4454:	1ba00b93          	li	s7,442
    4458:	016bc463          	blt	s7,s6,4460 <.L516+0x18>
    445c:	5190406f          	j	9174 <.L521>
    4460:	17000b93          	li	s7,368
    4464:	00dbd463          	bge	s7,a3,446c <.L522>
    4468:	5250406f          	j	918c <.L526>

0000446c <.L522>:
    446c:	02200b93          	li	s7,34
    4470:	01dbd463          	bge	s7,t4,4478 <.L2277>
    4474:	7f50206f          	j	7468 <.L536>

00004478 <.L2277>:
    4478:	00c15b83          	lhu	s7,12(sp)
    447c:	002b8b93          	addi	s7,s7,2
    4480:	010b9b93          	slli	s7,s7,0x10
    4484:	410bdb93          	srai	s7,s7,0x10
    4488:	eccfc06f          	j	b54 <.L538>

0000448c <.L501>:
    448c:	01d00b93          	li	s7,29
    4490:	010bd463          	bge	s7,a6,4498 <.L501+0xc>
    4494:	68d0206f          	j	7320 <.L510>
    4498:	11800b93          	li	s7,280
    449c:	012bd463          	bge	s7,s2,44a4 <.L501+0x18>
    44a0:	26c0606f          	j	a70c <.L511>
    44a4:	00815b83          	lhu	s7,8(sp)
    44a8:	009b8b93          	addi	s7,s7,9
    44ac:	010b9b93          	slli	s7,s7,0x10
    44b0:	410bdb93          	srai	s7,s7,0x10

000044b4 <.L512>:
    44b4:	01711423          	sh	s7,8(sp)
    44b8:	34b00b93          	li	s7,843
    44bc:	f8ebd6e3          	bge	s7,a4,4448 <.L516>
    44c0:	00001bb7          	lui	s7,0x1
    44c4:	a9db8b93          	addi	s7,s7,-1379 # a9d <.L470+0x35>
    44c8:	00dbd463          	bge	s7,a3,44d0 <.L512+0x1c>
    44cc:	e3cfc06f          	j	b08 <.L518>
    44d0:	f5100b93          	li	s7,-175
    44d4:	017a5463          	bge	s4,s7,44dc <.L512+0x28>
    44d8:	ab0fd06f          	j	1788 <.L517>
    44dc:	00a15b83          	lhu	s7,10(sp)
    44e0:	17000c13          	li	s8,368
    44e4:	ffbb8b93          	addi	s7,s7,-5
    44e8:	01711523          	sh	s7,10(sp)
    44ec:	00dc4463          	blt	s8,a3,44f4 <.L533>
    44f0:	ab0fd06f          	j	17a0 <.L2575>

000044f4 <.L533>:
    44f4:	3fa00b93          	li	s7,1018
    44f8:	00ebc463          	blt	s7,a4,4500 <.L532>
    44fc:	4910406f          	j	918c <.L526>

00004500 <.L532>:
    4500:	00c15b83          	lhu	s7,12(sp)
    4504:	ff7b8b93          	addi	s7,s7,-9
    4508:	010b9b93          	slli	s7,s7,0x10
    450c:	410bdb93          	srai	s7,s7,0x10
    4510:	e44fc06f          	j	b54 <.L538>

00004514 <.L2212>:
    4514:	03c00613          	li	a2,60
    4518:	00f64463          	blt	a2,a5,4520 <.L2217>
    451c:	0890706f          	j	bda4 <.L2864>

00004520 <.L2217>:
    4520:	03300713          	li	a4,51
    4524:	01f75463          	bge	a4,t6,452c <.L2214>
    4528:	5f00606f          	j	ab18 <.L2865>

0000452c <.L2214>:
    452c:	0ff00713          	li	a4,255
    4530:	00675463          	bge	a4,t1,4538 <.L2214+0xc>
    4534:	5e90506f          	j	a31c <.L2244>
    4538:	00a15703          	lhu	a4,10(sp)
    453c:	f5b00693          	li	a3,-165
    4540:	ffd70713          	addi	a4,a4,-3
    4544:	00e11523          	sh	a4,10(sp)
    4548:	00d2d463          	bge	t0,a3,4550 <.L2240>
    454c:	c91fe06f          	j	31dc <.L2669>

00004550 <.L2240>:
    4550:	01600713          	li	a4,22
    4554:	00f75463          	bge	a4,a5,455c <.L2240+0xc>
    4558:	7d10206f          	j	7528 <.L2248>
    455c:	00c15783          	lhu	a5,12(sp)
    4560:	00178793          	addi	a5,a5,1
    4564:	01079793          	slli	a5,a5,0x10
    4568:	4107d793          	srai	a5,a5,0x10
    456c:	c8dfe06f          	j	31f8 <.L2242>

00004570 <.L1502>:
    4570:	03800b93          	li	s7,56
    4574:	00fbd463          	bge	s7,a5,457c <.L1502+0xc>
    4578:	61c0606f          	j	ab94 <.L2866>
    457c:	00815b83          	lhu	s7,8(sp)
    4580:	12e00c13          	li	s8,302
    4584:	ffeb8b93          	addi	s7,s7,-2
    4588:	01711423          	sh	s7,8(sp)
    458c:	b86c52e3          	bge	s8,t1,4110 <.L1504>

00004590 <.L2630>:
    4590:	00c00b93          	li	s7,12
    4594:	01cbd463          	bge	s7,t3,459c <.L1508>
    4598:	894fe06f          	j	262c <.L1505>

0000459c <.L1508>:
    459c:	00a15b83          	lhu	s7,10(sp)
    45a0:	f9800c13          	li	s8,-104
    45a4:	006b8b93          	addi	s7,s7,6
    45a8:	01711523          	sh	s7,10(sp)
    45ac:	01845463          	bge	s0,s8,45b4 <.L1507>
    45b0:	8a0fe06f          	j	2650 <.L1506>

000045b4 <.L1507>:
    45b4:	f6d00b93          	li	s7,-147
    45b8:	017ac463          	blt	s5,s7,45c0 <.L1507+0xc>
    45bc:	6900306f          	j	7c4c <.L1542>
    45c0:	f4700b93          	li	s7,-185
    45c4:	ed7ad063          	bge	s5,s7,3c84 <.L1543>
    45c8:	00c15b83          	lhu	s7,12(sp)
    45cc:	005b8b93          	addi	s7,s7,5
    45d0:	010b9b93          	slli	s7,s7,0x10
    45d4:	410bdb93          	srai	s7,s7,0x10
    45d8:	01711623          	sh	s7,12(sp)
    45dc:	01800b93          	li	s7,24
    45e0:	b90bcce3          	blt	s7,a6,4178 <.L1532>

000045e4 <.L1544>:
    45e4:	11a00b93          	li	s7,282
    45e8:	007bc463          	blt	s7,t2,45f0 <.L1536>
    45ec:	6840306f          	j	7c70 <.L1537>

000045f0 <.L1536>:
    45f0:	ccd00b93          	li	s7,-819
    45f4:	0175c463          	blt	a1,s7,45fc <.L1536+0xc>
    45f8:	1a80606f          	j	a7a0 <.L1548>
    45fc:	00e15b83          	lhu	s7,14(sp)
    4600:	004b8b93          	addi	s7,s7,4
    4604:	01711723          	sh	s7,14(sp)
    4608:	894fe06f          	j	269c <.L1539>

0000460c <.L1254>:
    460c:	07000b93          	li	s7,112
    4610:	012bd463          	bge	s7,s2,4618 <.L1254+0xc>
    4614:	5f80306f          	j	7c0c <.L2867>
    4618:	00815b83          	lhu	s7,8(sp)
    461c:	008b8b93          	addi	s7,s7,8
    4620:	010b9b93          	slli	s7,s7,0x10
    4624:	410bdb93          	srai	s7,s7,0x10

00004628 <.L1253>:
    4628:	01711423          	sh	s7,8(sp)
    462c:	08c00b93          	li	s7,140
    4630:	006bc463          	blt	s7,t1,4638 <.L1253+0x10>
    4634:	ca1fd06f          	j	22d4 <.L1250>
    4638:	00c00b93          	li	s7,12
    463c:	01cbc463          	blt	s7,t3,4644 <.L1275>
    4640:	1440606f          	j	a784 <.L1251>

00004644 <.L1275>:
    4644:	1fa00b93          	li	s7,506
    4648:	016bc463          	blt	s7,s6,4650 <.L1275+0xc>
    464c:	6e80506f          	j	9d34 <.L1252>
    4650:	00a15b83          	lhu	s7,10(sp)
    4654:	002b8b93          	addi	s7,s7,2
    4658:	010b9b93          	slli	s7,s7,0x10
    465c:	010bdb93          	srli	s7,s7,0x10

00004660 <.L1297>:
    4660:	01711523          	sh	s7,10(sp)
    4664:	03300b93          	li	s7,51
    4668:	00fbd463          	bge	s7,a5,4670 <.L2733>
    466c:	6e40106f          	j	5d50 <.L1284>

00004670 <.L2733>:
    4670:	00900b93          	li	s7,9
    4674:	011bc463          	blt	s7,a7,467c <.L1287>
    4678:	69c0306f          	j	7d14 <.L2610>

0000467c <.L1287>:
    467c:	00300b93          	li	s7,3
    4680:	010bd463          	bge	s7,a6,4688 <.L1287+0xc>
    4684:	6fc0306f          	j	7d80 <.L1291>
    4688:	00c15b83          	lhu	s7,12(sp)
    468c:	ffeb8b93          	addi	s7,s7,-2
    4690:	01711623          	sh	s7,12(sp)

00004694 <.L1292>:
    4694:	f3900b93          	li	s7,-199
    4698:	017a5463          	bge	s4,s7,46a0 <.L1299>
    469c:	6910406f          	j	952c <.L1302>

000046a0 <.L1299>:
    46a0:	01800b93          	li	s7,24
    46a4:	012bc463          	blt	s7,s2,46ac <.L1299+0xc>
    46a8:	68c0306f          	j	7d34 <.L2613>
    46ac:	00e15b83          	lhu	s7,14(sp)
    46b0:	ffe00c13          	li	s8,-2
    46b4:	005b8b93          	addi	s7,s7,5
    46b8:	01711723          	sh	s7,14(sp)
    46bc:	01885463          	bge	a6,s8,46c4 <.L1301>
    46c0:	82cfd06f          	j	16ec <.L1300>

000046c4 <.L1301>:
    46c4:	00300b93          	li	s7,3
    46c8:	00dbd463          	bge	s7,a3,46d0 <.L1301+0xc>
    46cc:	4980506f          	j	9b64 <.L1331>
    46d0:	00815b83          	lhu	s7,8(sp)
    46d4:	003b8b93          	addi	s7,s7,3
    46d8:	010b9b93          	slli	s7,s7,0x10
    46dc:	410bdb93          	srai	s7,s7,0x10
    46e0:	c81fd06f          	j	2360 <.L1332>

000046e4 <.L956>:
    46e4:	fe200b93          	li	s7,-30
    46e8:	01764463          	blt	a2,s7,46f0 <.L956+0xc>
    46ec:	7700206f          	j	6e5c <.L2868>
    46f0:	e3d00b93          	li	s7,-451
    46f4:	09745263          	bge	s0,s7,4778 <.L958>
    46f8:	00a15b83          	lhu	s7,10(sp)
    46fc:	03900c13          	li	s8,57
    4700:	ff9b8b93          	addi	s7,s7,-7
    4704:	01711523          	sh	s7,10(sp)
    4708:	00dc4463          	blt	s8,a3,4710 <.L956+0x2c>
    470c:	ac1fc06f          	j	11cc <.L960>
    4710:	02700b93          	li	s7,39
    4714:	08ebc463          	blt	s7,a4,479c <.L966>

00004718 <.L961>:
    4718:	00c15b83          	lhu	s7,12(sp)
    471c:	cf000c13          	li	s8,-784
    4720:	fffb8b93          	addi	s7,s7,-1
    4724:	01711623          	sh	s7,12(sp)
    4728:	0985d463          	bge	a1,s8,47b0 <.L2408>

0000472c <.L962>:
    472c:	25d00b93          	li	s7,605
    4730:	009bc463          	blt	s7,s1,4738 <.L962+0xc>
    4734:	ac1fc06f          	j	11f4 <.L982>
    4738:	0f600b93          	li	s7,246
    473c:	007bd463          	bge	s7,t2,4744 <.L962+0x18>
    4740:	6a40106f          	j	5de4 <.L992>
    4744:	00e15b83          	lhu	s7,14(sp)
    4748:	fa300c13          	li	s8,-93
    474c:	ffab8b93          	addi	s7,s7,-6
    4750:	01711723          	sh	s7,14(sp)
    4754:	0182d463          	bge	t0,s8,475c <.L2595>
    4758:	6a40106f          	j	5dfc <.L985>

0000475c <.L2595>:
    475c:	11c00b93          	li	s7,284
    4760:	012bd463          	bge	s7,s2,4768 <.L990>
    4764:	6d80406f          	j	8e3c <.L991>

00004768 <.L990>:
    4768:	00815b83          	lhu	s7,8(sp)
    476c:	001b8b93          	addi	s7,s7,1
    4770:	01711423          	sh	s7,8(sp)
    4774:	aadfc06f          	j	1220 <.L1002>

00004778 <.L958>:
    4778:	00a15b83          	lhu	s7,10(sp)
    477c:	03900c13          	li	s8,57
    4780:	005b8b93          	addi	s7,s7,5
    4784:	01711523          	sh	s7,10(sp)
    4788:	00dc4463          	blt	s8,a3,4790 <.L958+0x18>
    478c:	a41fc06f          	j	11cc <.L960>
    4790:	02700b93          	li	s7,39
    4794:	00ebc463          	blt	s7,a4,479c <.L966>
    4798:	7100406f          	j	8ea8 <.L972>

0000479c <.L966>:
    479c:	00c15b83          	lhu	s7,12(sp)
    47a0:	cf000c13          	li	s8,-784
    47a4:	002b8b93          	addi	s7,s7,2
    47a8:	01711623          	sh	s7,12(sp)
    47ac:	f985c0e3          	blt	a1,s8,472c <.L962>

000047b0 <.L2408>:
    47b0:	0de00b93          	li	s7,222
    47b4:	012bd463          	bge	s7,s2,47bc <.L988>
    47b8:	5980206f          	j	6d50 <.L984>

000047bc <.L988>:
    47bc:	00e15b83          	lhu	s7,14(sp)
    47c0:	fa300c13          	li	s8,-93
    47c4:	ffab8b93          	addi	s7,s7,-6
    47c8:	01711723          	sh	s7,14(sp)
    47cc:	0182d463          	bge	t0,s8,47d4 <.L988+0x18>
    47d0:	62c0106f          	j	5dfc <.L985>
    47d4:	11c00b93          	li	s7,284
    47d8:	012bc463          	blt	s7,s2,47e0 <.L995>
    47dc:	eccfd06f          	j	1ea8 <.L994>

000047e0 <.L995>:
    47e0:	00815b83          	lhu	s7,8(sp)
    47e4:	006b8b93          	addi	s7,s7,6
    47e8:	01711423          	sh	s7,8(sp)
    47ec:	a35fc06f          	j	1220 <.L1002>

000047f0 <.L1376>:
    47f0:	00815b83          	lhu	s7,8(sp)
    47f4:	03900c13          	li	s8,57
    47f8:	ffdb8b93          	addi	s7,s7,-3
    47fc:	01711423          	sh	s7,8(sp)
    4800:	f46c4863          	blt	s8,t1,3f50 <.L2619>

00004804 <.L1372>:
    4804:	00800b93          	li	s7,8
    4808:	011bd463          	bge	s7,a7,4810 <.L1372+0xc>
    480c:	49c0306f          	j	7ca8 <.L2869>
    4810:	00900b93          	li	s7,9
    4814:	01dbd463          	bge	s7,t4,481c <.L1372+0x18>
    4818:	3280406f          	j	8b40 <.L1387>
    481c:	00a15b83          	lhu	s7,10(sp)
    4820:	00100c13          	li	s8,1
    4824:	ffbb8b93          	addi	s7,s7,-5
    4828:	01711523          	sh	s7,10(sp)
    482c:	01cc4463          	blt	s8,t3,4834 <.L1372+0x30>
    4830:	1400706f          	j	b970 <.L1388>
    4834:	ff000b93          	li	s7,-16
    4838:	01764463          	blt	a2,s7,4840 <.L1389>
    483c:	6400706f          	j	be7c <.L2870>

00004840 <.L1389>:
    4840:	00c15b83          	lhu	s7,12(sp)
    4844:	007b8b93          	addi	s7,s7,7
    4848:	01711623          	sh	s7,12(sp)
    484c:	03c00b93          	li	s7,60
    4850:	f2fbd663          	bge	s7,a5,3f7c <.L1403>

00004854 <.L1390>:
    4854:	0dc00b93          	li	s7,220
    4858:	00ebc463          	blt	s7,a4,4860 <.L1390+0xc>
    485c:	0050406f          	j	9060 <.L2871>
    4860:	01f00b93          	li	s7,31
    4864:	010bd463          	bge	s7,a6,486c <.L1390+0x18>
    4868:	6040606f          	j	ae6c <.L1421>
    486c:	00e15b83          	lhu	s7,14(sp)
    4870:	ff8b8b93          	addi	s7,s7,-8
    4874:	01711723          	sh	s7,14(sp)
    4878:	c2dfd06f          	j	24a4 <.L1411>

0000487c <.L1152>:
    487c:	00700b93          	li	s7,7
    4880:	011bd463          	bge	s7,a7,4888 <.L1152+0xc>
    4884:	2310206f          	j	72b4 <.L1165>
    4888:	00815b83          	lhu	s7,8(sp)
    488c:	fffb8b93          	addi	s7,s7,-1
    4890:	010b9b93          	slli	s7,s7,0x10
    4894:	010bdb93          	srli	s7,s7,0x10

00004898 <.L1166>:
    4898:	01711423          	sh	s7,8(sp)
    489c:	1b900b93          	li	s7,441
    48a0:	01ebd463          	bge	s7,t5,48a8 <.L1166+0x10>
    48a4:	8d5fd06f          	j	2178 <.L1162>
    48a8:	03b00b93          	li	s7,59
    48ac:	00fbc463          	blt	s7,a5,48b4 <.L1164>
    48b0:	4d40206f          	j	6d84 <.L1158>

000048b4 <.L1164>:
    48b4:	ffe00b93          	li	s7,-2
    48b8:	9b764263          	blt	a2,s7,3a5c <.L1161>
    48bc:	00a15b83          	lhu	s7,10(sp)
    48c0:	03c00c13          	li	s8,60
    48c4:	002b8b93          	addi	s7,s7,2
    48c8:	01711523          	sh	s7,10(sp)
    48cc:	00fc5463          	bge	s8,a5,48d4 <.L1164+0x20>
    48d0:	8d5fd06f          	j	21a4 <.L1171>
    48d4:	00f00b93          	li	s7,15
    48d8:	010bc463          	blt	s7,a6,48e0 <.L1192>
    48dc:	c59fc06f          	j	1534 <.L1188>

000048e0 <.L1192>:
    48e0:	00c15b83          	lhu	s7,12(sp)
    48e4:	ff8b8b93          	addi	s7,s7,-8
    48e8:	010b9b93          	slli	s7,s7,0x10
    48ec:	410bdb93          	srai	s7,s7,0x10
    48f0:	8ddfd06f          	j	21cc <.L1189>

000048f4 <.L1829>:
    48f4:	00815b83          	lhu	s7,8(sp)
    48f8:	03300c13          	li	s8,51
    48fc:	ff3b8b93          	addi	s7,s7,-13
    4900:	01711423          	sh	s7,8(sp)
    4904:	01fc5463          	bge	s8,t6,490c <.L1832>
    4908:	a04fe06f          	j	2b0c <.L1831>

0000490c <.L1832>:
    490c:	1c600b93          	li	s7,454
    4910:	00ebd463          	bge	s7,a4,4918 <.L1832+0xc>
    4914:	07c0406f          	j	8990 <.L1841>
    4918:	03300b93          	li	s7,51
    491c:	017f9463          	bne	t6,s7,4924 <.L1832+0x18>
    4920:	4a50606f          	j	b5c4 <.L1842>
    4924:	00a15b83          	lhu	s7,10(sp)
    4928:	ff8b8b93          	addi	s7,s7,-8
    492c:	010b9b93          	slli	s7,s7,0x10
    4930:	410bdb93          	srai	s7,s7,0x10
    4934:	01711523          	sh	s7,10(sp)

00004938 <.L2882>:
    4938:	00100b93          	li	s7,1
    493c:	01cbd463          	bge	s7,t3,4944 <.L2814>
    4940:	9ecfe06f          	j	2b2c <.L1849>

00004944 <.L2814>:
    4944:	01100b93          	li	s7,17
    4948:	011bd463          	bge	s7,a7,4950 <.L2814+0xc>
    494c:	6b80406f          	j	9004 <.L1850>
    4950:	00c15b83          	lhu	s7,12(sp)
    4954:	c0000c13          	li	s8,-1024
    4958:	ff8b8b93          	addi	s7,s7,-8
    495c:	01711623          	sh	s7,12(sp)
    4960:	0185d463          	bge	a1,s8,4968 <.L2814+0x24>
    4964:	1b10606f          	j	b314 <.L1851>
    4968:	01f00b93          	li	s7,31
    496c:	013bc463          	blt	s7,s3,4974 <.L2814+0x30>
    4970:	0280706f          	j	b998 <.L1852>
    4974:	00815b83          	lhu	s7,8(sp)
    4978:	f8b00c13          	li	s8,-117
    497c:	ff9b8b93          	addi	s7,s7,-7
    4980:	01711423          	sh	s7,8(sp)
    4984:	0185d463          	bge	a1,s8,498c <.L1855>
    4988:	a08fe06f          	j	2b90 <.L1874>

0000498c <.L1855>:
    498c:	00a15b83          	lhu	s7,10(sp)
    4990:	ffeb8b93          	addi	s7,s7,-2
    4994:	010b9b93          	slli	s7,s7,0x10
    4998:	410bdb93          	srai	s7,s7,0x10
    499c:	01711523          	sh	s7,10(sp)

000049a0 <.L2892>:
    49a0:	fdb00b93          	li	s7,-37
    49a4:	01775463          	bge	a4,s7,49ac <.L1882>
    49a8:	a18fe06f          	j	2bc0 <.L2872>

000049ac <.L1882>:
    49ac:	02700b93          	li	s7,39
    49b0:	00ebd463          	bge	s7,a4,49b8 <.L1882+0xc>
    49b4:	1bd0306f          	j	8370 <.L1888>
    49b8:	03c00b93          	li	s7,60
    49bc:	00dbd863          	bge	s7,a3,49cc <.L1889>
    49c0:	00c15b83          	lhu	s7,12(sp)
    49c4:	007b8b93          	addi	s7,s7,7
    49c8:	01711623          	sh	s7,12(sp)

000049cc <.L1889>:
    49cc:	05800b93          	li	s7,88
    49d0:	769bc263          	blt	s7,s1,5134 <.L1884>
    49d4:	f5300b93          	li	s7,-173
    49d8:	01745463          	bge	s0,s7,49e0 <.L1889+0x14>
    49dc:	1c50306f          	j	83a0 <.L1885>
    49e0:	ff900b93          	li	s7,-7
    49e4:	01775463          	bge	a4,s7,49ec <.L1899>
    49e8:	a08fe06f          	j	2bf0 <.L1886>

000049ec <.L1899>:
    49ec:	00e15b83          	lhu	s7,14(sp)
    49f0:	ffbb8b93          	addi	s7,s7,-5
    49f4:	010b9b93          	slli	s7,s7,0x10
    49f8:	410bdb93          	srai	s7,s7,0x10
    49fc:	01711723          	sh	s7,14(sp)
    4a00:	07300b93          	li	s7,115
    4a04:	012bd463          	bge	s7,s2,4a0c <.L1894>
    4a08:	a08fe06f          	j	2c10 <.L1900>

00004a0c <.L1894>:
    4a0c:	00c00b93          	li	s7,12
    4a10:	651bce63          	blt	s7,a7,506c <.L1901>
    4a14:	673bc663          	blt	s7,s3,5080 <.L1907>
    4a18:	00815b83          	lhu	s7,8(sp)
    4a1c:	02b00c13          	li	s8,43
    4a20:	009b8b93          	addi	s7,s7,9
    4a24:	01711423          	sh	s7,8(sp)
    4a28:	670c4263          	blt	s8,a6,508c <.L1903>

00004a2c <.L1912>:
    4a2c:	d7400b93          	li	s7,-652
    4a30:	017ac463          	blt	s5,s7,4a38 <.L1912+0xc>
    4a34:	a1cfe06f          	j	2c50 <.L1914>
    4a38:	00a15b83          	lhu	s7,10(sp)
    4a3c:	ff9b8b93          	addi	s7,s7,-7
    4a40:	01711523          	sh	s7,10(sp)
    4a44:	00100b93          	li	s7,1
    4a48:	01cbd463          	bge	s7,t3,4a50 <.L1916>
    4a4c:	a10fe06f          	j	2c5c <.L2495>

00004a50 <.L1916>:
    4a50:	02100b93          	li	s7,33
    4a54:	00ebd463          	bge	s7,a4,4a5c <.L1916+0xc>
    4a58:	0e80106f          	j	5b40 <.L2651>
    4a5c:	00c15b83          	lhu	s7,12(sp)
    4a60:	fffb8b93          	addi	s7,s7,-1
    4a64:	010b9b93          	slli	s7,s7,0x10
    4a68:	410bdb93          	srai	s7,s7,0x10
    4a6c:	01711623          	sh	s7,12(sp)
    4a70:	ff600b93          	li	s7,-10
    4a74:	01765463          	bge	a2,s7,4a7c <.L1930>
    4a78:	a1cfe06f          	j	2c94 <.L2873>

00004a7c <.L1930>:
    4a7c:	ff600b93          	li	s7,-10
    4a80:	01761463          	bne	a2,s7,4a88 <.L1930+0xc>
    4a84:	1450406f          	j	93c8 <.L2874>
    4a88:	01400b93          	li	s7,20
    4a8c:	013bd463          	bge	s7,s3,4a94 <.L1937>
    4a90:	5040106f          	j	5f94 <.L2652>

00004a94 <.L1937>:
    4a94:	00e15b83          	lhu	s7,14(sp)
    4a98:	fffb8b93          	addi	s7,s7,-1
    4a9c:	01711723          	sh	s7,14(sp)
    4aa0:	39000b93          	li	s7,912
    4aa4:	006bc463          	blt	s7,t1,4aac <.L1939>
    4aa8:	a1cfe06f          	j	2cc4 <.L2875>

00004aac <.L1939>:
    4aac:	01c00b93          	li	s7,28
    4ab0:	00ebd463          	bge	s7,a4,4ab8 <.L1939+0xc>
    4ab4:	6540306f          	j	8108 <.L1943>
    4ab8:	00815b83          	lhu	s7,8(sp)
    4abc:	00bb8b93          	addi	s7,s7,11
    4ac0:	01711423          	sh	s7,8(sp)
    4ac4:	e2400b93          	li	s7,-476
    4ac8:	0172d463          	bge	t0,s7,4ad0 <.L1945>
    4acc:	a24fe06f          	j	2cf0 <.L2876>

00004ad0 <.L1945>:
    4ad0:	03c00b93          	li	s7,60
    4ad4:	01fbd463          	bge	s7,t6,4adc <.L1945+0xc>
    4ad8:	0cd0206f          	j	73a4 <.L1956>
    4adc:	00900b93          	li	s7,9
    4ae0:	01cbd463          	bge	s7,t3,4ae8 <.L1945+0x18>
    4ae4:	6380606f          	j	b11c <.L1957>
    4ae8:	00a15b83          	lhu	s7,10(sp)
    4aec:	001b8b93          	addi	s7,s7,1
    4af0:	010b9b93          	slli	s7,s7,0x10
    4af4:	410bdb93          	srai	s7,s7,0x10
    4af8:	01711523          	sh	s7,10(sp)
    4afc:	03c00b93          	li	s7,60
    4b00:	00fbd463          	bge	s7,a5,4b08 <.L1963>
    4b04:	a24fe06f          	j	2d28 <.L1959>

00004b08 <.L1963>:
    4b08:	42200b93          	li	s7,1058
    4b0c:	007bc463          	blt	s7,t2,4b14 <.L1951>
    4b10:	3d80406f          	j	8ee8 <.L1950>

00004b14 <.L1951>:
    4b14:	e2300b93          	li	s7,-477
    4b18:	01744463          	blt	s0,s7,4b20 <.L1951+0xc>
    4b1c:	6c10406f          	j	99dc <.L1976>
    4b20:	00c15b83          	lhu	s7,12(sp)
    4b24:	05800c13          	li	s8,88
    4b28:	006b8b93          	addi	s7,s7,6
    4b2c:	01711623          	sh	s7,12(sp)
    4b30:	009c5463          	bge	s8,s1,4b38 <.L2655>
    4b34:	6cd0406f          	j	9a00 <.L1977>

00004b38 <.L2655>:
    4b38:	00e15b83          	lhu	s7,14(sp)
    4b3c:	00eb8b93          	addi	s7,s7,14
    4b40:	01711723          	sh	s7,14(sp)

00004b44 <.L1995>:
    4b44:	e7b00b93          	li	s7,-389
    4b48:	0175c463          	blt	a1,s7,4b50 <.L1995+0xc>
    4b4c:	4e40206f          	j	7030 <.L1988>
    4b50:	00815b83          	lhu	s7,8(sp)
    4b54:	ffab8b93          	addi	s7,s7,-6
    4b58:	01711423          	sh	s7,8(sp)
    4b5c:	02e00b93          	li	s7,46
    4b60:	01dbd463          	bge	s7,t4,4b68 <.L1993>
    4b64:	a38fe06f          	j	2d9c <.L2877>

00004b68 <.L1993>:
    4b68:	01d00b93          	li	s7,29
    4b6c:	011bd463          	bge	s7,a7,4b74 <.L1993+0xc>
    4b70:	56c0306f          	j	80dc <.L2878>
    4b74:	ffe00b93          	li	s7,-2
    4b78:	01784463          	blt	a6,s7,4b80 <.L2501>
    4b7c:	a38fe06f          	j	2db4 <.L1999>

00004b80 <.L2501>:
    4b80:	00a15b83          	lhu	s7,10(sp)
    4b84:	ff9b8b93          	addi	s7,s7,-7
    4b88:	01711523          	sh	s7,10(sp)
    4b8c:	a28fe06f          	j	2db4 <.L1999>

00004b90 <.L1778>:
    4b90:	ff800b93          	li	s7,-8
    4b94:	01764463          	blt	a2,s7,4b9c <.L1778+0xc>
    4b98:	5750206f          	j	790c <.L1785>
    4b9c:	01f00b93          	li	s7,31
    4ba0:	571bcce3          	blt	s7,a7,5918 <.L1786>
    4ba4:	00815b83          	lhu	s7,8(sp)
    4ba8:	02e00c13          	li	s8,46
    4bac:	003b8b93          	addi	s7,s7,3
    4bb0:	01711423          	sh	s7,8(sp)
    4bb4:	57dc4ce3          	blt	s8,t4,592c <.L1780>
    4bb8:	01700b93          	li	s7,23
    4bbc:	011bc463          	blt	s7,a7,4bc4 <.L1789>
    4bc0:	e91fd06f          	j	2a50 <.L1783>

00004bc4 <.L1789>:
    4bc4:	00a15b83          	lhu	s7,10(sp)
    4bc8:	01500c13          	li	s8,21
    4bcc:	ff9b8b93          	addi	s7,s7,-7
    4bd0:	01711523          	sh	s7,10(sp)
    4bd4:	330c50e3          	bge	s8,a6,56f4 <.L1787>
    4bd8:	03b00b93          	li	s7,59
    4bdc:	06fbd263          	bge	s7,a5,4c40 <.L1795>

00004be0 <.L1796>:
    4be0:	1df00b93          	li	s7,479
    4be4:	01ebc463          	blt	s7,t5,4bec <.L1796+0xc>
    4be8:	eadfd06f          	j	2a94 <.L2646>
    4bec:	00c15b83          	lhu	s7,12(sp)
    4bf0:	00300c13          	li	s8,3
    4bf4:	018b8bb3          	add	s7,s7,s8
    4bf8:	01711623          	sh	s7,12(sp)
    4bfc:	01cc5463          	bge	s8,t3,4c04 <.L1796+0x24>
    4c00:	3e90606f          	j	b7e8 <.L1810>
    4c04:	01300b93          	li	s7,19
    4c08:	01dbd463          	bge	s7,t4,4c10 <.L1796+0x30>
    4c0c:	0440706f          	j	bc50 <.L2879>
    4c10:	02e00b93          	li	s7,46
    4c14:	012bd463          	bge	s7,s2,4c1c <.L1796+0x3c>
    4c18:	34c0706f          	j	bf64 <.L2880>
    4c1c:	00e15c03          	lhu	s8,14(sp)
    4c20:	00815b83          	lhu	s7,8(sp)
    4c24:	ff9c0c13          	addi	s8,s8,-7

00004c28 <.L2649>:
    4c28:	fffb8b93          	addi	s7,s7,-1
    4c2c:	01711423          	sh	s7,8(sp)
    4c30:	01811723          	sh	s8,14(sp)
    4c34:	03300b93          	li	s7,51
    4c38:	09fbc463          	blt	s7,t6,4cc0 <.L1846>
    4c3c:	cd1ff06f          	j	490c <.L1832>

00004c40 <.L1795>:
    4c40:	00c15b83          	lhu	s7,12(sp)
    4c44:	008b8b93          	addi	s7,s7,8
    4c48:	01711623          	sh	s7,12(sp)
    4c4c:	00300b93          	li	s7,3
    4c50:	01cbc463          	blt	s7,t3,4c58 <.L1801>
    4c54:	e59fd06f          	j	2aac <.L2881>

00004c58 <.L1801>:
    4c58:	e4a00b93          	li	s7,-438
    4c5c:	0172c463          	blt	t0,s7,4c64 <.L1801+0xc>
    4c60:	1940406f          	j	8df4 <.L1821>
    4c64:	de700b93          	li	s7,-537
    4c68:	0175c863          	blt	a1,s7,4c78 <.L1822>

00004c6c <.L2647>:
    4c6c:	00e15b83          	lhu	s7,14(sp)
    4c70:	ff8b8b93          	addi	s7,s7,-8
    4c74:	01711723          	sh	s7,14(sp)

00004c78 <.L1822>:
    4c78:	0a900b93          	li	s7,169
    4c7c:	01ebc463          	blt	s7,t5,4c84 <.L1827>
    4c80:	e5dfd06f          	j	2adc <.L1818>

00004c84 <.L1827>:
    4c84:	01700b93          	li	s7,23
    4c88:	6fdbd2e3          	bge	s7,t4,5b6c <.L2648>

00004c8c <.L1836>:
    4c8c:	01c51c03          	lh	s8,28(a0)
    4c90:	02500b93          	li	s7,37
    4c94:	6d8bdce3          	bge	s7,s8,5b6c <.L2648>
    4c98:	00815b83          	lhu	s7,8(sp)
    4c9c:	004b8b93          	addi	s7,s7,4
    4ca0:	010b9b93          	slli	s7,s7,0x10
    4ca4:	410bdb93          	srai	s7,s7,0x10

00004ca8 <.L1835>:
    4ca8:	01711423          	sh	s7,8(sp)
    4cac:	03300b93          	li	s7,51
    4cb0:	c5fbdee3          	bge	s7,t6,490c <.L1832>
    4cb4:	03b00b93          	li	s7,59
    4cb8:	00fbc463          	blt	s7,a5,4cc0 <.L1846>
    4cbc:	e51fd06f          	j	2b0c <.L1831>

00004cc0 <.L1846>:
    4cc0:	17900b93          	li	s7,377
    4cc4:	009bd463          	bge	s7,s1,4ccc <.L1846+0xc>
    4cc8:	e59fd06f          	j	2b20 <.L1845>
    4ccc:	00a15b83          	lhu	s7,10(sp)
    4cd0:	ff9b8b93          	addi	s7,s7,-7
    4cd4:	01711523          	sh	s7,10(sp)
    4cd8:	c61ff06f          	j	4938 <.L2882>

00004cdc <.L1759>:
    4cdc:	faf00b93          	li	s7,-81
    4ce0:	01744463          	blt	s0,s7,4ce8 <.L1759+0xc>
    4ce4:	7440306f          	j	8428 <.L2883>
    4ce8:	00c15b83          	lhu	s7,12(sp)
    4cec:	02700c13          	li	s8,39
    4cf0:	001b8b93          	addi	s7,s7,1
    4cf4:	01711623          	sh	s7,12(sp)
    4cf8:	007c4463          	blt	s8,t2,4d00 <.L1763>
    4cfc:	7440306f          	j	8440 <.L1762>

00004d00 <.L1763>:
    4d00:	03000b93          	li	s7,48
    4d04:	007bd463          	bge	s7,t2,4d0c <.L1763+0xc>
    4d08:	68d0106f          	j	6b94 <.L1776>
    4d0c:	0b800b93          	li	s7,184
    4d10:	009bd463          	bge	s7,s1,4d18 <.L1763+0x18>
    4d14:	1680606f          	j	ae7c <.L1777>
    4d18:	00e15b83          	lhu	s7,14(sp)
    4d1c:	00db8b93          	addi	s7,s7,13
    4d20:	01711723          	sh	s7,14(sp)
    4d24:	cfdfd06f          	j	2a20 <.L1775>

00004d28 <.L1753>:
    4d28:	00c00b93          	li	s7,12
    4d2c:	01cbd463          	bge	s7,t3,4d34 <.L1753+0xc>
    4d30:	6810106f          	j	6bb0 <.L1757>
    4d34:	03300b93          	li	s7,51
    4d38:	01fbd463          	bge	s7,t6,4d40 <.L1753+0x18>
    4d3c:	4790306f          	j	89b4 <.L1758>
    4d40:	00a15b83          	lhu	s7,10(sp)
    4d44:	ffab8b93          	addi	s7,s7,-6
    4d48:	01711523          	sh	s7,10(sp)
    4d4c:	f9800b93          	li	s7,-104
    4d50:	01745463          	bge	s0,s7,4d58 <.L2812>
    4d54:	c7dfd06f          	j	29d0 <.L1768>

00004d58 <.L2812>:
    4d58:	faf00b93          	li	s7,-81
    4d5c:	01744463          	blt	s0,s7,4d64 <.L2812+0xc>
    4d60:	c85fd06f          	j	29e4 <.L1772>
    4d64:	03200b93          	li	s7,50
    4d68:	01fbd463          	bge	s7,t6,4d70 <.L2812+0x18>
    4d6c:	7280606f          	j	b494 <.L1773>
    4d70:	00c15b83          	lhu	s7,12(sp)
    4d74:	011b8b93          	addi	s7,s7,17
    4d78:	01711623          	sh	s7,12(sp)
    4d7c:	c75fd06f          	j	29f0 <.L1770>

00004d80 <.L1725>:
    4d80:	00a15b83          	lhu	s7,10(sp)
    4d84:	02200c13          	li	s8,34
    4d88:	ff5b8b93          	addi	s7,s7,-11
    4d8c:	01711523          	sh	s7,10(sp)
    4d90:	011c5463          	bge	s8,a7,4d98 <.L1725+0x18>
    4d94:	14d0606f          	j	b6e0 <.L1726>
    4d98:	01700b93          	li	s7,23
    4d9c:	01dbd463          	bge	s7,t4,4da4 <.L1725+0x24>
    4da0:	7380306f          	j	84d8 <.L1727>
    4da4:	1dc00b93          	li	s7,476
    4da8:	01ebd463          	bge	s7,t5,4db0 <.L1728>
    4dac:	b8dfd06f          	j	2938 <.L1729>

00004db0 <.L1728>:
    4db0:	01d00b93          	li	s7,29
    4db4:	453bc463          	blt	s7,s3,51fc <.L1745>
    4db8:	ff500b93          	li	s7,-11
    4dbc:	01794463          	blt	s2,s7,4dc4 <.L1728+0x14>
    4dc0:	6d40506f          	j	a494 <.L1746>
    4dc4:	00e15b83          	lhu	s7,14(sp)
    4dc8:	01500c13          	li	s8,21
    4dcc:	004b8b93          	addi	s7,s7,4
    4dd0:	01711723          	sh	s7,14(sp)
    4dd4:	447c4863          	blt	s8,t2,5224 <.L1742>

00004dd8 <.L1747>:
    4dd8:	00815b83          	lhu	s7,8(sp)
    4ddc:	008b8b93          	addi	s7,s7,8
    4de0:	01711423          	sh	s7,8(sp)
    4de4:	bb1fd06f          	j	2994 <.L1749>

00004de8 <.L769>:
    4de8:	00e15b83          	lhu	s7,14(sp)
    4dec:	004b8b93          	addi	s7,s7,4
    4df0:	010b9b93          	slli	s7,s7,0x10
    4df4:	410bdb93          	srai	s7,s7,0x10
    4df8:	01711723          	sh	s7,14(sp)
    4dfc:	ffe00b93          	li	s7,-2
    4e00:	01784463          	blt	a6,s7,4e08 <.L783>
    4e04:	d49fc06f          	j	1b4c <.L786>

00004e08 <.L783>:
    4e08:	0a400b93          	li	s7,164
    4e0c:	00dbd463          	bge	s7,a3,4e14 <.L783+0xc>
    4e10:	6110306f          	j	8c20 <.L776>
    4e14:	1aa00b93          	li	s7,426
    4e18:	016bd463          	bge	s7,s6,4e20 <.L783+0x18>
    4e1c:	76c0506f          	j	a588 <.L787>
    4e20:	00815b83          	lhu	s7,8(sp)
    4e24:	03300c13          	li	s8,51
    4e28:	007b8b93          	addi	s7,s7,7
    4e2c:	01711423          	sh	s7,8(sp)
    4e30:	01fc4463          	blt	s8,t6,4e38 <.L789>
    4e34:	d49fc06f          	j	1b7c <.L788>

00004e38 <.L789>:
    4e38:	0c400b93          	li	s7,196
    4e3c:	016bd463          	bge	s7,s6,4e44 <.L789+0xc>
    4e40:	2450606f          	j	b884 <.L802>
    4e44:	00a15b83          	lhu	s7,10(sp)
    4e48:	ff8b8b93          	addi	s7,s7,-8
    4e4c:	010b9b93          	slli	s7,s7,0x10
    4e50:	410bdb93          	srai	s7,s7,0x10

00004e54 <.L800>:
    4e54:	01711523          	sh	s7,10(sp)
    4e58:	ffc00b93          	li	s7,-4
    4e5c:	01765463          	bge	a2,s7,4e64 <.L800+0x10>
    4e60:	d49fc06f          	j	1ba8 <.L797>
    4e64:	01005463          	blez	a6,4e6c <.L803>
    4e68:	8d0fc06f          	j	f38 <.L812>

00004e6c <.L803>:
    4e6c:	03500b93          	li	s7,53
    4e70:	2efbc263          	blt	s7,a5,5154 <.L813>
    4e74:	00c15b83          	lhu	s7,12(sp)
    4e78:	03800c13          	li	s8,56
    4e7c:	ff9b8b93          	addi	s7,s7,-7
    4e80:	01711623          	sh	s7,12(sp)
    4e84:	00ec5463          	bge	s8,a4,4e8c <.L814>
    4e88:	5210306f          	j	8ba8 <.L815>

00004e8c <.L814>:
    4e8c:	00e15b83          	lhu	s7,14(sp)
    4e90:	ff7b8b93          	addi	s7,s7,-9
    4e94:	010b9b93          	slli	s7,s7,0x10
    4e98:	410bdb93          	srai	s7,s7,0x10
    4e9c:	8c4fc06f          	j	f60 <.L820>

00004ea0 <.L772>:
    4ea0:	00c15b83          	lhu	s7,12(sp)
    4ea4:	03e00c13          	li	s8,62
    4ea8:	004b8b93          	addi	s7,s7,4
    4eac:	01711623          	sh	s7,12(sp)
    4eb0:	00fc4463          	blt	s8,a5,4eb8 <.L752>
    4eb4:	c6dfc06f          	j	1b20 <.L751>

00004eb8 <.L752>:
    4eb8:	fec00b93          	li	s7,-20
    4ebc:	01765463          	bge	a2,s7,4ec4 <.L755>
    4ec0:	80cfc06f          	j	ecc <.L780>

00004ec4 <.L755>:
    4ec4:	00e15b83          	lhu	s7,14(sp)
    4ec8:	ffe00c13          	li	s8,-2
    4ecc:	009b8b93          	addi	s7,s7,9
    4ed0:	01711723          	sh	s7,14(sp)
    4ed4:	f3884ae3          	blt	a6,s8,4e08 <.L783>

00004ed8 <.L2387>:
    4ed8:	0ba00b93          	li	s7,186
    4edc:	012bc463          	blt	s7,s2,4ee4 <.L777>
    4ee0:	810fc06f          	j	ef0 <.L784>

00004ee4 <.L777>:
    4ee4:	00815b83          	lhu	s7,8(sp)
    4ee8:	01c04463          	bgtz	t3,4ef0 <.L777+0xc>
    4eec:	3f00606f          	j	b2dc <.L2884>
    4ef0:	ff8b8b93          	addi	s7,s7,-8
    4ef4:	010b9b93          	slli	s7,s7,0x10
    4ef8:	410bdb93          	srai	s7,s7,0x10
    4efc:	804fc06f          	j	f00 <.L778>

00004f00 <.L1211>:
    4f00:	00e15b83          	lhu	s7,14(sp)
    4f04:	00400c13          	li	s8,4
    4f08:	ff6b8b93          	addi	s7,s7,-10
    4f0c:	01711723          	sh	s7,14(sp)
    4f10:	011c5463          	bge	s8,a7,4f18 <.L1209>
    4f14:	39d0206f          	j	7ab0 <.L2605>

00004f18 <.L1209>:
    4f18:	03a00b93          	li	s7,58
    4f1c:	01fbd463          	bge	s7,t6,4f24 <.L1209+0xc>
    4f20:	2350306f          	j	8954 <.L1214>
    4f24:	00815b83          	lhu	s7,8(sp)
    4f28:	00cb8b93          	addi	s7,s7,12
    4f2c:	01711423          	sh	s7,8(sp)
    4f30:	b00fd06f          	j	2230 <.L1210>

00004f34 <.L2108>:
    4f34:	0a400b13          	li	s6,164
    4f38:	01eb5863          	bge	s6,t5,4f48 <.L2102>
    4f3c:	00815b03          	lhu	s6,8(sp)
    4f40:	ff9b0b13          	addi	s6,s6,-7
    4f44:	01611423          	sh	s6,8(sp)

00004f48 <.L2102>:
    4f48:	02e00b13          	li	s6,46
    4f4c:	c5db5663          	bge	s6,t4,4398 <.L2099>
    4f50:	03900b13          	li	s6,57
    4f54:	01fb5463          	bge	s6,t6,4f5c <.L2100>
    4f58:	840fe06f          	j	2f98 <.L2112>

00004f5c <.L2100>:
    4f5c:	00e00b13          	li	s6,14
    4f60:	010b5463          	bge	s6,a6,4f68 <.L2100+0xc>
    4f64:	6600406f          	j	95c4 <.L2885>
    4f68:	00a15b03          	lhu	s6,10(sp)
    4f6c:	004b0b13          	addi	s6,s6,4
    4f70:	01611523          	sh	s6,10(sp)
    4f74:	83cfe06f          	j	2fb0 <.L2115>

00004f78 <.L2888>:
    4f78:	07400b93          	li	s7,116
    4f7c:	007bd463          	bge	s7,t2,4f84 <.L2888+0xc>
    4f80:	6340606f          	j	b5b4 <.L1701>
    4f84:	00e15b83          	lhu	s7,14(sp)
    4f88:	e4300c13          	li	s8,-445
    4f8c:	ffdb8b93          	addi	s7,s7,-3
    4f90:	01711723          	sh	s7,14(sp)
    4f94:	01845463          	bge	s0,s8,4f9c <.L1703>
    4f98:	4140406f          	j	93ac <.L1702>

00004f9c <.L1703>:
    4f9c:	03b00b93          	li	s7,59
    4fa0:	00fbd463          	bge	s7,a5,4fa8 <.L1703+0xc>
    4fa4:	7f90206f          	j	7f9c <.L1714>
    4fa8:	d6700b93          	li	s7,-665
    4fac:	017ac463          	blt	s5,s7,4fb4 <.L1703+0x18>
    4fb0:	3fc0506f          	j	a3ac <.L1715>
    4fb4:	00815b83          	lhu	s7,8(sp)
    4fb8:	00fb8b93          	addi	s7,s7,15
    4fbc:	010b9b93          	slli	s7,s7,0x10
    4fc0:	010bdb93          	srli	s7,s7,0x10

00004fc4 <.L1716>:
    4fc4:	01711423          	sh	s7,8(sp)

00004fc8 <.L1712>:
    4fc8:	03500b93          	li	s7,53
    4fcc:	00ebc463          	blt	s7,a4,4fd4 <.L1712+0xc>
    4fd0:	2400306f          	j	8210 <.L1709>
    4fd4:	1a200b93          	li	s7,418
    4fd8:	007bc463          	blt	s7,t2,4fe0 <.L1712+0x18>
    4fdc:	929fd06f          	j	2904 <.L1710>
    4fe0:	00a15b83          	lhu	s7,10(sp)
    4fe4:	ffcb8b93          	addi	s7,s7,-4
    4fe8:	010b9b93          	slli	s7,s7,0x10
    4fec:	410bdb93          	srai	s7,s7,0x10
    4ff0:	01711523          	sh	s7,10(sp)
    4ff4:	02200b93          	li	s7,34
    4ff8:	011bc463          	blt	s7,a7,5000 <.L1730>
    4ffc:	929fd06f          	j	2924 <.L2886>

00005000 <.L1730>:
    5000:	e6b00b93          	li	s7,-405
    5004:	0172c463          	blt	t0,s7,500c <.L1730+0xc>
    5008:	5d10306f          	j	8dd8 <.L1737>
    500c:	03300b93          	li	s7,51
    5010:	01dbd463          	bge	s7,t4,5018 <.L1735>
    5014:	931fd06f          	j	2944 <.L1731>

00005018 <.L1735>:
    5018:	00c15b83          	lhu	s7,12(sp)
    501c:	009b8b93          	addi	s7,s7,9
    5020:	01711623          	sh	s7,12(sp)
    5024:	921fd06f          	j	2944 <.L1731>

00005028 <.L2073>:
    5028:	ff900b13          	li	s6,-7
    502c:	01664463          	blt	a2,s6,5034 <.L2073+0xc>
    5030:	5cc0306f          	j	85fc <.L2078>
    5034:	09000b13          	li	s6,144
    5038:	012b5463          	bge	s6,s2,5040 <.L2073+0x18>
    503c:	0380206f          	j	7074 <.L2079>
    5040:	02700b13          	li	s6,39
    5044:	006b4463          	blt	s6,t1,504c <.L2658>
    5048:	0440206f          	j	708c <.L2080>

0000504c <.L2658>:
    504c:	ecb00b13          	li	s6,-309
    5050:	016ac463          	blt	s5,s6,5058 <.L2088>
    5054:	5880306f          	j	85dc <.L2081>

00005058 <.L2088>:
    5058:	00c15b03          	lhu	s6,12(sp)
    505c:	001b0b13          	addi	s6,s6,1
    5060:	010b1b13          	slli	s6,s6,0x10
    5064:	410b5b13          	srai	s6,s6,0x10
    5068:	ed9fd06f          	j	2f40 <.L2082>

0000506c <.L1901>:
    506c:	03c00b93          	li	s7,60
    5070:	01fbd863          	bge	s7,t6,5080 <.L1907>
    5074:	00815b83          	lhu	s7,8(sp)
    5078:	006b8b93          	addi	s7,s7,6
    507c:	01711423          	sh	s7,8(sp)

00005080 <.L1907>:
    5080:	02b00b93          	li	s7,43
    5084:	010bc463          	blt	s7,a6,508c <.L1903>
    5088:	ba9fd06f          	j	2c30 <.L1909>

0000508c <.L1903>:
    508c:	01400b93          	li	s7,20
    5090:	01dbd463          	bge	s7,t4,5098 <.L1903+0xc>
    5094:	4140306f          	j	84a8 <.L1915>
    5098:	00a15b83          	lhu	s7,10(sp)
    509c:	00100c13          	li	s8,1
    50a0:	ff9b8b93          	addi	s7,s7,-7
    50a4:	01711523          	sh	s7,10(sp)
    50a8:	9bcc54e3          	bge	s8,t3,4a50 <.L1916>

000050ac <.L1923>:
    50ac:	0ff00b93          	li	s7,255
    50b0:	009bd463          	bge	s7,s1,50b8 <.L1923+0xc>
    50b4:	3cc0406f          	j	9480 <.L2887>
    50b8:	00c15b83          	lhu	s7,12(sp)
    50bc:	ff600c13          	li	s8,-10
    50c0:	ffeb8b93          	addi	s7,s7,-2
    50c4:	01711623          	sh	s7,12(sp)
    50c8:	9b865ae3          	bge	a2,s8,4a7c <.L1930>

000050cc <.L1931>:
    50cc:	03c00b93          	li	s7,60
    50d0:	01fbd463          	bge	s7,t6,50d8 <.L1931+0xc>
    50d4:	be5fd06f          	j	2cb8 <.L1927>
    50d8:	00e15b83          	lhu	s7,14(sp)
    50dc:	ff8b8b93          	addi	s7,s7,-8
    50e0:	01711723          	sh	s7,14(sp)
    50e4:	bd5fd06f          	j	2cb8 <.L1927>

000050e8 <.L2811>:
    50e8:	ff600b93          	li	s7,-10
    50ec:	01765463          	bge	a2,s7,50f4 <.L1683>
    50f0:	facfd06f          	j	289c <.L1682>

000050f4 <.L1683>:
    50f4:	ff600b93          	li	s7,-10
    50f8:	e97600e3          	beq	a2,s7,4f78 <.L2888>
    50fc:	f2700b93          	li	s7,-217
    5100:	0172c463          	blt	t0,s7,5108 <.L1683+0x14>
    5104:	2e00406f          	j	93e4 <.L1704>
    5108:	00e15b83          	lhu	s7,14(sp)
    510c:	ffdb8b93          	addi	s7,s7,-3
    5110:	010b9b93          	slli	s7,s7,0x10
    5114:	010bdb93          	srli	s7,s7,0x10
    5118:	fa0fd06f          	j	28b8 <.L1697>

0000511c <.L1890>:
    511c:	00c15b83          	lhu	s7,12(sp)
    5120:	05800c13          	li	s8,88
    5124:	001b8b93          	addi	s7,s7,1
    5128:	01711623          	sh	s7,12(sp)
    512c:	009c4463          	blt	s8,s1,5134 <.L1884>
    5130:	2640306f          	j	8394 <.L1891>

00005134 <.L1884>:
    5134:	03600b93          	li	s7,54
    5138:	00fbd463          	bge	s7,a5,5140 <.L1884+0xc>
    513c:	34d0206f          	j	7c88 <.L1898>
    5140:	00e15b83          	lhu	s7,14(sp)
    5144:	ff8b8b93          	addi	s7,s7,-8
    5148:	010b9b93          	slli	s7,s7,0x10
    514c:	410bdb93          	srai	s7,s7,0x10
    5150:	ab1fd06f          	j	2c00 <.L1897>

00005154 <.L813>:
    5154:	00c15b83          	lhu	s7,12(sp)
    5158:	03e00c13          	li	s8,62
    515c:	00db8b93          	addi	s7,s7,13
    5160:	01711623          	sh	s7,12(sp)
    5164:	00fc5463          	bge	s8,a5,516c <.L816>
    5168:	de9fb06f          	j	f50 <.L817>

0000516c <.L816>:
    516c:	03800b93          	li	s7,56
    5170:	00ebd463          	bge	s7,a4,5178 <.L816+0xc>
    5174:	2350306f          	j	8ba8 <.L815>
    5178:	03600b93          	li	s7,54
    517c:	d0fbd8e3          	bge	s7,a5,4e8c <.L814>

00005180 <.L821>:
    5180:	00e15b83          	lhu	s7,14(sp)
    5184:	003b8b93          	addi	s7,s7,3
    5188:	010b9b93          	slli	s7,s7,0x10
    518c:	410bdb93          	srai	s7,s7,0x10
    5190:	dd1fb06f          	j	f60 <.L820>

00005194 <.L749>:
    5194:	f5000b93          	li	s7,-176
    5198:	0175c463          	blt	a1,s7,51a0 <.L749+0xc>
    519c:	5b90306f          	j	8f54 <.L2889>
    51a0:	00f00b93          	li	s7,15
    51a4:	010bd463          	bge	s7,a6,51ac <.L749+0x18>
    51a8:	1000606f          	j	b2a8 <.L761>
    51ac:	00c15b83          	lhu	s7,12(sp)
    51b0:	ff8b8b93          	addi	s7,s7,-8
    51b4:	010b9b93          	slli	s7,s7,0x10
    51b8:	010bdb93          	srli	s7,s7,0x10

000051bc <.L762>:
    51bc:	01711623          	sh	s7,12(sp)
    51c0:	03e00b93          	li	s7,62
    51c4:	cefbcae3          	blt	s7,a5,4eb8 <.L752>

000051c8 <.L741>:
    51c8:	03800b93          	li	s7,56
    51cc:	00ebd463          	bge	s7,a4,51d4 <.L770>
    51d0:	951fc06f          	j	1b20 <.L751>

000051d4 <.L770>:
    51d4:	03600b93          	li	s7,54
    51d8:	c0fbc8e3          	blt	s7,a5,4de8 <.L769>
    51dc:	00e15b83          	lhu	s7,14(sp)
    51e0:	ffe00c13          	li	s8,-2
    51e4:	ff7b8b93          	addi	s7,s7,-9
    51e8:	01711723          	sh	s7,14(sp)
    51ec:	c1884ee3          	blt	a6,s8,4e08 <.L783>
    51f0:	0ba00b93          	li	s7,186
    51f4:	cf2bc8e3          	blt	s7,s2,4ee4 <.L777>
    51f8:	969fc06f          	j	1b60 <.L792>

000051fc <.L1745>:
    51fc:	00400b93          	li	s7,4
    5200:	01cbd463          	bge	s7,t3,5208 <.L2645>
    5204:	6e80306f          	j	88ec <.L1748>

00005208 <.L2645>:
    5208:	00e15b83          	lhu	s7,14(sp)
    520c:	ffdb8b93          	addi	s7,s7,-3
    5210:	010b9b93          	slli	s7,s7,0x10
    5214:	410bdb93          	srai	s7,s7,0x10

00005218 <.L1744>:
    5218:	01711723          	sh	s7,14(sp)
    521c:	01500b93          	li	s7,21
    5220:	1e7bda63          	bge	s7,t2,5414 <.L1740>

00005224 <.L1742>:
    5224:	0fd00b93          	li	s7,253
    5228:	007bc463          	blt	s7,t2,5230 <.L1742+0xc>
    522c:	f54fd06f          	j	2980 <.L1741>
    5230:	0d000b93          	li	s7,208
    5234:	009bd463          	bge	s7,s1,523c <.L1742+0x18>
    5238:	f5cfd06f          	j	2994 <.L1749>
    523c:	00815b83          	lhu	s7,8(sp)
    5240:	006b8b93          	addi	s7,s7,6
    5244:	01711423          	sh	s7,8(sp)
    5248:	f4cfd06f          	j	2994 <.L1749>

0000524c <.L1501>:
    524c:	14e00b93          	li	s7,334
    5250:	00dbc463          	blt	s7,a3,5258 <.L1501+0xc>
    5254:	bb4fd06f          	j	2608 <.L1512>
    5258:	00815b83          	lhu	s7,8(sp)
    525c:	ffbb8b93          	addi	s7,s7,-5
    5260:	01711423          	sh	s7,8(sp)
    5264:	00c00b93          	li	s7,12
    5268:	01cbd463          	bge	s7,t3,5270 <.L1520>
    526c:	bc0fd06f          	j	262c <.L1505>

00005270 <.L1520>:
    5270:	19500b93          	li	s7,405
    5274:	b32bd463          	bge	s7,s2,459c <.L1508>
    5278:	00a15b83          	lhu	s7,10(sp)
    527c:	f9800c13          	li	s8,-104
    5280:	ffcb8b93          	addi	s7,s7,-4
    5284:	01711523          	sh	s7,10(sp)
    5288:	01845463          	bge	s0,s8,5290 <.L1520+0x20>
    528c:	bc4fd06f          	j	2650 <.L1506>
    5290:	b24ff06f          	j	45b4 <.L1507>

00005294 <.L1038>:
    5294:	79c056e3          	blez	t3,6220 <.L2890>

00005298 <.L1034>:
    5298:	00300b93          	li	s7,3
    529c:	01cbd463          	bge	s7,t3,52a4 <.L1034+0xc>
    52a0:	2500406f          	j	94f0 <.L1050>
    52a4:	00815b83          	lhu	s7,8(sp)
    52a8:	ffcb8b93          	addi	s7,s7,-4
    52ac:	01711423          	sh	s7,8(sp)
    52b0:	03100b93          	li	s7,49
    52b4:	01fbc463          	blt	s7,t6,52bc <.L1051>
    52b8:	830fc06f          	j	12e8 <.L2891>

000052bc <.L1051>:
    52bc:	01400b93          	li	s7,20
    52c0:	010bd463          	bge	s7,a6,52c8 <.L2260>
    52c4:	2010306f          	j	8cc4 <.L1040>

000052c8 <.L2260>:
    52c8:	0c400b93          	li	s7,196
    52cc:	016bd463          	bge	s7,s6,52d4 <.L2260+0xc>
    52d0:	c9dfc06f          	j	1f6c <.L1054>
    52d4:	00a15b83          	lhu	s7,10(sp)
    52d8:	ff9b8b93          	addi	s7,s7,-7
    52dc:	010b9b93          	slli	s7,s7,0x10
    52e0:	410bdb93          	srai	s7,s7,0x10
    52e4:	82cfc06f          	j	1310 <.L1045>

000052e8 <.L916>:
    52e8:	02700b93          	li	s7,39
    52ec:	01cbd463          	bge	s7,t3,52f4 <.L916+0xc>
    52f0:	6b50406f          	j	a1a4 <.L925>
    52f4:	00a15b83          	lhu	s7,10(sp)
    52f8:	03300c13          	li	s8,51
    52fc:	00ab8b93          	addi	s7,s7,10
    5300:	01711523          	sh	s7,10(sp)
    5304:	00fc5463          	bge	s8,a5,530c <.L923>
    5308:	a99fc06f          	j	1da0 <.L918>

0000530c <.L923>:
    530c:	00900b93          	li	s7,9
    5310:	011bd463          	bge	s7,a7,5318 <.L923+0xc>
    5314:	4640206f          	j	7778 <.L913>
    5318:	00c15b83          	lhu	s7,12(sp)
    531c:	ff8b8b93          	addi	s7,s7,-8
    5320:	01711623          	sh	s7,12(sp)

00005324 <.L928>:
    5324:	01500b93          	li	s7,21
    5328:	006bd463          	bge	s7,t1,5330 <.L928+0xc>
    532c:	e25fb06f          	j	1150 <.L933>
    5330:	01f00b93          	li	s7,31
    5334:	01dbc463          	blt	s7,t4,533c <.L928+0x18>
    5338:	f8dfd06f          	j	32c4 <.L934>
    533c:	00e15b83          	lhu	s7,14(sp)
    5340:	015b8b93          	addi	s7,s7,21
    5344:	01711723          	sh	s7,14(sp)
    5348:	e21fb06f          	j	1168 <.L940>

0000534c <.L2143>:
    534c:	01c51b83          	lh	s7,28(a0)
    5350:	02a00b13          	li	s6,42
    5354:	017b4463          	blt	s6,s7,535c <.L2143+0x10>
    5358:	3b00206f          	j	7708 <.L2661>
    535c:	00e15b03          	lhu	s6,14(sp)
    5360:	004b0b13          	addi	s6,s6,4
    5364:	010b1b13          	slli	s6,s6,0x10
    5368:	410b5b13          	srai	s6,s6,0x10

0000536c <.L2138>:
    536c:	01611723          	sh	s6,14(sp)
    5370:	00400b13          	li	s6,4
    5374:	3b1b5463          	bge	s6,a7,571c <.L2148>

00005378 <.L2140>:
    5378:	ff800b13          	li	s6,-8
    537c:	01665463          	bge	a2,s6,5384 <.L2140+0xc>
    5380:	ca5fd06f          	j	3024 <.L2134>
    5384:	0b300b13          	li	s6,179
    5388:	007b4463          	blt	s6,t2,5390 <.L2140+0x18>
    538c:	f18fe06f          	j	3aa4 <.L2154>
    5390:	00815b03          	lhu	s6,8(sp)
    5394:	001b0b13          	addi	s6,s6,1
    5398:	010b1b13          	slli	s6,s6,0x10
    539c:	410b5b13          	srai	s6,s6,0x10
    53a0:	ca1fd06f          	j	3040 <.L2135>

000053a4 <.L1100>:
    53a4:	00a15b83          	lhu	s7,10(sp)
    53a8:	04900c13          	li	s8,73
    53ac:	00bb8b93          	addi	s7,s7,11
    53b0:	01711523          	sh	s7,10(sp)
    53b4:	011c4463          	blt	s8,a7,53bc <.L1105>
    53b8:	c9dfc06f          	j	2054 <.L1104>

000053bc <.L1105>:
    53bc:	08600b93          	li	s7,134
    53c0:	01dbd463          	bge	s7,t4,53c8 <.L1105+0xc>
    53c4:	2a90206f          	j	7e6c <.L1110>
    53c8:	01c51b83          	lh	s7,28(a0)
    53cc:	01704463          	bgtz	s7,53d4 <.L1105+0x18>
    53d0:	a5cfe06f          	j	362c <.L2258>
    53d4:	00c15b83          	lhu	s7,12(sp)
    53d8:	e4a00c13          	li	s8,-438
    53dc:	009b8b93          	addi	s7,s7,9
    53e0:	01711623          	sh	s7,12(sp)
    53e4:	0182c463          	blt	t0,s8,53ec <.L1115>
    53e8:	c8dfc06f          	j	2074 <.L1112>

000053ec <.L1115>:
    53ec:	03d00b93          	li	s7,61
    53f0:	00fbc463          	blt	s7,a5,53f8 <.L1114>
    53f4:	01c0206f          	j	7410 <.L1113>

000053f8 <.L1114>:
    53f8:	00e15b83          	lhu	s7,14(sp)
    53fc:	01500c13          	li	s8,21
    5400:	ffbb8b93          	addi	s7,s7,-5
    5404:	01711723          	sh	s7,14(sp)
    5408:	007c4463          	blt	s8,t2,5410 <.L1114+0x18>
    540c:	c95fc06f          	j	20a0 <.L1118>
    5410:	ff1fb06f          	j	1400 <.L2601>

00005414 <.L1740>:
    5414:	07000b93          	li	s7,112
    5418:	012bd463          	bge	s7,s2,5420 <.L1740+0xc>
    541c:	d78fd06f          	j	2994 <.L1749>
    5420:	9b9ff06f          	j	4dd8 <.L1747>

00005424 <.L2857>:
    5424:	01c51c03          	lh	s8,28(a0)
    5428:	02d00b93          	li	s7,45
    542c:	018bd863          	bge	s7,s8,543c <.L2037>
    5430:	00a15b83          	lhu	s7,10(sp)
    5434:	ffab8b93          	addi	s7,s7,-6
    5438:	01711523          	sh	s7,10(sp)

0000543c <.L2037>:
    543c:	01500b93          	li	s7,21
    5440:	450bd863          	bge	s7,a6,5890 <.L2032>

00005444 <.L2039>:
    5444:	03800b93          	li	s7,56
    5448:	00fbc463          	blt	s7,a5,5450 <.L2052>
    544c:	e4dfe06f          	j	4298 <.L2051>

00005450 <.L2052>:
    5450:	15500b93          	li	s7,341
    5454:	01ebd463          	bge	s7,t5,545c <.L2052+0xc>
    5458:	7580506f          	j	abb0 <.L2053>
    545c:	00c15b83          	lhu	s7,12(sp)
    5460:	ff9b8b93          	addi	s7,s7,-7
    5464:	01711623          	sh	s7,12(sp)
    5468:	01c05463          	blez	t3,5470 <.L2052+0x20>
    546c:	a2dfd06f          	j	2e98 <.L2045>
    5470:	00e15b83          	lhu	s7,14(sp)
    5474:	0a900c13          	li	s8,169
    5478:	ffab8b93          	addi	s7,s7,-6
    547c:	01711723          	sh	s7,14(sp)
    5480:	01ec5463          	bge	s8,t5,5488 <.L2048>
    5484:	e5dfe06f          	j	42e0 <.L2056>

00005488 <.L2048>:
    5488:	0ca00b13          	li	s6,202
    548c:	44eb4a63          	blt	s6,a4,58e0 <.L2657>
    5490:	00815b03          	lhu	s6,8(sp)
    5494:	006b0b13          	addi	s6,s6,6
    5498:	01611423          	sh	s6,8(sp)
    549c:	a59fd06f          	j	2ef4 <.L2070>

000054a0 <.L695>:
    54a0:	07200b93          	li	s7,114
    54a4:	00ebc463          	blt	s7,a4,54ac <.L696>
    54a8:	1810206f          	j	7e28 <.L688>

000054ac <.L696>:
    54ac:	2aa00b93          	li	s7,682
    54b0:	00dbc463          	blt	s7,a3,54b8 <.L696+0xc>
    54b4:	d4cfc06f          	j	1a00 <.L690>
    54b8:	4be00b93          	li	s7,1214
    54bc:	00ebd463          	bge	s7,a4,54c4 <.L696+0x18>
    54c0:	1ac0406f          	j	966c <.L702>
    54c4:	00a15b83          	lhu	s7,10(sp)
    54c8:	ff7b8b93          	addi	s7,s7,-9
    54cc:	010b9b93          	slli	s7,s7,0x10
    54d0:	410bdb93          	srai	s7,s7,0x10
    54d4:	d48fc06f          	j	1a1c <.L701>

000054d8 <.L1859>:
    54d8:	02c00b93          	li	s7,44
    54dc:	011bd463          	bge	s7,a7,54e4 <.L1859+0xc>
    54e0:	3980206f          	j	7878 <.L1864>
    54e4:	01789463          	bne	a7,s7,54ec <.L1859+0x14>
    54e8:	0a00606f          	j	b588 <.L1865>
    54ec:	01f00b93          	li	s7,31
    54f0:	033bcc63          	blt	s7,s3,5528 <.L1867>

000054f4 <.L1866>:
    54f4:	f8b00b93          	li	s7,-117
    54f8:	0175d463          	bge	a1,s7,5500 <.L1866+0xc>
    54fc:	e94fd06f          	j	2b90 <.L1874>
    5500:	00100b93          	li	s7,1
    5504:	c9cbd463          	bge	s7,t3,498c <.L1855>
    5508:	00a15b83          	lhu	s7,10(sp)
    550c:	ff9b8b93          	addi	s7,s7,-7
    5510:	010b9b93          	slli	s7,s7,0x10
    5514:	410bdb93          	srai	s7,s7,0x10
    5518:	01711523          	sh	s7,10(sp)
    551c:	c84ff06f          	j	49a0 <.L2892>

00005520 <.L1871>:
    5520:	03b00b93          	li	s7,59
    5524:	fc6bd8e3          	bge	s7,t1,54f4 <.L1866>

00005528 <.L1867>:
    5528:	00815b83          	lhu	s7,8(sp)
    552c:	ff9b8b93          	addi	s7,s7,-7
    5530:	01711423          	sh	s7,8(sp)
    5534:	fc1ff06f          	j	54f4 <.L1866>

00005538 <.L1121>:
    5538:	03600b93          	li	s7,54
    553c:	00fbd463          	bge	s7,a5,5544 <.L1121+0xc>
    5540:	6000406f          	j	9b40 <.L1123>
    5544:	00e15b83          	lhu	s7,14(sp)
    5548:	ffab8b93          	addi	s7,s7,-6
    554c:	01711723          	sh	s7,14(sp)

00005550 <.L1122>:
    5550:	01500b93          	li	s7,21
    5554:	007bc463          	blt	s7,t2,555c <.L1122+0xc>
    5558:	b49fc06f          	j	20a0 <.L1118>
    555c:	0fd00b93          	li	s7,253
    5560:	007bd463          	bge	s7,t2,5568 <.L1122+0x18>
    5564:	ea9fb06f          	j	140c <.L1120>
    5568:	fa300b93          	li	s7,-93
    556c:	0172cc63          	blt	t0,s7,5584 <.L1119>
    5570:	00815b83          	lhu	s7,8(sp)
    5574:	006b8b93          	addi	s7,s7,6
    5578:	010b9b93          	slli	s7,s7,0x10
    557c:	410bdb93          	srai	s7,s7,0x10
    5580:	ea9fb06f          	j	1428 <.L1127>

00005584 <.L1119>:
    5584:	00815b83          	lhu	s7,8(sp)
    5588:	ffdb8b93          	addi	s7,s7,-3
    558c:	010b9b93          	slli	s7,s7,0x10
    5590:	410bdb93          	srai	s7,s7,0x10
    5594:	e95fb06f          	j	1428 <.L1127>

00005598 <.L2771>:
    5598:	ff600b93          	li	s7,-10
    559c:	01765463          	bge	a2,s7,55a4 <.L2771+0xc>
    55a0:	945fe06f          	j	3ee4 <.L1346>
    55a4:	00c15b83          	lhu	s7,12(sp)
    55a8:	03600c13          	li	s8,54
    55ac:	ffbb8b93          	addi	s7,s7,-5
    55b0:	01711623          	sh	s7,12(sp)
    55b4:	00fc5463          	bge	s8,a5,55bc <.L1341>
    55b8:	e11fc06f          	j	23c8 <.L1355>

000055bc <.L1341>:
    55bc:	04c00b93          	li	s7,76
    55c0:	016bd463          	bge	s7,s6,55c8 <.L1341+0xc>
    55c4:	0100206f          	j	75d4 <.L1353>
    55c8:	00e15b83          	lhu	s7,14(sp)
    55cc:	003b8b93          	addi	s7,s7,3
    55d0:	010b9b93          	slli	s7,s7,0x10
    55d4:	410bdb93          	srai	s7,s7,0x10
    55d8:	e0dfc06f          	j	23e4 <.L1366>

000055dc <.L2209>:
    55dc:	06b00513          	li	a0,107
    55e0:	00954463          	blt	a0,s1,55e8 <.L2209+0xc>
    55e4:	dd8fe06f          	j	3bbc <.L2213>
    55e8:	ffc00513          	li	a0,-4
    55ec:	00a65463          	bge	a2,a0,55f4 <.L2209+0x18>
    55f0:	b81fd06f          	j	3170 <.L2210>
    55f4:	ff968693          	addi	a3,a3,-7
    55f8:	00d11723          	sh	a3,14(sp)
    55fc:	f7a00693          	li	a3,-134
    5600:	00da4463          	blt	s4,a3,5608 <.L2209+0x2c>
    5604:	b75fd06f          	j	3178 <.L2218>
    5608:	f4000693          	li	a3,-192
    560c:	02da5063          	bge	s4,a3,562c <.L2230>

00005610 <.L2219>:
    5610:	efb00693          	li	a3,-261
    5614:	00da5463          	bge	s4,a3,561c <.L2219+0xc>
    5618:	b8dfd06f          	j	31a4 <.L2233>
    561c:	00815683          	lhu	a3,8(sp)
    5620:	00468693          	addi	a3,a3,4
    5624:	00d11423          	sh	a3,8(sp)
    5628:	b7dfd06f          	j	31a4 <.L2233>

0000562c <.L2230>:
    562c:	00815683          	lhu	a3,8(sp)
    5630:	ff968693          	addi	a3,a3,-7
    5634:	00d11423          	sh	a3,8(sp)
    5638:	b6dfd06f          	j	31a4 <.L2233>

0000563c <.L479>:
    563c:	e4e00b93          	li	s7,-434
    5640:	017ac463          	blt	s5,s7,5648 <.L479+0xc>
    5644:	4350306f          	j	9278 <.L489>
    5648:	00001bb7          	lui	s7,0x1
    564c:	cbbb8b93          	addi	s7,s7,-837 # cbb <.L2776+0xb>
    5650:	00ebc463          	blt	s7,a4,5658 <.L479+0x1c>
    5654:	7a90506f          	j	b5fc <.L2893>
    5658:	00c15b83          	lhu	s7,12(sp)
    565c:	e0800c13          	li	s8,-504
    5660:	ffab8b93          	addi	s7,s7,-6
    5664:	01711623          	sh	s7,12(sp)
    5668:	01845463          	bge	s0,s8,5670 <.L491>
    566c:	c3cfb06f          	j	aa8 <.L482>

00005670 <.L491>:
    5670:	03b00b93          	li	s7,59
    5674:	00fbc463          	blt	s7,a5,567c <.L508>
    5678:	2d00106f          	j	6948 <.L483>

0000567c <.L508>:
    567c:	00e15b83          	lhu	s7,14(sp)
    5680:	ff8b8b93          	addi	s7,s7,-8
    5684:	010b9b93          	slli	s7,s7,0x10
    5688:	410bdb93          	srai	s7,s7,0x10

0000568c <.L504>:
    568c:	01711723          	sh	s7,14(sp)
    5690:	0a900b93          	li	s7,169
    5694:	01ebc463          	blt	s7,t5,569c <.L504+0x10>
    5698:	df5fe06f          	j	448c <.L501>
    569c:	01e00b93          	li	s7,30
    56a0:	013bd463          	bge	s7,s3,56a8 <.L504+0x1c>
    56a4:	7040306f          	j	8da8 <.L514>
    56a8:	ea900b93          	li	s7,-343
    56ac:	017a5463          	bge	s4,s7,56b4 <.L504+0x28>
    56b0:	c34fb06f          	j	ae4 <.L502>
    56b4:	00815b83          	lhu	s7,8(sp)
    56b8:	002b8b93          	addi	s7,s7,2
    56bc:	010b9b93          	slli	s7,s7,0x10
    56c0:	410bdb93          	srai	s7,s7,0x10
    56c4:	df1fe06f          	j	44b4 <.L512>

000056c8 <.L1779>:
    56c8:	00815b83          	lhu	s7,8(sp)
    56cc:	02e00c13          	li	s8,46
    56d0:	001b8b93          	addi	s7,s7,1
    56d4:	01711423          	sh	s7,8(sp)
    56d8:	01dc4463          	blt	s8,t4,56e0 <.L1784>
    56dc:	b74fd06f          	j	2a50 <.L1783>

000056e0 <.L1784>:
    56e0:	03d00b93          	li	s7,61
    56e4:	00fbc463          	blt	s7,a5,56ec <.L1784+0xc>
    56e8:	15d0406f          	j	a044 <.L1802>
    56ec:	01500b93          	li	s7,21
    56f0:	cf0bc863          	blt	s7,a6,4be0 <.L1796>

000056f4 <.L1787>:
    56f4:	19800b93          	li	s7,408
    56f8:	009bd463          	bge	s7,s1,5700 <.L1787+0xc>
    56fc:	2f00206f          	j	79ec <.L1798>
    5700:	18700b93          	li	s7,391
    5704:	009bc463          	blt	s7,s1,570c <.L1799>
    5708:	b98fd06f          	j	2aa0 <.L1808>

0000570c <.L1799>:
    570c:	00c15b83          	lhu	s7,12(sp)
    5710:	007b8b93          	addi	s7,s7,7
    5714:	01711623          	sh	s7,12(sp)
    5718:	b88fd06f          	j	2aa0 <.L1808>

0000571c <.L2148>:
    571c:	06a00b13          	li	s6,106
    5720:	012b4463          	blt	s6,s2,5728 <.L2148+0xc>
    5724:	7ed0206f          	j	8710 <.L2132>
    5728:	00815b03          	lhu	s6,8(sp)
    572c:	03b00b93          	li	s7,59
    5730:	001b0b13          	addi	s6,s6,1
    5734:	01611423          	sh	s6,8(sp)
    5738:	00fbd463          	bge	s7,a5,5740 <.L2141>
    573c:	b84fe06f          	j	3ac0 <.L2146>

00005740 <.L2141>:
    5740:	33f00b13          	li	s6,831
    5744:	00eb5463          	bge	s6,a4,574c <.L2151>
    5748:	74d0106f          	j	7694 <.L2149>

0000574c <.L2151>:
    574c:	00a15b03          	lhu	s6,10(sp)
    5750:	001b0b13          	addi	s6,s6,1
    5754:	010b1b13          	slli	s6,s6,0x10
    5758:	410b5b13          	srai	s6,s6,0x10
    575c:	01611523          	sh	s6,10(sp)
    5760:	fdb00b13          	li	s6,-37
    5764:	01674463          	blt	a4,s6,576c <.L2821>
    5768:	91dfd06f          	j	3084 <.L2179>

0000576c <.L2821>:
    576c:	00a00693          	li	a3,10
    5770:	0136d463          	bge	a3,s3,5778 <.L2821+0xc>
    5774:	2340406f          	j	99a8 <.L2180>
    5778:	00c15683          	lhu	a3,12(sp)
    577c:	ff868693          	addi	a3,a3,-8
    5780:	00d11623          	sh	a3,12(sp)
    5784:	03100693          	li	a3,49
    5788:	00f6c463          	blt	a3,a5,5790 <.L2170>
    578c:	925fd06f          	j	30b0 <.L2894>

00005790 <.L2170>:
    5790:	05800693          	li	a3,88
    5794:	0096d463          	bge	a3,s1,579c <.L2170+0xc>
    5798:	2340206f          	j	79cc <.L2184>
    579c:	f5300693          	li	a3,-173
    57a0:	00d45463          	bge	s0,a3,57a8 <.L2186>
    57a4:	b6cfe06f          	j	3b10 <.L2254>

000057a8 <.L2186>:
    57a8:	00e15683          	lhu	a3,14(sp)
    57ac:	00168693          	addi	a3,a3,1
    57b0:	01069693          	slli	a3,a3,0x10
    57b4:	4106d693          	srai	a3,a3,0x10
    57b8:	909fd06f          	j	30c0 <.L2183>

000057bc <.L550>:
    57bc:	0dd00b93          	li	s7,221
    57c0:	006bc463          	blt	s7,t1,57c8 <.L550+0xc>
    57c4:	838fc06f          	j	17fc <.L547>
    57c8:	00815b83          	lhu	s7,8(sp)
    57cc:	0f000c13          	li	s8,240
    57d0:	ff8b8b93          	addi	s7,s7,-8
    57d4:	01711423          	sh	s7,8(sp)
    57d8:	006c4463          	blt	s8,t1,57e0 <.L550+0x24>
    57dc:	82cfc06f          	j	1808 <.L549>
    57e0:	d6c00b93          	li	s7,-660
    57e4:	017ad463          	bge	s5,s7,57ec <.L550+0x30>
    57e8:	6140606f          	j	bdfc <.L555>
    57ec:	18000b93          	li	s7,384
    57f0:	009bd863          	bge	s7,s1,5800 <.L575>
    57f4:	00a15b83          	lhu	s7,10(sp)
    57f8:	007b8b93          	addi	s7,s7,7
    57fc:	01711523          	sh	s7,10(sp)

00005800 <.L575>:
    5800:	3fa00b93          	li	s7,1018
    5804:	00ebc463          	blt	s7,a4,580c <.L572>
    5808:	82cfc06f          	j	1834 <.L564>

0000580c <.L572>:
    580c:	ddb00b93          	li	s7,-549
    5810:	017a4463          	blt	s4,s7,5818 <.L572+0xc>
    5814:	68c0406f          	j	9ea0 <.L588>
    5818:	00c15b83          	lhu	s7,12(sp)
    581c:	e0800c13          	li	s8,-504
    5820:	005b8b93          	addi	s7,s7,5
    5824:	01711623          	sh	s7,12(sp)
    5828:	01844463          	blt	s0,s8,5830 <.L584>
    582c:	82cfc06f          	j	1858 <.L2375>

00005830 <.L584>:
    5830:	25500b93          	li	s7,597
    5834:	3a9bd6e3          	bge	s7,s1,63e0 <.L595>
    5838:	c2600b93          	li	s7,-986
    583c:	0175c463          	blt	a1,s7,5844 <.L584+0x14>
    5840:	32d0106f          	j	736c <.L606>
    5844:	00e15b83          	lhu	s7,14(sp)
    5848:	0a900c13          	li	s8,169
    584c:	006b8b93          	addi	s7,s7,6
    5850:	01711723          	sh	s7,14(sp)
    5854:	01ec4463          	blt	s8,t5,585c <.L2580>
    5858:	820fc06f          	j	1878 <.L600>

0000585c <.L2580>:
    585c:	10700b93          	li	s7,263
    5860:	687bdae3          	bge	s7,t2,66f4 <.L603>

00005864 <.L602>:
    5864:	00815b83          	lhu	s7,8(sp)
    5868:	ff6b8b93          	addi	s7,s7,-10
    586c:	01711423          	sh	s7,8(sp)
    5870:	be8fb06f          	j	c58 <.L614>

00005874 <.L1082>:
    5874:	e1900b93          	li	s7,-487
    5878:	017a5463          	bge	s4,s7,5880 <.L1082+0xc>
    587c:	f74fc06f          	j	1ff0 <.L1080>
    5880:	00e15b83          	lhu	s7,14(sp)
    5884:	008b8b93          	addi	s7,s7,8
    5888:	01711723          	sh	s7,14(sp)
    588c:	f64fc06f          	j	1ff0 <.L1080>

00005890 <.L2032>:
    5890:	f6a00b93          	li	s7,-150
    5894:	0175d463          	bge	a1,s7,589c <.L2032+0xc>
    5898:	dd8fd06f          	j	2e70 <.L2035>
    589c:	f5b00b93          	li	s7,-165
    58a0:	0172c463          	blt	t0,s7,58a8 <.L2032+0x18>
    58a4:	32c0406f          	j	9bd0 <.L2044>
    58a8:	00c15b83          	lhu	s7,12(sp)
    58ac:	004b8b93          	addi	s7,s7,4
    58b0:	01711623          	sh	s7,12(sp)
    58b4:	01c05463          	blez	t3,58bc <.L2656>
    58b8:	de0fd06f          	j	2e98 <.L2045>

000058bc <.L2656>:
    58bc:	00e15b83          	lhu	s7,14(sp)
    58c0:	0a900c13          	li	s8,169
    58c4:	ffab8b93          	addi	s7,s7,-6
    58c8:	01711723          	sh	s7,14(sp)
    58cc:	01ec4463          	blt	s8,t5,58d4 <.L2046>
    58d0:	e00fd06f          	j	2ed0 <.L2050>

000058d4 <.L2046>:
    58d4:	11500b93          	li	s7,277
    58d8:	016bc463          	blt	s7,s6,58e0 <.L2657>
    58dc:	e18fd06f          	j	2ef4 <.L2070>

000058e0 <.L2657>:
    58e0:	00815b03          	lhu	s6,8(sp)
    58e4:	ffdb0b13          	addi	s6,s6,-3
    58e8:	01611423          	sh	s6,8(sp)
    58ec:	e08fd06f          	j	2ef4 <.L2070>

000058f0 <.L725>:
    58f0:	10700b93          	li	s7,263
    58f4:	007bc463          	blt	s7,t2,58fc <.L725+0xc>
    58f8:	3010306f          	j	93f8 <.L2895>
    58fc:	e4300b93          	li	s7,-445
    5900:	01744463          	blt	s0,s7,5908 <.L725+0x18>
    5904:	1c90506f          	j	b2cc <.L734>
    5908:	00815b83          	lhu	s7,8(sp)
    590c:	ff7b8b93          	addi	s7,s7,-9
    5910:	01711423          	sh	s7,8(sp)
    5914:	998fc06f          	j	1aac <.L718>

00005918 <.L1786>:
    5918:	00815b83          	lhu	s7,8(sp)
    591c:	02e00c13          	li	s8,46
    5920:	ffeb8b93          	addi	s7,s7,-2
    5924:	01711423          	sh	s7,8(sp)
    5928:	a9dc5e63          	bge	s8,t4,4bc4 <.L1789>

0000592c <.L1780>:
    592c:	03900b93          	li	s7,57
    5930:	dbfbc8e3          	blt	s7,t6,56e0 <.L1784>
    5934:	00d00b93          	li	s7,13
    5938:	010bd463          	bge	s7,a6,5940 <.L1780+0x14>
    593c:	2390406f          	j	a374 <.L1797>
    5940:	00a15b83          	lhu	s7,10(sp)
    5944:	19800c13          	li	s8,408
    5948:	003b8b93          	addi	s7,s7,3
    594c:	01711523          	sh	s7,10(sp)
    5950:	009c5463          	bge	s8,s1,5958 <.L1780+0x2c>
    5954:	0980206f          	j	79ec <.L1798>
    5958:	18700b93          	li	s7,391
    595c:	da9bc8e3          	blt	s7,s1,570c <.L1799>
    5960:	00300b93          	li	s7,3
    5964:	b1cbd463          	bge	s7,t3,4c6c <.L2647>
    5968:	af0ff06f          	j	4c58 <.L1801>

0000596c <.L830>:
    596c:	00a15b83          	lhu	s7,10(sp)
    5970:	27a00c13          	li	s8,634
    5974:	ffbb8b93          	addi	s7,s7,-5
    5978:	01711523          	sh	s7,10(sp)
    597c:	00dc4463          	blt	s8,a3,5984 <.L831>
    5980:	3280106f          	j	6ca8 <.L2591>

00005984 <.L831>:
    5984:	00f00b93          	li	s7,15
    5988:	011bd463          	bge	s7,a7,5990 <.L831+0xc>
    598c:	4090306f          	j	9594 <.L849>
    5990:	00c15b83          	lhu	s7,12(sp)
    5994:	d2a00c13          	li	s8,-726
    5998:	fffb8b93          	addi	s7,s7,-1
    599c:	01711623          	sh	s7,12(sp)
    59a0:	0185c463          	blt	a1,s8,59a8 <.L850>
    59a4:	ae0fc06f          	j	1c84 <.L2592>

000059a8 <.L850>:
    59a8:	25d00b93          	li	s7,605
    59ac:	009bc463          	blt	s7,s1,59b4 <.L850+0xc>
    59b0:	3280106f          	j	6cd8 <.L844>
    59b4:	c2600b93          	li	s7,-986
    59b8:	0175d463          	bge	a1,s7,59c0 <.L850+0x18>
    59bc:	0000206f          	j	79bc <.L854>
    59c0:	00e15b83          	lhu	s7,14(sp)
    59c4:	ff9b8b93          	addi	s7,s7,-7
    59c8:	01711723          	sh	s7,14(sp)
    59cc:	e3cfb06f          	j	1008 <.L846>

000059d0 <.L544>:
    59d0:	00e15b83          	lhu	s7,14(sp)
    59d4:	ff7b8b93          	addi	s7,s7,-9
    59d8:	01711723          	sh	s7,14(sp)
    59dc:	00084463          	bltz	a6,59e4 <.L544+0x14>
    59e0:	9a4fb06f          	j	b84 <.L546>
    59e4:	d79fb06f          	j	175c <.L2755>

000059e8 <.L1592>:
    59e8:	00a15b83          	lhu	s7,10(sp)
    59ec:	03c00c13          	li	s8,60
    59f0:	002b8b93          	addi	s7,s7,2
    59f4:	01711523          	sh	s7,10(sp)
    59f8:	00fc5463          	bge	s8,a5,5a00 <.L1604>
    59fc:	4910206f          	j	868c <.L2711>

00005a00 <.L1604>:
    5a00:	00f00b93          	li	s7,15
    5a04:	010bc463          	blt	s7,a6,5a0c <.L1604+0xc>
    5a08:	7680206f          	j	8170 <.L1606>
    5a0c:	ffb00b93          	li	s7,-5
    5a10:	01764463          	blt	a2,s7,5a18 <.L1604+0x18>
    5a14:	7840206f          	j	8198 <.L1616>
    5a18:	00c15b83          	lhu	s7,12(sp)
    5a1c:	00300c13          	li	s8,3
    5a20:	005b8b93          	addi	s7,s7,5
    5a24:	01711623          	sh	s7,12(sp)
    5a28:	01cc4463          	blt	s8,t3,5a30 <.L1620>
    5a2c:	bc0fe06f          	j	3dec <.L1621>

00005a30 <.L1620>:
    5a30:	e4a00b93          	li	s7,-438
    5a34:	0172d463          	bge	t0,s7,5a3c <.L1627>
    5a38:	5740306f          	j	8fac <.L1596>

00005a3c <.L1627>:
    5a3c:	00e15b83          	lhu	s7,14(sp)
    5a40:	0009d463          	bgez	s3,5a48 <.L1627+0xc>
    5a44:	7110506f          	j	b954 <.L2896>
    5a48:	003b8b93          	addi	s7,s7,3
    5a4c:	01711723          	sh	s7,14(sp)
    5a50:	bb4fe06f          	j	3e04 <.L1628>

00005a54 <.L1611>:
    5a54:	00a15c03          	lhu	s8,10(sp)
    5a58:	ffbc0c13          	addi	s8,s8,-5
    5a5c:	01811523          	sh	s8,10(sp)
    5a60:	fafbd0e3          	bge	s7,a5,5a00 <.L1604>
    5a64:	e6500b93          	li	s7,-411
    5a68:	0172d463          	bge	t0,s7,5a70 <.L1611+0x1c>
    5a6c:	5740606f          	j	bfe0 <.L1617>
    5a70:	00e00b93          	li	s7,14
    5a74:	01dbd463          	bge	s7,t4,5a7c <.L1618>
    5a78:	4940406f          	j	9f0c <.L1619>

00005a7c <.L1618>:
    5a7c:	00e15b83          	lhu	s7,14(sp)
    5a80:	00400c13          	li	s8,4
    5a84:	0009d463          	bgez	s3,5a8c <.L1618+0x10>
    5a88:	3e00606f          	j	be68 <.L2897>
    5a8c:	003b8b93          	addi	s7,s7,3
    5a90:	01711723          	sh	s7,14(sp)
    5a94:	011c5463          	bge	s8,a7,5a9c <.L1643>
    5a98:	da5fc06f          	j	283c <.L1646>

00005a9c <.L1643>:
    5a9c:	03800b93          	li	s7,56
    5aa0:	01fbc463          	blt	s7,t6,5aa8 <.L1643+0xc>
    5aa4:	0780106f          	j	6b1c <.L1651>
    5aa8:	00815b83          	lhu	s7,8(sp)
    5aac:	02e00c13          	li	s8,46
    5ab0:	003b8b93          	addi	s7,s7,3
    5ab4:	01711423          	sh	s7,8(sp)
    5ab8:	01dc4463          	blt	s8,t4,5ac0 <.L1643+0x24>
    5abc:	0ec0206f          	j	7ba8 <.L1641>
    5ac0:	03900b93          	li	s7,57
    5ac4:	017f9463          	bne	t6,s7,5acc <.L1643+0x30>
    5ac8:	2a50306f          	j	956c <.L1667>
    5acc:	03d00b93          	li	s7,61
    5ad0:	00fbd463          	bge	s7,a5,5ad8 <.L1690>
    5ad4:	7390506f          	j	ba0c <.L2898>

00005ad8 <.L1690>:
    5ad8:	00a15b83          	lhu	s7,10(sp)
    5adc:	00100c13          	li	s8,1
    5ae0:	009b8b93          	addi	s7,s7,9
    5ae4:	01711523          	sh	s7,10(sp)
    5ae8:	01cc4463          	blt	s8,t3,5af0 <.L1692>
    5aec:	0fc0306f          	j	8be8 <.L1694>

00005af0 <.L1692>:
    5af0:	04900b93          	li	s7,73
    5af4:	011bc463          	blt	s7,a7,5afc <.L1692+0xc>
    5af8:	05c0106f          	j	6b54 <.L1655>
    5afc:	00c15b83          	lhu	s7,12(sp)
    5b00:	005b8b93          	addi	s7,s7,5
    5b04:	010b9b93          	slli	s7,s7,0x10
    5b08:	410bdb93          	srai	s7,s7,0x10

00005b0c <.L1684>:
    5b0c:	01711623          	sh	s7,12(sp)
    5b10:	ff600b93          	li	s7,-10
    5b14:	df765063          	bge	a2,s7,50f4 <.L1683>
    5b18:	03200b93          	li	s7,50
    5b1c:	01dbc463          	blt	s7,t4,5b24 <.L1684+0x18>
    5b20:	d7dfc06f          	j	289c <.L1682>
    5b24:	03300b93          	li	s7,51
    5b28:	017e8463          	beq	t4,s7,5b30 <.L1684+0x24>
    5b2c:	d91fc06f          	j	28bc <.L1699>
    5b30:	00e15b83          	lhu	s7,14(sp)
    5b34:	00bb8b93          	addi	s7,s7,11
    5b38:	01711723          	sh	s7,14(sp)
    5b3c:	d81fc06f          	j	28bc <.L1699>

00005b40 <.L2651>:
    5b40:	00c15b83          	lhu	s7,12(sp)
    5b44:	ff8b8b93          	addi	s7,s7,-8
    5b48:	010b9b93          	slli	s7,s7,0x10
    5b4c:	410bdb93          	srai	s7,s7,0x10
    5b50:	934fd06f          	j	2c84 <.L1922>

00005b54 <.L1815>:
    5b54:	00e15b83          	lhu	s7,14(sp)
    5b58:	0a900c13          	li	s8,169
    5b5c:	002b8b93          	addi	s7,s7,2
    5b60:	01711723          	sh	s7,14(sp)
    5b64:	01ec4463          	blt	s8,t5,5b6c <.L2648>
    5b68:	f75fc06f          	j	2adc <.L1818>

00005b6c <.L2648>:
    5b6c:	00815b83          	lhu	s7,8(sp)
    5b70:	fffb8b93          	addi	s7,s7,-1
    5b74:	010b9b93          	slli	s7,s7,0x10
    5b78:	410bdb93          	srai	s7,s7,0x10
    5b7c:	92cff06f          	j	4ca8 <.L1835>

00005b80 <.L1441>:
    5b80:	00e15b83          	lhu	s7,14(sp)
    5b84:	00400c13          	li	s8,4
    5b88:	fffb8b93          	addi	s7,s7,-1
    5b8c:	01711723          	sh	s7,14(sp)
    5b90:	011c4463          	blt	s8,a7,5b98 <.L1444>
    5b94:	9cdfc06f          	j	2560 <.L1445>

00005b98 <.L1444>:
    5b98:	ff800b93          	li	s7,-8
    5b9c:	05765863          	bge	a2,s7,5bec <.L1449>
    5ba0:	01f00b93          	li	s7,31
    5ba4:	011bd463          	bge	s7,a7,5bac <.L1444+0x14>
    5ba8:	69d0206f          	j	8a44 <.L1448>
    5bac:	00815b83          	lhu	s7,8(sp)
    5bb0:	f8b00c13          	li	s8,-117
    5bb4:	004b8b93          	addi	s7,s7,4
    5bb8:	01711423          	sh	s7,8(sp)
    5bbc:	0185d463          	bge	a1,s8,5bc4 <.L1468>
    5bc0:	9b9fc06f          	j	2578 <.L2736>

00005bc4 <.L1468>:
    5bc4:	00a15b83          	lhu	s7,10(sp)
    5bc8:	ff8b8b93          	addi	s7,s7,-8
    5bcc:	01711523          	sh	s7,10(sp)
    5bd0:	9cdfc06f          	j	259c <.L1455>

00005bd4 <.L2851>:
    5bd4:	00e15b83          	lhu	s7,14(sp)
    5bd8:	ff800c13          	li	s8,-8
    5bdc:	00cb8b93          	addi	s7,s7,12
    5be0:	01711723          	sh	s7,14(sp)
    5be4:	01865463          	bge	a2,s8,5bec <.L1449>
    5be8:	65d0206f          	j	8a44 <.L1448>

00005bec <.L1449>:
    5bec:	f5c00b93          	li	s7,-164
    5bf0:	01744463          	blt	s0,s7,5bf8 <.L1449+0xc>
    5bf4:	5f80506f          	j	b1ec <.L1473>
    5bf8:	00815b83          	lhu	s7,8(sp)
    5bfc:	ffbb8b93          	addi	s7,s7,-5
    5c00:	010b9b93          	slli	s7,s7,0x10
    5c04:	010bdb93          	srli	s7,s7,0x10

00005c08 <.L1474>:
    5c08:	01711423          	sh	s7,8(sp)
    5c0c:	f8b00b93          	li	s7,-117
    5c10:	0175d463          	bge	a1,s7,5c18 <.L1474+0x10>
    5c14:	21d0106f          	j	7630 <.L1471>
    5c18:	ffe00b93          	li	s7,-2
    5c1c:	01765463          	bge	a2,s7,5c24 <.L1474+0x1c>
    5c20:	63d0206f          	j	8a5c <.L1486>
    5c24:	00a15b83          	lhu	s7,10(sp)
    5c28:	ffeb8b93          	addi	s7,s7,-2
    5c2c:	010b9b93          	slli	s7,s7,0x10
    5c30:	410bdb93          	srai	s7,s7,0x10

00005c34 <.L1472>:
    5c34:	01711523          	sh	s7,10(sp)
    5c38:	04900b93          	li	s7,73
    5c3c:	011bc463          	blt	s7,a7,5c44 <.L1483>
    5c40:	95dfc06f          	j	259c <.L1455>

00005c44 <.L1483>:
    5c44:	08600b93          	li	s7,134
    5c48:	01dbc463          	blt	s7,t4,5c50 <.L1483+0xc>
    5c4c:	2090106f          	j	7654 <.L1489>
    5c50:	00c15b83          	lhu	s7,12(sp)
    5c54:	ffbb8b93          	addi	s7,s7,-5
    5c58:	01711623          	sh	s7,12(sp)
    5c5c:	965fc06f          	j	25c0 <.L1487>

00005c60 <.L105>:
    5c60:	03700e13          	li	t3,55
    5c64:	00fe5463          	bge	t3,a5,5c6c <.L105+0xc>
    5c68:	03d0506f          	j	b4a4 <.L124>
    5c6c:	00c15e03          	lhu	t3,12(sp)
    5c70:	ffae0e13          	addi	t3,t3,-6
    5c74:	01c11623          	sh	t3,12(sp)

00005c78 <.L125>:
    5c78:	d8200e13          	li	t3,-638
    5c7c:	63c5d863          	bge	a1,t3,62ac <.L123>
    5c80:	0b100e13          	li	t3,177
    5c84:	00ee5463          	bge	t3,a4,5c8c <.L125+0x14>
    5c88:	35d0206f          	j	87e4 <.L122>
    5c8c:	00e15e03          	lhu	t3,14(sp)
    5c90:	012e0e13          	addi	t3,t3,18
    5c94:	010e1e13          	slli	t3,t3,0x10
    5c98:	410e5e13          	srai	t3,t3,0x10
    5c9c:	801fa06f          	j	49c <.L129>

00005ca0 <.L295>:
    5ca0:	00815e03          	lhu	t3,8(sp)
    5ca4:	2df00b93          	li	s7,735
    5ca8:	ff8e0e13          	addi	t3,t3,-8
    5cac:	01c11423          	sh	t3,8(sp)
    5cb0:	5aebcee3          	blt	s7,a4,6a6c <.L297>

00005cb4 <.L305>:
    5cb4:	02051e03          	lh	t3,32(a0)
    5cb8:	00400b93          	li	s7,4
    5cbc:	01cbd463          	bge	s7,t3,5cc4 <.L298>
    5cc0:	0ac0306f          	j	8d6c <.L299>

00005cc4 <.L298>:
    5cc4:	09700b93          	li	s7,151
    5cc8:	006bc463          	blt	s7,t1,5cd0 <.L298+0xc>
    5ccc:	3ed0506f          	j	b8b8 <.L307>
    5cd0:	00a15b83          	lhu	s7,10(sp)
    5cd4:	009b8b93          	addi	s7,s7,9
    5cd8:	010b9b93          	slli	s7,s7,0x10
    5cdc:	410bdb93          	srai	s7,s7,0x10

00005ce0 <.L288>:
    5ce0:	01711523          	sh	s7,10(sp)
    5ce4:	08f00b93          	li	s7,143
    5ce8:	00dbd463          	bge	s7,a3,5cf0 <.L291>
    5cec:	a8dfa06f          	j	778 <.L317>

00005cf0 <.L291>:
    5cf0:	03300b93          	li	s7,51
    5cf4:	00fbd463          	bge	s7,a5,5cfc <.L291+0xc>
    5cf8:	af9fd06f          	j	37f0 <.L313>
    5cfc:	efc00b93          	li	s7,-260
    5d00:	5b7a40e3          	blt	s4,s7,6aa0 <.L294>
    5d04:	00c15b83          	lhu	s7,12(sp)
    5d08:	ff7b8b93          	addi	s7,s7,-9
    5d0c:	01711623          	sh	s7,12(sp)

00005d10 <.L319>:
    5d10:	d2500b93          	li	s7,-731
    5d14:	5b75c0e3          	blt	a1,s7,6ab4 <.L337>

00005d18 <.L321>:
    5d18:	02400b93          	li	s7,36
    5d1c:	00dbd463          	bge	s7,a3,5d24 <.L321+0xc>
    5d20:	a95fa06f          	j	7b4 <.L334>
    5d24:	00e15b83          	lhu	s7,14(sp)
    5d28:	ffbb8b93          	addi	s7,s7,-5
    5d2c:	010b9b93          	slli	s7,s7,0x10
    5d30:	410bdb93          	srai	s7,s7,0x10
    5d34:	a91fa06f          	j	7c4 <.L338>

00005d38 <.L1278>:
    5d38:	00a15b83          	lhu	s7,10(sp)
    5d3c:	03300c13          	li	s8,51
    5d40:	008b8b93          	addi	s7,s7,8
    5d44:	01711523          	sh	s7,10(sp)
    5d48:	00fc4463          	blt	s8,a5,5d50 <.L1284>
    5d4c:	7c90106f          	j	7d14 <.L2610>

00005d50 <.L1284>:
    5d50:	04700b93          	li	s7,71
    5d54:	007bc463          	blt	s7,t2,5d5c <.L1284+0xc>
    5d58:	951fb06f          	j	16a8 <.L1266>
    5d5c:	01700b93          	li	s7,23
    5d60:	01dbc463          	blt	s7,t4,5d68 <.L1295>
    5d64:	da4fc06f          	j	2308 <.L1289>

00005d68 <.L1295>:
    5d68:	00c15b83          	lhu	s7,12(sp)
    5d6c:	ffeb8b93          	addi	s7,s7,-2
    5d70:	010b9b93          	slli	s7,s7,0x10
    5d74:	410bdb93          	srai	s7,s7,0x10
    5d78:	da0fc06f          	j	2318 <.L1281>

00005d7c <.L150>:
    5d7c:	00a15e03          	lhu	t3,10(sp)
    5d80:	10b00b93          	li	s7,267
    5d84:	ff7e0e13          	addi	t3,t3,-9
    5d88:	01c11523          	sh	t3,10(sp)
    5d8c:	00dbd463          	bge	s7,a3,5d94 <.L161>
    5d90:	0340106f          	j	6dc4 <.L156>

00005d94 <.L161>:
    5d94:	03800e13          	li	t3,56
    5d98:	00fe5463          	bge	t3,a5,5da0 <.L161+0xc>
    5d9c:	79c0506f          	j	b538 <.L169>
    5da0:	efb00e13          	li	t3,-261
    5da4:	01ca4463          	blt	s4,t3,5dac <.L161+0x18>
    5da8:	5dd0406f          	j	ab84 <.L157>
    5dac:	00c15e03          	lhu	t3,12(sp)
    5db0:	004e0e13          	addi	t3,t3,4
    5db4:	01c11623          	sh	t3,12(sp)
    5db8:	ce400e13          	li	t3,-796
    5dbc:	01c5d463          	bge	a1,t3,5dc4 <.L188>
    5dc0:	bb9fd06f          	j	3978 <.L2899>

00005dc4 <.L188>:
    5dc4:	03400e13          	li	t3,52
    5dc8:	013e5463          	bge	t3,s3,5dd0 <.L188+0xc>
    5dcc:	3390406f          	j	a904 <.L191>
    5dd0:	00e15e03          	lhu	t3,14(sp)
    5dd4:	ff7e0e13          	addi	t3,t3,-9
    5dd8:	010e1e13          	slli	t3,t3,0x10
    5ddc:	410e5e13          	srai	t3,t3,0x10
    5de0:	bb5fd06f          	j	3994 <.L190>

00005de4 <.L992>:
    5de4:	00e15b83          	lhu	s7,14(sp)
    5de8:	fa300c13          	li	s8,-93
    5dec:	003b8b93          	addi	s7,s7,3
    5df0:	01711723          	sh	s7,14(sp)
    5df4:	0182c463          	blt	t0,s8,5dfc <.L985>
    5df8:	965fe06f          	j	475c <.L2595>

00005dfc <.L985>:
    5dfc:	fa100b93          	li	s7,-95
    5e00:	0172d463          	bge	t0,s7,5e08 <.L985+0xc>
    5e04:	c08fb06f          	j	120c <.L989>
    5e08:	00815b83          	lhu	s7,8(sp)
    5e0c:	feab8b93          	addi	s7,s7,-22
    5e10:	01711423          	sh	s7,8(sp)
    5e14:	c0cfb06f          	j	1220 <.L1002>

00005e18 <.L231>:
    5e18:	0d500e13          	li	t3,213
    5e1c:	009e5463          	bge	t3,s1,5e24 <.L231+0xc>
    5e20:	0290406f          	j	a648 <.L235>
    5e24:	00a15e03          	lhu	t3,10(sp)
    5e28:	08c00b93          	li	s7,140
    5e2c:	ff9e0e13          	addi	t3,t3,-7
    5e30:	01c11523          	sh	t3,10(sp)
    5e34:	00dbd463          	bge	s7,a3,5e3c <.L239>
    5e38:	885fa06f          	j	6bc <.L236>

00005e3c <.L239>:
    5e3c:	03600e13          	li	t3,54
    5e40:	00fe5463          	bge	t3,a5,5e48 <.L224>
    5e44:	4710406f          	j	aab4 <.L243>

00005e48 <.L224>:
    5e48:	efc00e13          	li	t3,-260
    5e4c:	01ca4463          	blt	s4,t3,5e54 <.L224+0xc>
    5e50:	4210406f          	j	aa70 <.L241>
    5e54:	00c15e03          	lhu	t3,12(sp)
    5e58:	ce400b93          	li	s7,-796
    5e5c:	003e0e13          	addi	t3,t3,3
    5e60:	01c11623          	sh	t3,12(sp)
    5e64:	0175d463          	bge	a1,s7,5e6c <.L253>
    5e68:	88dfa06f          	j	6f4 <.L252>

00005e6c <.L253>:
    5e6c:	00e15e03          	lhu	t3,14(sp)
    5e70:	ff6e0e13          	addi	t3,t3,-10
    5e74:	010e1e13          	slli	t3,t3,0x10
    5e78:	410e5e13          	srai	t3,t3,0x10
    5e7c:	895fa06f          	j	710 <.L275>

00005e80 <.L1005>:
    5e80:	01400b93          	li	s7,20
    5e84:	011bd463          	bge	s7,a7,5e8c <.L1005+0xc>
    5e88:	7600306f          	j	95e8 <.L1008>
    5e8c:	00a15b83          	lhu	s7,10(sp)
    5e90:	ffeb8b93          	addi	s7,s7,-2
    5e94:	010b9b93          	slli	s7,s7,0x10
    5e98:	010bdb93          	srli	s7,s7,0x10

00005e9c <.L1009>:
    5e9c:	01711523          	sh	s7,10(sp)
    5ea0:	03d00b93          	li	s7,61
    5ea4:	00fbd463          	bge	s7,a5,5eac <.L1016>
    5ea8:	854fc06f          	j	1efc <.L1017>

00005eac <.L1016>:
    5eac:	02700b93          	li	s7,39
    5eb0:	01dbd463          	bge	s7,t4,5eb8 <.L1016+0xc>
    5eb4:	60c0306f          	j	94c0 <.L1020>
    5eb8:	00c15b83          	lhu	s7,12(sp)
    5ebc:	03900c13          	li	s8,57
    5ec0:	003b8b93          	addi	s7,s7,3
    5ec4:	01711623          	sh	s7,12(sp)
    5ec8:	00fc5463          	bge	s8,a5,5ed0 <.L1026>
    5ecc:	854fc06f          	j	1f20 <.L1014>

00005ed0 <.L1026>:
    5ed0:	06200b93          	li	s7,98
    5ed4:	016bd463          	bge	s7,s6,5edc <.L1026+0xc>
    5ed8:	0740406f          	j	9f4c <.L2900>
    5edc:	00e15b83          	lhu	s7,14(sp)
    5ee0:	001b8b93          	addi	s7,s7,1
    5ee4:	010b9b93          	slli	s7,s7,0x10
    5ee8:	410bdb93          	srai	s7,s7,0x10
    5eec:	bccfb06f          	j	12b8 <.L1028>

00005ef0 <.L1142>:
    5ef0:	01f00b93          	li	s7,31
    5ef4:	071bc863          	blt	s7,a7,5f64 <.L1144>
    5ef8:	00c15b83          	lhu	s7,12(sp)
    5efc:	ff9b8b93          	addi	s7,s7,-7
    5f00:	010b9b93          	slli	s7,s7,0x10
    5f04:	410bdb93          	srai	s7,s7,0x10
    5f08:	d88fb06f          	j	1490 <.L1140>

00005f0c <.L2576>:
    5f0c:	00815b83          	lhu	s7,8(sp)
    5f10:	fffb8b93          	addi	s7,s7,-1
    5f14:	010b9b93          	slli	s7,s7,0x10
    5f18:	410bdb93          	srai	s7,s7,0x10
    5f1c:	c8dfa06f          	j	ba8 <.L552>

00005f20 <.L678>:
    5f20:	ea900b93          	li	s7,-343
    5f24:	0172c463          	blt	t0,s7,5f2c <.L678+0xc>
    5f28:	26d0306f          	j	9994 <.L680>
    5f2c:	00e15b83          	lhu	s7,14(sp)
    5f30:	ffbb8b93          	addi	s7,s7,-5
    5f34:	010b9b93          	slli	s7,s7,0x10
    5f38:	010bdb93          	srli	s7,s7,0x10

00005f3c <.L681>:
    5f3c:	01711723          	sh	s7,14(sp)
    5f40:	00085463          	bgez	a6,5f48 <.L693>
    5f44:	a91fb06f          	j	19d4 <.L2269>

00005f48 <.L693>:
    5f48:	ff700b93          	li	s7,-9
    5f4c:	d5764a63          	blt	a2,s7,54a0 <.L695>
    5f50:	00815b83          	lhu	s7,8(sp)
    5f54:	ffbb8b93          	addi	s7,s7,-5
    5f58:	010b9b93          	slli	s7,s7,0x10
    5f5c:	410bdb93          	srai	s7,s7,0x10
    5f60:	e45fa06f          	j	da4 <.L692>

00005f64 <.L1144>:
    5f64:	00c15b83          	lhu	s7,12(sp)
    5f68:	001b8b93          	addi	s7,s7,1
    5f6c:	010b9b93          	slli	s7,s7,0x10
    5f70:	410bdb93          	srai	s7,s7,0x10
    5f74:	d1cfb06f          	j	1490 <.L1140>

00005f78 <.L1857>:
    5f78:	eea00b93          	li	s7,-278
    5f7c:	017a5463          	bge	s4,s7,5f84 <.L1857+0xc>
    5f80:	bd1fc06f          	j	2b50 <.L1856>
    5f84:	00c15b83          	lhu	s7,12(sp)
    5f88:	ff8b8b93          	addi	s7,s7,-8
    5f8c:	01711623          	sh	s7,12(sp)
    5f90:	bc1fc06f          	j	2b50 <.L1856>

00005f94 <.L2652>:
    5f94:	00e15b83          	lhu	s7,14(sp)
    5f98:	004b8b93          	addi	s7,s7,4
    5f9c:	01711723          	sh	s7,14(sp)
    5fa0:	d19fc06f          	j	2cb8 <.L1927>

00005fa4 <.L1351>:
    5fa4:	00a15b83          	lhu	s7,10(sp)
    5fa8:	02a00c13          	li	s8,42
    5fac:	ffcb8b93          	addi	s7,s7,-4
    5fb0:	01711523          	sh	s7,10(sp)
    5fb4:	00dc5463          	bge	s8,a3,5fbc <.L1351+0x18>
    5fb8:	f7cfb06f          	j	1734 <.L1328>
    5fbc:	fba00b93          	li	s7,-70
    5fc0:	0175d463          	bge	a1,s7,5fc8 <.L1351+0x24>
    5fc4:	5ec0106f          	j	75b0 <.L1337>
    5fc8:	00c15b83          	lhu	s7,12(sp)
    5fcc:	03600c13          	li	s8,54
    5fd0:	00db8b93          	addi	s7,s7,13
    5fd4:	01711623          	sh	s7,12(sp)
    5fd8:	00fc4463          	blt	s8,a5,5fe0 <.L1351+0x3c>
    5fdc:	5f80106f          	j	75d4 <.L1353>
    5fe0:	ff600b93          	li	s7,-10
    5fe4:	01764463          	blt	a2,s7,5fec <.L1354>
    5fe8:	be0fc06f          	j	23c8 <.L1355>

00005fec <.L1354>:
    5fec:	00e15b83          	lhu	s7,14(sp)
    5ff0:	fa300c13          	li	s8,-93
    5ff4:	002b8b93          	addi	s7,s7,2
    5ff8:	01711723          	sh	s7,14(sp)
    5ffc:	0182c463          	blt	t0,s8,6004 <.L1354+0x18>
    6000:	f29fd06f          	j	3f28 <.L1367>
    6004:	fa100b93          	li	s7,-95
    6008:	0172c463          	blt	t0,s7,6010 <.L1354+0x24>
    600c:	6990106f          	j	7ea4 <.L1369>
    6010:	03900b93          	li	s7,57
    6014:	006bc463          	blt	s7,t1,601c <.L1354+0x30>
    6018:	fecfe06f          	j	4804 <.L1372>
    601c:	ff800b93          	li	s7,-8
    6020:	01765463          	bge	a2,s7,6028 <.L1354+0x3c>
    6024:	bfcfc06f          	j	2420 <.L1373>
    6028:	ea900b93          	li	s7,-343
    602c:	0172c463          	blt	t0,s7,6034 <.L1374>
    6030:	f39fd06f          	j	3f68 <.L2624>

00006034 <.L1374>:
    6034:	00a15b83          	lhu	s7,10(sp)
    6038:	00100c13          	li	s8,1
    603c:	007b8b93          	addi	s7,s7,7
    6040:	01711523          	sh	s7,10(sp)
    6044:	01cc5463          	bge	s8,t3,604c <.L1375>
    6048:	f21fd06f          	j	3f68 <.L2624>

0000604c <.L1375>:
    604c:	01100b93          	li	s7,17
    6050:	011bc463          	blt	s7,a7,6058 <.L1375+0xc>
    6054:	3050206f          	j	8b58 <.L1395>
    6058:	02400b93          	li	s7,36
    605c:	00ebc463          	blt	s7,a4,6064 <.L1375+0x18>
    6060:	4750106f          	j	7cd4 <.L1405>
    6064:	00c15b83          	lhu	s7,12(sp)
    6068:	ff9b8b93          	addi	s7,s7,-7
    606c:	01711623          	sh	s7,12(sp)
    6070:	f05fd06f          	j	3f74 <.L1394>

00006074 <.L144>:
    6074:	38100e13          	li	t3,897
    6078:	00de4463          	blt	t3,a3,6080 <.L144+0xc>
    607c:	64c0406f          	j	a6c8 <.L2901>
    6080:	2ff00e13          	li	t3,767
    6084:	54ee50e3          	bge	t3,a4,6dc4 <.L156>
    6088:	00001e37          	lui	t3,0x1
    608c:	85be0e13          	addi	t3,t3,-1957 # 85b <.L372+0x7>
    6090:	00de4463          	blt	t3,a3,6098 <.L144+0x24>
    6094:	6580406f          	j	a6ec <.L163>
    6098:	00c15e03          	lhu	t3,12(sp)
    609c:	03d00b93          	li	s7,61
    60a0:	00ae0e13          	addi	t3,t3,10
    60a4:	01c11623          	sh	t3,12(sp)
    60a8:	01779463          	bne	a5,s7,60b0 <.L183>
    60ac:	6580406f          	j	a704 <.L184>

000060b0 <.L183>:
    60b0:	ce400e13          	li	t3,-796
    60b4:	d1c5d8e3          	bge	a1,t3,5dc4 <.L188>

000060b8 <.L189>:
    60b8:	00e15e03          	lhu	t3,14(sp)
    60bc:	ffae0e13          	addi	t3,t3,-6
    60c0:	010e1e13          	slli	t3,t3,0x10
    60c4:	410e5e13          	srai	t3,t3,0x10
    60c8:	8cdfd06f          	j	3994 <.L190>

000060cc <.L2752>:
    60cc:	00c15e03          	lhu	t3,12(sp)
    60d0:	00be0e13          	addi	t3,t3,11
    60d4:	01c11623          	sh	t3,12(sp)

000060d8 <.L172>:
    60d8:	bba00e13          	li	t3,-1094
    60dc:	01c5c463          	blt	a1,t3,60e4 <.L172+0xc>
    60e0:	0a50106f          	j	7984 <.L199>
    60e4:	00e15e03          	lhu	t3,14(sp)
    60e8:	07a00b93          	li	s7,122
    60ec:	00fe0e13          	addi	t3,t3,15
    60f0:	01c11723          	sh	t3,14(sp)
    60f4:	006bc463          	blt	s7,t1,60fc <.L201>
    60f8:	0a50106f          	j	799c <.L196>

000060fc <.L201>:
    60fc:	00815e03          	lhu	t3,8(sp)
    6100:	ff8e0e13          	addi	t3,t3,-8
    6104:	010e1e13          	slli	t3,t3,0x10
    6108:	410e5e13          	srai	t3,t3,0x10

0000610c <.L220>:
    610c:	01c11423          	sh	t3,8(sp)
    6110:	08000e13          	li	t3,128
    6114:	00ee4463          	blt	t3,a4,611c <.L220+0x10>
    6118:	d74fa06f          	j	68c <.L215>
    611c:	03d00e13          	li	t3,61
    6120:	00fe4463          	blt	t3,a5,6128 <.L220+0x1c>
    6124:	2fc0306f          	j	9420 <.L211>
    6128:	35d00e13          	li	t3,861
    612c:	01ee4463          	blt	t3,t5,6134 <.L220+0x28>
    6130:	dd8fd06f          	j	3708 <.L213>
    6134:	00a15e03          	lhu	t3,10(sp)
    6138:	08c00b93          	li	s7,140
    613c:	003e0e13          	addi	t3,t3,3
    6140:	01c11523          	sh	t3,10(sp)
    6144:	00dbc463          	blt	s7,a3,614c <.L2726>
    6148:	dd8fd06f          	j	3720 <.L249>

0000614c <.L2726>:
    614c:	2df00e13          	li	t3,735
    6150:	00ee4463          	blt	t3,a4,6158 <.L2539>
    6154:	d68fa06f          	j	6bc <.L236>

00006158 <.L2539>:
    6158:	7e700e13          	li	t3,2023
    615c:	00de5463          	bge	t3,a3,6164 <.L2539+0xc>
    6160:	7b80506f          	j	b918 <.L264>
    6164:	00c15e03          	lhu	t3,12(sp)
    6168:	ff6e0e13          	addi	t3,t3,-10
    616c:	01c11623          	sh	t3,12(sp)
    6170:	dccfd06f          	j	373c <.L259>

00006174 <.L664>:
    6174:	1dc00b93          	li	s7,476
    6178:	016bd463          	bge	s7,s6,6180 <.L664+0xc>
    617c:	4fc0406f          	j	a678 <.L666>
    6180:	00a15b83          	lhu	s7,10(sp)
    6184:	ffab8b93          	addi	s7,s7,-6
    6188:	010b9b93          	slli	s7,s7,0x10
    618c:	410bdb93          	srai	s7,s7,0x10
    6190:	b85fa06f          	j	d14 <.L662>

00006194 <.L346>:
    6194:	01f00b93          	li	s7,31
    6198:	013bd463          	bge	s7,s3,61a0 <.L346+0xc>
    619c:	5040406f          	j	a6a0 <.L347>
    61a0:	00815b83          	lhu	s7,8(sp)
    61a4:	fffb8b93          	addi	s7,s7,-1
    61a8:	01711423          	sh	s7,8(sp)
    61ac:	e4cfa06f          	j	7f8 <.L344>

000061b0 <.L834>:
    61b0:	31000b93          	li	s7,784
    61b4:	00dbd463          	bge	s7,a3,61bc <.L834+0xc>
    61b8:	64c0306f          	j	9804 <.L836>
    61bc:	00a15b83          	lhu	s7,10(sp)
    61c0:	007b8b93          	addi	s7,s7,7
    61c4:	010b9b93          	slli	s7,s7,0x10
    61c8:	410bdb93          	srai	s7,s7,0x10
    61cc:	df1fa06f          	j	fbc <.L829>

000061d0 <.L653>:
    61d0:	00815b83          	lhu	s7,8(sp)
    61d4:	ff7b8b93          	addi	s7,s7,-9
    61d8:	01711423          	sh	s7,8(sp)
    61dc:	b09fa06f          	j	ce4 <.L649>

000061e0 <.L1075>:
    61e0:	02f00b93          	li	s7,47
    61e4:	007bd463          	bge	s7,t2,61ec <.L1075+0xc>
    61e8:	6040406f          	j	a7ec <.L1081>
    61ec:	00c15b83          	lhu	s7,12(sp)
    61f0:	ffab8b93          	addi	s7,s7,-6
    61f4:	010b9b93          	slli	s7,s7,0x10
    61f8:	410bdb93          	srai	s7,s7,0x10
    61fc:	db5fb06f          	j	1fb0 <.L1074>

00006200 <.L674>:
    6200:	c2600b93          	li	s7,-986
    6204:	0175c463          	blt	a1,s7,620c <.L674+0xc>
    6208:	5e80306f          	j	97f0 <.L677>
    620c:	00e15b83          	lhu	s7,14(sp)
    6210:	004b8b93          	addi	s7,s7,4
    6214:	010b9b93          	slli	s7,s7,0x10
    6218:	410bdb93          	srai	s7,s7,0x10
    621c:	b59fa06f          	j	d74 <.L676>

00006220 <.L2890>:
    6220:	01900b93          	li	s7,25
    6224:	1b0bd663          	bge	s7,a6,63d0 <.L1049>
    6228:	00815b83          	lhu	s7,8(sp)
    622c:	03100c13          	li	s8,49
    6230:	ffdb8b93          	addi	s7,s7,-3
    6234:	01711423          	sh	s7,8(sp)
    6238:	01fc5463          	bge	s8,t6,6240 <.L1044>
    623c:	2890206f          	j	8cc4 <.L1040>

00006240 <.L1044>:
    6240:	1f500b93          	li	s7,501
    6244:	00ebc463          	blt	s7,a4,624c <.L1042>
    6248:	0f80306f          	j	9340 <.L1041>

0000624c <.L1042>:
    624c:	ddc00b93          	li	s7,-548
    6250:	017a4463          	blt	s4,s7,6258 <.L1042+0xc>
    6254:	3b00406f          	j	a604 <.L1053>
    6258:	00a15b83          	lhu	s7,10(sp)
    625c:	ffab8b93          	addi	s7,s7,-6
    6260:	010b9b93          	slli	s7,s7,0x10
    6264:	410bdb93          	srai	s7,s7,0x10
    6268:	8a8fb06f          	j	1310 <.L1045>

0000626c <.L561>:
    626c:	46700b93          	li	s7,1127
    6270:	007bd463          	bge	s7,t2,6278 <.L561+0xc>
    6274:	6080306f          	j	987c <.L566>
    6278:	00a15b83          	lhu	s7,10(sp)
    627c:	ff8b8b93          	addi	s7,s7,-8
    6280:	010b9b93          	slli	s7,s7,0x10
    6284:	410bdb93          	srai	s7,s7,0x10
    6288:	949fa06f          	j	bd0 <.L2577>

0000628c <.L430>:
    628c:	f9f00b93          	li	s7,-97
    6290:	0175c463          	blt	a1,s7,6298 <.L430+0xc>
    6294:	5250306f          	j	9fb8 <.L448>
    6298:	00c15b83          	lhu	s7,12(sp)
    629c:	ff8b8b93          	addi	s7,s7,-8
    62a0:	010b9b93          	slli	s7,s7,0x10
    62a4:	410bdb93          	srai	s7,s7,0x10
    62a8:	f2cfa06f          	j	9d4 <.L431>

000062ac <.L123>:
    62ac:	1ca00e13          	li	t3,458
    62b0:	012e5463          	bge	t3,s2,62b8 <.L123+0xc>
    62b4:	5740306f          	j	9828 <.L130>
    62b8:	00e15e03          	lhu	t3,14(sp)
    62bc:	ff7e0e13          	addi	t3,t3,-9
    62c0:	010e1e13          	slli	t3,t3,0x10
    62c4:	410e5e13          	srai	t3,t3,0x10
    62c8:	9d4fa06f          	j	49c <.L129>

000062cc <.L468>:
    62cc:	19e00b93          	li	s7,414
    62d0:	01ebd463          	bge	s7,t5,62d8 <.L468+0xc>
    62d4:	6000306f          	j	98d4 <.L471>
    62d8:	00a15b83          	lhu	s7,10(sp)
    62dc:	ff7b8b93          	addi	s7,s7,-9
    62e0:	010b9b93          	slli	s7,s7,0x10
    62e4:	410bdb93          	srai	s7,s7,0x10
    62e8:	f80fa06f          	j	a68 <.L470>

000062ec <.L2830>:
    62ec:	efc00b93          	li	s7,-260
    62f0:	017a4463          	blt	s4,s7,62f8 <.L2830+0xc>
    62f4:	4e00306f          	j	97d4 <.L441>
    62f8:	00c15b83          	lhu	s7,12(sp)
    62fc:	e2500c13          	li	s8,-475
    6300:	002b8b93          	addi	s7,s7,2
    6304:	01711623          	sh	s7,12(sp)
    6308:	01844463          	blt	s0,s8,6310 <.L442>
    630c:	b8cfd06f          	j	3698 <.L443>

00006310 <.L442>:
    6310:	25500b93          	li	s7,597
    6314:	069bd863          	bge	s7,s1,6384 <.L444>

00006318 <.L445>:
    6318:	00e15b83          	lhu	s7,14(sp)
    631c:	ff6b8b93          	addi	s7,s7,-10
    6320:	01711723          	sh	s7,14(sp)
    6324:	02200b93          	li	s7,34
    6328:	010bc463          	blt	s7,a6,6330 <.L457>
    632c:	ee8fa06f          	j	a14 <.L2902>

00006330 <.L457>:
    6330:	00815b83          	lhu	s7,8(sp)
    6334:	00095463          	bgez	s2,633c <.L457+0xc>
    6338:	10c0506f          	j	b444 <.L2903>
    633c:	ff6b8b93          	addi	s7,s7,-10
    6340:	010b9b93          	slli	s7,s7,0x10
    6344:	410bdb93          	srai	s7,s7,0x10
    6348:	01711423          	sh	s7,8(sp)
    634c:	0b500b93          	li	s7,181
    6350:	006bc463          	blt	s7,t1,6358 <.L460>
    6354:	eecfa06f          	j	a40 <.L465>

00006358 <.L460>:
    6358:	e0d00b93          	li	s7,-499
    635c:	01744463          	blt	s0,s7,6364 <.L460+0xc>
    6360:	a14fd06f          	j	3574 <.L472>
    6364:	27d00b93          	li	s7,637
    6368:	016bd463          	bge	s7,s6,6370 <.L460+0x18>
    636c:	5900306f          	j	98fc <.L473>
    6370:	00a15b83          	lhu	s7,10(sp)
    6374:	ff6b8b93          	addi	s7,s7,-10
    6378:	010b9b93          	slli	s7,s7,0x10
    637c:	410bdb93          	srai	s7,s7,0x10
    6380:	ee8fa06f          	j	a68 <.L470>

00006384 <.L444>:
    6384:	df400b93          	li	s7,-524
    6388:	0172c463          	blt	t0,s7,6390 <.L444+0xc>
    638c:	5200306f          	j	98ac <.L450>
    6390:	00e15b83          	lhu	s7,14(sp)
    6394:	ff7b8b93          	addi	s7,s7,-9
    6398:	010b9b93          	slli	s7,s7,0x10
    639c:	010bdb93          	srli	s7,s7,0x10
    63a0:	e64fa06f          	j	a04 <.L2570>

000063a4 <.L1030>:
    63a4:	01800b93          	li	s7,24
    63a8:	010bd463          	bge	s7,a6,63b0 <.L1030+0xc>
    63ac:	0dd0206f          	j	8c88 <.L1035>
    63b0:	00e15b83          	lhu	s7,14(sp)
    63b4:	01f00c13          	li	s8,31
    63b8:	ff8b8b93          	addi	s7,s7,-8
    63bc:	01711723          	sh	s7,14(sp)
    63c0:	013c5463          	bge	s8,s3,63c8 <.L1030+0x24>
    63c4:	f05fa06f          	j	12c8 <.L1037>
    63c8:	01c05463          	blez	t3,63d0 <.L1049>
    63cc:	ecdfe06f          	j	5298 <.L1034>

000063d0 <.L1049>:
    63d0:	00815b83          	lhu	s7,8(sp)
    63d4:	009b8b93          	addi	s7,s7,9
    63d8:	01711423          	sh	s7,8(sp)
    63dc:	f01fa06f          	j	12dc <.L1043>

000063e0 <.L595>:
    63e0:	de700b93          	li	s7,-537
    63e4:	0172c463          	blt	t0,s7,63ec <.L595+0xc>
    63e8:	6490306f          	j	a230 <.L598>
    63ec:	00e15b83          	lhu	s7,14(sp)
    63f0:	0a900c13          	li	s8,169
    63f4:	ff8b8b93          	addi	s7,s7,-8
    63f8:	01711723          	sh	s7,14(sp)
    63fc:	01ec4463          	blt	s8,t5,6404 <.L595+0x24>
    6400:	c78fb06f          	j	1878 <.L600>
    6404:	c58ff06f          	j	585c <.L2580>

00006408 <.L2787>:
    6408:	04200b93          	li	s7,66
    640c:	007bd463          	bge	s7,t2,6414 <.L2787+0xc>
    6410:	00c0506f          	j	b41c <.L862>
    6414:	00815b83          	lhu	s7,8(sp)
    6418:	005b8b93          	addi	s7,s7,5
    641c:	010b9b93          	slli	s7,s7,0x10
    6420:	010bdb93          	srli	s7,s7,0x10

00006424 <.L863>:
    6424:	01711423          	sh	s7,8(sp)
    6428:	0b500b93          	li	s7,181
    642c:	006bd463          	bge	s7,t1,6434 <.L2261>
    6430:	89dfb06f          	j	1ccc <.L865>

00006434 <.L2261>:
    6434:	02c00b93          	li	s7,44
    6438:	00dbd463          	bge	s7,a3,6440 <.L2261+0xc>
    643c:	2d80306f          	j	9714 <.L867>
    6440:	00a15b83          	lhu	s7,10(sp)
    6444:	f6a00c13          	li	s8,-150
    6448:	004b8b93          	addi	s7,s7,4
    644c:	01711523          	sh	s7,10(sp)
    6450:	0185d463          	bge	a1,s8,6458 <.L2261+0x24>
    6454:	0dd0206f          	j	8d30 <.L885>
    6458:	f5b00b93          	li	s7,-165
    645c:	0572c263          	blt	t0,s7,64a0 <.L871>

00006460 <.L894>:
    6460:	00c15b83          	lhu	s7,12(sp)
    6464:	ff8b8b93          	addi	s7,s7,-8
    6468:	01711623          	sh	s7,12(sp)

0000646c <.L870>:
    646c:	02f00b93          	li	s7,47
    6470:	010bd463          	bge	s7,a6,6478 <.L886>
    6474:	8a9fb06f          	j	1d1c <.L889>

00006478 <.L886>:
    6478:	03800b93          	li	s7,56
    647c:	05fbd463          	bge	s7,t6,64c4 <.L895>

00006480 <.L881>:
    6480:	03d00b93          	li	s7,61
    6484:	00fbd463          	bge	s7,a5,648c <.L881+0xc>
    6488:	2c80306f          	j	9750 <.L897>
    648c:	00e15b83          	lhu	s7,14(sp)
    6490:	ffab8b93          	addi	s7,s7,-6
    6494:	010b9b93          	slli	s7,s7,0x10
    6498:	410bdb93          	srai	s7,s7,0x10
    649c:	c15fa06f          	j	10b0 <.L896>

000064a0 <.L871>:
    64a0:	03200b93          	li	s7,50
    64a4:	01fbd463          	bge	s7,t6,64ac <.L871+0xc>
    64a8:	0400506f          	j	b4e8 <.L2904>
    64ac:	00c15b83          	lhu	s7,12(sp)
    64b0:	02f00c13          	li	s8,47
    64b4:	015b8b93          	addi	s7,s7,21
    64b8:	01711623          	sh	s7,12(sp)
    64bc:	010c5463          	bge	s8,a6,64c4 <.L895>
    64c0:	85dfb06f          	j	1d1c <.L889>

000064c4 <.L895>:
    64c4:	08d00b93          	li	s7,141
    64c8:	00dbd463          	bge	s7,a3,64d0 <.L895+0xc>
    64cc:	bd5fa06f          	j	10a0 <.L890>
    64d0:	00e15b83          	lhu	s7,14(sp)
    64d4:	005b8b93          	addi	s7,s7,5
    64d8:	010b9b93          	slli	s7,s7,0x10
    64dc:	410bdb93          	srai	s7,s7,0x10
    64e0:	bd1fa06f          	j	10b0 <.L896>

000064e4 <.L876>:
    64e4:	03800b93          	li	s7,56
    64e8:	01fbc463          	blt	s7,t6,64f0 <.L876+0xc>
    64ec:	b75fa06f          	j	1060 <.L874>
    64f0:	00a15b83          	lhu	s7,10(sp)
    64f4:	f6a00c13          	li	s8,-150
    64f8:	ff5b8b93          	addi	s7,s7,-11
    64fc:	01711523          	sh	s7,10(sp)
    6500:	0185c463          	blt	a1,s8,6508 <.L876+0x24>
    6504:	2640506f          	j	b768 <.L879>
    6508:	17000b93          	li	s7,368
    650c:	00dbd463          	bge	s7,a3,6514 <.L876+0x30>
    6510:	fecfb06f          	j	1cfc <.L880>
    6514:	01500b93          	li	s7,21
    6518:	f50bcae3          	blt	s7,a6,646c <.L870>
    651c:	00c15b83          	lhu	s7,12(sp)
    6520:	ffab8b93          	addi	s7,s7,-6
    6524:	01711623          	sh	s7,12(sp)
    6528:	f59ff06f          	j	6480 <.L881>

0000652c <.L903>:
    652c:	00e15b83          	lhu	s7,14(sp)
    6530:	009b8b93          	addi	s7,s7,9
    6534:	010b9b93          	slli	s7,s7,0x10
    6538:	410bdb93          	srai	s7,s7,0x10
    653c:	b75fa06f          	j	10b0 <.L896>

00006540 <.L462>:
    6540:	03200b93          	li	s7,50
    6544:	01fbd463          	bge	s7,t6,654c <.L462+0xc>
    6548:	2700306f          	j	97b8 <.L467>
    654c:	00815b83          	lhu	s7,8(sp)
    6550:	0b500c13          	li	s8,181
    6554:	00cb8b93          	addi	s7,s7,12
    6558:	01711423          	sh	s7,8(sp)
    655c:	006c4463          	blt	s8,t1,6564 <.L462+0x24>
    6560:	ce0fa06f          	j	a40 <.L465>
    6564:	810fd06f          	j	3574 <.L472>

00006568 <.L435>:
    6568:	ff700b93          	li	s7,-9
    656c:	01764463          	blt	a2,s7,6574 <.L435+0xc>
    6570:	0090406f          	j	ad78 <.L438>
    6574:	00a15b83          	lhu	s7,10(sp)
    6578:	001b8b93          	addi	s7,s7,1
    657c:	010b9b93          	slli	s7,s7,0x10
    6580:	410bdb93          	srai	s7,s7,0x10
    6584:	f59fc06f          	j	34dc <.L437>

00006588 <.L64>:
    6588:	00c15e03          	lhu	t3,12(sp)
    658c:	03d00393          	li	t2,61
    6590:	ff5e0e13          	addi	t3,t3,-11
    6594:	01c11623          	sh	t3,12(sp)
    6598:	00f3c463          	blt	t2,a5,65a0 <.L67>
    659c:	e25f906f          	j	3c0 <.L66>

000065a0 <.L67>:
    65a0:	01f00e13          	li	t3,31
    65a4:	010e5463          	bge	t3,a6,65ac <.L67+0xc>
    65a8:	0240406f          	j	a5cc <.L78>
    65ac:	00e15e03          	lhu	t3,14(sp)
    65b0:	0d900393          	li	t2,217
    65b4:	00ce0e13          	addi	t3,t3,12
    65b8:	01c11723          	sh	t3,14(sp)
    65bc:	01e3c463          	blt	t2,t5,65c4 <.L67+0x24>
    65c0:	e39f906f          	j	3f8 <.L76>
    65c4:	c35f906f          	j	1f8 <.L2344>

000065c8 <.L13>:
    65c8:	00651a83          	lh	s5,6(a0)
    65cc:	f4700793          	li	a5,-185
    65d0:	00fac463          	blt	s5,a5,65d8 <.L13+0x10>
    65d4:	2a00206f          	j	8874 <.L15>
    65d8:	01f00793          	li	a5,31
    65dc:	00f11523          	sh	a5,10(sp)
    65e0:	d5c00793          	li	a5,-676
    65e4:	00fac463          	blt	s5,a5,65ec <.L13+0x24>
    65e8:	2940206f          	j	887c <.L17>
    65ec:	01251483          	lh	s1,18(a0)

000065f0 <.L16>:
    65f0:	26a00793          	li	a5,618
    65f4:	00e7d463          	bge	a5,a4,65fc <.L16+0xc>
    65f8:	2cd0506f          	j	c0c4 <.L2905>
    65fc:	00051783          	lh	a5,0(a0)
    6600:	00b00693          	li	a3,11
    6604:	00d11623          	sh	a3,12(sp)
    6608:	03e00693          	li	a3,62
    660c:	00f6c463          	blt	a3,a5,6614 <.L16+0x24>
    6610:	1440506f          	j	b754 <.L2315>
    6614:	00a51683          	lh	a3,10(a0)
    6618:	01051b03          	lh	s6,16(a0)
    661c:	02851e83          	lh	t4,40(a0)
    6620:	01451283          	lh	t0,20(a0)
    6624:	af5f906f          	j	118 <.L27>

00006628 <.L45>:
    6628:	00851803          	lh	a6,8(a0)
    662c:	00815883          	lhu	a7,8(sp)
    6630:	00085463          	bgez	a6,6638 <.L45+0x10>
    6634:	5c50406f          	j	b3f8 <.L2906>
    6638:	ff688893          	addi	a7,a7,-10
    663c:	01089893          	slli	a7,a7,0x10
    6640:	4108d893          	srai	a7,a7,0x10
    6644:	b1df906f          	j	160 <.L47>

00006648 <.L619>:
    6648:	1ab00b93          	li	s7,427
    664c:	007bd463          	bge	s7,t2,6654 <.L619+0xc>
    6650:	3d80106f          	j	7a28 <.L625>
    6654:	00a15b83          	lhu	s7,10(sp)
    6658:	08900c13          	li	s8,137
    665c:	ff7b8b93          	addi	s7,s7,-9
    6660:	01711523          	sh	s7,10(sp)
    6664:	00dc5463          	bge	s8,a3,666c <.L626>
    6668:	3d80106f          	j	7a40 <.L2581>

0000666c <.L626>:
    666c:	03700b93          	li	s7,55
    6670:	00fbc463          	blt	s7,a5,6678 <.L634>
    6674:	a78fb06f          	j	18ec <.L635>

00006678 <.L634>:
    6678:	23000b93          	li	s7,560
    667c:	01ebd463          	bge	s7,t5,6684 <.L634+0xc>
    6680:	5f90406f          	j	b478 <.L637>
    6684:	00c15b83          	lhu	s7,12(sp)
    6688:	ff8b8b93          	addi	s7,s7,-8
    668c:	010b9b93          	slli	s7,s7,0x10
    6690:	410bdb93          	srai	s7,s7,0x10

00006694 <.L623>:
    6694:	01711623          	sh	s7,12(sp)
    6698:	03a00b93          	li	s7,58
    669c:	00fbc463          	blt	s7,a5,66a4 <.L643>
    66a0:	e08fa06f          	j	ca8 <.L636>

000066a4 <.L643>:
    66a4:	e4a00b93          	li	s7,-438
    66a8:	0172c463          	blt	t0,s7,66b0 <.L643+0xc>
    66ac:	2200106f          	j	78cc <.L655>
    66b0:	de700b93          	li	s7,-537
    66b4:	0175c863          	blt	a1,s7,66c4 <.L641>

000066b8 <.L656>:
    66b8:	00e15b83          	lhu	s7,14(sp)
    66bc:	ff7b8b93          	addi	s7,s7,-9
    66c0:	01711723          	sh	s7,14(sp)

000066c4 <.L641>:
    66c4:	0a900b93          	li	s7,169
    66c8:	01ebc463          	blt	s7,t5,66d0 <.L2270>
    66cc:	a54fb06f          	j	1920 <.L648>

000066d0 <.L2270>:
    66d0:	01e00b93          	li	s7,30
    66d4:	af3bcee3          	blt	s7,s3,61d0 <.L653>
    66d8:	03c00b93          	li	s7,60
    66dc:	00fbc463          	blt	s7,a5,66e4 <.L2270+0x14>
    66e0:	df8fa06f          	j	cd8 <.L652>
    66e4:	00815b83          	lhu	s7,8(sp)
    66e8:	006b8b93          	addi	s7,s7,6
    66ec:	01711423          	sh	s7,8(sp)
    66f0:	df4fa06f          	j	ce4 <.L649>

000066f4 <.L603>:
    66f4:	00b00b93          	li	s7,11
    66f8:	013bc463          	blt	s7,s3,6700 <.L603+0xc>
    66fc:	d5cfa06f          	j	c58 <.L614>
    6700:	00815b83          	lhu	s7,8(sp)
    6704:	ff9b8b93          	addi	s7,s7,-7
    6708:	01711423          	sh	s7,8(sp)
    670c:	d4cfa06f          	j	c58 <.L614>

00006710 <.L627>:
    6710:	03c00b93          	li	s7,60
    6714:	00fbd463          	bge	s7,a5,671c <.L627+0xc>
    6718:	6000406f          	j	ad18 <.L630>
    671c:	00a15b83          	lhu	s7,10(sp)
    6720:	009b8b93          	addi	s7,s7,9
    6724:	010b9b93          	slli	s7,s7,0x10
    6728:	410bdb93          	srai	s7,s7,0x10
    672c:	01711523          	sh	s7,10(sp)
    6730:	08900b93          	li	s7,137
    6734:	00dbc463          	blt	s7,a3,673c <.L633>
    6738:	9a0fb06f          	j	18d8 <.L2907>

0000673c <.L633>:
    673c:	e9b00b93          	li	s7,-357
    6740:	017ac463          	blt	s5,s7,6748 <.L633+0xc>
    6744:	3380206f          	j	8a7c <.L622>
    6748:	27200b93          	li	s7,626
    674c:	00ebc463          	blt	s7,a4,6754 <.L633+0x18>
    6750:	2fc0106f          	j	7a4c <.L624>
    6754:	00c15b83          	lhu	s7,12(sp)
    6758:	fffb8b93          	addi	s7,s7,-1
    675c:	010b9b93          	slli	s7,s7,0x10
    6760:	410bdb93          	srai	s7,s7,0x10
    6764:	f31ff06f          	j	6694 <.L623>

00006768 <.L71>:
    6768:	0de00e13          	li	t3,222
    676c:	012e5463          	bge	t3,s2,6774 <.L71+0xc>
    6770:	0200306f          	j	9790 <.L75>
    6774:	00e15e03          	lhu	t3,14(sp)
    6778:	ff6e0e13          	addi	t3,t3,-10
    677c:	010e1e13          	slli	t3,t3,0x10
    6780:	410e5e13          	srai	t3,t3,0x10
    6784:	01c11723          	sh	t3,14(sp)
    6788:	0d900e13          	li	t3,217
    678c:	01ee4463          	blt	t3,t5,6794 <.L74>
    6790:	c69f906f          	j	3f8 <.L76>

00006794 <.L74>:
    6794:	05700e13          	li	t3,87
    6798:	006e4463          	blt	t3,t1,67a0 <.L74+0xc>
    679c:	7980206f          	j	8f34 <.L83>
    67a0:	02800e13          	li	t3,40
    67a4:	00fe5463          	bge	t3,a5,67ac <.L74+0x18>
    67a8:	a5df906f          	j	204 <.L82>
    67ac:	00815e03          	lhu	t3,8(sp)
    67b0:	1de00393          	li	t2,478
    67b4:	005e0e13          	addi	t3,t3,5
    67b8:	01c11423          	sh	t3,8(sp)
    67bc:	00e3d463          	bge	t2,a4,67c4 <.L74+0x30>
    67c0:	7b90106f          	j	8778 <.L2346>
    67c4:	02651383          	lh	t2,38(a0)
    67c8:	c55f906f          	j	41c <.L90>

000067cc <.L55>:
    67cc:	6ca00893          	li	a7,1738
    67d0:	00e8d463          	bge	a7,a4,67d8 <.L55+0xc>
    67d4:	2990306f          	j	a26c <.L61>
    67d8:	00a15883          	lhu	a7,10(sp)
    67dc:	df700e13          	li	t3,-521
    67e0:	ff688893          	addi	a7,a7,-10
    67e4:	01111523          	sh	a7,10(sp)
    67e8:	01ca5463          	bge	s4,t3,67f0 <.L2547>
    67ec:	8e4fd06f          	j	38d0 <.L60>

000067f0 <.L2547>:
    67f0:	02a51883          	lh	a7,42(a0)

000067f4 <.L2949>:
    67f4:	eef00e13          	li	t3,-273
    67f8:	01c2d463          	bge	t0,t3,6800 <.L68>
    67fc:	badf906f          	j	3a8 <.L2908>

00006800 <.L68>:
    6800:	ef500e13          	li	t3,-267
    6804:	01c2c463          	blt	t0,t3,680c <.L68+0xc>
    6808:	2640306f          	j	9a6c <.L53>
    680c:	00c15e03          	lhu	t3,12(sp)
    6810:	ff9e0e13          	addi	t3,t3,-7
    6814:	010e1e13          	slli	t3,t3,0x10
    6818:	410e5e13          	srai	t3,t3,0x10
    681c:	9b1f906f          	j	1cc <.L65>

00006820 <.L379>:
    6820:	01c51c03          	lh	s8,28(a0)
    6824:	03800b93          	li	s7,56
    6828:	018bd463          	bge	s7,s8,6830 <.L379+0x10>
    682c:	6a00306f          	j	9ecc <.L390>
    6830:	00815b83          	lhu	s7,8(sp)
    6834:	0b500c13          	li	s8,181
    6838:	ff7b8b93          	addi	s7,s7,-9
    683c:	01711423          	sh	s7,8(sp)
    6840:	006c4463          	blt	s8,t1,6848 <.L381>
    6844:	878fa06f          	j	8bc <.L2565>

00006848 <.L381>:
    6848:	e2700b93          	li	s7,-473
    684c:	05745a63          	bge	s0,s7,68a0 <.L386>

00006850 <.L389>:
    6850:	00a15b83          	lhu	s7,10(sp)
    6854:	ff9b8b93          	addi	s7,s7,-7
    6858:	010b9b93          	slli	s7,s7,0x10
    685c:	410bdb93          	srai	s7,s7,0x10
    6860:	878fa06f          	j	8d8 <.L383>

00006864 <.L382>:
    6864:	01a00b93          	li	s7,26
    6868:	013bd463          	bge	s7,s3,6870 <.L382+0xc>
    686c:	1550306f          	j	a1c0 <.L2909>
    6870:	00a15b83          	lhu	s7,10(sp)
    6874:	ffbb8b93          	addi	s7,s7,-5
    6878:	010b9b93          	slli	s7,s7,0x10
    687c:	410bdb93          	srai	s7,s7,0x10
    6880:	858fa06f          	j	8d8 <.L383>

00006884 <.L2191>:
    6884:	17300f13          	li	t5,371
    6888:	007f5463          	bge	t5,t2,6890 <.L2191+0xc>
    688c:	1490306f          	j	a1d4 <.L2192>
    6890:	00815f03          	lhu	t5,8(sp)
    6894:	ffbf0f13          	addi	t5,t5,-5
    6898:	01e11423          	sh	t5,8(sp)
    689c:	851fc06f          	j	30ec <.L2189>

000068a0 <.L386>:
    68a0:	0ce00b93          	li	s7,206
    68a4:	016bd463          	bge	s7,s6,68ac <.L386+0xc>
    68a8:	24d0306f          	j	a2f4 <.L399>
    68ac:	00a15b83          	lhu	s7,10(sp)
    68b0:	ff8b8b93          	addi	s7,s7,-8
    68b4:	010b9b93          	slli	s7,s7,0x10
    68b8:	410bdb93          	srai	s7,s7,0x10
    68bc:	81cfa06f          	j	8d8 <.L383>

000068c0 <.L401>:
    68c0:	efc00b93          	li	s7,-260
    68c4:	017a4463          	blt	s4,s7,68cc <.L401+0xc>
    68c8:	4890106f          	j	8550 <.L404>
    68cc:	00c15b83          	lhu	s7,12(sp)
    68d0:	03b00c13          	li	s8,59
    68d4:	003b8b93          	addi	s7,s7,3
    68d8:	01711623          	sh	s7,12(sp)
    68dc:	00fc4463          	blt	s8,a5,68e4 <.L2568>
    68e0:	4890106f          	j	8568 <.L405>

000068e4 <.L2568>:
    68e4:	e4700b93          	li	s7,-441
    68e8:	0772de63          	bge	t0,s7,6964 <.L407>

000068ec <.L406>:
    68ec:	00e15b83          	lhu	s7,14(sp)
    68f0:	ff9b8b93          	addi	s7,s7,-7
    68f4:	010b9b93          	slli	s7,s7,0x10
    68f8:	410bdb93          	srai	s7,s7,0x10
    68fc:	840fa06f          	j	93c <.L412>

00006900 <.L474>:
    6900:	00a15b83          	lhu	s7,10(sp)
    6904:	2be00c13          	li	s8,702
    6908:	006b8b93          	addi	s7,s7,6
    690c:	01711523          	sh	s7,10(sp)
    6910:	00dc5463          	bge	s8,a3,6918 <.L474+0x18>
    6914:	7c90406f          	j	b8dc <.L477>
    6918:	0a300b93          	li	s7,163
    691c:	00ebd463          	bge	s7,a4,6924 <.L475>
    6920:	4580506f          	j	bd78 <.L2910>

00006924 <.L475>:
    6924:	04d00b93          	li	s7,77
    6928:	00dbc463          	blt	s7,a3,6930 <.L475+0xc>
    692c:	07c0506f          	j	b9a8 <.L2911>
    6930:	00c15b83          	lhu	s7,12(sp)
    6934:	006b8b93          	addi	s7,s7,6
    6938:	01711623          	sh	s7,12(sp)

0000693c <.L2289>:
    693c:	03b00b93          	li	s7,59
    6940:	00fbd463          	bge	s7,a5,6948 <.L483>
    6944:	0a10206f          	j	91e4 <.L484>

00006948 <.L483>:
    6948:	03800b93          	li	s7,56
    694c:	05fbce63          	blt	s7,t6,69a8 <.L507>
    6950:	00e15b83          	lhu	s7,14(sp)
    6954:	ffab8b93          	addi	s7,s7,-6
    6958:	010b9b93          	slli	s7,s7,0x10
    695c:	410bdb93          	srai	s7,s7,0x10
    6960:	d2dfe06f          	j	568c <.L504>

00006964 <.L407>:
    6964:	01800b93          	li	s7,24
    6968:	010bd463          	bge	s7,a6,6970 <.L407+0xc>
    696c:	0790306f          	j	a1e4 <.L414>
    6970:	00e15b83          	lhu	s7,14(sp)
    6974:	0a900c13          	li	s8,169
    6978:	001b8b93          	addi	s7,s7,1
    697c:	01711723          	sh	s7,14(sp)
    6980:	01ec5463          	bge	s8,t5,6988 <.L418>
    6984:	af9fc06f          	j	347c <.L415>

00006988 <.L418>:
    6988:	11800b93          	li	s7,280
    698c:	012bd463          	bge	s7,s2,6994 <.L418+0xc>
    6990:	1290306f          	j	a2b8 <.L2912>
    6994:	00815b83          	lhu	s7,8(sp)
    6998:	00ab8b93          	addi	s7,s7,10
    699c:	010b9b93          	slli	s7,s7,0x10
    69a0:	410bdb93          	srai	s7,s7,0x10
    69a4:	fd5f906f          	j	978 <.L420>

000069a8 <.L507>:
    69a8:	00e15b83          	lhu	s7,14(sp)
    69ac:	ff6b8b93          	addi	s7,s7,-10
    69b0:	010b9b93          	slli	s7,s7,0x10
    69b4:	410bdb93          	srai	s7,s7,0x10
    69b8:	cd5fe06f          	j	568c <.L504>

000069bc <.L672>:
    69bc:	00c15b83          	lhu	s7,12(sp)
    69c0:	ff8b8b93          	addi	s7,s7,-8
    69c4:	01711623          	sh	s7,12(sp)
    69c8:	b7cfa06f          	j	d44 <.L670>

000069cc <.L309>:
    69cc:	00a15b83          	lhu	s7,10(sp)
    69d0:	02051e03          	lh	t3,32(a0)
    69d4:	ff5b8b93          	addi	s7,s7,-11
    69d8:	01711523          	sh	s7,10(sp)

000069dc <.L315>:
    69dc:	ddb00b93          	li	s7,-549
    69e0:	017ac463          	blt	s5,s7,69e8 <.L2948>
    69e4:	4840306f          	j	9e68 <.L330>

000069e8 <.L2948>:
    69e8:	00c15b83          	lhu	s7,12(sp)
    69ec:	03c00c13          	li	s8,60
    69f0:	005b8b93          	addi	s7,s7,5
    69f4:	01711623          	sh	s7,12(sp)
    69f8:	00fc5463          	bge	s8,a5,6a00 <.L331>
    69fc:	e25fc06f          	j	3820 <.L325>

00006a00 <.L331>:
    6a00:	d2500b93          	li	s7,-731
    6a04:	0175c463          	blt	a1,s7,6a0c <.L320>
    6a08:	dadf906f          	j	7b4 <.L334>

00006a0c <.L320>:
    6a0c:	00e15b83          	lhu	s7,14(sp)
    6a10:	ffab8b93          	addi	s7,s7,-6
    6a14:	010b9b93          	slli	s7,s7,0x10
    6a18:	410bdb93          	srai	s7,s7,0x10
    6a1c:	da9f906f          	j	7c4 <.L338>

00006a20 <.L324>:
    6a20:	00c15b83          	lhu	s7,12(sp)
    6a24:	03c00c13          	li	s8,60
    6a28:	ff8b8b93          	addi	s7,s7,-8
    6a2c:	01711623          	sh	s7,12(sp)
    6a30:	00fc4463          	blt	s8,a5,6a38 <.L329>
    6a34:	d75f906f          	j	7a8 <.L2562>

00006a38 <.L329>:
    6a38:	01f00b93          	li	s7,31
    6a3c:	090bc063          	blt	s7,a6,6abc <.L340>
    6a40:	00e15b83          	lhu	s7,14(sp)
    6a44:	003b8b93          	addi	s7,s7,3
    6a48:	010b9b93          	slli	s7,s7,0x10
    6a4c:	410bdb93          	srai	s7,s7,0x10
    6a50:	d75f906f          	j	7c4 <.L338>

00006a54 <.L282>:
    6a54:	00815e03          	lhu	t3,8(sp)
    6a58:	2df00b93          	li	s7,735
    6a5c:	ff6e0e13          	addi	t3,t3,-10
    6a60:	01c11423          	sh	t3,8(sp)
    6a64:	00ebc463          	blt	s7,a4,6a6c <.L297>
    6a68:	ce9f906f          	j	750 <.L2683>

00006a6c <.L297>:
    6a6c:	00001e37          	lui	t3,0x1
    6a70:	bace0e13          	addi	t3,t3,-1108 # bac <.L552+0x4>
    6a74:	f4de4ce3          	blt	t3,a3,69cc <.L309>
    6a78:	00a15e03          	lhu	t3,10(sp)
    6a7c:	08f00b93          	li	s7,143
    6a80:	00be0e13          	addi	t3,t3,11
    6a84:	01c11523          	sh	t3,10(sp)
    6a88:	00dbd463          	bge	s7,a3,6a90 <.L297+0x24>
    6a8c:	3cc0306f          	j	9e58 <.L2563>
    6a90:	03300e13          	li	t3,51
    6a94:	00fe5463          	bge	t3,a5,6a9c <.L297+0x30>
    6a98:	d55fc06f          	j	37ec <.L2561>
    6a9c:	02051e03          	lh	t3,32(a0)

00006aa0 <.L294>:
    6aa0:	00c15b83          	lhu	s7,12(sp)
    6aa4:	007b8b93          	addi	s7,s7,7
    6aa8:	01711623          	sh	s7,12(sp)
    6aac:	d2500b93          	li	s7,-731
    6ab0:	a775d463          	bge	a1,s7,5d18 <.L321>

00006ab4 <.L337>:
    6ab4:	19c00b93          	li	s7,412
    6ab8:	f4ebcae3          	blt	s7,a4,6a0c <.L320>

00006abc <.L340>:
    6abc:	00e15b83          	lhu	s7,14(sp)
    6ac0:	00db8b93          	addi	s7,s7,13
    6ac4:	010b9b93          	slli	s7,s7,0x10
    6ac8:	410bdb93          	srai	s7,s7,0x10
    6acc:	cf9f906f          	j	7c4 <.L338>

00006ad0 <.L281>:
    6ad0:	09900e13          	li	t3,153
    6ad4:	9c9e4663          	blt	t3,s1,5ca0 <.L295>
    6ad8:	00815e03          	lhu	t3,8(sp)
    6adc:	2df00b93          	li	s7,735
    6ae0:	007e0e13          	addi	t3,t3,7
    6ae4:	01c11423          	sh	t3,8(sp)
    6ae8:	f8ebc2e3          	blt	s7,a4,6a6c <.L297>
    6aec:	02051e03          	lh	t3,32(a0)
    6af0:	00400b93          	li	s7,4
    6af4:	9dcbd863          	bge	s7,t3,5cc4 <.L298>
    6af8:	00a15b83          	lhu	s7,10(sp)
    6afc:	08f00c13          	li	s8,143
    6b00:	ff6b8b93          	addi	s7,s7,-10
    6b04:	01711523          	sh	s7,10(sp)
    6b08:	00dc5463          	bge	s8,a3,6b10 <.L2559>
    6b0c:	c6df906f          	j	778 <.L317>

00006b10 <.L2559>:
    6b10:	03300b93          	li	s7,51
    6b14:	f8fbd6e3          	bge	s7,a5,6aa0 <.L294>
    6b18:	cd9fc06f          	j	37f0 <.L313>

00006b1c <.L1651>:
    6b1c:	00815b83          	lhu	s7,8(sp)
    6b20:	02e00c13          	li	s8,46
    6b24:	00ab8b93          	addi	s7,s7,10
    6b28:	01711423          	sh	s7,8(sp)
    6b2c:	01dc4463          	blt	s8,t4,6b34 <.L1651+0x18>
    6b30:	0780106f          	j	7ba8 <.L1641>
    6b34:	00e00b93          	li	s7,14
    6b38:	010bc463          	blt	s7,a6,6b40 <.L1651+0x24>
    6b3c:	4910406f          	j	b7cc <.L1653>
    6b40:	00a15b83          	lhu	s7,10(sp)
    6b44:	00100c13          	li	s8,1
    6b48:	ff6b8b93          	addi	s7,s7,-10
    6b4c:	01711523          	sh	s7,10(sp)
    6b50:	03cc5863          	bge	s8,t3,6b80 <.L1654>

00006b54 <.L1655>:
    6b54:	00c15b83          	lhu	s7,12(sp)
    6b58:	ffbb8b93          	addi	s7,s7,-5
    6b5c:	010b9b93          	slli	s7,s7,0x10
    6b60:	410bdb93          	srai	s7,s7,0x10
    6b64:	fa9fe06f          	j	5b0c <.L1684>

00006b68 <.L2923>:
    6b68:	00a15b83          	lhu	s7,10(sp)
    6b6c:	00100c13          	li	s8,1
    6b70:	ffeb8b93          	addi	s7,s7,-2
    6b74:	01711523          	sh	s7,10(sp)
    6b78:	01cc5463          	bge	s8,t3,6b80 <.L1654>
    6b7c:	cfdfb06f          	j	2878 <.L1659>

00006b80 <.L1654>:
    6b80:	00c15b83          	lhu	s7,12(sp)
    6b84:	ff8b8b93          	addi	s7,s7,-8
    6b88:	010b9b93          	slli	s7,s7,0x10
    6b8c:	410bdb93          	srai	s7,s7,0x10
    6b90:	f7dfe06f          	j	5b0c <.L1684>

00006b94 <.L1776>:
    6b94:	00200b93          	li	s7,2
    6b98:	010bd463          	bge	s7,a6,6ba0 <.L1776+0xc>
    6b9c:	e85fb06f          	j	2a20 <.L1775>
    6ba0:	00e15b83          	lhu	s7,14(sp)
    6ba4:	ffbb8b93          	addi	s7,s7,-5
    6ba8:	01711723          	sh	s7,14(sp)
    6bac:	e75fb06f          	j	2a20 <.L1775>

00006bb0 <.L1757>:
    6bb0:	1fa00b93          	li	s7,506
    6bb4:	016bd463          	bge	s7,s6,6bbc <.L1757+0xc>
    6bb8:	0080306f          	j	9bc0 <.L1767>
    6bbc:	00a15b83          	lhu	s7,10(sp)
    6bc0:	ff6b8b93          	addi	s7,s7,-10
    6bc4:	01711523          	sh	s7,10(sp)
    6bc8:	dfdfb06f          	j	29c4 <.L1756>

00006bcc <.L723>:
    6bcc:	03800b93          	li	s7,56
    6bd0:	00ebd463          	bge	s7,a4,6bd8 <.L723+0xc>
    6bd4:	eadfa06f          	j	1a80 <.L722>
    6bd8:	00e15b83          	lhu	s7,14(sp)
    6bdc:	007b8b93          	addi	s7,s7,7
    6be0:	01711723          	sh	s7,14(sp)
    6be4:	e9dfa06f          	j	1a80 <.L722>

00006be8 <.L545>:
    6be8:	03600b93          	li	s7,54
    6bec:	00fbc463          	blt	s7,a5,6bf4 <.L545+0xc>
    6bf0:	de1fe06f          	j	59d0 <.L544>
    6bf4:	00e15b83          	lhu	s7,14(sp)
    6bf8:	003b8b93          	addi	s7,s7,3
    6bfc:	01711723          	sh	s7,14(sp)
    6c00:	00084463          	bltz	a6,6c08 <.L545+0x20>
    6c04:	f81f906f          	j	b84 <.L546>
    6c08:	b55fa06f          	j	175c <.L2755>

00006c0c <.L2729>:
    6c0c:	01a00b93          	li	s7,26
    6c10:	010bd463          	bge	s7,a6,6c18 <.L2729+0xc>
    6c14:	2ad0406f          	j	b6c0 <.L716>
    6c18:	11800b93          	li	s7,280
    6c1c:	012bc463          	blt	s7,s2,6c24 <.L2729+0x18>
    6c20:	1100506f          	j	bd30 <.L2913>
    6c24:	00200b93          	li	s7,2
    6c28:	01cbc463          	blt	s7,t3,6c30 <.L736>
    6c2c:	70c0306f          	j	a338 <.L2265>

00006c30 <.L736>:
    6c30:	12800b93          	li	s7,296
    6c34:	029bde63          	bge	s7,s1,6c70 <.L2589>
    6c38:	00a15b83          	lhu	s7,10(sp)
    6c3c:	ffeb8b93          	addi	s7,s7,-2
    6c40:	010b9b93          	slli	s7,s7,0x10
    6c44:	410bdb93          	srai	s7,s7,0x10
    6c48:	a40fa06f          	j	e88 <.L745>

00006c4c <.L542>:
    6c4c:	ac400b93          	li	s7,-1340
    6c50:	0175c463          	blt	a1,s7,6c58 <.L542+0xc>
    6c54:	d7dfe06f          	j	59d0 <.L544>
    6c58:	00e15b83          	lhu	s7,14(sp)
    6c5c:	00bb8b93          	addi	s7,s7,11
    6c60:	01711723          	sh	s7,14(sp)
    6c64:	00084463          	bltz	a6,6c6c <.L542+0x20>
    6c68:	f1df906f          	j	b84 <.L546>
    6c6c:	af1fa06f          	j	175c <.L2755>

00006c70 <.L2589>:
    6c70:	00a15b83          	lhu	s7,10(sp)
    6c74:	ff7b8b93          	addi	s7,s7,-9
    6c78:	010b9b93          	slli	s7,s7,0x10
    6c7c:	410bdb93          	srai	s7,s7,0x10
    6c80:	a08fa06f          	j	e88 <.L745>

00006c84 <.L827>:
    6c84:	03b00b93          	li	s7,59
    6c88:	00fbd463          	bge	s7,a5,6c90 <.L827+0xc>
    6c8c:	ce1fe06f          	j	596c <.L830>
    6c90:	00a15b83          	lhu	s7,10(sp)
    6c94:	27a00c13          	li	s8,634
    6c98:	005b8b93          	addi	s7,s7,5
    6c9c:	01711523          	sh	s7,10(sp)
    6ca0:	00dc5463          	bge	s8,a3,6ca8 <.L2591>
    6ca4:	ce1fe06f          	j	5984 <.L831>

00006ca8 <.L2591>:
    6ca8:	02200b93          	li	s7,34
    6cac:	01dbc463          	blt	s7,t4,6cb4 <.L833>
    6cb0:	b38fa06f          	j	fe8 <.L838>

00006cb4 <.L833>:
    6cb4:	15300b93          	li	s7,339
    6cb8:	009bd463          	bge	s7,s1,6cc0 <.L833+0xc>
    6cbc:	41d0306f          	j	a8d8 <.L839>
    6cc0:	00c15b83          	lhu	s7,12(sp)
    6cc4:	d2a00c13          	li	s8,-726
    6cc8:	ffdb8b93          	addi	s7,s7,-3
    6ccc:	01711623          	sh	s7,12(sp)
    6cd0:	0185c463          	blt	a1,s8,6cd8 <.L844>
    6cd4:	b20fa06f          	j	ff4 <.L840>

00006cd8 <.L844>:
    6cd8:	e2c00b93          	li	s7,-468
    6cdc:	0172c463          	blt	t0,s7,6ce4 <.L844+0xc>
    6ce0:	2ec0406f          	j	afcc <.L2914>
    6ce4:	00e15b83          	lhu	s7,14(sp)
    6ce8:	fffb8b93          	addi	s7,s7,-1
    6cec:	01711723          	sh	s7,14(sp)
    6cf0:	b18fa06f          	j	1008 <.L846>

00006cf4 <.L845>:
    6cf4:	03600b93          	li	s7,54
    6cf8:	4cfbc2e3          	blt	s7,a5,79bc <.L854>
    6cfc:	00e15b83          	lhu	s7,14(sp)
    6d00:	0a900c13          	li	s8,169
    6d04:	ff9b8b93          	addi	s7,s7,-7
    6d08:	01711723          	sh	s7,14(sp)
    6d0c:	01ec4463          	blt	s8,t5,6d14 <.L845+0x20>
    6d10:	f95fa06f          	j	1ca4 <.L860>
    6d14:	01e00b93          	li	s7,30
    6d18:	013bc463          	blt	s7,s3,6d20 <.L858>
    6d1c:	06d0106f          	j	8588 <.L864>

00006d20 <.L858>:
    6d20:	00815b83          	lhu	s7,8(sp)
    6d24:	ff7b8b93          	addi	s7,s7,-9
    6d28:	01711423          	sh	s7,8(sp)
    6d2c:	b08fa06f          	j	1034 <.L859>

00006d30 <.L2234>:
    6d30:	f8d00693          	li	a3,-115
    6d34:	00dac463          	blt	s5,a3,6d3c <.L2234+0xc>
    6d38:	6c90306f          	j	ac00 <.L2237>
    6d3c:	00815683          	lhu	a3,8(sp)
    6d40:	00468693          	addi	a3,a3,4
    6d44:	01069693          	slli	a3,a3,0x10
    6d48:	4106d693          	srai	a3,a3,0x10
    6d4c:	c54fc06f          	j	31a0 <.L2236>

00006d50 <.L984>:
    6d50:	f1900b93          	li	s7,-231
    6d54:	0172c463          	blt	t0,s7,6d5c <.L984+0xc>
    6d58:	0c00206f          	j	8e18 <.L996>
    6d5c:	00e15b83          	lhu	s7,14(sp)
    6d60:	fffb8b93          	addi	s7,s7,-1
    6d64:	01711723          	sh	s7,14(sp)
    6d68:	ca4fa06f          	j	120c <.L989>

00006d6c <.L1154>:
    6d6c:	00815b83          	lhu	s7,8(sp)
    6d70:	1b900c13          	li	s8,441
    6d74:	006b8b93          	addi	s7,s7,6
    6d78:	01711423          	sh	s7,8(sp)
    6d7c:	01ec5463          	bge	s8,t5,6d84 <.L1158>
    6d80:	f84fa06f          	j	1504 <.L1155>

00006d84 <.L1158>:
    6d84:	03200b93          	li	s7,50
    6d88:	01fbc463          	blt	s7,t6,6d90 <.L1158+0xc>
    6d8c:	6e40206f          	j	9470 <.L1181>
    6d90:	00a15b83          	lhu	s7,10(sp)
    6d94:	002b8b93          	addi	s7,s7,2
    6d98:	01711523          	sh	s7,10(sp)
    6d9c:	ce1fc06f          	j	3a7c <.L1167>

00006da0 <.L149>:
    6da0:	f8c00e13          	li	t3,-116
    6da4:	01ca4463          	blt	s4,t3,6dac <.L149+0xc>
    6da8:	5b90306f          	j	ab60 <.L154>
    6dac:	00a15e03          	lhu	t3,10(sp)
    6db0:	10b00b93          	li	s7,267
    6db4:	00fe0e13          	addi	t3,t3,15
    6db8:	01c11523          	sh	t3,10(sp)
    6dbc:	00dbc463          	blt	s7,a3,6dc4 <.L156>
    6dc0:	fd5fe06f          	j	5d94 <.L161>

00006dc4 <.L156>:
    6dc4:	eef00e13          	li	t3,-273
    6dc8:	01c2d463          	bge	t0,t3,6dd0 <.L181>
    6dcc:	b81fc06f          	j	394c <.L152>

00006dd0 <.L181>:
    6dd0:	00c15e03          	lhu	t3,12(sp)
    6dd4:	ff6e0e13          	addi	t3,t3,-10
    6dd8:	010e1e13          	slli	t3,t3,0x10
    6ddc:	410e5e13          	srai	t3,t3,0x10
    6de0:	b7dfc06f          	j	395c <.L175>

00006de4 <.L1057>:
    6de4:	00c15b83          	lhu	s7,12(sp)
    6de8:	ff7b8b93          	addi	s7,s7,-9
    6dec:	010b9b93          	slli	s7,s7,0x10
    6df0:	410bdb93          	srai	s7,s7,0x10
    6df4:	9bcfb06f          	j	1fb0 <.L1074>

00006df8 <.L361>:
    6df8:	00a15b83          	lhu	s7,10(sp)
    6dfc:	17000c13          	li	s8,368
    6e00:	008b8b93          	addi	s7,s7,8
    6e04:	01711523          	sh	s7,10(sp)
    6e08:	00dc4463          	blt	s8,a3,6e10 <.L362>
    6e0c:	1490306f          	j	a754 <.L363>

00006e10 <.L362>:
    6e10:	3fa00b93          	li	s7,1018
    6e14:	1cebdae3          	bge	s7,a4,77e8 <.L359>
    6e18:	00001bb7          	lui	s7,0x1
    6e1c:	bd5b8b93          	addi	s7,s7,-1067 # bd5 <.L567+0x1>
    6e20:	00dbd463          	bge	s7,a3,6e28 <.L362+0x18>
    6e24:	2f40306f          	j	a118 <.L367>
    6e28:	00c15b83          	lhu	s7,12(sp)
    6e2c:	e9900c13          	li	s8,-359
    6e30:	ff7b8b93          	addi	s7,s7,-9
    6e34:	01711623          	sh	s7,12(sp)
    6e38:	0185d463          	bge	a1,s8,6e40 <.L2366>
    6e3c:	d28fc06f          	j	3364 <.L368>

00006e40 <.L2366>:
    6e40:	03d00b93          	li	s7,61
    6e44:	0efbc263          	blt	s7,a5,6f28 <.L371>

00006e48 <.L370>:
    6e48:	00e15b83          	lhu	s7,14(sp)
    6e4c:	ff6b8b93          	addi	s7,s7,-10
    6e50:	010b9b93          	slli	s7,s7,0x10
    6e54:	410bdb93          	srai	s7,s7,0x10
    6e58:	a25f906f          	j	87c <.L375>

00006e5c <.L2868>:
    6e5c:	32100b93          	li	s7,801
    6e60:	00dbd463          	bge	s7,a3,6e68 <.L2868+0xc>
    6e64:	20c0406f          	j	b070 <.L968>
    6e68:	00a15b83          	lhu	s7,10(sp)
    6e6c:	ff5b8b93          	addi	s7,s7,-11
    6e70:	010b9b93          	slli	s7,s7,0x10
    6e74:	410bdb93          	srai	s7,s7,0x10
    6e78:	01711523          	sh	s7,10(sp)
    6e7c:	03900b93          	li	s7,57
    6e80:	00dbc463          	blt	s7,a3,6e88 <.L970>
    6e84:	b48fa06f          	j	11cc <.L960>

00006e88 <.L970>:
    6e88:	02700b93          	li	s7,39
    6e8c:	00ebc463          	blt	s7,a4,6e94 <.L970+0xc>
    6e90:	0180206f          	j	8ea8 <.L972>
    6e94:	ff600b93          	li	s7,-10
    6e98:	01765463          	bge	a2,s7,6ea0 <.L970+0x18>
    6e9c:	901fd06f          	j	479c <.L966>
    6ea0:	00c15b83          	lhu	s7,12(sp)
    6ea4:	cf000c13          	li	s8,-784
    6ea8:	ffab8b93          	addi	s7,s7,-6
    6eac:	01711623          	sh	s7,12(sp)
    6eb0:	0185d463          	bge	a1,s8,6eb8 <.L970+0x30>
    6eb4:	879fd06f          	j	472c <.L962>
    6eb8:	8f9fd06f          	j	47b0 <.L2408>

00006ebc <.L952>:
    6ebc:	00815b83          	lhu	s7,8(sp)
    6ec0:	fffb8b93          	addi	s7,s7,-1
    6ec4:	010b9b93          	slli	s7,s7,0x10
    6ec8:	410bdb93          	srai	s7,s7,0x10
    6ecc:	f55fa06f          	j	1e20 <.L948>

00006ed0 <.L360>:
    6ed0:	f2b00b93          	li	s7,-213
    6ed4:	017ac463          	blt	s5,s7,6edc <.L360+0xc>
    6ed8:	2710306f          	j	a948 <.L364>
    6edc:	00a15b83          	lhu	s7,10(sp)
    6ee0:	00cb8b93          	addi	s7,s7,12
    6ee4:	010b9b93          	slli	s7,s7,0x10
    6ee8:	010bdb93          	srli	s7,s7,0x10

00006eec <.L365>:
    6eec:	01711523          	sh	s7,10(sp)
    6ef0:	17000b93          	li	s7,368
    6ef4:	f0dbcee3          	blt	s7,a3,6e10 <.L362>

00006ef8 <.L351>:
    6ef8:	ffa00b93          	li	s7,-6
    6efc:	01765463          	bge	a2,s7,6f04 <.L354>
    6f00:	c38fc06f          	j	3338 <.L353>

00006f04 <.L354>:
    6f04:	01c51c03          	lh	s8,28(a0)
    6f08:	03c00b93          	li	s7,60
    6f0c:	018bd463          	bge	s7,s8,6f14 <.L354+0x10>
    6f10:	0590306f          	j	a768 <.L2915>
    6f14:	00c15b83          	lhu	s7,12(sp)
    6f18:	ff6b8b93          	addi	s7,s7,-10
    6f1c:	010b9b93          	slli	s7,s7,0x10
    6f20:	410bdb93          	srai	s7,s7,0x10
    6f24:	921f906f          	j	844 <.L352>

00006f28 <.L371>:
    6f28:	0b300b93          	li	s7,179
    6f2c:	007bd463          	bge	s7,t2,6f34 <.L371+0xc>
    6f30:	2410306f          	j	a970 <.L377>
    6f34:	00e15b83          	lhu	s7,14(sp)
    6f38:	00bb8b93          	addi	s7,s7,11
    6f3c:	010b9b93          	slli	s7,s7,0x10
    6f40:	410bdb93          	srai	s7,s7,0x10
    6f44:	939f906f          	j	87c <.L375>

00006f48 <.L953>:
    6f48:	13100b93          	li	s7,305
    6f4c:	016bd463          	bge	s7,s6,6f54 <.L953+0xc>
    6f50:	2490306f          	j	a998 <.L955>
    6f54:	00815b83          	lhu	s7,8(sp)
    6f58:	008b8b93          	addi	s7,s7,8
    6f5c:	010b9b93          	slli	s7,s7,0x10
    6f60:	410bdb93          	srai	s7,s7,0x10
    6f64:	ebdfa06f          	j	1e20 <.L948>

00006f68 <.L146>:
    6f68:	00815e03          	lhu	t3,8(sp)
    6f6c:	ff6e0e13          	addi	t3,t3,-10
    6f70:	010e1e13          	slli	t3,t3,0x10
    6f74:	410e5e13          	srai	t3,t3,0x10
    6f78:	e78f906f          	j	5f0 <.L147>

00006f7c <.L1883>:
    6f7c:	00c15b83          	lhu	s7,12(sp)
    6f80:	05800c13          	li	s8,88
    6f84:	fffb8b93          	addi	s7,s7,-1
    6f88:	01711623          	sh	s7,12(sp)
    6f8c:	009c5463          	bge	s8,s1,6f94 <.L1883+0x18>
    6f90:	9a4fe06f          	j	5134 <.L1884>
    6f94:	f5300b93          	li	s7,-173
    6f98:	01745463          	bge	s0,s7,6fa0 <.L1883+0x24>
    6f9c:	6f00406f          	j	b68c <.L1893>
    6fa0:	00e15b83          	lhu	s7,14(sp)
    6fa4:	07300c13          	li	s8,115
    6fa8:	003b8b93          	addi	s7,s7,3
    6fac:	01711723          	sh	s7,14(sp)
    6fb0:	012c4463          	blt	s8,s2,6fb8 <.L1895>
    6fb4:	a59fd06f          	j	4a0c <.L1894>

00006fb8 <.L1895>:
    6fb8:	00a00b93          	li	s7,10
    6fbc:	010bd463          	bge	s7,a6,6fc4 <.L1895+0xc>
    6fc0:	64c0206f          	j	960c <.L1910>
    6fc4:	00815b83          	lhu	s7,8(sp)
    6fc8:	007b8b93          	addi	s7,s7,7
    6fcc:	01711423          	sh	s7,8(sp)
    6fd0:	c61fb06f          	j	2c30 <.L1909>

00006fd4 <.L1946>:
    6fd4:	01400b93          	li	s7,20
    6fd8:	010bd463          	bge	s7,a6,6fe0 <.L1946+0xc>
    6fdc:	2f00306f          	j	a2cc <.L1954>
    6fe0:	00a15b83          	lhu	s7,10(sp)
    6fe4:	00ab8b93          	addi	s7,s7,10
    6fe8:	010b9b93          	slli	s7,s7,0x10
    6fec:	010bdb93          	srli	s7,s7,0x10

00006ff0 <.L1955>:
    6ff0:	01711523          	sh	s7,10(sp)
    6ff4:	03c00b93          	li	s7,60
    6ff8:	00fbc463          	blt	s7,a5,7000 <.L1953>
    6ffc:	b0dfd06f          	j	4b08 <.L1963>

00007000 <.L1953>:
    7000:	f0000b93          	li	s7,-256
    7004:	0175d463          	bge	a1,s7,700c <.L1953+0xc>
    7008:	2480106f          	j	8250 <.L1986>
    700c:	05800b93          	li	s7,88
    7010:	009bc463          	blt	s7,s1,7018 <.L1953+0x18>
    7014:	2540106f          	j	8268 <.L1982>
    7018:	1a500b93          	li	s7,421
    701c:	007bc463          	blt	s7,t2,7024 <.L1953+0x24>
    7020:	d45fb06f          	j	2d64 <.L1983>
    7024:	00e15b83          	lhu	s7,14(sp)
    7028:	ffcb8b93          	addi	s7,s7,-4
    702c:	01711723          	sh	s7,14(sp)

00007030 <.L1988>:
    7030:	00815b83          	lhu	s7,8(sp)
    7034:	004b8b93          	addi	s7,s7,4
    7038:	01711423          	sh	s7,8(sp)
    703c:	d55fb06f          	j	2d90 <.L1972>

00007040 <.L2194>:
    7040:	01100513          	li	a0,17
    7044:	01d55463          	bge	a0,t4,704c <.L2194+0xc>
    7048:	39d0306f          	j	abe4 <.L2197>
    704c:	25b00513          	li	a0,603
    7050:	00e54463          	blt	a0,a4,7058 <.L2198>
    7054:	8d8fc06f          	j	312c <.L2201>

00007058 <.L2198>:
    7058:	eb700513          	li	a0,-329
    705c:	24a5c263          	blt	a1,a0,72a0 <.L2665>
    7060:	00c15503          	lhu	a0,12(sp)
    7064:	ff850513          	addi	a0,a0,-8
    7068:	01051513          	slli	a0,a0,0x10
    706c:	41055513          	srai	a0,a0,0x10
    7070:	8e4fc06f          	j	3154 <.L2207>

00007074 <.L2079>:
    7074:	00a15b03          	lhu	s6,10(sp)
    7078:	02700b93          	li	s7,39
    707c:	ffcb0b13          	addi	s6,s6,-4
    7080:	01611523          	sh	s6,10(sp)
    7084:	006bd463          	bge	s7,t1,708c <.L2080>
    7088:	fc5fd06f          	j	504c <.L2658>

0000708c <.L2080>:
    708c:	ff800b13          	li	s6,-8
    7090:	01661463          	bne	a2,s6,7098 <.L2089>
    7094:	5840106f          	j	8618 <.L2085>

00007098 <.L2089>:
    7098:	06c00b13          	li	s6,108
    709c:	00db5463          	bge	s6,a3,70a4 <.L2089+0xc>
    70a0:	2990306f          	j	ab38 <.L2916>
    70a4:	00c15b03          	lhu	s6,12(sp)
    70a8:	ff9b0b13          	addi	s6,s6,-7
    70ac:	010b1b13          	slli	s6,s6,0x10
    70b0:	410b5b13          	srai	s6,s6,0x10
    70b4:	e8dfb06f          	j	2f40 <.L2082>

000070b8 <.L302>:
    70b8:	00815e03          	lhu	t3,8(sp)
    70bc:	ff6e0e13          	addi	t3,t3,-10
    70c0:	010e1e13          	slli	t3,t3,0x10
    70c4:	410e5e13          	srai	t3,t3,0x10
    70c8:	ed4fc06f          	j	379c <.L304>

000070cc <.L342>:
    70cc:	ffa00b93          	li	s7,-6
    70d0:	01794463          	blt	s2,s7,70d8 <.L342+0xc>
    70d4:	7f50306f          	j	b0c8 <.L345>
    70d8:	00815b83          	lhu	s7,8(sp)
    70dc:	006b8b93          	addi	s7,s7,6
    70e0:	01711423          	sh	s7,8(sp)
    70e4:	f14f906f          	j	7f8 <.L344>

000070e8 <.L824>:
    70e8:	00815b83          	lhu	s7,8(sp)
    70ec:	ffcb8b93          	addi	s7,s7,-4
    70f0:	01711423          	sh	s7,8(sp)
    70f4:	e99f906f          	j	f8c <.L825>

000070f8 <.L660>:
    70f8:	ecc00b93          	li	s7,-308
    70fc:	017a4463          	blt	s4,s7,7104 <.L660+0xc>
    7100:	2050306f          	j	ab04 <.L663>
    7104:	00a15b83          	lhu	s7,10(sp)
    7108:	ffdb8b93          	addi	s7,s7,-3
    710c:	010b9b93          	slli	s7,s7,0x10
    7110:	410bdb93          	srai	s7,s7,0x10
    7114:	c01f906f          	j	d14 <.L662>

00007118 <.L611>:
    7118:	00400b93          	li	s7,4
    711c:	01cbd463          	bge	s7,t3,7124 <.L611+0xc>
    7120:	b2df906f          	j	c4c <.L617>
    7124:	00815b83          	lhu	s7,8(sp)
    7128:	ff7b8b93          	addi	s7,s7,-9
    712c:	01711423          	sh	s7,8(sp)
    7130:	b29f906f          	j	c58 <.L614>

00007134 <.L748>:
    7134:	00a15b83          	lhu	s7,10(sp)
    7138:	0dd00c13          	li	s8,221
    713c:	005b8b93          	addi	s7,s7,5
    7140:	01711523          	sh	s7,10(sp)
    7144:	00dc4463          	blt	s8,a3,714c <.L748+0x18>
    7148:	84cfe06f          	j	5194 <.L749>
    714c:	25b00b93          	li	s7,603
    7150:	00ebc463          	blt	s7,a4,7158 <.L748+0x24>
    7154:	1a50406f          	j	baf8 <.L757>
    7158:	00c15b83          	lhu	s7,12(sp)
    715c:	03e00c13          	li	s8,62
    7160:	004b8b93          	addi	s7,s7,4
    7164:	01711623          	sh	s7,12(sp)
    7168:	00fc4463          	blt	s8,a5,7170 <.L748+0x3c>
    716c:	9b5fa06f          	j	1b20 <.L751>
    7170:	00e15b83          	lhu	s7,14(sp)
    7174:	ffe00c13          	li	s8,-2
    7178:	009b8b93          	addi	s7,s7,9
    717c:	01711723          	sh	s7,14(sp)
    7180:	01884463          	blt	a6,s8,7188 <.L748+0x54>
    7184:	d55fd06f          	j	4ed8 <.L2387>
    7188:	00815b83          	lhu	s7,8(sp)
    718c:	03300c13          	li	s8,51
    7190:	ff9b8b93          	addi	s7,s7,-7
    7194:	01711423          	sh	s7,8(sp)
    7198:	01fc5463          	bge	s8,t6,71a0 <.L795>
    719c:	c9dfd06f          	j	4e38 <.L789>

000071a0 <.L795>:
    71a0:	64b00b93          	li	s7,1611
    71a4:	00ebd463          	bge	s7,a4,71ac <.L795+0xc>
    71a8:	7310306f          	j	b0d8 <.L799>
    71ac:	00a15b83          	lhu	s7,10(sp)
    71b0:	ff6b8b93          	addi	s7,s7,-10
    71b4:	010b9b93          	slli	s7,s7,0x10
    71b8:	410bdb93          	srai	s7,s7,0x10
    71bc:	c99fd06f          	j	4e54 <.L800>

000071c0 <.L2861>:
    71c0:	0a000b13          	li	s6,160
    71c4:	00db4463          	blt	s6,a3,71cc <.L2861+0xc>
    71c8:	e19fb06f          	j	2fe0 <.L2124>
    71cc:	00c15b03          	lhu	s6,12(sp)
    71d0:	005b0b13          	addi	s6,s6,5
    71d4:	01611623          	sh	s6,12(sp)
    71d8:	a20fd06f          	j	43f8 <.L2128>

000071dc <.L1257>:
    71dc:	02e00b93          	li	s7,46
    71e0:	00ebd463          	bge	s7,a4,71e8 <.L1257+0xc>
    71e4:	7910206f          	j	a174 <.L1261>
    71e8:	00e15b83          	lhu	s7,14(sp)
    71ec:	004b8b93          	addi	s7,s7,4
    71f0:	010b9b93          	slli	s7,s7,0x10
    71f4:	410bdb93          	srai	s7,s7,0x10
    71f8:	c3cfa06f          	j	1634 <.L1259>

000071fc <.L1450>:
    71fc:	fe400b93          	li	s7,-28
    7200:	01774463          	blt	a4,s7,7208 <.L1450+0xc>
    7204:	6e90306f          	j	b0ec <.L1459>
    7208:	00815b83          	lhu	s7,8(sp)
    720c:	f8b00c13          	li	s8,-117
    7210:	006b8b93          	addi	s7,s7,6
    7214:	01711423          	sh	s7,8(sp)
    7218:	0185c463          	blt	a1,s8,7220 <.L1450+0x24>
    721c:	e59fc06f          	j	4074 <.L1464>
    7220:	b58fb06f          	j	2578 <.L2736>

00007224 <.L1427>:
    7224:	0ea00b93          	li	s7,234
    7228:	006bd463          	bge	s7,t1,7230 <.L1427+0xc>
    722c:	7290206f          	j	a154 <.L1430>
    7230:	00a15b83          	lhu	s7,10(sp)
    7234:	ff9b8b93          	addi	s7,s7,-7
    7238:	01711523          	sh	s7,10(sp)
    723c:	abcfb06f          	j	24f8 <.L1429>

00007240 <.L1828>:
    7240:	04c00b93          	li	s7,76
    7244:	016bd463          	bge	s7,s6,724c <.L1828+0xc>
    7248:	6c10306f          	j	b108 <.L1834>
    724c:	00815b83          	lhu	s7,8(sp)
    7250:	ffeb8b93          	addi	s7,s7,-2
    7254:	010b9b93          	slli	s7,s7,0x10
    7258:	410bdb93          	srai	s7,s7,0x10
    725c:	a4dfd06f          	j	4ca8 <.L1835>

00007260 <.L1423>:
    7260:	07100b93          	li	s7,113
    7264:	012bd463          	bge	s7,s2,726c <.L1423+0xc>
    7268:	6fd0206f          	j	a164 <.L1425>
    726c:	00815b83          	lhu	s7,8(sp)
    7270:	00cb8b93          	addi	s7,s7,12
    7274:	01711423          	sh	s7,8(sp)
    7278:	03b00b93          	li	s7,59
    727c:	00fbc463          	blt	s7,a5,7284 <.L1431>
    7280:	d5dfc06f          	j	3fdc <.L2917>

00007284 <.L1431>:
    7284:	17900b93          	li	s7,377
    7288:	009bd463          	bge	s7,s1,7290 <.L1431+0xc>
    728c:	4c50306f          	j	af50 <.L1432>
    7290:	00a15b83          	lhu	s7,10(sp)
    7294:	ff8b8b93          	addi	s7,s7,-8
    7298:	01711523          	sh	s7,10(sp)
    729c:	a5cfb06f          	j	24f8 <.L1429>

000072a0 <.L2665>:
    72a0:	00c15503          	lhu	a0,12(sp)
    72a4:	fff50513          	addi	a0,a0,-1
    72a8:	01051513          	slli	a0,a0,0x10
    72ac:	41055513          	srai	a0,a0,0x10
    72b0:	ea5fb06f          	j	3154 <.L2207>

000072b4 <.L1165>:
    72b4:	00815b83          	lhu	s7,8(sp)
    72b8:	ff7b8b93          	addi	s7,s7,-9
    72bc:	010b9b93          	slli	s7,s7,0x10
    72c0:	010bdb93          	srli	s7,s7,0x10
    72c4:	dd4fd06f          	j	4898 <.L1166>

000072c8 <.L1515>:
    72c8:	00300b93          	li	s7,3
    72cc:	010bd463          	bge	s7,a6,72d4 <.L1515+0xc>
    72d0:	4500306f          	j	a720 <.L1518>
    72d4:	00a15b83          	lhu	s7,10(sp)
    72d8:	f9800c13          	li	s8,-104
    72dc:	003b8b93          	addi	s7,s7,3
    72e0:	01711523          	sh	s7,10(sp)
    72e4:	01844463          	blt	s0,s8,72ec <.L1515+0x24>
    72e8:	accfd06f          	j	45b4 <.L1507>
    72ec:	0c700b93          	li	s7,199
    72f0:	016bd463          	bge	s7,s6,72f8 <.L1515+0x30>
    72f4:	e5dfc06f          	j	4150 <.L1529>
    72f8:	ea900b93          	li	s7,-343
    72fc:	017a4463          	blt	s4,s7,7304 <.L1530>
    7300:	3850206f          	j	9e84 <.L1523>

00007304 <.L1530>:
    7304:	11a00b93          	li	s7,282
    7308:	007bd463          	bge	s7,t2,7310 <.L1547>
    730c:	ae4fd06f          	j	45f0 <.L1536>

00007310 <.L1547>:
    7310:	00e15b83          	lhu	s7,14(sp)
    7314:	003b8b93          	addi	s7,s7,3
    7318:	01711723          	sh	s7,14(sp)
    731c:	b80fb06f          	j	269c <.L1539>

00007320 <.L510>:
    7320:	fb100b93          	li	s7,-79
    7324:	0172c463          	blt	t0,s7,732c <.L510+0xc>
    7328:	0050206f          	j	9b2c <.L513>
    732c:	00815b83          	lhu	s7,8(sp)
    7330:	ff8b8b93          	addi	s7,s7,-8
    7334:	010b9b93          	slli	s7,s7,0x10
    7338:	410bdb93          	srai	s7,s7,0x10
    733c:	978fd06f          	j	44b4 <.L512>

00007340 <.L576>:
    7340:	efc00b93          	li	s7,-260
    7344:	017a4463          	blt	s4,s7,734c <.L576+0xc>
    7348:	52c0306f          	j	a874 <.L579>
    734c:	00c15b83          	lhu	s7,12(sp)
    7350:	e0800c13          	li	s8,-504
    7354:	009b8b93          	addi	s7,s7,9
    7358:	01711623          	sh	s7,12(sp)
    735c:	01844463          	blt	s0,s8,7364 <.L580>
    7360:	8b9f906f          	j	c18 <.L581>

00007364 <.L580>:
    7364:	25500b93          	li	s7,597
    7368:	869bdc63          	bge	s7,s1,63e0 <.L595>

0000736c <.L606>:
    736c:	00e15b83          	lhu	s7,14(sp)
    7370:	0a900c13          	li	s8,169
    7374:	ff7b8b93          	addi	s7,s7,-9
    7378:	01711723          	sh	s7,14(sp)
    737c:	01ec4463          	blt	s8,t5,7384 <.L606+0x18>
    7380:	cf8fa06f          	j	1878 <.L600>
    7384:	cd8fe06f          	j	585c <.L2580>

00007388 <.L1437>:
    7388:	fa700b93          	li	s7,-89
    738c:	01744463          	blt	s0,s7,7394 <.L1437+0xc>
    7390:	5a10306f          	j	b130 <.L1439>
    7394:	00c15b83          	lhu	s7,12(sp)
    7398:	003b8b93          	addi	s7,s7,3
    739c:	01711623          	sh	s7,12(sp)
    73a0:	984fb06f          	j	2524 <.L1435>

000073a4 <.L1956>:
    73a4:	0b100c13          	li	s8,177
    73a8:	687c56e3          	bge	s8,t2,8234 <.L1958>
    73ac:	00a15c03          	lhu	s8,10(sp)
    73b0:	ff7c0c13          	addi	s8,s8,-9
    73b4:	01811523          	sh	s8,10(sp)
    73b8:	00fbd463          	bge	s7,a5,73c0 <.L1956+0x1c>
    73bc:	96dfb06f          	j	2d28 <.L1959>
    73c0:	42200b93          	li	s7,1058
    73c4:	007bd463          	bge	s7,t2,73cc <.L1960>
    73c8:	f4cfd06f          	j	4b14 <.L1951>

000073cc <.L1960>:
    73cc:	00c15b83          	lhu	s7,12(sp)
    73d0:	05800c13          	li	s8,88
    73d4:	003b8b93          	addi	s7,s7,3
    73d8:	01711623          	sh	s7,12(sp)
    73dc:	6c9c46e3          	blt	s8,s1,82a8 <.L1973>
    73e0:	f5300b93          	li	s7,-173
    73e4:	01745463          	bge	s0,s7,73ec <.L1975>
    73e8:	1390406f          	j	bd20 <.L2918>

000073ec <.L1975>:
    73ec:	16200b93          	li	s7,354
    73f0:	007bd463          	bge	s7,t2,73f8 <.L1967>
    73f4:	f50fd06f          	j	4b44 <.L1995>

000073f8 <.L1967>:
    73f8:	03b00b93          	li	s7,59
    73fc:	6cfbd8e3          	bge	s7,a5,82cc <.L1969>
    7400:	00815b83          	lhu	s7,8(sp)
    7404:	001b8b93          	addi	s7,s7,1
    7408:	01711423          	sh	s7,8(sp)
    740c:	985fb06f          	j	2d90 <.L1972>

00007410 <.L1113>:
    7410:	bf300b93          	li	s7,-1037
    7414:	0175c463          	blt	a1,s7,741c <.L1113+0xc>
    7418:	4300306f          	j	a848 <.L1117>
    741c:	00e15b83          	lhu	s7,14(sp)
    7420:	01500c13          	li	s8,21
    7424:	005b8b93          	addi	s7,s7,5
    7428:	01711723          	sh	s7,14(sp)
    742c:	007c4463          	blt	s8,t2,7434 <.L1113+0x24>
    7430:	c71fa06f          	j	20a0 <.L1118>
    7434:	fcdf906f          	j	1400 <.L2601>

00007438 <.L520>:
    7438:	f2000b93          	li	s7,-224
    743c:	0172c463          	blt	t0,s7,7444 <.L520+0xc>
    7440:	3dc0306f          	j	a81c <.L524>
    7444:	00a15b83          	lhu	s7,10(sp)
    7448:	17000c13          	li	s8,368
    744c:	009b8b93          	addi	s7,s7,9
    7450:	01711523          	sh	s7,10(sp)
    7454:	00dc5463          	bge	s8,a3,745c <.L525>
    7458:	5350106f          	j	918c <.L526>

0000745c <.L525>:
    745c:	02200b93          	li	s7,34
    7460:	01dbc463          	blt	s7,t4,7468 <.L536>
    7464:	5f50106f          	j	9258 <.L530>

00007468 <.L536>:
    7468:	fda00b93          	li	s7,-38
    746c:	01774463          	blt	a4,s7,7474 <.L536+0xc>
    7470:	b3cfa06f          	j	17ac <.L531>
    7474:	00c15b83          	lhu	s7,12(sp)
    7478:	006b8b93          	addi	s7,s7,6
    747c:	010b9b93          	slli	s7,s7,0x10
    7480:	410bdb93          	srai	s7,s7,0x10
    7484:	ed0f906f          	j	b54 <.L538>

00007488 <.L1499>:
    7488:	02500b93          	li	s7,37
    748c:	01fbd463          	bge	s7,t6,7494 <.L1499+0xc>
    7490:	4a50206f          	j	a134 <.L1500>
    7494:	00e15b83          	lhu	s7,14(sp)
    7498:	00ab8b93          	addi	s7,s7,10
    749c:	01711723          	sh	s7,14(sp)
    74a0:	c3dfc06f          	j	40dc <.L1497>

000074a4 <.L2241>:
    74a4:	00c15783          	lhu	a5,12(sp)
    74a8:	00f78793          	addi	a5,a5,15
    74ac:	01079793          	slli	a5,a5,0x10
    74b0:	4107d793          	srai	a5,a5,0x10
    74b4:	d45fb06f          	j	31f8 <.L2242>

000074b8 <.L1010>:
    74b8:	d5d00b93          	li	s7,-675
    74bc:	3b7ad463          	bge	s5,s7,7864 <.L1012>
    74c0:	00a15b83          	lhu	s7,10(sp)
    74c4:	03d00c13          	li	s8,61
    74c8:	ffdb8b93          	addi	s7,s7,-3
    74cc:	01711523          	sh	s7,10(sp)
    74d0:	00fc4463          	blt	s8,a5,74d8 <.L1024>
    74d4:	d89f906f          	j	125c <.L1013>

000074d8 <.L1024>:
    74d8:	00c15b83          	lhu	s7,12(sp)
    74dc:	007b8b93          	addi	s7,s7,7
    74e0:	01711623          	sh	s7,12(sp)
    74e4:	a3dfa06f          	j	1f20 <.L1014>

000074e8 <.L1187>:
    74e8:	3ce00b93          	li	s7,974
    74ec:	016bd463          	bge	s7,s6,74f4 <.L1187+0xc>
    74f0:	5180306f          	j	aa08 <.L2919>
    74f4:	00c15b83          	lhu	s7,12(sp)
    74f8:	007b8b93          	addi	s7,s7,7
    74fc:	010b9b93          	slli	s7,s7,0x10
    7500:	410bdb93          	srai	s7,s7,0x10
    7504:	cc9fa06f          	j	21cc <.L1189>

00007508 <.L1555>:
    7508:	00d00b93          	li	s7,13
    750c:	013bd463          	bge	s7,s3,7514 <.L1555+0xc>
    7510:	5340306f          	j	aa44 <.L1556>
    7514:	00815b83          	lhu	s7,8(sp)
    7518:	003b8b93          	addi	s7,s7,3
    751c:	010b9b93          	slli	s7,s7,0x10
    7520:	410bdb93          	srai	s7,s7,0x10
    7524:	9acfb06f          	j	26d0 <.L1553>

00007528 <.L2248>:
    7528:	00c15783          	lhu	a5,12(sp)
    752c:	ff978793          	addi	a5,a5,-7
    7530:	01079793          	slli	a5,a5,0x10
    7534:	4107d793          	srai	a5,a5,0x10
    7538:	cc1fb06f          	j	31f8 <.L2242>

0000753c <.L2157>:
    753c:	06f00b13          	li	s6,111
    7540:	00db4463          	blt	s6,a3,7548 <.L2157+0xc>
    7544:	4490306f          	j	b18c <.L2167>
    7548:	00a15b03          	lhu	s6,10(sp)
    754c:	fdb00b93          	li	s7,-37
    7550:	ff7b0b13          	addi	s6,s6,-9
    7554:	01611523          	sh	s6,10(sp)
    7558:	01775463          	bge	a4,s7,7560 <.L2157+0x24>
    755c:	4190306f          	j	b174 <.L2720>
    7560:	02600b13          	li	s6,38
    7564:	00eb4463          	blt	s6,a4,756c <.L2157+0x30>
    7568:	b31fb06f          	j	3098 <.L2171>
    756c:	08600b13          	li	s6,134
    7570:	14db5463          	bge	s6,a3,76b8 <.L2181>
    7574:	a1cfe06f          	j	5790 <.L2170>

00007578 <.L2846>:
    7578:	e2c00b93          	li	s7,-468
    757c:	0172c463          	blt	t0,s7,7584 <.L2846+0xc>
    7580:	3350306f          	j	b0b4 <.L1348>
    7584:	00a15b83          	lhu	s7,10(sp)
    7588:	006b8b93          	addi	s7,s7,6
    758c:	010b9b93          	slli	s7,s7,0x10
    7590:	010bdb93          	srli	s7,s7,0x10

00007594 <.L1349>:
    7594:	01711523          	sh	s7,10(sp)
    7598:	02a00b93          	li	s7,42
    759c:	00dbd463          	bge	s7,a3,75a4 <.L1345>
    75a0:	994fa06f          	j	1734 <.L1328>

000075a4 <.L1345>:
    75a4:	fba00b93          	li	s7,-70
    75a8:	0175c463          	blt	a1,s7,75b0 <.L1337>
    75ac:	4f50106f          	j	92a0 <.L1338>

000075b0 <.L1337>:
    75b0:	25400b93          	li	s7,596
    75b4:	016bc463          	blt	s7,s6,75bc <.L1337+0xc>
    75b8:	dedfa06f          	j	23a4 <.L1357>
    75bc:	00c15b83          	lhu	s7,12(sp)
    75c0:	03600c13          	li	s8,54
    75c4:	005b8b93          	addi	s7,s7,5
    75c8:	01711623          	sh	s7,12(sp)
    75cc:	00fc5463          	bge	s8,a5,75d4 <.L1353>
    75d0:	dedfa06f          	j	23bc <.L1356>

000075d4 <.L1353>:
    75d4:	00e15b83          	lhu	s7,14(sp)
    75d8:	ff8b8b93          	addi	s7,s7,-8
    75dc:	010b9b93          	slli	s7,s7,0x10
    75e0:	410bdb93          	srai	s7,s7,0x10
    75e4:	e01fa06f          	j	23e4 <.L1366>

000075e8 <.L1492>:
    75e8:	f4200b93          	li	s7,-190
    75ec:	0172c463          	blt	t0,s7,75f4 <.L1492+0xc>
    75f0:	2a50306f          	j	b094 <.L1498>
    75f4:	00e15b83          	lhu	s7,14(sp)
    75f8:	014b8b93          	addi	s7,s7,20
    75fc:	01711723          	sh	s7,14(sp)
    7600:	addfc06f          	j	40dc <.L1497>

00007604 <.L2823>:
    7604:	03b00513          	li	a0,59
    7608:	c8f54ce3          	blt	a0,a5,72a0 <.L2665>
    760c:	00c15503          	lhu	a0,12(sp)
    7610:	02800e93          	li	t4,40
    7614:	00450513          	addi	a0,a0,4
    7618:	00a11623          	sh	a0,12(sp)
    761c:	007ed463          	bge	t4,t2,7624 <.L2224>
    7620:	fbdfd06f          	j	55dc <.L2209>

00007624 <.L2224>:
    7624:	ff968693          	addi	a3,a3,-7
    7628:	00d11723          	sh	a3,14(sp)
    762c:	b45fb06f          	j	3170 <.L2210>

00007630 <.L1471>:
    7630:	00c00b93          	li	s7,12
    7634:	01cbd463          	bge	s7,t3,763c <.L1471+0xc>
    7638:	6950306f          	j	b4cc <.L2920>
    763c:	02700b93          	li	s7,39
    7640:	01dbd463          	bge	s7,t4,7648 <.L1471+0x18>
    7644:	3740406f          	j	b9b8 <.L1478>
    7648:	04900b93          	li	s7,73
    764c:	011bc463          	blt	s7,a7,7654 <.L1489>
    7650:	f59fa06f          	j	25a8 <.L1476>

00007654 <.L1489>:
    7654:	01c51b83          	lh	s7,28(a0)
    7658:	01704463          	bgtz	s7,7660 <.L1489+0xc>
    765c:	f65fa06f          	j	25c0 <.L1487>
    7660:	00c15b83          	lhu	s7,12(sp)
    7664:	009b8b93          	addi	s7,s7,9
    7668:	01711623          	sh	s7,12(sp)
    766c:	f55fa06f          	j	25c0 <.L1487>

00007670 <.L2820>:
    7670:	00815b03          	lhu	s6,8(sp)
    7674:	03b00b93          	li	s7,59
    7678:	fffb0b13          	addi	s6,s6,-1
    767c:	01611423          	sh	s6,8(sp)
    7680:	00fbd463          	bge	s7,a5,7688 <.L2820+0x18>
    7684:	c3cfc06f          	j	3ac0 <.L2146>
    7688:	33f00b13          	li	s6,831
    768c:	00eb4463          	blt	s6,a4,7694 <.L2149>
    7690:	9d5fb06f          	j	3064 <.L2153>

00007694 <.L2149>:
    7694:	ddf00b13          	li	s6,-545
    7698:	016a4463          	blt	s4,s6,76a0 <.L2149+0xc>
    769c:	31c0206f          	j	99b8 <.L2155>
    76a0:	00a15b03          	lhu	s6,10(sp)
    76a4:	fffb0b13          	addi	s6,s6,-1
    76a8:	01611523          	sh	s6,10(sp)

000076ac <.L2156>:
    76ac:	08600b13          	li	s6,134
    76b0:	00db5463          	bge	s6,a3,76b8 <.L2181>
    76b4:	9f1fb06f          	j	30a4 <.L2164>

000076b8 <.L2181>:
    76b8:	00c15683          	lhu	a3,12(sp)
    76bc:	ffc68693          	addi	a3,a3,-4
    76c0:	00d11623          	sh	a3,12(sp)
    76c4:	9e1fb06f          	j	30a4 <.L2164>

000076c8 <.L2202>:
    76c8:	3fb00513          	li	a0,1019
    76cc:	00e55463          	bge	a0,a4,76d4 <.L2202+0xc>
    76d0:	1550306f          	j	b024 <.L2204>
    76d4:	00a15503          	lhu	a0,10(sp)
    76d8:	ff850513          	addi	a0,a0,-8
    76dc:	01051513          	slli	a0,a0,0x10
    76e0:	41055513          	srai	a0,a0,0x10
    76e4:	a3dfb06f          	j	3120 <.L2196>

000076e8 <.L2123>:
    76e8:	00c15b03          	lhu	s6,12(sp)
    76ec:	02600b93          	li	s7,38
    76f0:	002b0b13          	addi	s6,s6,2
    76f4:	01611623          	sh	s6,12(sp)
    76f8:	00dbd463          	bge	s7,a3,7700 <.L2123+0x18>
    76fc:	cfdfc06f          	j	43f8 <.L2128>
    7700:	01300b13          	li	s6,19
    7704:	7edb44e3          	blt	s6,a3,86ec <.L2127>

00007708 <.L2661>:
    7708:	00e15b03          	lhu	s6,14(sp)
    770c:	ffcb0b13          	addi	s6,s6,-4
    7710:	010b1b13          	slli	s6,s6,0x10
    7714:	410b5b13          	srai	s6,s6,0x10
    7718:	c55fd06f          	j	536c <.L2138>

0000771c <.L80>:
    771c:	02651383          	lh	t2,38(a0)
    7720:	fe800e13          	li	t3,-24
    7724:	01c3c463          	blt	t2,t3,772c <.L80+0x10>
    7728:	6250206f          	j	a54c <.L87>
    772c:	00815e03          	lhu	t3,8(sp)
    7730:	011e0e13          	addi	t3,t3,17
    7734:	010e1e13          	slli	t3,t3,0x10
    7738:	010e5e13          	srli	t3,t3,0x10
    773c:	ad5f806f          	j	210 <.L2548>

00007740 <.L910>:
    7740:	ea700b93          	li	s7,-345
    7744:	0172c463          	blt	t0,s7,774c <.L910+0xc>
    7748:	50c0306f          	j	ac54 <.L915>
    774c:	00a15b83          	lhu	s7,10(sp)
    7750:	007b8b93          	addi	s7,s7,7
    7754:	010b9b93          	slli	s7,s7,0x10
    7758:	410bdb93          	srai	s7,s7,0x10
    775c:	9b5f906f          	j	1110 <.L912>

00007760 <.L911>:
    7760:	00a15b83          	lhu	s7,10(sp)
    7764:	03300c13          	li	s8,51
    7768:	ff6b8b93          	addi	s7,s7,-10
    776c:	01711523          	sh	s7,10(sp)
    7770:	00fc5463          	bge	s8,a5,7778 <.L913>
    7774:	9adf906f          	j	1120 <.L914>

00007778 <.L913>:
    7778:	00c15b83          	lhu	s7,12(sp)
    777c:	00085463          	bgez	a6,7784 <.L913+0xc>
    7780:	36d0306f          	j	b2ec <.L2921>
    7784:	008b8b93          	addi	s7,s7,8
    7788:	01711623          	sh	s7,12(sp)
    778c:	b99fd06f          	j	5324 <.L928>

00007790 <.L499>:
    7790:	c2600b93          	li	s7,-986
    7794:	a175da63          	bge	a1,s7,69a8 <.L507>
    7798:	00e15b83          	lhu	s7,14(sp)
    779c:	008b8b93          	addi	s7,s7,8
    77a0:	010b9b93          	slli	s7,s7,0x10
    77a4:	410bdb93          	srai	s7,s7,0x10
    77a8:	ee5fd06f          	j	568c <.L504>

000077ac <.L747>:
    77ac:	0bb00b93          	li	s7,187
    77b0:	cd6bd063          	bge	s7,s6,6c70 <.L2589>
    77b4:	00a15b83          	lhu	s7,10(sp)
    77b8:	004b8b93          	addi	s7,s7,4
    77bc:	010b9b93          	slli	s7,s7,0x10
    77c0:	410bdb93          	srai	s7,s7,0x10
    77c4:	ec4f906f          	j	e88 <.L745>

000077c8 <.L349>:
    77c8:	09900b93          	li	s7,153
    77cc:	01ebd463          	bge	s7,t5,77d4 <.L349+0xc>
    77d0:	12d0206f          	j	a0fc <.L357>
    77d4:	00a15b83          	lhu	s7,10(sp)
    77d8:	17000c13          	li	s8,368
    77dc:	ff6b8b93          	addi	s7,s7,-10
    77e0:	01711523          	sh	s7,10(sp)
    77e4:	f2dc5063          	bge	s8,a3,6f04 <.L354>

000077e8 <.L359>:
    77e8:	ef700b93          	li	s7,-265
    77ec:	0172d463          	bge	t0,s7,77f4 <.L359+0xc>
    77f0:	844f906f          	j	834 <.L355>
    77f4:	00c15b83          	lhu	s7,12(sp)
    77f8:	ff7b8b93          	addi	s7,s7,-9
    77fc:	010b9b93          	slli	s7,s7,0x10
    7800:	410bdb93          	srai	s7,s7,0x10
    7804:	840f906f          	j	844 <.L352>

00007808 <.L2096>:
    7808:	e1500b13          	li	s6,-491
    780c:	01645463          	bge	s0,s6,7814 <.L2096+0xc>
    7810:	f4cfb06f          	j	2f5c <.L2095>
    7814:	00e15b03          	lhu	s6,14(sp)
    7818:	ff7b0b13          	addi	s6,s6,-9
    781c:	01611723          	sh	s6,14(sp)
    7820:	f3cfb06f          	j	2f5c <.L2095>

00007824 <.L2859>:
    7824:	e2c00b13          	li	s6,-468
    7828:	0162c463          	blt	t0,s6,7830 <.L2859+0xc>
    782c:	3e80306f          	j	ac14 <.L2116>
    7830:	00a15b03          	lhu	s6,10(sp)
    7834:	25b00b93          	li	s7,603
    7838:	004b0b13          	addi	s6,s6,4
    783c:	01611523          	sh	s6,10(sp)
    7840:	00ebc463          	blt	s7,a4,7848 <.L2117>
    7844:	b85fc06f          	j	43c8 <.L2120>

00007848 <.L2117>:
    7848:	e9800b13          	li	s6,-360
    784c:	0165c463          	blt	a1,s6,7854 <.L2117+0xc>
    7850:	1010306f          	j	b150 <.L2130>
    7854:	00c15b03          	lhu	s6,12(sp)
    7858:	fffb0b13          	addi	s6,s6,-1
    785c:	01611623          	sh	s6,12(sp)
    7860:	f80fb06f          	j	2fe0 <.L2124>

00007864 <.L1012>:
    7864:	00a15b83          	lhu	s7,10(sp)
    7868:	005b8b93          	addi	s7,s7,5
    786c:	010b9b93          	slli	s7,s7,0x10
    7870:	410bdb93          	srai	s7,s7,0x10
    7874:	9ddf906f          	j	1250 <.L1007>

00007878 <.L1864>:
    7878:	e0800b93          	li	s7,-504
    787c:	01744463          	blt	s0,s7,7884 <.L1864+0xc>
    7880:	0e10306f          	j	b160 <.L1869>
    7884:	00e15b83          	lhu	s7,14(sp)
    7888:	002b8b93          	addi	s7,s7,2
    788c:	010b9b93          	slli	s7,s7,0x10
    7890:	010bdb93          	srli	s7,s7,0x10

00007894 <.L1870>:
    7894:	01711723          	sh	s7,14(sp)
    7898:	01f00b93          	li	s7,31
    789c:	013bd463          	bge	s7,s3,78a4 <.L1870+0x10>
    78a0:	c89fd06f          	j	5528 <.L1867>
    78a4:	04600b93          	li	s7,70
    78a8:	011bd463          	bge	s7,a7,78b0 <.L1870+0x1c>
    78ac:	c75fd06f          	j	5520 <.L1871>
    78b0:	03300b93          	li	s7,51
    78b4:	011bc463          	blt	s7,a7,78bc <.L1870+0x28>
    78b8:	c3dfd06f          	j	54f4 <.L1866>
    78bc:	00815b83          	lhu	s7,8(sp)
    78c0:	006b8b93          	addi	s7,s7,6
    78c4:	01711423          	sh	s7,8(sp)
    78c8:	c2dfd06f          	j	54f4 <.L1866>

000078cc <.L655>:
    78cc:	01f00b93          	li	s7,31
    78d0:	010bc463          	blt	s7,a6,78d8 <.L655+0xc>
    78d4:	1b90206f          	j	a28c <.L2271>
    78d8:	00e15b83          	lhu	s7,14(sp)
    78dc:	0a900c13          	li	s8,169
    78e0:	009b8b93          	addi	s7,s7,9
    78e4:	01711723          	sh	s7,14(sp)
    78e8:	01ec5463          	bge	s8,t5,78f0 <.L651>
    78ec:	de5fe06f          	j	66d0 <.L2270>

000078f0 <.L651>:
    78f0:	ff500b93          	li	s7,-11
    78f4:	01764463          	blt	a2,s7,78fc <.L651+0xc>
    78f8:	48c0206f          	j	9d84 <.L658>
    78fc:	00815b83          	lhu	s7,8(sp)
    7900:	009b8b93          	addi	s7,s7,9
    7904:	01711423          	sh	s7,8(sp)
    7908:	bdcf906f          	j	ce4 <.L649>

0000790c <.L1785>:
    790c:	f5c00b93          	li	s7,-164
    7910:	01744463          	blt	s0,s7,7918 <.L1785+0xc>
    7914:	31d0206f          	j	a430 <.L1790>
    7918:	00815b83          	lhu	s7,8(sp)
    791c:	ffcb8b93          	addi	s7,s7,-4
    7920:	010b9b93          	slli	s7,s7,0x10
    7924:	010bdb93          	srli	s7,s7,0x10

00007928 <.L1791>:
    7928:	01711423          	sh	s7,8(sp)
    792c:	02e00b93          	li	s7,46
    7930:	01dbd463          	bge	s7,t4,7938 <.L1791+0x10>
    7934:	ff9fd06f          	j	592c <.L1780>
    7938:	01700b93          	li	s7,23
    793c:	011bc463          	blt	s7,a7,7944 <.L1791+0x1c>
    7940:	910fb06f          	j	2a50 <.L1783>
    7944:	ffa00b93          	li	s7,-6
    7948:	01765463          	bge	a2,s7,7950 <.L1791+0x28>
    794c:	a78fd06f          	j	4bc4 <.L1789>
    7950:	00a15b83          	lhu	s7,10(sp)
    7954:	005b8b93          	addi	s7,s7,5
    7958:	010b9b93          	slli	s7,s7,0x10
    795c:	410bdb93          	srai	s7,s7,0x10
    7960:	90cfb06f          	j	2a6c <.L1793>

00007964 <.L927>:
    7964:	02200b93          	li	s7,34
    7968:	013bd463          	bge	s7,s3,7970 <.L927+0xc>
    796c:	4c40306f          	j	ae30 <.L2922>
    7970:	00c15b83          	lhu	s7,12(sp)
    7974:	009b8b93          	addi	s7,s7,9
    7978:	010b9b93          	slli	s7,s7,0x10
    797c:	410bdb93          	srai	s7,s7,0x10
    7980:	c3cfa06f          	j	1dbc <.L931>

00007984 <.L199>:
    7984:	00e15e03          	lhu	t3,14(sp)
    7988:	07a00b93          	li	s7,122
    798c:	ff7e0e13          	addi	t3,t3,-9
    7990:	01c11723          	sh	t3,14(sp)
    7994:	006bd463          	bge	s7,t1,799c <.L196>
    7998:	f64fe06f          	j	60fc <.L201>

0000799c <.L196>:
    799c:	01800e13          	li	t3,24
    79a0:	010e5463          	bge	t3,a6,79a8 <.L196+0xc>
    79a4:	29c0306f          	j	ac40 <.L219>
    79a8:	00815e03          	lhu	t3,8(sp)
    79ac:	006e0e13          	addi	t3,t3,6
    79b0:	010e1e13          	slli	t3,t3,0x10
    79b4:	410e5e13          	srai	t3,t3,0x10
    79b8:	f54fe06f          	j	610c <.L220>

000079bc <.L854>:
    79bc:	00e15b83          	lhu	s7,14(sp)
    79c0:	003b8b93          	addi	s7,s7,3
    79c4:	01711723          	sh	s7,14(sp)
    79c8:	e40f906f          	j	1008 <.L846>

000079cc <.L2184>:
    79cc:	03c00693          	li	a3,60
    79d0:	00f6d463          	bge	a3,a5,79d8 <.L2184+0xc>
    79d4:	dd5fd06f          	j	57a8 <.L2186>
    79d8:	00e15683          	lhu	a3,14(sp)
    79dc:	fff68693          	addi	a3,a3,-1
    79e0:	01069693          	slli	a3,a3,0x10
    79e4:	4106d693          	srai	a3,a3,0x10
    79e8:	ed8fb06f          	j	30c0 <.L2183>

000079ec <.L1798>:
    79ec:	27600b93          	li	s7,630
    79f0:	009bd463          	bge	s7,s1,79f8 <.L1798+0xc>
    79f4:	6400306f          	j	b034 <.L1805>
    79f8:	00c15b83          	lhu	s7,12(sp)
    79fc:	ff9b8b93          	addi	s7,s7,-7
    7a00:	01711623          	sh	s7,12(sp)
    7a04:	89cfb06f          	j	2aa0 <.L1808>

00007a08 <.L1235>:
    7a08:	04700b93          	li	s7,71
    7a0c:	007bd463          	bge	s7,t2,7a14 <.L1235+0xc>
    7a10:	7b90106f          	j	99c8 <.L1243>
    7a14:	00c15b83          	lhu	s7,12(sp)
    7a18:	ffcb8b93          	addi	s7,s7,-4
    7a1c:	010b9b93          	slli	s7,s7,0x10
    7a20:	410bdb93          	srai	s7,s7,0x10
    7a24:	85dfa06f          	j	2280 <.L1240>

00007a28 <.L625>:
    7a28:	00a15b83          	lhu	s7,10(sp)
    7a2c:	08900c13          	li	s8,137
    7a30:	fffb8b93          	addi	s7,s7,-1
    7a34:	01711523          	sh	s7,10(sp)
    7a38:	00dc4463          	blt	s8,a3,7a40 <.L2581>
    7a3c:	c31fe06f          	j	666c <.L626>

00007a40 <.L2581>:
    7a40:	e9b00b93          	li	s7,-357
    7a44:	017ac463          	blt	s5,s7,7a4c <.L624>
    7a48:	0340106f          	j	8a7c <.L622>

00007a4c <.L624>:
    7a4c:	00c15b83          	lhu	s7,12(sp)
    7a50:	008b8b93          	addi	s7,s7,8
    7a54:	010b9b93          	slli	s7,s7,0x10
    7a58:	410bdb93          	srai	s7,s7,0x10
    7a5c:	c39fe06f          	j	6694 <.L623>

00007a60 <.L1126>:
    7a60:	00815b83          	lhu	s7,8(sp)
    7a64:	03300c13          	li	s8,51
    7a68:	fffb8b93          	addi	s7,s7,-1
    7a6c:	01711423          	sh	s7,8(sp)
    7a70:	01fc5463          	bge	s8,t6,7a78 <.L1128>
    7a74:	e60fa06f          	j	20d4 <.L1129>

00007a78 <.L1128>:
    7a78:	32100b93          	li	s7,801
    7a7c:	00dbd463          	bge	s7,a3,7a84 <.L1128+0xc>
    7a80:	4940306f          	j	af14 <.L1134>
    7a84:	00a15b83          	lhu	s7,10(sp)
    7a88:	ff6b8b93          	addi	s7,s7,-10
    7a8c:	010b9b93          	slli	s7,s7,0x10
    7a90:	410bdb93          	srai	s7,s7,0x10
    7a94:	9c9f906f          	j	145c <.L1133>

00007a98 <.L1203>:
    7a98:	f0100b93          	li	s7,-255
    7a9c:	0172d463          	bge	t0,s7,7aa4 <.L1203+0xc>
    7aa0:	c60fd06f          	j	4f00 <.L1211>
    7aa4:	00400b93          	li	s7,4
    7aa8:	011bc463          	blt	s7,a7,7ab0 <.L2605>
    7aac:	c6cfd06f          	j	4f18 <.L1209>

00007ab0 <.L2605>:
    7ab0:	00e00b93          	li	s7,14
    7ab4:	01dbc463          	blt	s7,t4,7abc <.L1217>
    7ab8:	f08fc06f          	j	41c0 <.L1218>

00007abc <.L1217>:
    7abc:	0ac00b93          	li	s7,172
    7ac0:	01ebd463          	bge	s7,t5,7ac8 <.L1219>
    7ac4:	f6cfa06f          	j	2230 <.L1210>

00007ac8 <.L1219>:
    7ac8:	00815b83          	lhu	s7,8(sp)
    7acc:	03500c13          	li	s8,53
    7ad0:	007b8b93          	addi	s7,s7,7
    7ad4:	01711423          	sh	s7,8(sp)
    7ad8:	00ec4463          	blt	s8,a4,7ae0 <.L2606>
    7adc:	ad5f906f          	j	15b0 <.L1215>

00007ae0 <.L2606>:
    7ae0:	0e100b93          	li	s7,225
    7ae4:	00dbc463          	blt	s7,a3,7aec <.L1221>
    7ae8:	f5cfa06f          	j	2244 <.L1220>

00007aec <.L1221>:
    7aec:	00a15b83          	lhu	s7,10(sp)
    7af0:	ffbb8b93          	addi	s7,s7,-5
    7af4:	01711523          	sh	s7,10(sp)

00007af8 <.L1234>:
    7af8:	0c100b93          	li	s7,193
    7afc:	009bc463          	blt	s7,s1,7b04 <.L1234+0xc>
    7b00:	ad9f906f          	j	15d8 <.L1228>
    7b04:	f6900b93          	li	s7,-151
    7b08:	f175d0e3          	bge	a1,s7,7a08 <.L1235>
    7b0c:	27a00b93          	li	s7,634
    7b10:	00dbc463          	blt	s7,a3,7b18 <.L1234+0x20>
    7b14:	f5cfa06f          	j	2270 <.L1230>
    7b18:	00c15b83          	lhu	s7,12(sp)
    7b1c:	004b8b93          	addi	s7,s7,4
    7b20:	010b9b93          	slli	s7,s7,0x10
    7b24:	410bdb93          	srai	s7,s7,0x10
    7b28:	f58fa06f          	j	2280 <.L1240>

00007b2c <.L1940>:
    7b2c:	fd600b93          	li	s7,-42
    7b30:	01774463          	blt	a4,s7,7b38 <.L1940+0xc>
    7b34:	5100306f          	j	b044 <.L1942>
    7b38:	00815b83          	lhu	s7,8(sp)
    7b3c:	005b8b93          	addi	s7,s7,5
    7b40:	01711423          	sh	s7,8(sp)
    7b44:	9a0fb06f          	j	2ce4 <.L1941>

00007b48 <.L1562>:
    7b48:	4b400b93          	li	s7,1204
    7b4c:	00ebd463          	bge	s7,a4,7b54 <.L1562+0xc>
    7b50:	3880306f          	j	aed8 <.L1566>
    7b54:	00a15b83          	lhu	s7,10(sp)
    7b58:	10b00c13          	li	s8,267
    7b5c:	ffdb8b93          	addi	s7,s7,-3
    7b60:	01711523          	sh	s7,10(sp)
    7b64:	00dc5463          	bge	s8,a3,7b6c <.L1562+0x24>
    7b68:	ba9fa06f          	j	2710 <.L1568>
    7b6c:	06a00b93          	li	s7,106
    7b70:	02ebd263          	bge	s7,a4,7b94 <.L1573>

00007b74 <.L1560>:
    7b74:	02800b93          	li	s7,40
    7b78:	006bd463          	bge	s7,t1,7b80 <.L1560+0xc>
    7b7c:	3780306f          	j	aef4 <.L1575>
    7b80:	00c15b83          	lhu	s7,12(sp)
    7b84:	005b8b93          	addi	s7,s7,5
    7b88:	010b9b93          	slli	s7,s7,0x10
    7b8c:	410bdb93          	srai	s7,s7,0x10
    7b90:	ba9fa06f          	j	2738 <.L1574>

00007b94 <.L1573>:
    7b94:	00c15b83          	lhu	s7,12(sp)
    7b98:	004b8b93          	addi	s7,s7,4
    7b9c:	010b9b93          	slli	s7,s7,0x10
    7ba0:	410bdb93          	srai	s7,s7,0x10
    7ba4:	b95fa06f          	j	2738 <.L1574>

00007ba8 <.L1641>:
    7ba8:	01200b93          	li	s7,18
    7bac:	01dbc463          	blt	s7,t4,7bb4 <.L1641+0xc>
    7bb0:	fb9fe06f          	j	6b68 <.L2923>
    7bb4:	00a15b83          	lhu	s7,10(sp)
    7bb8:	00100c13          	li	s8,1
    7bbc:	002b8b93          	addi	s7,s7,2
    7bc0:	01711523          	sh	s7,10(sp)
    7bc4:	01cc4463          	blt	s8,t3,7bcc <.L1680>
    7bc8:	3340406f          	j	befc <.L1679>

00007bcc <.L1680>:
    7bcc:	02000b93          	li	s7,32
    7bd0:	01dbc463          	blt	s7,t4,7bd8 <.L1680+0xc>
    7bd4:	ca5fa06f          	j	2878 <.L1659>
    7bd8:	00c15b83          	lhu	s7,12(sp)
    7bdc:	ff600c13          	li	s8,-10
    7be0:	ffbb8b93          	addi	s7,s7,-5
    7be4:	01711623          	sh	s7,12(sp)
    7be8:	01865463          	bge	a2,s8,7bf0 <.L1680+0x24>
    7bec:	cb1fa06f          	j	289c <.L1682>
    7bf0:	d04fd06f          	j	50f4 <.L1683>

00007bf4 <.L1225>:
    7bf4:	ffe00b93          	li	s7,-2
    7bf8:	f17650e3          	bge	a2,s7,7af8 <.L1234>
    7bfc:	00a15b83          	lhu	s7,10(sp)
    7c00:	ff7b8b93          	addi	s7,s7,-9
    7c04:	01711523          	sh	s7,10(sp)
    7c08:	ef1ff06f          	j	7af8 <.L1234>

00007c0c <.L2867>:
    7c0c:	00700b93          	li	s7,7
    7c10:	01cbd463          	bge	s7,t3,7c18 <.L2867+0xc>
    7c14:	73d0106f          	j	9b50 <.L1263>
    7c18:	00815b83          	lhu	s7,8(sp)
    7c1c:	08c00c13          	li	s8,140
    7c20:	ffdb8b93          	addi	s7,s7,-3
    7c24:	01711423          	sh	s7,8(sp)
    7c28:	006c4463          	blt	s8,t1,7c30 <.L2867+0x24>
    7c2c:	ea8fa06f          	j	22d4 <.L1250>
    7c30:	01700b93          	li	s7,23
    7c34:	01dbd463          	bge	s7,t4,7c3c <.L2867+0x30>
    7c38:	0cc0406f          	j	bd04 <.L2924>
    7c3c:	03300b93          	li	s7,51
    7c40:	00fbc463          	blt	s7,a5,7c48 <.L2867+0x3c>
    7c44:	a2dfc06f          	j	4670 <.L2733>
    7c48:	a61f906f          	j	16a8 <.L1266>

00007c4c <.L1542>:
    7c4c:	02600b93          	li	s7,38
    7c50:	007bd463          	bge	s7,t2,7c58 <.L1542+0xc>
    7c54:	7c00206f          	j	a414 <.L1546>
    7c58:	00c15b83          	lhu	s7,12(sp)
    7c5c:	01800c13          	li	s8,24
    7c60:	003b8b93          	addi	s7,s7,3
    7c64:	01711623          	sh	s7,12(sp)
    7c68:	010c5463          	bge	s8,a6,7c70 <.L1537>
    7c6c:	82cfc06f          	j	3c98 <.L1545>

00007c70 <.L1537>:
    7c70:	12700b93          	li	s7,295
    7c74:	e96bde63          	bge	s7,s6,7310 <.L1547>

00007c78 <.L1535>:
    7c78:	00e15b83          	lhu	s7,14(sp)
    7c7c:	ffcb8b93          	addi	s7,s7,-4
    7c80:	01711723          	sh	s7,14(sp)
    7c84:	a19fa06f          	j	269c <.L1539>

00007c88 <.L1898>:
    7c88:	1a500b93          	li	s7,421
    7c8c:	007bd463          	bge	s7,t2,7c94 <.L1898+0xc>
    7c90:	d5dfc06f          	j	49ec <.L1899>
    7c94:	00e15b83          	lhu	s7,14(sp)
    7c98:	001b8b93          	addi	s7,s7,1
    7c9c:	010b9b93          	slli	s7,s7,0x10
    7ca0:	410bdb93          	srai	s7,s7,0x10
    7ca4:	f5dfa06f          	j	2c00 <.L1897>

00007ca8 <.L2869>:
    7ca8:	ff600b93          	li	s7,-10
    7cac:	01774463          	blt	a4,s7,7cb4 <.L2869+0xc>
    7cb0:	1690206f          	j	a618 <.L1397>
    7cb4:	00a15b83          	lhu	s7,10(sp)
    7cb8:	00100c13          	li	s8,1
    7cbc:	002b8b93          	addi	s7,s7,2
    7cc0:	01711523          	sh	s7,10(sp)
    7cc4:	01cc5463          	bge	s8,t3,7ccc <.L2869+0x24>
    7cc8:	f88fa06f          	j	2450 <.L1396>
    7ccc:	01100b93          	li	s7,17
    7cd0:	691bd4e3          	bge	s7,a7,8b58 <.L1395>

00007cd4 <.L1405>:
    7cd4:	00c15b83          	lhu	s7,12(sp)
    7cd8:	03c00c13          	li	s8,60
    7cdc:	004b8b93          	addi	s7,s7,4
    7ce0:	01711623          	sh	s7,12(sp)
    7ce4:	00fc4463          	blt	s8,a5,7cec <.L1405+0x18>
    7ce8:	a94fc06f          	j	3f7c <.L1403>
    7cec:	0a100b93          	li	s7,161
    7cf0:	007bc463          	blt	s7,t2,7cf8 <.L1405+0x24>
    7cf4:	13c0406f          	j	be30 <.L1407>
    7cf8:	01f00b93          	li	s7,31
    7cfc:	013bc463          	blt	s7,s3,7d04 <.L1409>
    7d00:	fb0fa06f          	j	24b0 <.L1408>

00007d04 <.L1409>:
    7d04:	00815b83          	lhu	s7,8(sp)
    7d08:	ff8b8b93          	addi	s7,s7,-8
    7d0c:	01711423          	sh	s7,8(sp)
    7d10:	fbcfa06f          	j	24cc <.L1424>

00007d14 <.L2610>:
    7d14:	00c15b83          	lhu	s7,12(sp)
    7d18:	ff8b8b93          	addi	s7,s7,-8
    7d1c:	010b9b93          	slli	s7,s7,0x10
    7d20:	410bdb93          	srai	s7,s7,0x10
    7d24:	01711623          	sh	s7,12(sp)
    7d28:	f3900b93          	li	s7,-199
    7d2c:	017a4463          	blt	s4,s7,7d34 <.L2613>
    7d30:	971fc06f          	j	46a0 <.L1299>

00007d34 <.L2613>:
    7d34:	00e15b83          	lhu	s7,14(sp)
    7d38:	ffe00c13          	li	s8,-2
    7d3c:	ff8b8b93          	addi	s7,s7,-8
    7d40:	01711723          	sh	s7,14(sp)
    7d44:	01885463          	bge	a6,s8,7d4c <.L2613+0x18>
    7d48:	9a5f906f          	j	16ec <.L1300>
    7d4c:	979fc06f          	j	46c4 <.L1301>

00007d50 <.L2800>:
    7d50:	ea700b93          	li	s7,-345
    7d54:	017a4463          	blt	s4,s7,7d5c <.L2800+0xc>
    7d58:	6ec0206f          	j	a444 <.L1285>
    7d5c:	00a15b83          	lhu	s7,10(sp)
    7d60:	03300c13          	li	s8,51
    7d64:	001b8b93          	addi	s7,s7,1
    7d68:	01711523          	sh	s7,10(sp)
    7d6c:	00fc5463          	bge	s8,a5,7d74 <.L2800+0x24>
    7d70:	fe1fd06f          	j	5d50 <.L1284>
    7d74:	00300b93          	li	s7,3
    7d78:	010bc463          	blt	s7,a6,7d80 <.L1291>
    7d7c:	7a40106f          	j	9520 <.L2925>

00007d80 <.L1291>:
    7d80:	00c15b83          	lhu	s7,12(sp)
    7d84:	f3900c13          	li	s8,-199
    7d88:	007b8b93          	addi	s7,s7,7
    7d8c:	01711623          	sh	s7,12(sp)
    7d90:	018a5463          	bge	s4,s8,7d98 <.L1291+0x18>
    7d94:	3950306f          	j	b928 <.L2926>
    7d98:	01800b93          	li	s7,24
    7d9c:	012bd463          	bge	s7,s2,7da4 <.L2614>
    7da0:	4c90306f          	j	ba68 <.L1313>

00007da4 <.L2614>:
    7da4:	00e15b83          	lhu	s7,14(sp)
    7da8:	ff8b8b93          	addi	s7,s7,-8
    7dac:	01711723          	sh	s7,14(sp)
    7db0:	915fc06f          	j	46c4 <.L1301>

00007db4 <.L410>:
    7db4:	00c15b83          	lhu	s7,12(sp)
    7db8:	008b8b93          	addi	s7,s7,8
    7dbc:	010b9b93          	slli	s7,s7,0x10
    7dc0:	410bdb93          	srai	s7,s7,0x10
    7dc4:	b4df806f          	j	910 <.L403>

00007dc8 <.L408>:
    7dc8:	03b00b93          	li	s7,59
    7dcc:	feebd4e3          	bge	s7,a4,7db4 <.L410>
    7dd0:	00c15b83          	lhu	s7,12(sp)
    7dd4:	ff7b8b93          	addi	s7,s7,-9
    7dd8:	010b9b93          	slli	s7,s7,0x10
    7ddc:	410bdb93          	srai	s7,s7,0x10
    7de0:	b31f806f          	j	910 <.L403>

00007de4 <.L1326>:
    7de4:	02500b93          	li	s7,37
    7de8:	01cbd463          	bge	s7,t3,7df0 <.L1326+0xc>
    7dec:	9b8fe06f          	j	5fa4 <.L1351>
    7df0:	00a15b83          	lhu	s7,10(sp)
    7df4:	02a00c13          	li	s8,42
    7df8:	009b8b93          	addi	s7,s7,9
    7dfc:	01711523          	sh	s7,10(sp)
    7e00:	00dc5463          	bge	s8,a3,7e08 <.L1326+0x24>
    7e04:	931f906f          	j	1734 <.L1328>
    7e08:	fba00b93          	li	s7,-70
    7e0c:	fb75c263          	blt	a1,s7,75b0 <.L1337>

00007e10 <.L1359>:
    7e10:	00c15b83          	lhu	s7,12(sp)
    7e14:	03600c13          	li	s8,54
    7e18:	00db8b93          	addi	s7,s7,13
    7e1c:	01711623          	sh	s7,12(sp)
    7e20:	fafc5a63          	bge	s8,a5,75d4 <.L1353>
    7e24:	d98fa06f          	j	23bc <.L1356>

00007e28 <.L688>:
    7e28:	1ab00b93          	li	s7,427
    7e2c:	007bd463          	bge	s7,t2,7e34 <.L688+0xc>
    7e30:	bf9f906f          	j	1a28 <.L2268>
    7e34:	00a15b83          	lhu	s7,10(sp)
    7e38:	ff7b8b93          	addi	s7,s7,-9
    7e3c:	01711523          	sh	s7,10(sp)
    7e40:	01000b93          	li	s7,16
    7e44:	01dbc463          	blt	s7,t4,7e4c <.L704>
    7e48:	bedf906f          	j	1a34 <.L2927>

00007e4c <.L704>:
    7e4c:	eb900b93          	li	s7,-327
    7e50:	017a4463          	blt	s4,s7,7e58 <.L704+0xc>
    7e54:	6f50106f          	j	9d48 <.L707>
    7e58:	00c15b83          	lhu	s7,12(sp)
    7e5c:	002b8b93          	addi	s7,s7,2
    7e60:	010b9b93          	slli	s7,s7,0x10
    7e64:	410bdb93          	srai	s7,s7,0x10
    7e68:	fa5f806f          	j	e0c <.L706>

00007e6c <.L1110>:
    7e6c:	00c15b83          	lhu	s7,12(sp)
    7e70:	e4a00c13          	li	s8,-438
    7e74:	ffab8b93          	addi	s7,s7,-6
    7e78:	01711623          	sh	s7,12(sp)
    7e7c:	0182c463          	blt	t0,s8,7e84 <.L1110+0x18>
    7e80:	9f4fa06f          	j	2074 <.L1112>
    7e84:	d68fd06f          	j	53ec <.L1115>

00007e88 <.L1103>:
    7e88:	1a300b93          	li	s7,419
    7e8c:	007bd463          	bge	s7,t2,7e94 <.L1103+0xc>
    7e90:	d3cf906f          	j	13cc <.L1108>
    7e94:	00c15b83          	lhu	s7,12(sp)
    7e98:	ff7b8b93          	addi	s7,s7,-9
    7e9c:	01711623          	sh	s7,12(sp)
    7ea0:	d2cf906f          	j	13cc <.L1108>

00007ea4 <.L1369>:
    7ea4:	fa100b93          	li	s7,-95
    7ea8:	01728463          	beq	t0,s7,7eb0 <.L1369+0xc>
    7eac:	945fc06f          	j	47f0 <.L1376>
    7eb0:	00815b83          	lhu	s7,8(sp)
    7eb4:	03900c13          	li	s8,57
    7eb8:	feab8b93          	addi	s7,s7,-22
    7ebc:	01711423          	sh	s7,8(sp)
    7ec0:	006c5463          	bge	s8,t1,7ec8 <.L1369+0x24>
    7ec4:	88cfc06f          	j	3f50 <.L2619>
    7ec8:	93dfc06f          	j	4804 <.L1372>

00007ecc <.L1238>:
    7ecc:	fa800b93          	li	s7,-88
    7ed0:	01744463          	blt	s0,s7,7ed8 <.L1238+0xc>
    7ed4:	3d50106f          	j	9aa8 <.L1241>
    7ed8:	00c15b83          	lhu	s7,12(sp)
    7edc:	016b8b93          	addi	s7,s7,22
    7ee0:	010b9b93          	slli	s7,s7,0x10
    7ee4:	410bdb93          	srai	s7,s7,0x10
    7ee8:	b98fa06f          	j	2280 <.L1240>

00007eec <.L393>:
    7eec:	16600b93          	li	s7,358
    7ef0:	007bd463          	bge	s7,t2,7ef8 <.L393+0xc>
    7ef4:	4950106f          	j	9b88 <.L396>
    7ef8:	00815b83          	lhu	s7,8(sp)
    7efc:	ffeb8b93          	addi	s7,s7,-2
    7f00:	010b9b93          	slli	s7,s7,0x10
    7f04:	410bdb93          	srai	s7,s7,0x10
    7f08:	01711423          	sh	s7,8(sp)
    7f0c:	0b500b93          	li	s7,181
    7f10:	006bc463          	blt	s7,t1,7f18 <.L397>
    7f14:	cc0fb06f          	j	33d4 <.L2928>

00007f18 <.L397>:
    7f18:	e2700b93          	li	s7,-473
    7f1c:	01744463          	blt	s0,s7,7f24 <.L397+0xc>
    7f20:	981fe06f          	j	68a0 <.L386>
    7f24:	36200b93          	li	s7,866
    7f28:	01ebc463          	blt	s7,t5,7f30 <.L397+0x18>
    7f2c:	925fe06f          	j	6850 <.L389>
    7f30:	00a15b83          	lhu	s7,10(sp)
    7f34:	009b8b93          	addi	s7,s7,9
    7f38:	010b9b93          	slli	s7,s7,0x10
    7f3c:	410bdb93          	srai	s7,s7,0x10
    7f40:	999f806f          	j	8d8 <.L383>

00007f44 <.L1706>:
    7f44:	00815b83          	lhu	s7,8(sp)
    7f48:	03b00c13          	li	s8,59
    7f4c:	ff8b8b93          	addi	s7,s7,-8
    7f50:	01711423          	sh	s7,8(sp)
    7f54:	00fc4463          	blt	s8,a5,7f5c <.L1708>
    7f58:	870fd06f          	j	4fc8 <.L1712>

00007f5c <.L1708>:
    7f5c:	f0100b93          	li	s7,-255
    7f60:	017ac463          	blt	s5,s7,7f68 <.L1708+0xc>
    7f64:	3810106f          	j	9ae4 <.L1724>
    7f68:	00a15b83          	lhu	s7,10(sp)
    7f6c:	003b8b93          	addi	s7,s7,3
    7f70:	010b9b93          	slli	s7,s7,0x10
    7f74:	410bdb93          	srai	s7,s7,0x10
    7f78:	99dfa06f          	j	2914 <.L1721>

00007f7c <.L1146>:
    7f7c:	f0600b93          	li	s7,-250
    7f80:	017ac463          	blt	s5,s7,7f88 <.L1146+0xc>
    7f84:	7680106f          	j	96ec <.L1149>
    7f88:	00e15b83          	lhu	s7,14(sp)
    7f8c:	ffab8b93          	addi	s7,s7,-6
    7f90:	010b9b93          	slli	s7,s7,0x10
    7f94:	410bdb93          	srai	s7,s7,0x10
    7f98:	d2cf906f          	j	14c4 <.L1148>

00007f9c <.L1714>:
    7f9c:	25b00b93          	li	s7,603
    7fa0:	00ebd463          	bge	s7,a4,7fa8 <.L1714+0xc>
    7fa4:	4400206f          	j	a3e4 <.L1717>
    7fa8:	00815b83          	lhu	s7,8(sp)
    7fac:	001b8b93          	addi	s7,s7,1
    7fb0:	010b9b93          	slli	s7,s7,0x10
    7fb4:	010bdb93          	srli	s7,s7,0x10

00007fb8 <.L1718>:
    7fb8:	01711423          	sh	s7,8(sp)
    7fbc:	ec100b93          	li	s7,-319
    7fc0:	f9744ee3          	blt	s0,s7,7f5c <.L1708>
    7fc4:	07500b93          	li	s7,117
    7fc8:	00dbd463          	bge	s7,a3,7fd0 <.L1718+0x18>
    7fcc:	db5fc06f          	j	4d80 <.L1725>
    7fd0:	00a15b83          	lhu	s7,10(sp)
    7fd4:	fffb8b93          	addi	s7,s7,-1
    7fd8:	010b9b93          	slli	s7,s7,0x10
    7fdc:	410bdb93          	srai	s7,s7,0x10
    7fe0:	935fa06f          	j	2914 <.L1721>

00007fe4 <.L2014>:
    7fe4:	00e15b83          	lhu	s7,14(sp)
    7fe8:	001b8b93          	addi	s7,s7,1
    7fec:	010b9b93          	slli	s7,s7,0x10
    7ff0:	410bdb93          	srai	s7,s7,0x10
    7ff4:	e19fa06f          	j	2e0c <.L2015>

00007ff8 <.L2020>:
    7ff8:	00815c03          	lhu	s8,8(sp)
    7ffc:	0f000c93          	li	s9,240
    8000:	002c0c13          	addi	s8,s8,2
    8004:	01811423          	sh	s8,8(sp)
    8008:	006cc463          	blt	s9,t1,8010 <.L2020+0x18>
    800c:	a5cfc06f          	j	4268 <.L2029>
    8010:	f5200c13          	li	s8,-174
    8014:	0585d863          	bge	a1,s8,8064 <.L2026>
    8018:	00a15c03          	lhu	s8,10(sp)
    801c:	01500c93          	li	s9,21
    8020:	004c0c13          	addi	s8,s8,4
    8024:	01811523          	sh	s8,10(sp)
    8028:	010cd463          	bge	s9,a6,8030 <.L2040>
    802c:	5f10106f          	j	9e1c <.L2929>

00008030 <.L2040>:
    8030:	00c15b83          	lhu	s7,12(sp)
    8034:	ffbb8b93          	addi	s7,s7,-5
    8038:	010b9b93          	slli	s7,s7,0x10
    803c:	410bdb93          	srai	s7,s7,0x10
    8040:	e4dfa06f          	j	2e8c <.L2043>

00008044 <.L2027>:
    8044:	01c51c03          	lh	s8,28(a0)
    8048:	03400b93          	li	s7,52
    804c:	018bc463          	blt	s7,s8,8054 <.L2028>
    8050:	de5fa06f          	j	2e34 <.L2021>

00008054 <.L2028>:
    8054:	00815b83          	lhu	s7,8(sp)
    8058:	005b8b93          	addi	s7,s7,5
    805c:	01711423          	sh	s7,8(sp)
    8060:	dd5fa06f          	j	2e34 <.L2021>

00008064 <.L2026>:
    8064:	21200b93          	li	s7,530
    8068:	006bd463          	bge	s7,t1,8070 <.L2026+0xc>
    806c:	3540206f          	j	a3c0 <.L2042>
    8070:	00a15b83          	lhu	s7,10(sp)
    8074:	ff8b8b93          	addi	s7,s7,-8
    8078:	01711523          	sh	s7,10(sp)
    807c:	bc0fd06f          	j	543c <.L2037>

00008080 <.L2790>:
    8080:	0b900b93          	li	s7,185
    8084:	012bd463          	bge	s7,s2,808c <.L2790+0xc>
    8088:	cd5f906f          	j	1d5c <.L907>
    808c:	848f906f          	j	10d4 <.L2594>

00008090 <.L2016>:
    8090:	01600b93          	li	s7,22
    8094:	010bd463          	bge	s7,a6,809c <.L2016+0xc>
    8098:	2250106f          	j	9abc <.L2018>
    809c:	00e15b83          	lhu	s7,14(sp)
    80a0:	fffb8b93          	addi	s7,s7,-1
    80a4:	010b9b93          	slli	s7,s7,0x10
    80a8:	410bdb93          	srai	s7,s7,0x10
    80ac:	d61fa06f          	j	2e0c <.L2015>

000080b0 <.L2009>:
    80b0:	00c15b83          	lhu	s7,12(sp)
    80b4:	006b8b93          	addi	s7,s7,6
    80b8:	01711623          	sh	s7,12(sp)
    80bc:	d29fa06f          	j	2de4 <.L2010>

000080c0 <.L1876>:
    80c0:	ea700b93          	li	s7,-345
    80c4:	0172c463          	blt	t0,s7,80cc <.L1876+0xc>
    80c8:	aedfa06f          	j	2bb4 <.L1880>
    80cc:	00a15b83          	lhu	s7,10(sp)
    80d0:	007b8b93          	addi	s7,s7,7
    80d4:	01711523          	sh	s7,10(sp)
    80d8:	addfa06f          	j	2bb4 <.L1880>

000080dc <.L2878>:
    80dc:	3b500b93          	li	s7,949
    80e0:	00ebd463          	bge	s7,a4,80e8 <.L2878+0xc>
    80e4:	8ecfc06f          	j	41d0 <.L2004>
    80e8:	00a15b83          	lhu	s7,10(sp)
    80ec:	ff8b8b93          	addi	s7,s7,-8
    80f0:	01711523          	sh	s7,10(sp)
    80f4:	cc1fa06f          	j	2db4 <.L1999>

000080f8 <.L1589>:
    80f8:	00815c03          	lhu	s8,8(sp)
    80fc:	ff8c0c13          	addi	s8,s8,-8
    8100:	01811423          	sh	s8,8(sp)
    8104:	e94fa06f          	j	2798 <.L1584>

00008108 <.L1943>:
    8108:	04100b93          	li	s7,65
    810c:	00dbd463          	bge	s7,a3,8114 <.L1943+0xc>
    8110:	4fd0206f          	j	ae0c <.L1944>
    8114:	00815b83          	lhu	s7,8(sp)
    8118:	006b8b93          	addi	s7,s7,6
    811c:	01711423          	sh	s7,8(sp)
    8120:	bc5fa06f          	j	2ce4 <.L1941>

00008124 <.L1583>:
    8124:	e0d00c13          	li	s8,-499
    8128:	538ad863          	bge	s5,s8,8658 <.L1585>
    812c:	00815c03          	lhu	s8,8(sp)
    8130:	e2c00c93          	li	s9,-468
    8134:	ffbc0c13          	addi	s8,s8,-5
    8138:	01811423          	sh	s8,8(sp)
    813c:	0192d463          	bge	t0,s9,8144 <.L1586>
    8140:	c4dfb06f          	j	3d8c <.L1590>

00008144 <.L1586>:
    8144:	fff00b93          	li	s7,-1
    8148:	01765463          	bge	a2,s7,8150 <.L1586+0xc>
    814c:	1f80306f          	j	b344 <.L2930>
    8150:	00a15b83          	lhu	s7,10(sp)
    8154:	03c00c13          	li	s8,60
    8158:	004b8b93          	addi	s7,s7,4
    815c:	01711523          	sh	s7,10(sp)
    8160:	00fc5463          	bge	s8,a5,8168 <.L1586+0x24>
    8164:	e78fa06f          	j	27dc <.L1615>
    8168:	00f00b93          	li	s7,15
    816c:	030bc663          	blt	s7,a6,8198 <.L1616>

00008170 <.L1606>:
    8170:	f6300b93          	li	s7,-157
    8174:	0175c463          	blt	a1,s7,817c <.L1606+0xc>
    8178:	0ec0306f          	j	b264 <.L2931>
    817c:	00c15b83          	lhu	s7,12(sp)
    8180:	00300c13          	li	s8,3
    8184:	ffcb8b93          	addi	s7,s7,-4
    8188:	01711623          	sh	s7,12(sp)
    818c:	01cc4463          	blt	s8,t3,8194 <.L1606+0x24>
    8190:	c5dfb06f          	j	3dec <.L1621>
    8194:	89dfd06f          	j	5a30 <.L1620>

00008198 <.L1616>:
    8198:	00c15b83          	lhu	s7,12(sp)
    819c:	00300c13          	li	s8,3
    81a0:	ff9b8b93          	addi	s7,s7,-7
    81a4:	01711623          	sh	s7,12(sp)
    81a8:	01cc4463          	blt	s8,t3,81b0 <.L1616+0x18>
    81ac:	c41fb06f          	j	3dec <.L1621>
    81b0:	881fd06f          	j	5a30 <.L1620>

000081b4 <.L42>:
    81b4:	f4100e13          	li	t3,-191
    81b8:	01c2c463          	blt	t0,t3,81c0 <.L42+0xc>
    81bc:	0990106f          	j	9a54 <.L50>
    81c0:	00a15e03          	lhu	t3,10(sp)
    81c4:	014e0e13          	addi	t3,t3,20
    81c8:	010e1e13          	slli	t3,t3,0x10
    81cc:	410e5e13          	srai	t3,t3,0x10
    81d0:	fc9f706f          	j	198 <.L51>

000081d4 <.L2251>:
    81d4:	e1500713          	li	a4,-491
    81d8:	00e45463          	bge	s0,a4,81e0 <.L2251+0xc>
    81dc:	830fb06f          	j	320c <.L2250>
    81e0:	00e15703          	lhu	a4,14(sp)
    81e4:	ff770713          	addi	a4,a4,-9
    81e8:	00e11723          	sh	a4,14(sp)
    81ec:	820fb06f          	j	320c <.L2250>

000081f0 <.L1579>:
    81f0:	00e15c03          	lhu	s8,14(sp)
    81f4:	fffc0c13          	addi	s8,s8,-1
    81f8:	01811723          	sh	s8,14(sp)
    81fc:	d70fa06f          	j	276c <.L1580>

00008200 <.L1578>:
    8200:	00e15c03          	lhu	s8,14(sp)
    8204:	003c0c13          	addi	s8,s8,3
    8208:	01811723          	sh	s8,14(sp)
    820c:	d60fa06f          	j	276c <.L1580>

00008210 <.L1709>:
    8210:	01c51c03          	lh	s8,28(a0)
    8214:	03500b93          	li	s7,53
    8218:	018bd463          	bge	s7,s8,8220 <.L1709+0x10>
    821c:	50d0206f          	j	af28 <.L1720>
    8220:	00a15b83          	lhu	s7,10(sp)
    8224:	001b8b93          	addi	s7,s7,1
    8228:	010b9b93          	slli	s7,s7,0x10
    822c:	410bdb93          	srai	s7,s7,0x10
    8230:	ee4fa06f          	j	2914 <.L1721>

00008234 <.L1958>:
    8234:	4afbdae3          	bge	s7,a5,8ee8 <.L1950>
    8238:	daa00b93          	li	s7,-598
    823c:	017ad463          	bge	s5,s7,8244 <.L1958+0x10>
    8240:	7b00306f          	j	b9f0 <.L2932>
    8244:	f0000b93          	li	s7,-256
    8248:	0175c463          	blt	a1,s7,8250 <.L1986>
    824c:	7b00306f          	j	b9fc <.L2653>

00008250 <.L1986>:
    8250:	00c15b83          	lhu	s7,12(sp)
    8254:	05800c13          	li	s8,88
    8258:	ffab8b93          	addi	s7,s7,-6
    825c:	01711623          	sh	s7,12(sp)
    8260:	009c5463          	bge	s8,s1,8268 <.L1982>
    8264:	af5fa06f          	j	2d58 <.L1984>

00008268 <.L1982>:
    8268:	f5300b93          	li	s7,-173
    826c:	01744463          	blt	s0,s7,8274 <.L1982+0xc>
    8270:	b01fa06f          	j	2d70 <.L1968>
    8274:	00e15b83          	lhu	s7,14(sp)
    8278:	00eb8b93          	addi	s7,s7,14
    827c:	01711723          	sh	s7,14(sp)
    8280:	af1fa06f          	j	2d70 <.L1968>

00008284 <.L2324>:
    8284:	02a51883          	lh	a7,42(a0)

00008288 <.L58>:
    8288:	df800e13          	li	t3,-520
    828c:	01cac463          	blt	s5,t3,8294 <.L58+0xc>
    8290:	af8fe06f          	j	6588 <.L64>
    8294:	00c15e03          	lhu	t3,12(sp)
    8298:	016e0e13          	addi	t3,t3,22
    829c:	010e1e13          	slli	t3,t3,0x10
    82a0:	410e5e13          	srai	t3,t3,0x10
    82a4:	f29f706f          	j	1cc <.L65>

000082a8 <.L1973>:
    82a8:	03600b93          	li	s7,54
    82ac:	00fbd463          	bge	s7,a5,82b4 <.L1973+0xc>
    82b0:	6650306f          	j	c114 <.L1992>
    82b4:	00e15b83          	lhu	s7,14(sp)
    82b8:	16200c13          	li	s8,354
    82bc:	ff9b8b93          	addi	s7,s7,-7
    82c0:	01711723          	sh	s7,14(sp)
    82c4:	007c5463          	bge	s8,t2,82cc <.L1969>
    82c8:	87dfc06f          	j	4b44 <.L1995>

000082cc <.L1969>:
    82cc:	00815b83          	lhu	s7,8(sp)
    82d0:	02e00c13          	li	s8,46
    82d4:	ffeb8b93          	addi	s7,s7,-2
    82d8:	01711423          	sh	s7,8(sp)
    82dc:	01dc4463          	blt	s8,t4,82e4 <.L1969+0x18>
    82e0:	889fc06f          	j	4b68 <.L1993>
    82e4:	03900b93          	li	s7,57
    82e8:	01fbd463          	bge	s7,t6,82f0 <.L1998>
    82ec:	7580106f          	j	9a44 <.L2006>

000082f0 <.L1998>:
    82f0:	00e00b93          	li	s7,14
    82f4:	010bd463          	bge	s7,a6,82fc <.L1998+0xc>
    82f8:	889fc06f          	j	4b80 <.L2501>
    82fc:	00a15b83          	lhu	s7,10(sp)
    8300:	004b8b93          	addi	s7,s7,4
    8304:	01711523          	sh	s7,10(sp)
    8308:	aadfa06f          	j	2db4 <.L1999>

0000830c <.L206>:
    830c:	0fd00e13          	li	t3,253
    8310:	00de5463          	bge	t3,a3,8318 <.L206+0xc>
    8314:	1c10106f          	j	9cd4 <.L212>
    8318:	00815e03          	lhu	t3,8(sp)
    831c:	08000b93          	li	s7,128
    8320:	ff8e0e13          	addi	t3,t3,-8
    8324:	01c11423          	sh	t3,8(sp)
    8328:	00ebc463          	blt	s7,a4,8330 <.L206+0x24>
    832c:	b60f806f          	j	68c <.L215>
    8330:	bccfb06f          	j	36fc <.L2556>

00008334 <.L277>:
    8334:	bba00e13          	li	t3,-1094
    8338:	01c5c463          	blt	a1,t3,8340 <.L277+0xc>
    833c:	7440106f          	j	9a80 <.L279>
    8340:	00e15e03          	lhu	t3,14(sp)
    8344:	00de0e13          	addi	t3,t3,13
    8348:	010e1e13          	slli	t3,t3,0x10
    834c:	410e5e13          	srai	t3,t3,0x10
    8350:	bc0f806f          	j	710 <.L275>

00008354 <.L1581>:
    8354:	03600c13          	li	s8,54
    8358:	00fc5463          	bge	s8,a5,8360 <.L1581+0xc>
    835c:	c10fa06f          	j	276c <.L1580>
    8360:	00e15c03          	lhu	s8,14(sp)
    8364:	ff8c0c13          	addi	s8,s8,-8
    8368:	01811723          	sh	s8,14(sp)
    836c:	c00fa06f          	j	276c <.L1580>

00008370 <.L1888>:
    8370:	0fe00b93          	li	s7,254
    8374:	00dbd463          	bge	s7,a3,837c <.L1888+0xc>
    8378:	da5fc06f          	j	511c <.L1890>
    837c:	00c15b83          	lhu	s7,12(sp)
    8380:	05800c13          	li	s8,88
    8384:	ffcb8b93          	addi	s7,s7,-4
    8388:	01711623          	sh	s7,12(sp)
    838c:	009c5463          	bge	s8,s1,8394 <.L1891>
    8390:	da5fc06f          	j	5134 <.L1884>

00008394 <.L1891>:
    8394:	f5300b93          	li	s7,-173
    8398:	01744463          	blt	s0,s7,83a0 <.L1885>
    839c:	e50fc06f          	j	49ec <.L1899>

000083a0 <.L1885>:
    83a0:	00e15b83          	lhu	s7,14(sp)
    83a4:	010b8b93          	addi	s7,s7,16
    83a8:	010b9b93          	slli	s7,s7,0x10
    83ac:	410bdb93          	srai	s7,s7,0x10
    83b0:	851fa06f          	j	2c00 <.L1897>

000083b4 <.L1558>:
    83b4:	00a15b83          	lhu	s7,10(sp)
    83b8:	10b00c13          	li	s8,267
    83bc:	005b8b93          	addi	s7,s7,5
    83c0:	01711523          	sh	s7,10(sp)
    83c4:	fadc5863          	bge	s8,a3,7b74 <.L1560>

000083c8 <.L2631>:
    83c8:	e8500b93          	li	s7,-379
    83cc:	037acc63          	blt	s5,s7,8404 <.L1572>

000083d0 <.L1569>:
    83d0:	00c15b83          	lhu	s7,12(sp)
    83d4:	ff6b8b93          	addi	s7,s7,-10
    83d8:	010b9b93          	slli	s7,s7,0x10
    83dc:	410bdb93          	srai	s7,s7,0x10
    83e0:	b58fa06f          	j	2738 <.L1574>

000083e4 <.L1551>:
    83e4:	05500b93          	li	s7,85
    83e8:	009bd463          	bge	s7,s1,83f0 <.L1551+0xc>
    83ec:	1fd0206f          	j	ade8 <.L1554>
    83f0:	00815b83          	lhu	s7,8(sp)
    83f4:	ffeb8b93          	addi	s7,s7,-2
    83f8:	010b9b93          	slli	s7,s7,0x10
    83fc:	410bdb93          	srai	s7,s7,0x10
    8400:	ad0fa06f          	j	26d0 <.L1553>

00008404 <.L1572>:
    8404:	01c51c03          	lh	s8,28(a0)
    8408:	00300b93          	li	s7,3
    840c:	018bd463          	bge	s7,s8,8414 <.L1572+0x10>
    8410:	79c0106f          	j	9bac <.L2933>
    8414:	00c15b83          	lhu	s7,12(sp)
    8418:	ffcb8b93          	addi	s7,s7,-4
    841c:	010b9b93          	slli	s7,s7,0x10
    8420:	410bdb93          	srai	s7,s7,0x10
    8424:	b14fa06f          	j	2738 <.L1574>

00008428 <.L2883>:
    8428:	00c15b83          	lhu	s7,12(sp)
    842c:	02700c13          	li	s8,39
    8430:	ffbb8b93          	addi	s7,s7,-5
    8434:	01711623          	sh	s7,12(sp)
    8438:	007c5463          	bge	s8,t2,8440 <.L1762>
    843c:	8c5fc06f          	j	4d00 <.L1763>

00008440 <.L1762>:
    8440:	00e15b83          	lhu	s7,14(sp)
    8444:	002b8b93          	addi	s7,s7,2
    8448:	01711723          	sh	s7,14(sp)
    844c:	dd4fa06f          	j	2a20 <.L1775>

00008450 <.L31>:
    8450:	00c51903          	lh	s2,12(a0)
    8454:	17c00893          	li	a7,380
    8458:	ff600813          	li	a6,-10
    845c:	0128c463          	blt	a7,s2,8464 <.L31+0x14>
    8460:	ed1f706f          	j	330 <.L32>
    8464:	00700813          	li	a6,7
    8468:	ec9f706f          	j	330 <.L32>

0000846c <.L668>:
    846c:	fda00b93          	li	s7,-38
    8470:	01774463          	blt	a4,s7,8478 <.L668+0xc>
    8474:	00d0106f          	j	9c80 <.L671>
    8478:	00c15b83          	lhu	s7,12(sp)
    847c:	004b8b93          	addi	s7,s7,4
    8480:	01711623          	sh	s7,12(sp)
    8484:	8c1f806f          	j	d44 <.L670>

00008488 <.L145>:
    8488:	00d00e13          	li	t3,13
    848c:	013e5463          	bge	t3,s3,8494 <.L145+0xc>
    8490:	ad9fe06f          	j	6f68 <.L146>
    8494:	00815e03          	lhu	t3,8(sp)
    8498:	ffde0e13          	addi	t3,t3,-3
    849c:	010e1e13          	slli	t3,t3,0x10
    84a0:	410e5e13          	srai	t3,t3,0x10
    84a4:	94cf806f          	j	5f0 <.L147>

000084a8 <.L1915>:
    84a8:	00a15b83          	lhu	s7,10(sp)
    84ac:	fffb8b93          	addi	s7,s7,-1
    84b0:	01711523          	sh	s7,10(sp)
    84b4:	f9cfa06f          	j	2c50 <.L1914>

000084b8 <.L1135>:
    84b8:	00200b93          	li	s7,2
    84bc:	01cbd463          	bge	s7,t3,84c4 <.L1135+0xc>
    84c0:	1800106f          	j	9640 <.L1137>
    84c4:	00a15b83          	lhu	s7,10(sp)
    84c8:	004b8b93          	addi	s7,s7,4
    84cc:	010b9b93          	slli	s7,s7,0x10
    84d0:	410bdb93          	srai	s7,s7,0x10
    84d4:	f89f806f          	j	145c <.L1133>

000084d8 <.L1727>:
    84d8:	f6e00b93          	li	s7,-146
    84dc:	0175c463          	blt	a1,s7,84e4 <.L1727+0xc>
    84e0:	1110106f          	j	9df0 <.L1732>
    84e4:	00c15b83          	lhu	s7,12(sp)
    84e8:	ff8b8b93          	addi	s7,s7,-8
    84ec:	010b9b93          	slli	s7,s7,0x10
    84f0:	010bdb93          	srli	s7,s7,0x10
    84f4:	01711623          	sh	s7,12(sp)
    84f8:	c4cfa06f          	j	2944 <.L1731>

000084fc <.L2766>:
    84fc:	00c15b83          	lhu	s7,12(sp)
    8500:	0d800c13          	li	s8,216
    8504:	005b8b93          	addi	s7,s7,5
    8508:	01711623          	sh	s7,12(sp)
    850c:	012c5463          	bge	s8,s2,8514 <.L1194>
    8510:	84cf906f          	j	155c <.L1195>

00008514 <.L1194>:
    8514:	0cc00b93          	li	s7,204
    8518:	006bc463          	blt	s7,t1,8520 <.L1194+0xc>
    851c:	ce9f906f          	j	2204 <.L1201>
    8520:	00e15b83          	lhu	s7,14(sp)
    8524:	ff9b8b93          	addi	s7,s7,-7
    8528:	01711723          	sh	s7,14(sp)
    852c:	cd9f906f          	j	2204 <.L1201>

00008530 <.L373>:
    8530:	ac400b93          	li	s7,-1340
    8534:	0175c463          	blt	a1,s7,853c <.L373+0xc>
    8538:	911fe06f          	j	6e48 <.L370>
    853c:	00e15b83          	lhu	s7,14(sp)
    8540:	00db8b93          	addi	s7,s7,13
    8544:	010b9b93          	slli	s7,s7,0x10
    8548:	410bdb93          	srai	s7,s7,0x10
    854c:	b30f806f          	j	87c <.L375>

00008550 <.L404>:
    8550:	00c15b83          	lhu	s7,12(sp)
    8554:	03b00c13          	li	s8,59
    8558:	ff7b8b93          	addi	s7,s7,-9
    855c:	01711623          	sh	s7,12(sp)
    8560:	00fc5463          	bge	s8,a5,8568 <.L405>
    8564:	b80fe06f          	j	68e4 <.L2568>

00008568 <.L405>:
    8568:	03800b93          	li	s7,56
    856c:	01fbc463          	blt	s7,t6,8574 <.L405+0xc>
    8570:	b7cfe06f          	j	68ec <.L406>
    8574:	00e15b83          	lhu	s7,14(sp)
    8578:	ff6b8b93          	addi	s7,s7,-10
    857c:	010b9b93          	slli	s7,s7,0x10
    8580:	410bdb93          	srai	s7,s7,0x10
    8584:	bb8f806f          	j	93c <.L412>

00008588 <.L864>:
    8588:	00815b83          	lhu	s7,8(sp)
    858c:	fffb8b93          	addi	s7,s7,-1
    8590:	01711423          	sh	s7,8(sp)
    8594:	aa1f806f          	j	1034 <.L859>

00008598 <.L1416>:
    8598:	00e15b83          	lhu	s7,14(sp)
    859c:	003b8b93          	addi	s7,s7,3
    85a0:	01711723          	sh	s7,14(sp)
    85a4:	f01f906f          	j	24a4 <.L1411>

000085a8 <.L422>:
    85a8:	00815b83          	lhu	s7,8(sp)
    85ac:	ff6b8b93          	addi	s7,s7,-10
    85b0:	010b9b93          	slli	s7,s7,0x10
    85b4:	410bdb93          	srai	s7,s7,0x10
    85b8:	bc0f806f          	j	978 <.L420>

000085bc <.L2084>:
    85bc:	00a15b03          	lhu	s6,10(sp)
    85c0:	02700b93          	li	s7,39
    85c4:	004b0b13          	addi	s6,s6,4
    85c8:	01611523          	sh	s6,10(sp)
    85cc:	046bd663          	bge	s7,t1,8618 <.L2085>

000085d0 <.L2512>:
    85d0:	ecb00b13          	li	s6,-309
    85d4:	016ad463          	bge	s5,s6,85dc <.L2081>
    85d8:	d61fb06f          	j	4338 <.L2087>

000085dc <.L2081>:
    85dc:	00900b13          	li	s6,9
    85e0:	01db5463          	bge	s6,t4,85e8 <.L2081+0xc>
    85e4:	6840206f          	j	ac68 <.L2093>
    85e8:	00c15b03          	lhu	s6,12(sp)
    85ec:	005b0b13          	addi	s6,s6,5
    85f0:	010b1b13          	slli	s6,s6,0x10
    85f4:	410b5b13          	srai	s6,s6,0x10
    85f8:	949fa06f          	j	2f40 <.L2082>

000085fc <.L2078>:
    85fc:	ffe00b13          	li	s6,-2
    8600:	fb685ee3          	bge	a6,s6,85bc <.L2084>
    8604:	00a15b03          	lhu	s6,10(sp)
    8608:	02700b93          	li	s7,39
    860c:	ffab0b13          	addi	s6,s6,-6
    8610:	01611523          	sh	s6,10(sp)
    8614:	fa6bcee3          	blt	s7,t1,85d0 <.L2512>

00008618 <.L2085>:
    8618:	0c100b13          	li	s6,193
    861c:	009b4463          	blt	s6,s1,8624 <.L2085+0xc>
    8620:	911fa06f          	j	2f30 <.L2092>
    8624:	00c15b03          	lhu	s6,12(sp)
    8628:	00db0b13          	addi	s6,s6,13
    862c:	010b1b13          	slli	s6,s6,0x10
    8630:	410b5b13          	srai	s6,s6,0x10
    8634:	90dfa06f          	j	2f40 <.L2082>

00008638 <.L586>:
    8638:	ea900b93          	li	s7,-343
    863c:	7f72d6e3          	bge	t0,s7,9628 <.L608>
    8640:	00e15b83          	lhu	s7,14(sp)
    8644:	ffab8b93          	addi	s7,s7,-6
    8648:	010b9b93          	slli	s7,s7,0x10
    864c:	010bdb93          	srli	s7,s7,0x10
    8650:	01711723          	sh	s7,14(sp)
    8654:	dd8f806f          	j	c2c <.L607>

00008658 <.L1585>:
    8658:	00815b83          	lhu	s7,8(sp)
    865c:	e2c00c13          	li	s8,-468
    8660:	009b8b93          	addi	s7,s7,9
    8664:	01711423          	sh	s7,8(sp)
    8668:	ad82dee3          	bge	t0,s8,8144 <.L1586>

0000866c <.L1588>:
    866c:	16900b93          	li	s7,361
    8670:	7febc0e3          	blt	s7,t5,9650 <.L1608>
    8674:	00a15b83          	lhu	s7,10(sp)
    8678:	03c00c13          	li	s8,60
    867c:	fffb8b93          	addi	s7,s7,-1
    8680:	01711523          	sh	s7,10(sp)
    8684:	00fc4463          	blt	s8,a5,868c <.L2711>
    8688:	b78fd06f          	j	5a00 <.L1604>

0000868c <.L2711>:
    868c:	ec100b93          	li	s7,-319
    8690:	01745463          	bge	s0,s7,8698 <.L2711+0xc>
    8694:	5e80206f          	j	ac7c <.L1594>
    8698:	00c15b83          	lhu	s7,12(sp)
    869c:	00300c13          	li	s8,3
    86a0:	006b8b93          	addi	s7,s7,6
    86a4:	01711623          	sh	s7,12(sp)
    86a8:	11cc42e3          	blt	s8,t3,8fac <.L1596>

000086ac <.L1595>:
    86ac:	0c100b93          	li	s7,193
    86b0:	012bc463          	blt	s7,s2,86b8 <.L1595+0xc>
    86b4:	958fa06f          	j	280c <.L1635>
    86b8:	00e15b83          	lhu	s7,14(sp)
    86bc:	007b8b93          	addi	s7,s7,7
    86c0:	01711723          	sh	s7,14(sp)
    86c4:	f40fb06f          	j	3e04 <.L1628>

000086c8 <.L946>:
    86c8:	01c51c03          	lh	s8,28(a0)
    86cc:	01900b93          	li	s7,25
    86d0:	018bc463          	blt	s7,s8,86d8 <.L946+0x10>
    86d4:	fe8fe06f          	j	6ebc <.L952>
    86d8:	00815b83          	lhu	s7,8(sp)
    86dc:	00db8b93          	addi	s7,s7,13
    86e0:	010b9b93          	slli	s7,s7,0x10
    86e4:	410bdb93          	srai	s7,s7,0x10
    86e8:	f38f906f          	j	1e20 <.L948>

000086ec <.L2127>:
    86ec:	ff800b13          	li	s6,-8
    86f0:	01694463          	blt	s2,s6,86f8 <.L2127+0xc>
    86f4:	33c0106f          	j	9a30 <.L2139>
    86f8:	00e15b03          	lhu	s6,14(sp)
    86fc:	00400b93          	li	s7,4
    8700:	ffcb0b13          	addi	s6,s6,-4
    8704:	01611723          	sh	s6,14(sp)
    8708:	011bd463          	bge	s7,a7,8710 <.L2132>
    870c:	c6dfc06f          	j	5378 <.L2140>

00008710 <.L2132>:
    8710:	00815b03          	lhu	s6,8(sp)
    8714:	03b00b93          	li	s7,59
    8718:	008b0b13          	addi	s6,s6,8
    871c:	01611423          	sh	s6,8(sp)
    8720:	00fbc463          	blt	s7,a5,8728 <.L2132+0x18>
    8724:	81cfd06f          	j	5740 <.L2141>
    8728:	b98fb06f          	j	3ac0 <.L2146>

0000872c <.L94>:
    872c:	f1900e13          	li	t3,-231
    8730:	01cac463          	blt	s5,t3,8738 <.L94+0xc>
    8734:	0dd0106f          	j	a010 <.L99>
    8738:	00a15e03          	lhu	t3,10(sp)
    873c:	31a00b93          	li	s7,794
    8740:	012e0e13          	addi	t3,t3,18
    8744:	01c11523          	sh	t3,10(sp)
    8748:	00dbd463          	bge	s7,a3,8750 <.L96>
    874c:	d01f706f          	j	44c <.L2349>

00008750 <.L96>:
    8750:	ea700e13          	li	t3,-345
    8754:	01ca4463          	blt	s4,t3,875c <.L96+0xc>
    8758:	d08fd06f          	j	5c60 <.L105>
    875c:	11d00e13          	li	t3,285
    8760:	12ee4ee3          	blt	t3,a4,909c <.L104>
    8764:	00c15e03          	lhu	t3,12(sp)
    8768:	005e0e13          	addi	t3,t3,5
    876c:	010e1e13          	slli	t3,t3,0x10
    8770:	410e5e13          	srai	t3,t3,0x10
    8774:	cf5f706f          	j	468 <.L120>

00008778 <.L2346>:
    8778:	4ae00e13          	li	t3,1198
    877c:	02651383          	lh	t2,38(a0)
    8780:	0ede5ee3          	bge	t3,a3,907c <.L91>

00008784 <.L92>:
    8784:	00001e37          	lui	t3,0x1
    8788:	9f8e0e13          	addi	t3,t3,-1544 # 9f8 <.L446+0x14>
    878c:	00ee5463          	bge	t3,a4,8794 <.L92+0x10>
    8790:	7ec0106f          	j	9f7c <.L110>
    8794:	00a15e03          	lhu	t3,10(sp)
    8798:	31a00b93          	li	s7,794
    879c:	ff6e0e13          	addi	t3,t3,-10
    87a0:	01c11523          	sh	t3,10(sp)
    87a4:	0edbd6e3          	bge	s7,a3,9090 <.L111>

000087a8 <.L2351>:
    87a8:	e4e00e13          	li	t3,-434
    87ac:	01cac463          	blt	s5,t3,87b4 <.L2351+0xc>
    87b0:	7ec0106f          	j	9f9c <.L107>
    87b4:	6c100e13          	li	t3,1729
    87b8:	00ee4463          	blt	t3,a4,87c0 <.L114>
    87bc:	c9df706f          	j	458 <.L119>

000087c0 <.L114>:
    87c0:	00c15e03          	lhu	t3,12(sp)
    87c4:	03d00b93          	li	s7,61
    87c8:	fffe0e13          	addi	t3,t3,-1
    87cc:	01c11623          	sh	t3,12(sp)
    87d0:	00fbd463          	bge	s7,a5,87d8 <.L128>
    87d4:	ca5f706f          	j	478 <.L121>

000087d8 <.L128>:
    87d8:	d8200e13          	li	t3,-638
    87dc:	01c5c463          	blt	a1,t3,87e4 <.L122>
    87e0:	acdfd06f          	j	62ac <.L123>

000087e4 <.L122>:
    87e4:	00e15e03          	lhu	t3,14(sp)
    87e8:	ffae0e13          	addi	t3,t3,-6
    87ec:	010e1e13          	slli	t3,t3,0x10
    87f0:	410e5e13          	srai	t3,t3,0x10
    87f4:	ca9f706f          	j	49c <.L129>

000087f8 <.L18>:
    87f8:	02851e83          	lh	t4,40(a0)
    87fc:	06a00793          	li	a5,106
    8800:	00651a83          	lh	s5,6(a0)
    8804:	01d7d463          	bge	a5,t4,880c <.L18+0x14>
    8808:	4a10106f          	j	a4a8 <.L23>
    880c:	ff400793          	li	a5,-12
    8810:	00f11523          	sh	a5,10(sp)
    8814:	d5c00613          	li	a2,-676
    8818:	00cad463          	bge	s5,a2,8820 <.L18+0x28>
    881c:	68d0206f          	j	b6a8 <.L24>
    8820:	01851603          	lh	a2,24(a0)
    8824:	01251483          	lh	s1,18(a0)
    8828:	01051b03          	lh	s6,16(a0)

0000882c <.L20>:
    882c:	ea700793          	li	a5,-345
    8830:	06fa5463          	bge	s4,a5,8898 <.L29>
    8834:	ff700593          	li	a1,-9
    8838:	01451283          	lh	t0,20(a0)
    883c:	00b65463          	bge	a2,a1,8844 <.L28>
    8840:	00600593          	li	a1,6

00008844 <.L28>:
    8844:	00051783          	lh	a5,0(a0)
    8848:	00b11623          	sh	a1,12(sp)
    884c:	03e00593          	li	a1,62
    8850:	00f5c463          	blt	a1,a5,8858 <.L28+0x14>
    8854:	ab9f706f          	j	30c <.L26>
    8858:	d8400593          	li	a1,-636
    885c:	00bad463          	bge	s5,a1,8864 <.L28+0x20>
    8860:	8b9f706f          	j	118 <.L27>
    8864:	01e51583          	lh	a1,30(a0)
    8868:	00c51903          	lh	s2,12(a0)
    886c:	02600813          	li	a6,38
    8870:	ac1f706f          	j	330 <.L32>

00008874 <.L15>:
    8874:	ff600793          	li	a5,-10
    8878:	00f11523          	sh	a5,10(sp)

0000887c <.L17>:
    887c:	ea700793          	li	a5,-345
    8880:	00fa5463          	bge	s4,a5,8888 <.L17+0xc>
    8884:	6240306f          	j	bea8 <.L2296>
    8888:	01251483          	lh	s1,18(a0)
    888c:	00a51683          	lh	a3,10(a0)
    8890:	01051b03          	lh	s6,16(a0)
    8894:	02851e83          	lh	t4,40(a0)

00008898 <.L29>:
    8898:	01451283          	lh	t0,20(a0)
    889c:	ef52a593          	slti	a1,t0,-267
    88a0:	40b005b3          	neg	a1,a1
    88a4:	0055f593          	andi	a1,a1,5
    88a8:	ff458593          	addi	a1,a1,-12
    88ac:	f99ff06f          	j	8844 <.L28>

000088b0 <.L708>:
    88b0:	00c15b83          	lhu	s7,12(sp)
    88b4:	00eb8b93          	addi	s7,s7,14
    88b8:	010b9b93          	slli	s7,s7,0x10
    88bc:	410bdb93          	srai	s7,s7,0x10
    88c0:	d4cf806f          	j	e0c <.L706>

000088c4 <.L711>:
    88c4:	06200b93          	li	s7,98
    88c8:	016bd463          	bge	s7,s6,88d0 <.L711+0xc>
    88cc:	2d10106f          	j	a39c <.L721>
    88d0:	00e15b83          	lhu	s7,14(sp)
    88d4:	fffb8b93          	addi	s7,s7,-1
    88d8:	01711723          	sh	s7,14(sp)
    88dc:	9a4f906f          	j	1a80 <.L722>

000088e0 <.L1738>:
    88e0:	f6900b93          	li	s7,-151
    88e4:	01744463          	blt	s0,s7,88ec <.L1748>
    88e8:	921fc06f          	j	5208 <.L2645>

000088ec <.L1748>:
    88ec:	00e15b83          	lhu	s7,14(sp)
    88f0:	009b8b93          	addi	s7,s7,9
    88f4:	010b9b93          	slli	s7,s7,0x10
    88f8:	410bdb93          	srai	s7,s7,0x10
    88fc:	91dfc06f          	j	5218 <.L1744>

00008900 <.L2011>:
    8900:	e7600b93          	li	s7,-394
    8904:	0175d463          	bge	a1,s7,890c <.L2011+0xc>
    8908:	cdcfa06f          	j	2de4 <.L2010>
    890c:	00c15b83          	lhu	s7,12(sp)
    8910:	ff7b8b93          	addi	s7,s7,-9
    8914:	01711623          	sh	s7,12(sp)
    8918:	cccfa06f          	j	2de4 <.L2010>

0000891c <.L2008>:
    891c:	ef800b93          	li	s7,-264
    8920:	f97a4863          	blt	s4,s7,80b0 <.L2009>
    8924:	00c15b83          	lhu	s7,12(sp)
    8928:	ff9b8b93          	addi	s7,s7,-7
    892c:	01711623          	sh	s7,12(sp)
    8930:	cb4fa06f          	j	2de4 <.L2010>

00008934 <.L808>:
    8934:	eb900b93          	li	s7,-327
    8938:	017a4463          	blt	s4,s7,8940 <.L808+0xc>
    893c:	01c0106f          	j	9958 <.L811>
    8940:	00c15b83          	lhu	s7,12(sp)
    8944:	001b8b93          	addi	s7,s7,1
    8948:	010b9b93          	slli	s7,s7,0x10
    894c:	410bdb93          	srai	s7,s7,0x10
    8950:	a80f906f          	j	1bd0 <.L810>

00008954 <.L1214>:
    8954:	00815b83          	lhu	s7,8(sp)
    8958:	03500c13          	li	s8,53
    895c:	001b8b93          	addi	s7,s7,1
    8960:	01711423          	sh	s7,8(sp)
    8964:	00ec4463          	blt	s8,a4,896c <.L1214+0x18>
    8968:	c49f806f          	j	15b0 <.L1215>
    896c:	0e100b93          	li	s7,225
    8970:	64dbcc63          	blt	s7,a3,8fc8 <.L1223>

00008974 <.L1222>:
    8974:	00a15b83          	lhu	s7,10(sp)
    8978:	0c100c13          	li	s8,193
    897c:	004b8b93          	addi	s7,s7,4
    8980:	01711523          	sh	s7,10(sp)
    8984:	009c4463          	blt	s8,s1,898c <.L1222+0x18>
    8988:	c51f806f          	j	15d8 <.L1228>
    898c:	8d9f906f          	j	2264 <.L2607>

00008990 <.L1841>:
    8990:	ddc00b93          	li	s7,-548
    8994:	017a4463          	blt	s4,s7,899c <.L1841+0xc>
    8998:	3fc0106f          	j	9d94 <.L1844>
    899c:	00a15b83          	lhu	s7,10(sp)
    89a0:	ffbb8b93          	addi	s7,s7,-5
    89a4:	010b9b93          	slli	s7,s7,0x10
    89a8:	410bdb93          	srai	s7,s7,0x10
    89ac:	01711523          	sh	s7,10(sp)
    89b0:	f89fb06f          	j	4938 <.L2882>

000089b4 <.L1758>:
    89b4:	00a15b83          	lhu	s7,10(sp)
    89b8:	f9800c13          	li	s8,-104
    89bc:	004b8b93          	addi	s7,s7,4
    89c0:	01711523          	sh	s7,10(sp)
    89c4:	01844463          	blt	s0,s8,89cc <.L1758+0x18>
    89c8:	b14fc06f          	j	4cdc <.L1759>
    89cc:	f6600b93          	li	s7,-154
    89d0:	01745463          	bge	s0,s7,89d8 <.L1760>
    89d4:	14c0306f          	j	bb20 <.L2934>

000089d8 <.L1760>:
    89d8:	01a00b93          	li	s7,26
    89dc:	013bd463          	bge	s7,s3,89e4 <.L1760+0xc>
    89e0:	1180106f          	j	9af8 <.L1771>
    89e4:	00c15b83          	lhu	s7,12(sp)
    89e8:	ff8b8b93          	addi	s7,s7,-8
    89ec:	01711623          	sh	s7,12(sp)
    89f0:	800fa06f          	j	29f0 <.L1770>

000089f4 <.L1754>:
    89f4:	12800b93          	li	s7,296
    89f8:	009bd463          	bge	s7,s1,8a00 <.L1754+0xc>
    89fc:	fc9f906f          	j	29c4 <.L1756>
    8a00:	00a15b83          	lhu	s7,10(sp)
    8a04:	ff9b8b93          	addi	s7,s7,-7
    8a08:	01711523          	sh	s7,10(sp)
    8a0c:	fb9f906f          	j	29c4 <.L1756>

00008a10 <.L1434>:
    8a10:	00e00b93          	li	s7,14
    8a14:	010bd463          	bge	s7,a6,8a1c <.L1434+0xc>
    8a18:	0f00106f          	j	9b08 <.L1436>
    8a1c:	00c15b83          	lhu	s7,12(sp)
    8a20:	ffeb8b93          	addi	s7,s7,-2
    8a24:	01711623          	sh	s7,12(sp)
    8a28:	afdf906f          	j	2524 <.L1435>

00008a2c <.L1446>:
    8a2c:	00e15b83          	lhu	s7,14(sp)
    8a30:	ff800c13          	li	s8,-8
    8a34:	ff6b8b93          	addi	s7,s7,-10
    8a38:	01711723          	sh	s7,14(sp)
    8a3c:	01864463          	blt	a2,s8,8a44 <.L1448>
    8a40:	9acfd06f          	j	5bec <.L1449>

00008a44 <.L1448>:
    8a44:	00815b83          	lhu	s7,8(sp)
    8a48:	f8b00c13          	li	s8,-117
    8a4c:	ffeb8b93          	addi	s7,s7,-2
    8a50:	01711423          	sh	s7,8(sp)
    8a54:	0185d463          	bge	a1,s8,8a5c <.L1486>
    8a58:	bd9fe06f          	j	7630 <.L1471>

00008a5c <.L1486>:
    8a5c:	00a15b83          	lhu	s7,10(sp)
    8a60:	ff8b8b93          	addi	s7,s7,-8
    8a64:	010b9b93          	slli	s7,s7,0x10
    8a68:	410bdb93          	srai	s7,s7,0x10
    8a6c:	9c8fd06f          	j	5c34 <.L1472>

00008a70 <.L2951>:
    8a70:	e9b00b93          	li	s7,-357
    8a74:	017ad463          	bge	s5,s7,8a7c <.L622>
    8a78:	1080306f          	j	bb80 <.L2935>

00008a7c <.L622>:
    8a7c:	01000b93          	li	s7,16
    8a80:	01dbd463          	bge	s7,t4,8a88 <.L622+0xc>
    8a84:	4b10106f          	j	a734 <.L644>
    8a88:	00c15b83          	lhu	s7,12(sp)
    8a8c:	007b8b93          	addi	s7,s7,7
    8a90:	010b9b93          	slli	s7,s7,0x10
    8a94:	410bdb93          	srai	s7,s7,0x10
    8a98:	bfdfd06f          	j	6694 <.L623>

00008a9c <.L1058>:
    8a9c:	00c15c03          	lhu	s8,12(sp)
    8aa0:	02f00c93          	li	s9,47
    8aa4:	ffbc0c13          	addi	s8,s8,-5
    8aa8:	01811623          	sh	s8,12(sp)
    8aac:	010cc463          	blt	s9,a6,8ab4 <.L1058+0x18>
    8ab0:	b05fa06f          	j	35b4 <.L2730>
    8ab4:	e1900b93          	li	s7,-487
    8ab8:	017a5463          	bge	s4,s7,8ac0 <.L1058+0x24>
    8abc:	2ac0306f          	j	bd68 <.L1071>
    8ac0:	00e15b83          	lhu	s7,14(sp)
    8ac4:	00300c13          	li	s8,3
    8ac8:	008b8b93          	addi	s7,s7,8
    8acc:	01711723          	sh	s7,14(sp)
    8ad0:	00dc5463          	bge	s8,a3,8ad8 <.L1072>
    8ad4:	5e10106f          	j	a8b4 <.L1073>

00008ad8 <.L1072>:
    8ad8:	00815b83          	lhu	s7,8(sp)
    8adc:	30000c13          	li	s8,768
    8ae0:	003b8b93          	addi	s7,s7,3
    8ae4:	01711423          	sh	s7,8(sp)
    8ae8:	01ec5463          	bge	s8,t5,8af0 <.L1096>
    8aec:	d38f906f          	j	2024 <.L1095>

00008af0 <.L1096>:
    8af0:	ea900b93          	li	s7,-343
    8af4:	0172c463          	blt	t0,s7,8afc <.L1096+0xc>
    8af8:	0800106f          	j	9b78 <.L1098>
    8afc:	00a15b83          	lhu	s7,10(sp)
    8b00:	007b8b93          	addi	s7,s7,7
    8b04:	01711523          	sh	s7,10(sp)
    8b08:	899f806f          	j	13a0 <.L1097>

00008b0c <.L1245>:
    8b0c:	00e15b83          	lhu	s7,14(sp)
    8b10:	01500c13          	li	s8,21
    8b14:	ff8b8b93          	addi	s7,s7,-8
    8b18:	01711723          	sh	s7,14(sp)
    8b1c:	007c4463          	blt	s8,t2,8b24 <.L1245+0x18>
    8b20:	aedfb06f          	j	460c <.L1254>
    8b24:	11d00b93          	li	s7,285
    8b28:	7a7bc663          	blt	s7,t2,92d4 <.L1256>

00008b2c <.L1255>:
    8b2c:	00815b83          	lhu	s7,8(sp)
    8b30:	ffdb8b93          	addi	s7,s7,-3
    8b34:	010b9b93          	slli	s7,s7,0x10
    8b38:	410bdb93          	srai	s7,s7,0x10
    8b3c:	aedfb06f          	j	4628 <.L1253>

00008b40 <.L1387>:
    8b40:	00a15b83          	lhu	s7,10(sp)
    8b44:	00100c13          	li	s8,1
    8b48:	007b8b93          	addi	s7,s7,7
    8b4c:	01711523          	sh	s7,10(sp)
    8b50:	01cc5463          	bge	s8,t3,8b58 <.L1395>
    8b54:	8fdf906f          	j	2450 <.L1396>

00008b58 <.L1395>:
    8b58:	00c15b83          	lhu	s7,12(sp)
    8b5c:	ff7b8b93          	addi	s7,s7,-9
    8b60:	01711623          	sh	s7,12(sp)
    8b64:	c10fb06f          	j	3f74 <.L1394>

00008b68 <.L1150>:
    8b68:	00e15b83          	lhu	s7,14(sp)
    8b6c:	01f00c13          	li	s8,31
    8b70:	009b8b93          	addi	s7,s7,9
    8b74:	01711723          	sh	s7,14(sp)
    8b78:	013c5463          	bge	s8,s3,8b80 <.L1153>
    8b7c:	d01fb06f          	j	487c <.L1152>

00008b80 <.L1153>:
    8b80:	e2100b93          	li	s7,-479
    8b84:	0172c463          	blt	t0,s7,8b8c <.L1153+0xc>
    8b88:	3910206f          	j	b718 <.L1163>
    8b8c:	00815b83          	lhu	s7,8(sp)
    8b90:	1b900c13          	li	s8,441
    8b94:	ff7b8b93          	addi	s7,s7,-9
    8b98:	01711423          	sh	s7,8(sp)
    8b9c:	01ec4463          	blt	s8,t5,8ba4 <.L1153+0x24>
    8ba0:	d15fb06f          	j	48b4 <.L1164>
    8ba4:	dd4f906f          	j	2178 <.L1162>

00008ba8 <.L815>:
    8ba8:	f5100b93          	li	s7,-175
    8bac:	017ac463          	blt	s5,s7,8bb4 <.L815+0xc>
    8bb0:	dd0fc06f          	j	5180 <.L821>
    8bb4:	00e15b83          	lhu	s7,14(sp)
    8bb8:	ffab8b93          	addi	s7,s7,-6
    8bbc:	010b9b93          	slli	s7,s7,0x10
    8bc0:	410bdb93          	srai	s7,s7,0x10
    8bc4:	b9cf806f          	j	f60 <.L820>

00008bc8 <.L1674>:
    8bc8:	03900b93          	li	s7,57
    8bcc:	1bfbd0e3          	bge	s7,t6,956c <.L1667>
    8bd0:	03d00b93          	li	s7,61
    8bd4:	00fbc463          	blt	s7,a5,8bdc <.L1674+0x14>
    8bd8:	f01fc06f          	j	5ad8 <.L1690>
    8bdc:	00100b93          	li	s7,1
    8be0:	01cbd463          	bge	s7,t3,8be8 <.L1694>
    8be4:	f0dfc06f          	j	5af0 <.L1692>

00008be8 <.L1694>:
    8be8:	01100b93          	li	s7,17
    8bec:	011bc463          	blt	s7,a7,8bf4 <.L1693>
    8bf0:	f91fd06f          	j	6b80 <.L1654>

00008bf4 <.L1693>:
    8bf4:	00c15b83          	lhu	s7,12(sp)
    8bf8:	ffab8b93          	addi	s7,s7,-6
    8bfc:	010b9b93          	slli	s7,s7,0x10
    8c00:	410bdb93          	srai	s7,s7,0x10
    8c04:	f09fc06f          	j	5b0c <.L1684>

00008c08 <.L2760>:
    8c08:	00e15b83          	lhu	s7,14(sp)
    8c0c:	ffe00c13          	li	s8,-2
    8c10:	009b8b93          	addi	s7,s7,9
    8c14:	01711723          	sh	s7,14(sp)
    8c18:	01884463          	blt	a6,s8,8c20 <.L776>
    8c1c:	abcfc06f          	j	4ed8 <.L2387>

00008c20 <.L776>:
    8c20:	0dd00b93          	li	s7,221
    8c24:	006bd463          	bge	s7,t1,8c2c <.L776+0xc>
    8c28:	5d80206f          	j	b200 <.L791>
    8c2c:	00815b83          	lhu	s7,8(sp)
    8c30:	03300c13          	li	s8,51
    8c34:	006b8b93          	addi	s7,s7,6
    8c38:	01711423          	sh	s7,8(sp)
    8c3c:	01fc4463          	blt	s8,t6,8c44 <.L776+0x24>
    8c40:	f3df806f          	j	1b7c <.L788>
    8c44:	9f4fc06f          	j	4e38 <.L789>

00008c48 <.L2756>:
    8c48:	01600b93          	li	s7,22
    8c4c:	011bd463          	bge	s7,a7,8c54 <.L2756+0xc>
    8c50:	abcfd06f          	j	5f0c <.L2576>
    8c54:	00815b83          	lhu	s7,8(sp)
    8c58:	00bb8b93          	addi	s7,s7,11
    8c5c:	010b9b93          	slli	s7,s7,0x10
    8c60:	410bdb93          	srai	s7,s7,0x10
    8c64:	f45f706f          	j	ba8 <.L552>

00008c68 <.L2245>:
    8c68:	1fa00693          	li	a3,506
    8c6c:	00e6d463          	bge	a3,a4,8c74 <.L2245+0xc>
    8c70:	6b50106f          	j	ab24 <.L2216>
    8c74:	00a15703          	lhu	a4,10(sp)
    8c78:	ffa70713          	addi	a4,a4,-6
    8c7c:	01071713          	slli	a4,a4,0x10
    8c80:	41075713          	srai	a4,a4,0x10
    8c84:	fa9fa06f          	j	3c2c <.L2247>

00008c88 <.L1035>:
    8c88:	00e15b83          	lhu	s7,14(sp)
    8c8c:	01f00c13          	li	s8,31
    8c90:	003b8b93          	addi	s7,s7,3
    8c94:	01711723          	sh	s7,14(sp)
    8c98:	013c4463          	blt	s8,s3,8ca0 <.L1035+0x18>
    8c9c:	df8fc06f          	j	5294 <.L1038>
    8ca0:	00600b93          	li	s7,6
    8ca4:	011bc463          	blt	s7,a7,8cac <.L1035+0x24>
    8ca8:	0b00306f          	j	bd58 <.L1039>
    8cac:	00815b83          	lhu	s7,8(sp)
    8cb0:	03100c13          	li	s8,49
    8cb4:	ff7b8b93          	addi	s7,s7,-9
    8cb8:	01711423          	sh	s7,8(sp)
    8cbc:	01fc4463          	blt	s8,t6,8cc4 <.L1040>
    8cc0:	d80fd06f          	j	6240 <.L1044>

00008cc4 <.L1040>:
    8cc4:	00b00b93          	li	s7,11
    8cc8:	011bc463          	blt	s7,a7,8cd0 <.L1040+0xc>
    8ccc:	aa0f906f          	j	1f6c <.L1054>
    8cd0:	00a15b83          	lhu	s7,10(sp)
    8cd4:	ffcb8b93          	addi	s7,s7,-4
    8cd8:	010b9b93          	slli	s7,s7,0x10
    8cdc:	410bdb93          	srai	s7,s7,0x10
    8ce0:	e30f806f          	j	1310 <.L1045>

00008ce4 <.L2757>:
    8ce4:	ff400b93          	li	s7,-12
    8ce8:	01764463          	blt	a2,s7,8cf0 <.L2757+0xc>
    8cec:	5300206f          	j	b21c <.L569>
    8cf0:	00a15b83          	lhu	s7,10(sp)
    8cf4:	17000c13          	li	s8,368
    8cf8:	ff6b8b93          	addi	s7,s7,-10
    8cfc:	01711523          	sh	s7,10(sp)
    8d00:	00dc4463          	blt	s8,a3,8d08 <.L2288>
    8d04:	eddf706f          	j	be0 <.L563>

00008d08 <.L2288>:
    8d08:	3fa00b93          	li	s7,1018
    8d0c:	00ebd463          	bge	s7,a4,8d14 <.L571>
    8d10:	afdfc06f          	j	580c <.L572>

00008d14 <.L571>:
    8d14:	00c15b83          	lhu	s7,12(sp)
    8d18:	e0800c13          	li	s8,-504
    8d1c:	00ab8b93          	addi	s7,s7,10
    8d20:	01711623          	sh	s7,12(sp)
    8d24:	01845463          	bge	s0,s8,8d2c <.L571+0x18>
    8d28:	b09fc06f          	j	5830 <.L584>
    8d2c:	b2df806f          	j	1858 <.L2375>

00008d30 <.L885>:
    8d30:	01500b93          	li	s7,21
    8d34:	010bd463          	bge	s7,a6,8d3c <.L885+0xc>
    8d38:	f34fd06f          	j	646c <.L870>
    8d3c:	00c15b83          	lhu	s7,12(sp)
    8d40:	ffab8b93          	addi	s7,s7,-6
    8d44:	01711623          	sh	s7,12(sp)
    8d48:	f30fd06f          	j	6478 <.L886>

00008d4c <.L2817>:
    8d4c:	ed600b93          	li	s7,-298
    8d50:	0172c463          	blt	t0,s7,8d58 <.L2817+0xc>
    8d54:	7100206f          	j	b464 <.L2068>
    8d58:	00e15b83          	lhu	s7,14(sp)
    8d5c:	ffdb8b93          	addi	s7,s7,-3
    8d60:	010b9b93          	slli	s7,s7,0x10
    8d64:	410bdb93          	srai	s7,s7,0x10
    8d68:	958fa06f          	j	2ec0 <.L2058>

00008d6c <.L299>:
    8d6c:	1a600b93          	li	s7,422
    8d70:	009bc463          	blt	s7,s1,8d78 <.L299+0xc>
    8d74:	7440206f          	j	b4b8 <.L2936>
    8d78:	00a15b83          	lhu	s7,10(sp)
    8d7c:	001b8b93          	addi	s7,s7,1
    8d80:	010b9b93          	slli	s7,s7,0x10
    8d84:	410bdb93          	srai	s7,s7,0x10
    8d88:	f59fc06f          	j	5ce0 <.L288>

00008d8c <.L943>:
    8d8c:	03d00b93          	li	s7,61
    8d90:	00fbd463          	bge	s7,a5,8d98 <.L943+0xc>
    8d94:	5280206f          	j	b2bc <.L2937>
    8d98:	00e15b83          	lhu	s7,14(sp)
    8d9c:	ff8b8b93          	addi	s7,s7,-8
    8da0:	01711723          	sh	s7,14(sp)
    8da4:	bc4f806f          	j	1168 <.L940>

00008da8 <.L514>:
    8da8:	00815b83          	lhu	s7,8(sp)
    8dac:	ff6b8b93          	addi	s7,s7,-10
    8db0:	010b9b93          	slli	s7,s7,0x10
    8db4:	410bdb93          	srai	s7,s7,0x10
    8db8:	efcfb06f          	j	44b4 <.L512>

00008dbc <.L1528>:
    8dbc:	ea900b93          	li	s7,-343
    8dc0:	017a4463          	blt	s4,s7,8dc8 <.L1528+0xc>
    8dc4:	0c00106f          	j	9e84 <.L1523>
    8dc8:	01800b93          	li	s7,24
    8dcc:	010bd463          	bge	s7,a6,8dd4 <.L1528+0x18>
    8dd0:	ba8fb06f          	j	4178 <.L1532>
    8dd4:	d30fe06f          	j	7304 <.L1530>

00008dd8 <.L1737>:
    8dd8:	e9800b93          	li	s7,-360
    8ddc:	0175c463          	blt	a1,s7,8de4 <.L1736>
    8de0:	b65f906f          	j	2944 <.L1731>

00008de4 <.L1736>:
    8de4:	00c15b83          	lhu	s7,12(sp)
    8de8:	ff8b8b93          	addi	s7,s7,-8
    8dec:	01711623          	sh	s7,12(sp)
    8df0:	b55f906f          	j	2944 <.L1731>

00008df4 <.L1821>:
    8df4:	16c00b93          	li	s7,364
    8df8:	00dbd463          	bge	s7,a3,8e00 <.L1821+0xc>
    8dfc:	4500206f          	j	b24c <.L1824>
    8e00:	00e15b83          	lhu	s7,14(sp)
    8e04:	003b8b93          	addi	s7,s7,3
    8e08:	010b9b93          	slli	s7,s7,0x10
    8e0c:	010bdb93          	srli	s7,s7,0x10
    8e10:	01711723          	sh	s7,14(sp)
    8e14:	e65fb06f          	j	4c78 <.L1822>

00008e18 <.L996>:
    8e18:	00e15b83          	lhu	s7,14(sp)
    8e1c:	fa300c13          	li	s8,-93
    8e20:	008b8b93          	addi	s7,s7,8
    8e24:	01711723          	sh	s7,14(sp)
    8e28:	0182d463          	bge	t0,s8,8e30 <.L996+0x18>
    8e2c:	fd1fc06f          	j	5dfc <.L985>
    8e30:	11c00b93          	li	s7,284
    8e34:	012bc463          	blt	s7,s2,8e3c <.L991>
    8e38:	870f906f          	j	1ea8 <.L994>

00008e3c <.L991>:
    8e3c:	02300b93          	li	s7,35
    8e40:	00dbd463          	bge	s7,a3,8e48 <.L991+0xc>
    8e44:	99dfb06f          	j	47e0 <.L995>
    8e48:	00815b83          	lhu	s7,8(sp)
    8e4c:	ff8b8b93          	addi	s7,s7,-8
    8e50:	01711423          	sh	s7,8(sp)
    8e54:	bccf806f          	j	1220 <.L1002>

00008e58 <.L1307>:
    8e58:	01f00b93          	li	s7,31
    8e5c:	010bc463          	blt	s7,a6,8e64 <.L1307+0xc>
    8e60:	2140106f          	j	a074 <.L2938>
    8e64:	00e15b83          	lhu	s7,14(sp)
    8e68:	006b8b93          	addi	s7,s7,6
    8e6c:	01711723          	sh	s7,14(sp)
    8e70:	ec700b93          	li	s7,-313
    8e74:	01745463          	bge	s0,s7,8e7c <.L1333>
    8e78:	cd8f906f          	j	2350 <.L2939>

00008e7c <.L1333>:
    8e7c:	00815b83          	lhu	s7,8(sp)
    8e80:	008b8b93          	addi	s7,s7,8
    8e84:	010b9b93          	slli	s7,s7,0x10
    8e88:	410bdb93          	srai	s7,s7,0x10
    8e8c:	cd4f906f          	j	2360 <.L1332>

00008e90 <.L971>:
    8e90:	00a15b83          	lhu	s7,10(sp)
    8e94:	03900c13          	li	s8,57
    8e98:	ffbb8b93          	addi	s7,s7,-5
    8e9c:	01711523          	sh	s7,10(sp)
    8ea0:	00dc4463          	blt	s8,a3,8ea8 <.L972>
    8ea4:	b28f806f          	j	11cc <.L960>

00008ea8 <.L972>:
    8ea8:	ea600b93          	li	s7,-346
    8eac:	01745463          	bge	s0,s7,8eb4 <.L972+0xc>
    8eb0:	869fb06f          	j	4718 <.L961>
    8eb4:	00c15b83          	lhu	s7,12(sp)
    8eb8:	cf000c13          	li	s8,-784
    8ebc:	00bb8b93          	addi	s7,s7,11
    8ec0:	01711623          	sh	s7,12(sp)
    8ec4:	0185d463          	bge	a1,s8,8ecc <.L972+0x24>
    8ec8:	865fb06f          	j	472c <.L962>
    8ecc:	8e5fb06f          	j	47b0 <.L2408>

00008ed0 <.L908>:
    8ed0:	03b00b93          	li	s7,59
    8ed4:	0afbc6e3          	blt	s7,a5,9780 <.L902>
    8ed8:	00815b83          	lhu	s7,8(sp)
    8edc:	fffb8b93          	addi	s7,s7,-1
    8ee0:	01711423          	sh	s7,8(sp)
    8ee4:	9fcf806f          	j	10e0 <.L906>

00008ee8 <.L1950>:
    8ee8:	07100b93          	li	s7,113
    8eec:	007bd463          	bge	s7,t2,8ef4 <.L1950+0xc>
    8ef0:	cdcfe06f          	j	73cc <.L1960>
    8ef4:	00c15b83          	lhu	s7,12(sp)
    8ef8:	05800c13          	li	s8,88
    8efc:	fffb8b93          	addi	s7,s7,-1
    8f00:	01711623          	sh	s7,12(sp)
    8f04:	009c5463          	bge	s8,s1,8f0c <.L1950+0x24>
    8f08:	1010206f          	j	b808 <.L1964>
    8f0c:	f5300b93          	li	s7,-173
    8f10:	01744463          	blt	s0,s7,8f18 <.L1950+0x30>
    8f14:	3950206f          	j	baa8 <.L1965>
    8f18:	00e15b83          	lhu	s7,14(sp)
    8f1c:	01500c13          	li	s8,21
    8f20:	00eb8b93          	addi	s7,s7,14
    8f24:	01711723          	sh	s7,14(sp)
    8f28:	007c4463          	blt	s8,t2,8f30 <.L1950+0x48>
    8f2c:	e51f906f          	j	2d7c <.L1966>
    8f30:	cc8fe06f          	j	73f8 <.L1967>

00008f34 <.L83>:
    8f34:	01800e13          	li	t3,24
    8f38:	010e5463          	bge	t3,a6,8f40 <.L83+0xc>
    8f3c:	6b40106f          	j	a5f0 <.L81>
    8f40:	00815e03          	lhu	t3,8(sp)
    8f44:	02651383          	lh	t2,38(a0)
    8f48:	00ae0e13          	addi	t3,t3,10
    8f4c:	01c11423          	sh	t3,8(sp)
    8f50:	ac4f706f          	j	214 <.L85>

00008f54 <.L2889>:
    8f54:	f5c00b93          	li	s7,-164
    8f58:	01744463          	blt	s0,s7,8f60 <.L2889+0xc>
    8f5c:	3300206f          	j	b28c <.L766>
    8f60:	00c15b83          	lhu	s7,12(sp)
    8f64:	03e00c13          	li	s8,62
    8f68:	009b8b93          	addi	s7,s7,9
    8f6c:	01711623          	sh	s7,12(sp)
    8f70:	00fc5463          	bge	s8,a5,8f78 <.L764>
    8f74:	f45fb06f          	j	4eb8 <.L752>

00008f78 <.L764>:
    8f78:	03800b93          	li	s7,56
    8f7c:	00ebc463          	blt	s7,a4,8f84 <.L767>
    8f80:	a54fc06f          	j	51d4 <.L770>

00008f84 <.L767>:
    8f84:	00e15b83          	lhu	s7,14(sp)
    8f88:	ffab8b93          	addi	s7,s7,-6
    8f8c:	010b9b93          	slli	s7,s7,0x10
    8f90:	410bdb93          	srai	s7,s7,0x10
    8f94:	ba9f806f          	j	1b3c <.L779>

00008f98 <.L1599>:
    8f98:	005b8b93          	addi	s7,s7,5
    8f9c:	01711623          	sh	s7,12(sp)
    8fa0:	00300b93          	li	s7,3
    8fa4:	01cbc463          	blt	s7,t3,8fac <.L1596>
    8fa8:	e45fa06f          	j	3dec <.L1621>

00008fac <.L1596>:
    8fac:	de700b93          	li	s7,-537
    8fb0:	0175d463          	bge	a1,s7,8fb8 <.L1622>
    8fb4:	e51fa06f          	j	3e04 <.L1628>

00008fb8 <.L1622>:
    8fb8:	00e15b83          	lhu	s7,14(sp)
    8fbc:	ff8b8b93          	addi	s7,s7,-8
    8fc0:	01711723          	sh	s7,14(sp)
    8fc4:	e41fa06f          	j	3e04 <.L1628>

00008fc8 <.L1223>:
    8fc8:	22f00b93          	li	s7,559
    8fcc:	01ebc463          	blt	s7,t5,8fd4 <.L1223+0xc>
    8fd0:	b1dfe06f          	j	7aec <.L1221>
    8fd4:	00a15b83          	lhu	s7,10(sp)
    8fd8:	004b8b93          	addi	s7,s7,4
    8fdc:	01711523          	sh	s7,10(sp)
    8fe0:	b19fe06f          	j	7af8 <.L1234>

00008fe4 <.L1139>:
    8fe4:	0aa00b93          	li	s7,170
    8fe8:	01ebd463          	bge	s7,t5,8ff0 <.L1139+0xc>
    8fec:	3440206f          	j	b330 <.L1141>
    8ff0:	00c15b83          	lhu	s7,12(sp)
    8ff4:	ffeb8b93          	addi	s7,s7,-2
    8ff8:	010b9b93          	slli	s7,s7,0x10
    8ffc:	410bdb93          	srai	s7,s7,0x10
    9000:	c90f806f          	j	1490 <.L1140>

00009004 <.L1850>:
    9004:	00c15b83          	lhu	s7,12(sp)
    9008:	fffb8b93          	addi	s7,s7,-1
    900c:	01711623          	sh	s7,12(sp)
    9010:	b41f906f          	j	2b50 <.L1856>

00009014 <.L683>:
    9014:	0dd00b93          	li	s7,221
    9018:	006bd463          	bge	s7,t1,9020 <.L683+0xc>
    901c:	3c80206f          	j	b3e4 <.L691>
    9020:	00815b83          	lhu	s7,8(sp)
    9024:	007b8b93          	addi	s7,s7,7
    9028:	010b9b93          	slli	s7,s7,0x10
    902c:	410bdb93          	srai	s7,s7,0x10
    9030:	d75f706f          	j	da4 <.L692>

00009034 <.L2822>:
    9034:	00815f03          	lhu	t5,8(sp)
    9038:	ffaf0f13          	addi	t5,t5,-6
    903c:	01e11423          	sh	t5,8(sp)
    9040:	8acfa06f          	j	30ec <.L2189>

00009044 <.L2761>:
    9044:	01900b93          	li	s7,25
    9048:	010bd463          	bge	s7,a6,9050 <.L2761+0xc>
    904c:	89cfe06f          	j	70e8 <.L824>
    9050:	00815b83          	lhu	s7,8(sp)
    9054:	00ab8b93          	addi	s7,s7,10
    9058:	01711423          	sh	s7,8(sp)
    905c:	f31f706f          	j	f8c <.L825>

00009060 <.L2871>:
    9060:	0a100b93          	li	s7,161
    9064:	007bd463          	bge	s7,t2,906c <.L2871+0xc>
    9068:	c3cf906f          	j	24a4 <.L1411>
    906c:	00e15b83          	lhu	s7,14(sp)
    9070:	008b8b93          	addi	s7,s7,8
    9074:	01711723          	sh	s7,14(sp)
    9078:	c2cf906f          	j	24a4 <.L1411>

0000907c <.L91>:
    907c:	00a15e03          	lhu	t3,10(sp)
    9080:	31a00b93          	li	s7,794
    9084:	010e0e13          	addi	t3,t3,16
    9088:	01c11523          	sh	t3,10(sp)
    908c:	f0dbce63          	blt	s7,a3,87a8 <.L2351>

00009090 <.L111>:
    9090:	ea700e13          	li	t3,-345
    9094:	01ca4463          	blt	s4,t3,909c <.L104>
    9098:	bc9fc06f          	j	5c60 <.L105>

0000909c <.L104>:
    909c:	00c15e03          	lhu	t3,12(sp)
    90a0:	03d00b93          	li	s7,61
    90a4:	ff6e0e13          	addi	t3,t3,-10
    90a8:	01c11623          	sh	t3,12(sp)
    90ac:	f2fbd663          	bge	s7,a5,87d8 <.L128>
    90b0:	bc8f706f          	j	478 <.L121>

000090b4 <.L2819>:
    90b4:	01c05463          	blez	t3,90bc <.L2819+0x8>
    90b8:	e91fb06f          	j	4f48 <.L2102>
    90bc:	00815b03          	lhu	s6,8(sp)
    90c0:	004b0b13          	addi	s6,s6,4
    90c4:	01611423          	sh	s6,8(sp)
    90c8:	e81fb06f          	j	4f48 <.L2102>

000090cc <.L273>:
    90cc:	03a00e13          	li	t3,58
    90d0:	00fe4463          	blt	t3,a5,90d8 <.L273+0xc>
    90d4:	d99fc06f          	j	5e6c <.L253>
    90d8:	00e15e03          	lhu	t3,14(sp)
    90dc:	ffae0e13          	addi	t3,t3,-6
    90e0:	010e1e13          	slli	t3,t3,0x10
    90e4:	410e5e13          	srai	t3,t3,0x10
    90e8:	e28f706f          	j	710 <.L275>

000090ec <.L1076>:
    90ec:	00c15b83          	lhu	s7,12(sp)
    90f0:	02f00c13          	li	s8,47
    90f4:	003b8b93          	addi	s7,s7,3
    90f8:	01711623          	sh	s7,12(sp)
    90fc:	010c5463          	bge	s8,a6,9104 <.L1076+0x18>
    9100:	f74fc06f          	j	5874 <.L1082>
    9104:	03800b93          	li	s7,56
    9108:	01fbc463          	blt	s7,t6,9110 <.L1078>
    910c:	7840106f          	j	a890 <.L1067>

00009110 <.L1078>:
    9110:	03b00b93          	li	s7,59
    9114:	00fbc463          	blt	s7,a5,911c <.L1078+0xc>
    9118:	0700106f          	j	a188 <.L1070>
    911c:	00e15b83          	lhu	s7,14(sp)
    9120:	ffe00c13          	li	s8,-2
    9124:	fffb8b93          	addi	s7,s7,-1
    9128:	01711723          	sh	s7,14(sp)
    912c:	01884463          	blt	a6,s8,9134 <.L1061>
    9130:	ec1f806f          	j	1ff0 <.L1080>

00009134 <.L1061>:
    9134:	0a400b93          	li	s7,164
    9138:	02dbd063          	bge	s7,a3,9158 <.L2940>
    913c:	0c100b93          	li	s7,193
    9140:	026bc063          	blt	s7,t1,9160 <.L1093>
    9144:	00815b83          	lhu	s7,8(sp)
    9148:	005b8b93          	addi	s7,s7,5
    914c:	010b9b93          	slli	s7,s7,0x10
    9150:	410bdb93          	srai	s7,s7,0x10
    9154:	a20f806f          	j	1374 <.L1092>

00009158 <.L2940>:
    9158:	de600b93          	li	s7,-538
    915c:	457a58e3          	bge	s4,s7,9dac <.L2941>

00009160 <.L1093>:
    9160:	00815b83          	lhu	s7,8(sp)
    9164:	ffab8b93          	addi	s7,s7,-6
    9168:	010b9b93          	slli	s7,s7,0x10
    916c:	410bdb93          	srai	s7,s7,0x10
    9170:	a04f806f          	j	1374 <.L1092>

00009174 <.L521>:
    9174:	00a15b83          	lhu	s7,10(sp)
    9178:	17000c13          	li	s8,368
    917c:	ff7b8b93          	addi	s7,s7,-9
    9180:	01711523          	sh	s7,10(sp)
    9184:	00dc4463          	blt	s8,a3,918c <.L526>
    9188:	ae4fb06f          	j	446c <.L522>

0000918c <.L526>:
    918c:	eef00b93          	li	s7,-273
    9190:	0172c463          	blt	t0,s7,9198 <.L526+0xc>
    9194:	6a00106f          	j	a834 <.L527>
    9198:	00c15b83          	lhu	s7,12(sp)
    919c:	00ab8b93          	addi	s7,s7,10
    91a0:	010b9b93          	slli	s7,s7,0x10
    91a4:	410bdb93          	srai	s7,s7,0x10
    91a8:	9adf706f          	j	b54 <.L538>

000091ac <.L480>:
    91ac:	00f00b93          	li	s7,15
    91b0:	01dbd863          	bge	s7,t4,91c0 <.L485>
    91b4:	00c15b83          	lhu	s7,12(sp)
    91b8:	ff8b8b93          	addi	s7,s7,-8
    91bc:	01711623          	sh	s7,12(sp)

000091c0 <.L485>:
    91c0:	e0800b93          	li	s7,-504
    91c4:	01745463          	bge	s0,s7,91cc <.L498>
    91c8:	8e1f706f          	j	aa8 <.L482>

000091cc <.L498>:
    91cc:	03b00b93          	li	s7,59
    91d0:	00fbc463          	blt	s7,a5,91d8 <.L498+0xc>
    91d4:	f74fd06f          	j	6948 <.L483>
    91d8:	0d400b93          	li	s7,212
    91dc:	00ebd463          	bge	s7,a4,91e4 <.L484>
    91e0:	c9cfc06f          	j	567c <.L508>

000091e4 <.L484>:
    91e4:	00e15b83          	lhu	s7,14(sp)
    91e8:	005b8b93          	addi	s7,s7,5
    91ec:	010b9b93          	slli	s7,s7,0x10
    91f0:	410bdb93          	srai	s7,s7,0x10
    91f4:	c98fc06f          	j	568c <.L504>

000091f8 <.L1563>:
    91f8:	00a15b83          	lhu	s7,10(sp)
    91fc:	004b8b93          	addi	s7,s7,4
    9200:	01711523          	sh	s7,10(sp)

00009204 <.L1565>:
    9204:	06a00b93          	li	s7,106
    9208:	00ebc463          	blt	s7,a4,9210 <.L1565+0xc>
    920c:	b01fa06f          	j	3d0c <.L1564>
    9210:	965fe06f          	j	7b74 <.L1560>

00009214 <.L1178>:
    9214:	f1200b93          	li	s7,-238
    9218:	01744463          	blt	s0,s7,9220 <.L1178+0xc>
    921c:	2f00206f          	j	b50c <.L1182>
    9220:	00a15b83          	lhu	s7,10(sp)
    9224:	03c00c13          	li	s8,60
    9228:	007b8b93          	addi	s7,s7,7
    922c:	01711523          	sh	s7,10(sp)
    9230:	00fc4463          	blt	s8,a5,9238 <.L2602>
    9234:	849fa06f          	j	3a7c <.L1167>

00009238 <.L2602>:
    9238:	daa00b93          	li	s7,-598
    923c:	017ad463          	bge	s5,s7,9244 <.L1184>
    9240:	aa8fe06f          	j	74e8 <.L1187>

00009244 <.L1184>:
    9244:	00c15b83          	lhu	s7,12(sp)
    9248:	ff9b8b93          	addi	s7,s7,-7
    924c:	010b9b93          	slli	s7,s7,0x10
    9250:	410bdb93          	srai	s7,s7,0x10
    9254:	f79f806f          	j	21cc <.L1189>

00009258 <.L530>:
    9258:	ffa00b93          	li	s7,-6
    925c:	01765463          	bge	a2,s7,9264 <.L530+0xc>
    9260:	a18fb06f          	j	4478 <.L2277>
    9264:	00c15b83          	lhu	s7,12(sp)
    9268:	ff8b8b93          	addi	s7,s7,-8
    926c:	010b9b93          	slli	s7,s7,0x10
    9270:	410bdb93          	srai	s7,s7,0x10
    9274:	8e1f706f          	j	b54 <.L538>

00009278 <.L489>:
    9278:	30200b93          	li	s7,770
    927c:	00ebc463          	blt	s7,a4,9284 <.L489+0xc>
    9280:	36c0206f          	j	b5ec <.L2942>
    9284:	00c15b83          	lhu	s7,12(sp)
    9288:	e0800c13          	li	s8,-504
    928c:	ff7b8b93          	addi	s7,s7,-9
    9290:	01711623          	sh	s7,12(sp)
    9294:	01845463          	bge	s0,s8,929c <.L489+0x24>
    9298:	811f706f          	j	aa8 <.L482>
    929c:	bd4fc06f          	j	5670 <.L491>

000092a0 <.L1338>:
    92a0:	07a00b93          	li	s7,122
    92a4:	016bc463          	blt	s7,s6,92ac <.L1338+0xc>
    92a8:	908f906f          	j	23b0 <.L1360>
    92ac:	b65fe06f          	j	7e10 <.L1359>

000092b0 <.L1258>:
    92b0:	00e15b83          	lhu	s7,14(sp)
    92b4:	01500c13          	li	s8,21
    92b8:	003b8b93          	addi	s7,s7,3
    92bc:	01711723          	sh	s7,14(sp)
    92c0:	007c4463          	blt	s8,t2,92c8 <.L1258+0x18>
    92c4:	b48fb06f          	j	460c <.L1254>
    92c8:	11d00b93          	li	s7,285
    92cc:	007bc463          	blt	s7,t2,92d4 <.L1256>
    92d0:	b8cf806f          	j	165c <.L1260>

000092d4 <.L1256>:
    92d4:	2ad00b93          	li	s7,685
    92d8:	006bc463          	blt	s7,t1,92e0 <.L1256+0xc>
    92dc:	6d50106f          	j	b1b0 <.L1272>
    92e0:	00815b83          	lhu	s7,8(sp)
    92e4:	00c00c13          	li	s8,12
    92e8:	018b8bb3          	add	s7,s7,s8
    92ec:	01711423          	sh	s7,8(sp)
    92f0:	01cc5463          	bge	s8,t3,92f8 <.L1256+0x24>
    92f4:	b50fb06f          	j	4644 <.L1275>
    92f8:	01700b93          	li	s7,23
    92fc:	01dbd463          	bge	s7,t4,9304 <.L1256+0x30>
    9300:	b84f806f          	j	1684 <.L1268>
    9304:	03300b93          	li	s7,51
    9308:	00fbc463          	blt	s7,a5,9310 <.L1256+0x3c>
    930c:	b64fb06f          	j	4670 <.L2733>
    9310:	ff9f806f          	j	2308 <.L1289>

00009314 <.L726>:
    9314:	01c51c03          	lh	s8,28(a0)
    9318:	03400b93          	li	s7,52
    931c:	018bca63          	blt	s7,s8,9330 <.L2586>
    9320:	00815b83          	lhu	s7,8(sp)
    9324:	ff8b8b93          	addi	s7,s7,-8
    9328:	01711423          	sh	s7,8(sp)
    932c:	f80f806f          	j	1aac <.L718>

00009330 <.L2586>:
    9330:	00815b83          	lhu	s7,8(sp)
    9334:	004b8b93          	addi	s7,s7,4
    9338:	01711423          	sh	s7,8(sp)
    933c:	f70f806f          	j	1aac <.L718>

00009340 <.L1041>:
    9340:	00a15b83          	lhu	s7,10(sp)
    9344:	ff5b8b93          	addi	s7,s7,-11
    9348:	010b9b93          	slli	s7,s7,0x10
    934c:	410bdb93          	srai	s7,s7,0x10
    9350:	fc1f706f          	j	1310 <.L1045>

00009354 <.L1668>:
    9354:	00815b83          	lhu	s7,8(sp)
    9358:	01d00c13          	li	s8,29
    935c:	005b8b93          	addi	s7,s7,5
    9360:	01711423          	sh	s7,8(sp)
    9364:	011c4463          	blt	s8,a7,936c <.L1669>
    9368:	cf8f906f          	j	2860 <.L2716>

0000936c <.L1669>:
    936c:	3b500b93          	li	s7,949
    9370:	00ebd463          	bge	s7,a4,9378 <.L1669+0xc>
    9374:	1f80206f          	j	b56c <.L1686>
    9378:	00a15b83          	lhu	s7,10(sp)
    937c:	00100c13          	li	s8,1
    9380:	ff7b8b93          	addi	s7,s7,-9
    9384:	01711523          	sh	s7,10(sp)
    9388:	01cc5463          	bge	s8,t3,9390 <.L1670>
    938c:	cecf906f          	j	2878 <.L1659>

00009390 <.L1670>:
    9390:	00c15b83          	lhu	s7,12(sp)
    9394:	ff600c13          	li	s8,-10
    9398:	004b8b93          	addi	s7,s7,4
    939c:	01711623          	sh	s7,12(sp)
    93a0:	01865463          	bge	a2,s8,93a8 <.L1670+0x18>
    93a4:	cf8f906f          	j	289c <.L1682>
    93a8:	d4dfb06f          	j	50f4 <.L1683>

000093ac <.L1702>:
    93ac:	00815b83          	lhu	s7,8(sp)
    93b0:	03b00c13          	li	s8,59
    93b4:	ffbb8b93          	addi	s7,s7,-5
    93b8:	01711423          	sh	s7,8(sp)
    93bc:	00fc5463          	bge	s8,a5,93c4 <.L1702+0x18>
    93c0:	b9dfe06f          	j	7f5c <.L1708>
    93c4:	d34f906f          	j	28f8 <.L2643>

000093c8 <.L2874>:
    93c8:	11b00b93          	li	s7,283
    93cc:	01ebd463          	bge	s7,t5,93d4 <.L2874+0xc>
    93d0:	ec4fb06f          	j	4a94 <.L1937>
    93d4:	00e15b83          	lhu	s7,14(sp)
    93d8:	00cb8b93          	addi	s7,s7,12
    93dc:	01711723          	sh	s7,14(sp)
    93e0:	8d9f906f          	j	2cb8 <.L1927>

000093e4 <.L1704>:
    93e4:	00e15b83          	lhu	s7,14(sp)
    93e8:	004b8b93          	addi	s7,s7,4
    93ec:	010b9b93          	slli	s7,s7,0x10
    93f0:	010bdb93          	srli	s7,s7,0x10
    93f4:	cc4f906f          	j	28b8 <.L1697>

000093f8 <.L2895>:
    93f8:	02400b93          	li	s7,36
    93fc:	f27bdae3          	bge	s7,t2,9330 <.L2586>
    9400:	00815b83          	lhu	s7,8(sp)
    9404:	ffcb8b93          	addi	s7,s7,-4
    9408:	01711423          	sh	s7,8(sp)
    940c:	ea0f806f          	j	1aac <.L718>

00009410 <.L2753>:
    9410:	03d00e13          	li	t3,61
    9414:	01c78463          	beq	a5,t3,941c <.L2753+0xc>
    9418:	af0fa06f          	j	3708 <.L213>
    941c:	03d00793          	li	a5,61

00009420 <.L211>:
    9420:	f2000e13          	li	t3,-224
    9424:	01ca4463          	blt	s4,t3,942c <.L211+0xc>
    9428:	66c0106f          	j	aa94 <.L238>
    942c:	00a15e03          	lhu	t3,10(sp)
    9430:	08c00b93          	li	s7,140
    9434:	009e0e13          	addi	t3,t3,9
    9438:	01c11523          	sh	t3,10(sp)
    943c:	00dbc463          	blt	s7,a3,9444 <.L211+0x24>
    9440:	9fdfc06f          	j	5e3c <.L239>
    9444:	db0fa06f          	j	39f4 <.L225>

00009448 <.L1453>:
    9448:	02700b93          	li	s7,39
    944c:	01dbc463          	blt	s7,t4,9454 <.L1453+0xc>
    9450:	958f906f          	j	25a8 <.L1476>
    9454:	00a15b83          	lhu	s7,10(sp)
    9458:	007b8b93          	addi	s7,s7,7
    945c:	01711523          	sh	s7,10(sp)
    9460:	c39fa06f          	j	4098 <.L1477>

00009464 <.L1176>:
    9464:	f1200b93          	li	s7,-238
    9468:	01745463          	bge	s0,s7,9470 <.L1181>
    946c:	64c0206f          	j	bab8 <.L2943>

00009470 <.L1181>:
    9470:	00a15b83          	lhu	s7,10(sp)
    9474:	ff6b8b93          	addi	s7,s7,-10
    9478:	01711523          	sh	s7,10(sp)
    947c:	e00fa06f          	j	3a7c <.L1167>

00009480 <.L2887>:
    9480:	00c15b83          	lhu	s7,12(sp)
    9484:	ff600c13          	li	s8,-10
    9488:	003b8b93          	addi	s7,s7,3
    948c:	01711623          	sh	s7,12(sp)
    9490:	01865463          	bge	a2,s8,9498 <.L2887+0x18>
    9494:	c39fb06f          	j	50cc <.L1931>
    9498:	de4fb06f          	j	4a7c <.L1930>

0000949c <.L2190>:
    949c:	00815f03          	lhu	t5,8(sp)
    94a0:	005f0f13          	addi	t5,t5,5
    94a4:	01e11423          	sh	t5,8(sp)
    94a8:	c45f906f          	j	30ec <.L2189>

000094ac <.L694>:
    94ac:	00815b83          	lhu	s7,8(sp)
    94b0:	ff7b8b93          	addi	s7,s7,-9
    94b4:	010b9b93          	slli	s7,s7,0x10
    94b8:	410bdb93          	srai	s7,s7,0x10
    94bc:	8e9f706f          	j	da4 <.L692>

000094c0 <.L1020>:
    94c0:	00c15b83          	lhu	s7,12(sp)
    94c4:	ffdb8b93          	addi	s7,s7,-3
    94c8:	010b9b93          	slli	s7,s7,0x10
    94cc:	410bdb93          	srai	s7,s7,0x10
    94d0:	db5f706f          	j	1284 <.L1019>

000094d4 <.L1414>:
    94d4:	00c15b83          	lhu	s7,12(sp)
    94d8:	03c00c13          	li	s8,60
    94dc:	003b8b93          	addi	s7,s7,3
    94e0:	01711623          	sh	s7,12(sp)
    94e4:	00fc5463          	bge	s8,a5,94ec <.L1414+0x18>
    94e8:	b6cfb06f          	j	4854 <.L1390>
    94ec:	f95f806f          	j	2480 <.L2625>

000094f0 <.L1050>:
    94f0:	00815b83          	lhu	s7,8(sp)
    94f4:	001b8b93          	addi	s7,s7,1
    94f8:	01711423          	sh	s7,8(sp)
    94fc:	de1f706f          	j	12dc <.L1043>

00009500 <.L1858>:
    9500:	00c15b83          	lhu	s7,12(sp)
    9504:	009b8b93          	addi	s7,s7,9
    9508:	01711623          	sh	s7,12(sp)
    950c:	e44f906f          	j	2b50 <.L1856>

00009510 <.L2804>:
    9510:	ff000b93          	li	s7,-16
    9514:	01765463          	bge	a2,s7,951c <.L2804+0xc>
    9518:	b28fb06f          	j	4840 <.L1389>
    951c:	a59fa06f          	j	3f74 <.L1394>

00009520 <.L2925>:
    9520:	00c15b83          	lhu	s7,12(sp)
    9524:	ffeb8b93          	addi	s7,s7,-2
    9528:	01711623          	sh	s7,12(sp)

0000952c <.L1302>:
    952c:	02a00b93          	li	s7,42
    9530:	011bc463          	blt	s7,a7,9538 <.L1302+0xc>
    9534:	801fe06f          	j	7d34 <.L2613>
    9538:	00e15b83          	lhu	s7,14(sp)
    953c:	ffe00c13          	li	s8,-2
    9540:	002b8b93          	addi	s7,s7,2
    9544:	01711723          	sh	s7,14(sp)
    9548:	01885463          	bge	a6,s8,9550 <.L1302+0x24>
    954c:	9a0f806f          	j	16ec <.L1300>
    9550:	974fb06f          	j	46c4 <.L1301>

00009554 <.L2809>:
    9554:	ffc00b93          	li	s7,-4
    9558:	01764463          	blt	a2,s7,9560 <.L2809+0xc>
    955c:	8c9fa06f          	j	3e24 <.L1665>
    9560:	02e00b93          	li	s7,46
    9564:	01dbc463          	blt	s7,t4,956c <.L1667>
    9568:	8d5fa06f          	j	3e3c <.L1666>

0000956c <.L1667>:
    956c:	00e00b93          	li	s7,14
    9570:	010bd463          	bge	s7,a6,9578 <.L1667+0xc>
    9574:	2200206f          	j	b794 <.L2944>
    9578:	00a15b83          	lhu	s7,10(sp)
    957c:	00100c13          	li	s8,1
    9580:	004b8b93          	addi	s7,s7,4
    9584:	01711523          	sh	s7,10(sp)
    9588:	01cc5463          	bge	s8,t3,9590 <.L1667+0x24>
    958c:	d64fc06f          	j	5af0 <.L1692>
    9590:	e58ff06f          	j	8be8 <.L1694>

00009594 <.L849>:
    9594:	00c15b83          	lhu	s7,12(sp)
    9598:	d2a00c13          	li	s8,-726
    959c:	ff8b8b93          	addi	s7,s7,-8
    95a0:	01711623          	sh	s7,12(sp)
    95a4:	0185d463          	bge	a1,s8,95ac <.L849+0x18>
    95a8:	c00fc06f          	j	59a8 <.L850>
    95ac:	ed8f806f          	j	1c84 <.L2592>

000095b0 <.L1696>:
    95b0:	00e15b83          	lhu	s7,14(sp)
    95b4:	003b8b93          	addi	s7,s7,3
    95b8:	010b9b93          	slli	s7,s7,0x10
    95bc:	010bdb93          	srli	s7,s7,0x10
    95c0:	af8f906f          	j	28b8 <.L1697>

000095c4 <.L2885>:
    95c4:	00a15b03          	lhu	s6,10(sp)
    95c8:	ff9b0b13          	addi	s6,s6,-7
    95cc:	01611523          	sh	s6,10(sp)
    95d0:	9e1f906f          	j	2fb0 <.L2115>

000095d4 <.L954>:
    95d4:	00815b83          	lhu	s7,8(sp)
    95d8:	ffbb8b93          	addi	s7,s7,-5
    95dc:	010b9b93          	slli	s7,s7,0x10
    95e0:	410bdb93          	srai	s7,s7,0x10
    95e4:	83df806f          	j	1e20 <.L948>

000095e8 <.L1008>:
    95e8:	00a15b83          	lhu	s7,10(sp)
    95ec:	ff7b8b93          	addi	s7,s7,-9
    95f0:	010b9b93          	slli	s7,s7,0x10
    95f4:	010bdb93          	srli	s7,s7,0x10
    95f8:	8a5fc06f          	j	5e9c <.L1009>

000095fc <.L2121>:
    95fc:	00a15b03          	lhu	s6,10(sp)
    9600:	001b0b13          	addi	s6,s6,1
    9604:	01611523          	sh	s6,10(sp)
    9608:	9a9f906f          	j	2fb0 <.L2115>

0000960c <.L1910>:
    960c:	00815b83          	lhu	s7,8(sp)
    9610:	fffb8b93          	addi	s7,s7,-1
    9614:	01711423          	sh	s7,8(sp)
    9618:	02b00b93          	li	s7,43
    961c:	010bd463          	bge	s7,a6,9624 <.L1910+0x18>
    9620:	a6dfb06f          	j	508c <.L1903>
    9624:	e0cf906f          	j	2c30 <.L1909>

00009628 <.L608>:
    9628:	00e15b83          	lhu	s7,14(sp)
    962c:	009b8b93          	addi	s7,s7,9
    9630:	010b9b93          	slli	s7,s7,0x10
    9634:	010bdb93          	srli	s7,s7,0x10
    9638:	01711723          	sh	s7,14(sp)
    963c:	df0f706f          	j	c2c <.L607>

00009640 <.L1137>:
    9640:	00a15b83          	lhu	s7,10(sp)
    9644:	ffcb8b93          	addi	s7,s7,-4
    9648:	01711523          	sh	s7,10(sp)
    964c:	e1df706f          	j	1468 <.L1138>

00009650 <.L1608>:
    9650:	00a15b83          	lhu	s7,10(sp)
    9654:	03c00c13          	li	s8,60
    9658:	00ab8b93          	addi	s7,s7,10
    965c:	01711523          	sh	s7,10(sp)
    9660:	00fc4463          	blt	s8,a5,9668 <.L1608+0x18>
    9664:	b9cfc06f          	j	5a00 <.L1604>
    9668:	824ff06f          	j	868c <.L2711>

0000966c <.L702>:
    966c:	00a15b83          	lhu	s7,10(sp)
    9670:	003b8b93          	addi	s7,s7,3
    9674:	010b9b93          	slli	s7,s7,0x10
    9678:	410bdb93          	srai	s7,s7,0x10
    967c:	ba0f806f          	j	1a1c <.L701>

00009680 <.L2354>:
    9680:	2ff00e13          	li	t3,767
    9684:	00ee4463          	blt	t3,a4,968c <.L2354+0xc>
    9688:	f3cfd06f          	j	6dc4 <.L156>
    968c:	00001e37          	lui	t3,0x1
    9690:	85be0e13          	addi	t3,t3,-1957 # 85b <.L372+0x7>
    9694:	00de4463          	blt	t3,a3,969c <.L2354+0x1c>
    9698:	2ac0206f          	j	b944 <.L2945>
    969c:	00c15e03          	lhu	t3,12(sp)
    96a0:	00ae0e13          	addi	t3,t3,10
    96a4:	01c11623          	sh	t3,12(sp)
    96a8:	f91f606f          	j	638 <.L174>

000096ac <.L942>:
    96ac:	00e15b83          	lhu	s7,14(sp)
    96b0:	002b8b93          	addi	s7,s7,2
    96b4:	01711723          	sh	s7,14(sp)
    96b8:	ab1f706f          	j	1168 <.L940>

000096bc <.L804>:
    96bc:	00a15b83          	lhu	s7,10(sp)
    96c0:	ffc00c13          	li	s8,-4
    96c4:	ffbb8b93          	addi	s7,s7,-5
    96c8:	01711523          	sh	s7,10(sp)
    96cc:	01864463          	blt	a2,s8,96d4 <.L804+0x18>
    96d0:	869f706f          	j	f38 <.L812>
    96d4:	cd4f806f          	j	1ba8 <.L797>

000096d8 <.L423>:
    96d8:	00815b83          	lhu	s7,8(sp)
    96dc:	002b8b93          	addi	s7,s7,2
    96e0:	010b9b93          	slli	s7,s7,0x10
    96e4:	410bdb93          	srai	s7,s7,0x10
    96e8:	a90f706f          	j	978 <.L420>

000096ec <.L1149>:
    96ec:	00e15b83          	lhu	s7,14(sp)
    96f0:	001b8b93          	addi	s7,s7,1
    96f4:	010b9b93          	slli	s7,s7,0x10
    96f8:	410bdb93          	srai	s7,s7,0x10
    96fc:	dc9f706f          	j	14c4 <.L1148>

00009700 <.L665>:
    9700:	00a15b83          	lhu	s7,10(sp)
    9704:	008b8b93          	addi	s7,s7,8
    9708:	010b9b93          	slli	s7,s7,0x10
    970c:	410bdb93          	srai	s7,s7,0x10
    9710:	e04f706f          	j	d14 <.L662>

00009714 <.L867>:
    9714:	00a15b83          	lhu	s7,10(sp)
    9718:	ffdb8b93          	addi	s7,s7,-3
    971c:	01711523          	sh	s7,10(sp)
    9720:	941f706f          	j	1060 <.L874>

00009724 <.L463>:
    9724:	00815b83          	lhu	s7,8(sp)
    9728:	0b500c13          	li	s8,181
    972c:	ffbb8b93          	addi	s7,s7,-5
    9730:	01711423          	sh	s7,8(sp)
    9734:	006c4463          	blt	s8,t1,973c <.L463+0x18>
    9738:	b08f706f          	j	a40 <.L465>
    973c:	e39f906f          	j	3574 <.L472>

00009740 <.L877>:
    9740:	00a15b83          	lhu	s7,10(sp)
    9744:	005b8b93          	addi	s7,s7,5
    9748:	01711523          	sh	s7,10(sp)
    974c:	da4f806f          	j	1cf0 <.L878>

00009750 <.L897>:
    9750:	00e15b83          	lhu	s7,14(sp)
    9754:	ec600c13          	li	s8,-314
    9758:	001b8b93          	addi	s7,s7,1
    975c:	01711723          	sh	s7,14(sp)
    9760:	01845463          	bge	s0,s8,9768 <.L897+0x18>
    9764:	de0f806f          	j	1d44 <.L904>
    9768:	ebf00b93          	li	s7,-321
    976c:	0175da63          	bge	a1,s7,9780 <.L902>

00009770 <.L901>:
    9770:	00815b83          	lhu	s7,8(sp)
    9774:	019b8b93          	addi	s7,s7,25
    9778:	01711423          	sh	s7,8(sp)
    977c:	965f706f          	j	10e0 <.L906>

00009780 <.L902>:
    9780:	00815b83          	lhu	s7,8(sp)
    9784:	004b8b93          	addi	s7,s7,4
    9788:	01711423          	sh	s7,8(sp)
    978c:	955f706f          	j	10e0 <.L906>

00009790 <.L75>:
    9790:	00e15e03          	lhu	t3,14(sp)
    9794:	fffe0e13          	addi	t3,t3,-1
    9798:	010e1e13          	slli	t3,t3,0x10
    979c:	410e5e13          	srai	t3,t3,0x10
    97a0:	c49f606f          	j	3e8 <.L73>

000097a4 <.L436>:
    97a4:	00a15b83          	lhu	s7,10(sp)
    97a8:	ff9b8b93          	addi	s7,s7,-7
    97ac:	010b9b93          	slli	s7,s7,0x10
    97b0:	410bdb93          	srai	s7,s7,0x10
    97b4:	d29f906f          	j	34dc <.L437>

000097b8 <.L467>:
    97b8:	00815b83          	lhu	s7,8(sp)
    97bc:	0b500c13          	li	s8,181
    97c0:	ff8b8b93          	addi	s7,s7,-8
    97c4:	01711423          	sh	s7,8(sp)
    97c8:	006c4463          	blt	s8,t1,97d0 <.L467+0x18>
    97cc:	a74f706f          	j	a40 <.L465>
    97d0:	da5f906f          	j	3574 <.L472>

000097d4 <.L441>:
    97d4:	00c15b83          	lhu	s7,12(sp)
    97d8:	e2500c13          	li	s8,-475
    97dc:	ff8b8b93          	addi	s7,s7,-8
    97e0:	01711623          	sh	s7,12(sp)
    97e4:	01844463          	blt	s0,s8,97ec <.L441+0x18>
    97e8:	eb1f906f          	j	3698 <.L443>
    97ec:	b25fc06f          	j	6310 <.L442>

000097f0 <.L677>:
    97f0:	00e15b83          	lhu	s7,14(sp)
    97f4:	ff7b8b93          	addi	s7,s7,-9
    97f8:	010b9b93          	slli	s7,s7,0x10
    97fc:	410bdb93          	srai	s7,s7,0x10
    9800:	d74f706f          	j	d74 <.L676>

00009804 <.L836>:
    9804:	00a15b83          	lhu	s7,10(sp)
    9808:	fffb8b93          	addi	s7,s7,-1
    980c:	01711523          	sh	s7,10(sp)
    9810:	c44f806f          	j	1c54 <.L837>

00009814 <.L469>:
    9814:	00a15b83          	lhu	s7,10(sp)
    9818:	007b8b93          	addi	s7,s7,7
    981c:	010b9b93          	slli	s7,s7,0x10
    9820:	410bdb93          	srai	s7,s7,0x10
    9824:	a44f706f          	j	a68 <.L470>

00009828 <.L130>:
    9828:	00e15e03          	lhu	t3,14(sp)
    982c:	006e0e13          	addi	t3,t3,6
    9830:	010e1e13          	slli	t3,t3,0x10
    9834:	410e5e13          	srai	t3,t3,0x10
    9838:	c65f606f          	j	49c <.L129>

0000983c <.L458>:
    983c:	00815b83          	lhu	s7,8(sp)
    9840:	ffbb8b93          	addi	s7,s7,-5
    9844:	01711423          	sh	s7,8(sp)
    9848:	b11fc06f          	j	6358 <.L460>

0000984c <.L434>:
    984c:	00a15b83          	lhu	s7,10(sp)
    9850:	06300c13          	li	s8,99
    9854:	001b8b93          	addi	s7,s7,1
    9858:	01711523          	sh	s7,10(sp)
    985c:	00dc4463          	blt	s8,a3,9864 <.L434+0x18>
    9860:	e01f906f          	j	3660 <.L432>
    9864:	954f706f          	j	9b8 <.L427>

00009868 <.L1094>:
    9868:	00815b83          	lhu	s7,8(sp)
    986c:	006b8b93          	addi	s7,s7,6
    9870:	010b9b93          	slli	s7,s7,0x10
    9874:	410bdb93          	srai	s7,s7,0x10
    9878:	afdf706f          	j	1374 <.L1092>

0000987c <.L566>:
    987c:	00a15b83          	lhu	s7,10(sp)
    9880:	003b8b93          	addi	s7,s7,3
    9884:	010b9b93          	slli	s7,s7,0x10
    9888:	410bdb93          	srai	s7,s7,0x10
    988c:	b44f706f          	j	bd0 <.L2577>

00009890 <.L426>:
    9890:	00a15b83          	lhu	s7,10(sp)
    9894:	06300c13          	li	s8,99
    9898:	009b8b93          	addi	s7,s7,9
    989c:	01711523          	sh	s7,10(sp)
    98a0:	00dc4463          	blt	s8,a3,98a8 <.L426+0x18>
    98a4:	dbdf906f          	j	3660 <.L432>
    98a8:	910f706f          	j	9b8 <.L427>

000098ac <.L450>:
    98ac:	00e15b83          	lhu	s7,14(sp)
    98b0:	00ab8b93          	addi	s7,s7,10
    98b4:	010b9b93          	slli	s7,s7,0x10
    98b8:	010bdb93          	srli	s7,s7,0x10
    98bc:	948f706f          	j	a04 <.L2570>

000098c0 <.L440>:
    98c0:	00c15b83          	lhu	s7,12(sp)
    98c4:	ffeb8b93          	addi	s7,s7,-2
    98c8:	010b9b93          	slli	s7,s7,0x10
    98cc:	410bdb93          	srai	s7,s7,0x10
    98d0:	904f706f          	j	9d4 <.L431>

000098d4 <.L471>:
    98d4:	00a15b83          	lhu	s7,10(sp)
    98d8:	ffeb8b93          	addi	s7,s7,-2
    98dc:	010b9b93          	slli	s7,s7,0x10
    98e0:	410bdb93          	srai	s7,s7,0x10
    98e4:	984f706f          	j	a68 <.L470>

000098e8 <.L1031>:
    98e8:	00e15b83          	lhu	s7,14(sp)
    98ec:	ffdb8b93          	addi	s7,s7,-3
    98f0:	010b9b93          	slli	s7,s7,0x10
    98f4:	410bdb93          	srai	s7,s7,0x10
    98f8:	9c1f706f          	j	12b8 <.L1028>

000098fc <.L473>:
    98fc:	00a15b83          	lhu	s7,10(sp)
    9900:	004b8b93          	addi	s7,s7,4
    9904:	010b9b93          	slli	s7,s7,0x10
    9908:	410bdb93          	srai	s7,s7,0x10
    990c:	95cf706f          	j	a68 <.L470>

00009910 <.L1442>:
    9910:	00400b93          	li	s7,4
    9914:	011bd463          	bge	s7,a7,991c <.L1442+0xc>
    9918:	a80fc06f          	j	5b98 <.L1444>
    991c:	c45f806f          	j	2560 <.L1445>

00009920 <.L1131>:
    9920:	00815b83          	lhu	s7,8(sp)
    9924:	03300c13          	li	s8,51
    9928:	003b8b93          	addi	s7,s7,3
    992c:	01711423          	sh	s7,8(sp)
    9930:	01fc5463          	bge	s8,t6,9938 <.L1131+0x18>
    9934:	fa0f806f          	j	20d4 <.L1129>
    9938:	fe200b93          	li	s7,-30
    993c:	01764463          	blt	a2,s7,9944 <.L1132>
    9940:	938fe06f          	j	7a78 <.L1128>

00009944 <.L1132>:
    9944:	00a15b83          	lhu	s7,10(sp)
    9948:	005b8b93          	addi	s7,s7,5
    994c:	010b9b93          	slli	s7,s7,0x10
    9950:	410bdb93          	srai	s7,s7,0x10
    9954:	b09f706f          	j	145c <.L1133>

00009958 <.L811>:
    9958:	00c15b83          	lhu	s7,12(sp)
    995c:	ff9b8b93          	addi	s7,s7,-7
    9960:	010b9b93          	slli	s7,s7,0x10
    9964:	410bdb93          	srai	s7,s7,0x10
    9968:	a68f806f          	j	1bd0 <.L810>

0000996c <.L675>:
    996c:	00e15b83          	lhu	s7,14(sp)
    9970:	ffab8b93          	addi	s7,s7,-6
    9974:	010b9b93          	slli	s7,s7,0x10
    9978:	410bdb93          	srai	s7,s7,0x10
    997c:	bf8f706f          	j	d74 <.L676>

00009980 <.L705>:
    9980:	00c15b83          	lhu	s7,12(sp)
    9984:	00db8b93          	addi	s7,s7,13
    9988:	010b9b93          	slli	s7,s7,0x10
    998c:	410bdb93          	srai	s7,s7,0x10
    9990:	c7cf706f          	j	e0c <.L706>

00009994 <.L680>:
    9994:	00e15b83          	lhu	s7,14(sp)
    9998:	008b8b93          	addi	s7,s7,8
    999c:	010b9b93          	slli	s7,s7,0x10
    99a0:	010bdb93          	srli	s7,s7,0x10
    99a4:	d98fc06f          	j	5f3c <.L681>

000099a8 <.L2180>:
    99a8:	00c15683          	lhu	a3,12(sp)
    99ac:	ffe68693          	addi	a3,a3,-2
    99b0:	00d11623          	sh	a3,12(sp)
    99b4:	ef0f906f          	j	30a4 <.L2164>

000099b8 <.L2155>:
    99b8:	00a15b03          	lhu	s6,10(sp)
    99bc:	007b0b13          	addi	s6,s6,7
    99c0:	01611523          	sh	s6,10(sp)
    99c4:	ce9fd06f          	j	76ac <.L2156>

000099c8 <.L1243>:
    99c8:	00c15b83          	lhu	s7,12(sp)
    99cc:	009b8b93          	addi	s7,s7,9
    99d0:	010b9b93          	slli	s7,s7,0x10
    99d4:	410bdb93          	srai	s7,s7,0x10
    99d8:	8a9f806f          	j	2280 <.L1240>

000099dc <.L1976>:
    99dc:	00c15b83          	lhu	s7,12(sp)
    99e0:	05800c13          	li	s8,88
    99e4:	ff7b8b93          	addi	s7,s7,-9
    99e8:	01711623          	sh	s7,12(sp)
    99ec:	009c4a63          	blt	s8,s1,9a00 <.L1977>
    99f0:	f5300b93          	li	s7,-173
    99f4:	01744463          	blt	s0,s7,99fc <.L1976+0x20>
    99f8:	94cfb06f          	j	4b44 <.L1995>
    99fc:	93cfb06f          	j	4b38 <.L2655>

00009a00 <.L1977>:
    9a00:	03600b93          	li	s7,54
    9a04:	00fbd463          	bge	s7,a5,9a0c <.L1977+0xc>
    9a08:	24d0106f          	j	b454 <.L1990>
    9a0c:	00e15b83          	lhu	s7,14(sp)
    9a10:	ff9b8b93          	addi	s7,s7,-7
    9a14:	01711723          	sh	s7,14(sp)
    9a18:	92cfb06f          	j	4b44 <.L1995>

00009a1c <.L1516>:
    9a1c:	00a15b83          	lhu	s7,10(sp)
    9a20:	007b8b93          	addi	s7,s7,7
    9a24:	010b9b93          	slli	s7,s7,0x10
    9a28:	410bdb93          	srai	s7,s7,0x10
    9a2c:	f0cfa06f          	j	4138 <.L1517>

00009a30 <.L2139>:
    9a30:	00e15b03          	lhu	s6,14(sp)
    9a34:	009b0b13          	addi	s6,s6,9
    9a38:	010b1b13          	slli	s6,s6,0x10
    9a3c:	410b5b13          	srai	s6,s6,0x10
    9a40:	92dfb06f          	j	536c <.L2138>

00009a44 <.L2006>:
    9a44:	00a15b83          	lhu	s7,10(sp)
    9a48:	008b8b93          	addi	s7,s7,8
    9a4c:	01711523          	sh	s7,10(sp)
    9a50:	b64f906f          	j	2db4 <.L1999>

00009a54 <.L50>:
    9a54:	00a15e03          	lhu	t3,10(sp)
    9a58:	df700393          	li	t2,-521
    9a5c:	ff9e0e13          	addi	t3,t3,-7
    9a60:	01c11523          	sh	t3,10(sp)
    9a64:	007a5463          	bge	s4,t2,9a6c <.L53>
    9a68:	f3cf606f          	j	1a4 <.L52>

00009a6c <.L53>:
    9a6c:	00c15e03          	lhu	t3,12(sp)
    9a70:	ff5e0e13          	addi	t3,t3,-11
    9a74:	010e1e13          	slli	t3,t3,0x10
    9a78:	410e5e13          	srai	t3,t3,0x10
    9a7c:	f50f606f          	j	1cc <.L65>

00009a80 <.L279>:
    9a80:	00e15e03          	lhu	t3,14(sp)
    9a84:	ff7e0e13          	addi	t3,t3,-9
    9a88:	010e1e13          	slli	t3,t3,0x10
    9a8c:	410e5e13          	srai	t3,t3,0x10
    9a90:	c81f606f          	j	710 <.L275>

00009a94 <.L394>:
    9a94:	00815b83          	lhu	s7,8(sp)
    9a98:	ff6b8b93          	addi	s7,s7,-10
    9a9c:	010b9b93          	slli	s7,s7,0x10
    9aa0:	410bdb93          	srai	s7,s7,0x10
    9aa4:	921f906f          	j	33c4 <.L395>

00009aa8 <.L1241>:
    9aa8:	00c15b83          	lhu	s7,12(sp)
    9aac:	ffab8b93          	addi	s7,s7,-6
    9ab0:	010b9b93          	slli	s7,s7,0x10
    9ab4:	410bdb93          	srai	s7,s7,0x10
    9ab8:	fc8f806f          	j	2280 <.L1240>

00009abc <.L2018>:
    9abc:	00e15b83          	lhu	s7,14(sp)
    9ac0:	002b8b93          	addi	s7,s7,2
    9ac4:	010b9b93          	slli	s7,s7,0x10
    9ac8:	410bdb93          	srai	s7,s7,0x10
    9acc:	b40f906f          	j	2e0c <.L2015>

00009ad0 <.L1147>:
    9ad0:	00e15b83          	lhu	s7,14(sp)
    9ad4:	ffbb8b93          	addi	s7,s7,-5
    9ad8:	010b9b93          	slli	s7,s7,0x10
    9adc:	410bdb93          	srai	s7,s7,0x10
    9ae0:	9e5f706f          	j	14c4 <.L1148>

00009ae4 <.L1724>:
    9ae4:	00a15b83          	lhu	s7,10(sp)
    9ae8:	ff7b8b93          	addi	s7,s7,-9
    9aec:	010b9b93          	slli	s7,s7,0x10
    9af0:	410bdb93          	srai	s7,s7,0x10
    9af4:	e21f806f          	j	2914 <.L1721>

00009af8 <.L1771>:
    9af8:	00c15b83          	lhu	s7,12(sp)
    9afc:	002b8b93          	addi	s7,s7,2
    9b00:	01711623          	sh	s7,12(sp)
    9b04:	eedf806f          	j	29f0 <.L1770>

00009b08 <.L1436>:
    9b08:	00c15b83          	lhu	s7,12(sp)
    9b0c:	002b8b93          	addi	s7,s7,2
    9b10:	01711623          	sh	s7,12(sp)
    9b14:	a11f806f          	j	2524 <.L1435>

00009b18 <.L322>:
    9b18:	00c15b83          	lhu	s7,12(sp)
    9b1c:	014b8b93          	addi	s7,s7,20
    9b20:	010b9b93          	slli	s7,s7,0x10
    9b24:	010bdb93          	srli	s7,s7,0x10
    9b28:	ce9f906f          	j	3810 <.L323>

00009b2c <.L513>:
    9b2c:	00815b83          	lhu	s7,8(sp)
    9b30:	004b8b93          	addi	s7,s7,4
    9b34:	010b9b93          	slli	s7,s7,0x10
    9b38:	410bdb93          	srai	s7,s7,0x10
    9b3c:	979fa06f          	j	44b4 <.L512>

00009b40 <.L1123>:
    9b40:	00e15b83          	lhu	s7,14(sp)
    9b44:	003b8b93          	addi	s7,s7,3
    9b48:	01711723          	sh	s7,14(sp)
    9b4c:	a05fb06f          	j	5550 <.L1122>

00009b50 <.L1263>:
    9b50:	00815b83          	lhu	s7,8(sp)
    9b54:	004b8b93          	addi	s7,s7,4
    9b58:	010b9b93          	slli	s7,s7,0x10
    9b5c:	410bdb93          	srai	s7,s7,0x10
    9b60:	ac9fa06f          	j	4628 <.L1253>

00009b64 <.L1331>:
    9b64:	00815b83          	lhu	s7,8(sp)
    9b68:	ffeb8b93          	addi	s7,s7,-2
    9b6c:	010b9b93          	slli	s7,s7,0x10
    9b70:	410bdb93          	srai	s7,s7,0x10
    9b74:	fecf806f          	j	2360 <.L1332>

00009b78 <.L1098>:
    9b78:	00a15b83          	lhu	s7,10(sp)
    9b7c:	fffb8b93          	addi	s7,s7,-1
    9b80:	01711523          	sh	s7,10(sp)
    9b84:	81df706f          	j	13a0 <.L1097>

00009b88 <.L396>:
    9b88:	00815b83          	lhu	s7,8(sp)
    9b8c:	00bb8b93          	addi	s7,s7,11
    9b90:	010b9b93          	slli	s7,s7,0x10
    9b94:	410bdb93          	srai	s7,s7,0x10
    9b98:	82df906f          	j	33c4 <.L395>

00009b9c <.L1774>:
    9b9c:	00e15b83          	lhu	s7,14(sp)
    9ba0:	ffeb8b93          	addi	s7,s7,-2
    9ba4:	01711723          	sh	s7,14(sp)
    9ba8:	e79f806f          	j	2a20 <.L1775>

00009bac <.L2933>:
    9bac:	00c15b83          	lhu	s7,12(sp)
    9bb0:	006b8b93          	addi	s7,s7,6
    9bb4:	010b9b93          	slli	s7,s7,0x10
    9bb8:	410bdb93          	srai	s7,s7,0x10
    9bbc:	b7df806f          	j	2738 <.L1574>

00009bc0 <.L1767>:
    9bc0:	00a15b83          	lhu	s7,10(sp)
    9bc4:	001b8b93          	addi	s7,s7,1
    9bc8:	01711523          	sh	s7,10(sp)
    9bcc:	df9f806f          	j	29c4 <.L1756>

00009bd0 <.L2044>:
    9bd0:	00c15b83          	lhu	s7,12(sp)
    9bd4:	ffcb8b93          	addi	s7,s7,-4
    9bd8:	01711623          	sh	s7,12(sp)
    9bdc:	01c04463          	bgtz	t3,9be4 <.L2044+0x14>
    9be0:	cddfb06f          	j	58bc <.L2656>
    9be4:	ff600b93          	li	s7,-10
    9be8:	01764463          	blt	a2,s7,9bf0 <.L2044+0x20>
    9bec:	6490106f          	j	ba34 <.L2059>
    9bf0:	02900b93          	li	s7,41
    9bf4:	01dbd463          	bge	s7,t4,9bfc <.L2044+0x2c>
    9bf8:	3200206f          	j	bf18 <.L2060>
    9bfc:	00e15b83          	lhu	s7,14(sp)
    9c00:	0a900c13          	li	s8,169
    9c04:	ffbb8b93          	addi	s7,s7,-5
    9c08:	01711723          	sh	s7,14(sp)
    9c0c:	01ec4463          	blt	s8,t5,9c14 <.L2044+0x44>
    9c10:	ac0f906f          	j	2ed0 <.L2050>
    9c14:	cc1fb06f          	j	58d4 <.L2046>

00009c18 <.L724>:
    9c18:	00e15b83          	lhu	s7,14(sp)
    9c1c:	003b8b93          	addi	s7,s7,3
    9c20:	01711723          	sh	s7,14(sp)
    9c24:	e5df706f          	j	1a80 <.L722>

00009c28 <.L2341>:
    9c28:	00851803          	lh	a6,8(a0)
    9c2c:	02200593          	li	a1,34
    9c30:	0105c463          	blt	a1,a6,9c38 <.L2341+0x10>
    9c34:	c4df906f          	j	3880 <.L2318>
    9c38:	01e51583          	lh	a1,30(a0)
    9c3c:	00c51903          	lh	s2,12(a0)

00009c40 <.L35>:
    9c40:	00815883          	lhu	a7,8(sp)
    9c44:	1b500e13          	li	t3,437
    9c48:	ff488893          	addi	a7,a7,-12
    9c4c:	01111423          	sh	a7,8(sp)
    9c50:	00ee5463          	bge	t3,a4,9c58 <.L35+0x18>
    9c54:	c4df906f          	j	38a0 <.L44>
    9c58:	f18f606f          	j	370 <.L2543>

00009c5c <.L669>:
    9c5c:	00c15b83          	lhu	s7,12(sp)
    9c60:	ffeb8b93          	addi	s7,s7,-2
    9c64:	01711623          	sh	s7,12(sp)
    9c68:	8dcf706f          	j	d44 <.L670>

00009c6c <.L679>:
    9c6c:	00e15b83          	lhu	s7,14(sp)
    9c70:	008b8b93          	addi	s7,s7,8
    9c74:	010b9b93          	slli	s7,s7,0x10
    9c78:	410bdb93          	srai	s7,s7,0x10
    9c7c:	8f8f706f          	j	d74 <.L676>

00009c80 <.L671>:
    9c80:	00c15b83          	lhu	s7,12(sp)
    9c84:	ff7b8b93          	addi	s7,s7,-9
    9c88:	01711623          	sh	s7,12(sp)
    9c8c:	8b8f706f          	j	d44 <.L670>

00009c90 <.L562>:
    9c90:	00a15b83          	lhu	s7,10(sp)
    9c94:	006b8b93          	addi	s7,s7,6
    9c98:	010b9b93          	slli	s7,s7,0x10
    9c9c:	410bdb93          	srai	s7,s7,0x10
    9ca0:	f31f606f          	j	bd0 <.L2577>

00009ca4 <.L887>:
    9ca4:	00c15b83          	lhu	s7,12(sp)
    9ca8:	02f00c13          	li	s8,47
    9cac:	fffb8b93          	addi	s7,s7,-1
    9cb0:	01711623          	sh	s7,12(sp)
    9cb4:	010c5463          	bge	s8,a6,9cbc <.L887+0x18>
    9cb8:	864f806f          	j	1d1c <.L889>
    9cbc:	bd8f706f          	j	1094 <.L888>

00009cc0 <.L278>:
    9cc0:	00e15e03          	lhu	t3,14(sp)
    9cc4:	002e0e13          	addi	t3,t3,2
    9cc8:	010e1e13          	slli	t3,t3,0x10
    9ccc:	410e5e13          	srai	t3,t3,0x10
    9cd0:	a41f606f          	j	710 <.L275>

00009cd4 <.L212>:
    9cd4:	00815e03          	lhu	t3,8(sp)
    9cd8:	08000b93          	li	s7,128
    9cdc:	008e0e13          	addi	t3,t3,8
    9ce0:	01c11423          	sh	t3,8(sp)
    9ce4:	00ebc463          	blt	s7,a4,9cec <.L212+0x18>
    9ce8:	9a5f606f          	j	68c <.L215>
    9cec:	03d00e13          	li	t3,61
    9cf0:	00fe5463          	bge	t3,a5,9cf8 <.L212+0x24>
    9cf4:	6590106f          	j	bb4c <.L2946>
    9cf8:	f2000e13          	li	t3,-224
    9cfc:	01ca4463          	blt	s4,t3,9d04 <.L212+0x30>
    9d00:	2a00206f          	j	bfa0 <.L2947>
    9d04:	00a15e03          	lhu	t3,10(sp)
    9d08:	009e0e13          	addi	t3,t3,9
    9d0c:	01c11523          	sh	t3,10(sp)
    9d10:	ce5f906f          	j	39f4 <.L225>

00009d14 <.L1249>:
    9d14:	2ad00b93          	li	s7,685
    9d18:	006bc463          	blt	s7,t1,9d20 <.L1249+0xc>
    9d1c:	4940106f          	j	b1b0 <.L1272>
    9d20:	00815b83          	lhu	s7,8(sp)
    9d24:	00c00c13          	li	s8,12
    9d28:	018b8bb3          	add	s7,s7,s8
    9d2c:	01711423          	sh	s7,8(sp)
    9d30:	25cc5ae3          	bge	s8,t3,a784 <.L1251>

00009d34 <.L1252>:
    9d34:	00a15b83          	lhu	s7,10(sp)
    9d38:	ff5b8b93          	addi	s7,s7,-11
    9d3c:	010b9b93          	slli	s7,s7,0x10
    9d40:	010bdb93          	srli	s7,s7,0x10
    9d44:	91dfa06f          	j	4660 <.L1297>

00009d48 <.L707>:
    9d48:	00c15b83          	lhu	s7,12(sp)
    9d4c:	ff8b8b93          	addi	s7,s7,-8
    9d50:	010b9b93          	slli	s7,s7,0x10
    9d54:	410bdb93          	srai	s7,s7,0x10
    9d58:	8b4f706f          	j	e0c <.L706>

00009d5c <.L2780>:
    9d5c:	00a15b83          	lhu	s7,10(sp)
    9d60:	005b8b93          	addi	s7,s7,5
    9d64:	010b9b93          	slli	s7,s7,0x10
    9d68:	410bdb93          	srai	s7,s7,0x10
    9d6c:	cb1f706f          	j	1a1c <.L701>

00009d70 <.L1136>:
    9d70:	00a15b83          	lhu	s7,10(sp)
    9d74:	003b8b93          	addi	s7,s7,3
    9d78:	010b9b93          	slli	s7,s7,0x10
    9d7c:	410bdb93          	srai	s7,s7,0x10
    9d80:	edcf706f          	j	145c <.L1133>

00009d84 <.L658>:
    9d84:	00815b83          	lhu	s7,8(sp)
    9d88:	ffbb8b93          	addi	s7,s7,-5
    9d8c:	01711423          	sh	s7,8(sp)
    9d90:	f55f606f          	j	ce4 <.L649>

00009d94 <.L1844>:
    9d94:	00a15b83          	lhu	s7,10(sp)
    9d98:	004b8b93          	addi	s7,s7,4
    9d9c:	010b9b93          	slli	s7,s7,0x10
    9da0:	410bdb93          	srai	s7,s7,0x10
    9da4:	01711523          	sh	s7,10(sp)
    9da8:	b91fa06f          	j	4938 <.L2882>

00009dac <.L2941>:
    9dac:	00815b83          	lhu	s7,8(sp)
    9db0:	009b8b93          	addi	s7,s7,9
    9db4:	010b9b93          	slli	s7,s7,0x10
    9db8:	410bdb93          	srai	s7,s7,0x10
    9dbc:	db8f706f          	j	1374 <.L1092>

00009dc0 <.L374>:
    9dc0:	00e15b83          	lhu	s7,14(sp)
    9dc4:	00ab8b93          	addi	s7,s7,10
    9dc8:	010b9b93          	slli	s7,s7,0x10
    9dcc:	410bdb93          	srai	s7,s7,0x10
    9dd0:	aadf606f          	j	87c <.L375>

00009dd4 <.L1106>:
    9dd4:	00a15b83          	lhu	s7,10(sp)
    9dd8:	04900c13          	li	s8,73
    9ddc:	006b8b93          	addi	s7,s7,6
    9de0:	01711523          	sh	s7,10(sp)
    9de4:	011c5463          	bge	s8,a7,9dec <.L1106+0x18>
    9de8:	dd4fb06f          	j	53bc <.L1105>
    9dec:	a68f806f          	j	2054 <.L1104>

00009df0 <.L1732>:
    9df0:	00c15b83          	lhu	s7,12(sp)
    9df4:	005b8b93          	addi	s7,s7,5
    9df8:	010b9b93          	slli	s7,s7,0x10
    9dfc:	010bdb93          	srli	s7,s7,0x10
    9e00:	01711623          	sh	s7,12(sp)
    9e04:	b41f806f          	j	2944 <.L1731>

00009e08 <.L1198>:
    9e08:	00e15b83          	lhu	s7,14(sp)
    9e0c:	008b8b93          	addi	s7,s7,8
    9e10:	010b9b93          	slli	s7,s7,0x10
    9e14:	010bdb93          	srli	s7,s7,0x10
    9e18:	be8f806f          	j	2200 <.L1199>

00009e1c <.L2929>:
    9e1c:	00fbd463          	bge	s7,a5,9e24 <.L2033>
    9e20:	e30fb06f          	j	5450 <.L2052>

00009e24 <.L2033>:
    9e24:	00c15b83          	lhu	s7,12(sp)
    9e28:	ffcb8b93          	addi	s7,s7,-4
    9e2c:	010b9b93          	slli	s7,s7,0x10
    9e30:	410bdb93          	srai	s7,s7,0x10
    9e34:	858f906f          	j	2e8c <.L2043>

00009e38 <.L2072>:
    9e38:	00815b03          	lhu	s6,8(sp)
    9e3c:	ffab0b13          	addi	s6,s6,-6
    9e40:	01611423          	sh	s6,8(sp)
    9e44:	8b0f906f          	j	2ef4 <.L2070>

00009e48 <.L1514>:
    9e48:	00815b83          	lhu	s7,8(sp)
    9e4c:	012b8b93          	addi	s7,s7,18
    9e50:	01711423          	sh	s7,8(sp)
    9e54:	fccf806f          	j	2620 <.L1511>

00009e58 <.L2563>:
    9e58:	ddb00b93          	li	s7,-549
    9e5c:	02051e03          	lh	t3,32(a0)
    9e60:	017ad463          	bge	s5,s7,9e68 <.L330>
    9e64:	b85fc06f          	j	69e8 <.L2948>

00009e68 <.L330>:
    9e68:	00c15b83          	lhu	s7,12(sp)
    9e6c:	03c00c13          	li	s8,60
    9e70:	ff6b8b93          	addi	s7,s7,-10
    9e74:	01711623          	sh	s7,12(sp)
    9e78:	00fc5463          	bge	s8,a5,9e80 <.L330+0x18>
    9e7c:	9a5f906f          	j	3820 <.L325>
    9e80:	b81fc06f          	j	6a00 <.L331>

00009e84 <.L1523>:
    9e84:	00c15b83          	lhu	s7,12(sp)
    9e88:	01800c13          	li	s8,24
    9e8c:	ff7b8b93          	addi	s7,s7,-9
    9e90:	01711623          	sh	s7,12(sp)
    9e94:	010c4463          	blt	s8,a6,9e9c <.L1523+0x18>
    9e98:	c6cfd06f          	j	7304 <.L1530>
    9e9c:	adcfa06f          	j	4178 <.L1532>

00009ea0 <.L588>:
    9ea0:	00c15b83          	lhu	s7,12(sp)
    9ea4:	e0800c13          	li	s8,-504
    9ea8:	ff6b8b93          	addi	s7,s7,-10
    9eac:	01711623          	sh	s7,12(sp)
    9eb0:	01845463          	bge	s0,s8,9eb8 <.L588+0x18>
    9eb4:	97dfb06f          	j	5830 <.L584>
    9eb8:	9a1f706f          	j	1858 <.L2375>

00009ebc <.L343>:
    9ebc:	00815b83          	lhu	s7,8(sp)
    9ec0:	ffab8b93          	addi	s7,s7,-6
    9ec4:	01711423          	sh	s7,8(sp)
    9ec8:	931f606f          	j	7f8 <.L344>

00009ecc <.L390>:
    9ecc:	00815b83          	lhu	s7,8(sp)
    9ed0:	0b500c13          	li	s8,181
    9ed4:	006b8b93          	addi	s7,s7,6
    9ed8:	01711423          	sh	s7,8(sp)
    9edc:	006c5463          	bge	s8,t1,9ee4 <.L390+0x18>
    9ee0:	969fc06f          	j	6848 <.L381>
    9ee4:	9d9f606f          	j	8bc <.L2565>

00009ee8 <.L339>:
    9ee8:	00e15b83          	lhu	s7,14(sp)
    9eec:	007b8b93          	addi	s7,s7,7
    9ef0:	010b9b93          	slli	s7,s7,0x10
    9ef4:	410bdb93          	srai	s7,s7,0x10
    9ef8:	8cdf606f          	j	7c4 <.L338>

00009efc <.L2808>:
    9efc:	00e15b83          	lhu	s7,14(sp)
    9f00:	ff9b8b93          	addi	s7,s7,-7
    9f04:	01711723          	sh	s7,14(sp)
    9f08:	efdf906f          	j	3e04 <.L1628>

00009f0c <.L1619>:
    9f0c:	00c15b83          	lhu	s7,12(sp)
    9f10:	00300c13          	li	s8,3
    9f14:	ff8b8b93          	addi	s7,s7,-8
    9f18:	01711623          	sh	s7,12(sp)
    9f1c:	01cc5463          	bge	s8,t3,9f24 <.L1619+0x18>
    9f20:	1790106f          	j	b898 <.L1634>
    9f24:	0c100b93          	li	s7,193
    9f28:	012bc463          	blt	s7,s2,9f30 <.L1619+0x24>
    9f2c:	8e1f806f          	j	280c <.L1635>
    9f30:	00e15b83          	lhu	s7,14(sp)
    9f34:	00400c13          	li	s8,4
    9f38:	007b8b93          	addi	s7,s7,7
    9f3c:	01711723          	sh	s7,14(sp)
    9f40:	011c4463          	blt	s8,a7,9f48 <.L1619+0x3c>
    9f44:	b59fb06f          	j	5a9c <.L1643>
    9f48:	ed5f906f          	j	3e1c <.L1645>

00009f4c <.L2900>:
    9f4c:	00e15b83          	lhu	s7,14(sp)
    9f50:	ff7b8b93          	addi	s7,s7,-9
    9f54:	010b9b93          	slli	s7,s7,0x10
    9f58:	410bdb93          	srai	s7,s7,0x10
    9f5c:	b5cf706f          	j	12b8 <.L1028>

00009f60 <.L207>:
    9f60:	00815e03          	lhu	t3,8(sp)
    9f64:	08000b93          	li	s7,128
    9f68:	00ce0e13          	addi	t3,t3,12
    9f6c:	01c11423          	sh	t3,8(sp)
    9f70:	00ebc463          	blt	s7,a4,9f78 <.L207+0x18>
    9f74:	f18f606f          	j	68c <.L215>
    9f78:	f84f906f          	j	36fc <.L2556>

00009f7c <.L110>:
    9f7c:	00a15e03          	lhu	t3,10(sp)
    9f80:	31a00b93          	li	s7,794
    9f84:	00ee0e13          	addi	t3,t3,14
    9f88:	01c11523          	sh	t3,10(sp)
    9f8c:	90dbd263          	bge	s7,a3,9090 <.L111>
    9f90:	e4e00e13          	li	t3,-434
    9f94:	01cad463          	bge	s5,t3,9f9c <.L107>
    9f98:	829fe06f          	j	87c0 <.L114>

00009f9c <.L107>:
    9f9c:	00c15e03          	lhu	t3,12(sp)
    9fa0:	03d00b93          	li	s7,61
    9fa4:	ff7e0e13          	addi	t3,t3,-9
    9fa8:	01c11623          	sh	t3,12(sp)
    9fac:	00fbc463          	blt	s7,a5,9fb4 <.L107+0x18>
    9fb0:	829fe06f          	j	87d8 <.L128>
    9fb4:	cc4f606f          	j	478 <.L121>

00009fb8 <.L448>:
    9fb8:	00c15b83          	lhu	s7,12(sp)
    9fbc:	e2500c13          	li	s8,-475
    9fc0:	00ab8b93          	addi	s7,s7,10
    9fc4:	01711623          	sh	s7,12(sp)
    9fc8:	01844463          	blt	s0,s8,9fd0 <.L448+0x18>
    9fcc:	eccf906f          	j	3698 <.L443>
    9fd0:	b40fc06f          	j	6310 <.L442>

00009fd4 <.L1552>:
    9fd4:	00815b83          	lhu	s7,8(sp)
    9fd8:	fefb8b93          	addi	s7,s7,-17
    9fdc:	010b9b93          	slli	s7,s7,0x10
    9fe0:	410bdb93          	srai	s7,s7,0x10
    9fe4:	eecf806f          	j	26d0 <.L1553>

00009fe8 <.L2299>:
    9fe8:	00c51903          	lh	s2,12(a0)
    9fec:	02400813          	li	a6,36
    9ff0:	b40f606f          	j	330 <.L32>

00009ff4 <.L37>:
    9ff4:	00815883          	lhu	a7,8(sp)
    9ff8:	1b500e13          	li	t3,437
    9ffc:	01488893          	addi	a7,a7,20
    a000:	01111423          	sh	a7,8(sp)
    a004:	00ee5463          	bge	t3,a4,a00c <.L37+0x18>
    a008:	899f906f          	j	38a0 <.L44>
    a00c:	b64f606f          	j	370 <.L2543>

0000a010 <.L99>:
    a010:	00a15e03          	lhu	t3,10(sp)
    a014:	31a00b93          	li	s7,794
    a018:	ff9e0e13          	addi	t3,t3,-7
    a01c:	01c11523          	sh	t3,10(sp)
    a020:	00dbc463          	blt	s7,a3,a028 <.L101>
    a024:	f2cfe06f          	j	8750 <.L96>

0000a028 <.L101>:
    a028:	1a100e13          	li	t3,417
    a02c:	f6ee48e3          	blt	t3,a4,9f9c <.L107>
    a030:	00c15e03          	lhu	t3,12(sp)
    a034:	00de0e13          	addi	t3,t3,13
    a038:	010e1e13          	slli	t3,t3,0x10
    a03c:	410e5e13          	srai	t3,t3,0x10
    a040:	c28f606f          	j	468 <.L120>

0000a044 <.L1802>:
    a044:	00a15b83          	lhu	s7,10(sp)
    a048:	009b8b93          	addi	s7,s7,9
    a04c:	010b9b93          	slli	s7,s7,0x10
    a050:	410bdb93          	srai	s7,s7,0x10
    a054:	a19f806f          	j	2a6c <.L1793>

0000a058 <.L95>:
    a058:	00a15e03          	lhu	t3,10(sp)
    a05c:	31a00b93          	li	s7,794
    a060:	001e0e13          	addi	t3,t3,1
    a064:	01c11523          	sh	t3,10(sp)
    a068:	00dbc463          	blt	s7,a3,a070 <.L95+0x18>
    a06c:	ee4fe06f          	j	8750 <.L96>
    a070:	bdcf606f          	j	44c <.L2349>

0000a074 <.L2938>:
    a074:	00e15b83          	lhu	s7,14(sp)
    a078:	ffe00c13          	li	s8,-2
    a07c:	ff7b8b93          	addi	s7,s7,-9
    a080:	01711723          	sh	s7,14(sp)
    a084:	01885463          	bge	a6,s8,a08c <.L2938+0x18>
    a088:	e64f706f          	j	16ec <.L1300>
    a08c:	ab8f806f          	j	2344 <.L1321>

0000a090 <.L796>:
    a090:	00a15b83          	lhu	s7,10(sp)
    a094:	006b8b93          	addi	s7,s7,6
    a098:	010b9b93          	slli	s7,s7,0x10
    a09c:	010bdb93          	srli	s7,s7,0x10
    a0a0:	01711523          	sh	s7,10(sp)
    a0a4:	b05f706f          	j	1ba8 <.L797>

0000a0a8 <.L738>:
    a0a8:	25b00b93          	li	s7,603
    a0ac:	00ebd463          	bge	s7,a4,a0b4 <.L753>
    a0b0:	2e90106f          	j	bb98 <.L744>

0000a0b4 <.L753>:
    a0b4:	00c15b83          	lhu	s7,12(sp)
    a0b8:	007b8b93          	addi	s7,s7,7
    a0bc:	01711623          	sh	s7,12(sp)
    a0c0:	908fb06f          	j	51c8 <.L741>

0000a0c4 <.L782>:
    a0c4:	00e15b83          	lhu	s7,14(sp)
    a0c8:	ffe00c13          	li	s8,-2
    a0cc:	004b8b93          	addi	s7,s7,4
    a0d0:	01711723          	sh	s7,14(sp)
    a0d4:	01885463          	bge	a6,s8,a0dc <.L782+0x18>
    a0d8:	d31fa06f          	j	4e08 <.L783>
    a0dc:	dfdfa06f          	j	4ed8 <.L2387>

0000a0e0 <.L2111>:
    a0e0:	00815b03          	lhu	s6,8(sp)
    a0e4:	02e00b93          	li	s7,46
    a0e8:	ffeb0b13          	addi	s6,s6,-2
    a0ec:	01611423          	sh	s6,8(sp)
    a0f0:	01dbc463          	blt	s7,t4,a0f8 <.L2111+0x18>
    a0f4:	aa4fa06f          	j	4398 <.L2099>
    a0f8:	ea1f806f          	j	2f98 <.L2112>

0000a0fc <.L357>:
    a0fc:	00a15b83          	lhu	s7,10(sp)
    a100:	17000c13          	li	s8,368
    a104:	00bb8b93          	addi	s7,s7,11
    a108:	01711523          	sh	s7,10(sp)
    a10c:	00dc4463          	blt	s8,a3,a114 <.L357+0x18>
    a110:	df5fc06f          	j	6f04 <.L354>
    a114:	ed4fd06f          	j	77e8 <.L359>

0000a118 <.L367>:
    a118:	00c15b83          	lhu	s7,12(sp)
    a11c:	e9900c13          	li	s8,-359
    a120:	00ab8b93          	addi	s7,s7,10
    a124:	01711623          	sh	s7,12(sp)
    a128:	0185d463          	bge	a1,s8,a130 <.L367+0x18>
    a12c:	a38f906f          	j	3364 <.L368>
    a130:	d11fc06f          	j	6e40 <.L2366>

0000a134 <.L1500>:
    a134:	00e15b83          	lhu	s7,14(sp)
    a138:	ffbb8b93          	addi	s7,s7,-5
    a13c:	01711723          	sh	s7,14(sp)
    a140:	f9df906f          	j	40dc <.L1497>

0000a144 <.L1025>:
    a144:	00c15b83          	lhu	s7,12(sp)
    a148:	003b8b93          	addi	s7,s7,3
    a14c:	01711623          	sh	s7,12(sp)
    a150:	dd1f706f          	j	1f20 <.L1014>

0000a154 <.L1430>:
    a154:	00a15b83          	lhu	s7,10(sp)
    a158:	004b8b93          	addi	s7,s7,4
    a15c:	01711523          	sh	s7,10(sp)
    a160:	b98f806f          	j	24f8 <.L1429>

0000a164 <.L1425>:
    a164:	00815b83          	lhu	s7,8(sp)
    a168:	ffeb8b93          	addi	s7,s7,-2
    a16c:	01711423          	sh	s7,8(sp)
    a170:	e61f906f          	j	3fd0 <.L1426>

0000a174 <.L1261>:
    a174:	00e15b83          	lhu	s7,14(sp)
    a178:	fffb8b93          	addi	s7,s7,-1
    a17c:	010b9b93          	slli	s7,s7,0x10
    a180:	410bdb93          	srai	s7,s7,0x10
    a184:	cb0f706f          	j	1634 <.L1259>

0000a188 <.L1070>:
    a188:	00e15b83          	lhu	s7,14(sp)
    a18c:	ffe00c13          	li	s8,-2
    a190:	ff8b8b93          	addi	s7,s7,-8
    a194:	01711723          	sh	s7,14(sp)
    a198:	01885463          	bge	a6,s8,a1a0 <.L1070+0x18>
    a19c:	f99fe06f          	j	9134 <.L1061>
    a1a0:	9b8f706f          	j	1358 <.L1062>

0000a1a4 <.L925>:
    a1a4:	00a15b83          	lhu	s7,10(sp)
    a1a8:	03300c13          	li	s8,51
    a1ac:	ffab8b93          	addi	s7,s7,-6
    a1b0:	01711523          	sh	s7,10(sp)
    a1b4:	00fc4463          	blt	s8,a5,a1bc <.L925+0x18>
    a1b8:	954fb06f          	j	530c <.L923>
    a1bc:	be5f706f          	j	1da0 <.L918>

0000a1c0 <.L2909>:
    a1c0:	00a15b83          	lhu	s7,10(sp)
    a1c4:	00bb8b93          	addi	s7,s7,11
    a1c8:	010b9b93          	slli	s7,s7,0x10
    a1cc:	410bdb93          	srai	s7,s7,0x10
    a1d0:	f08f606f          	j	8d8 <.L383>

0000a1d4 <.L2192>:
    a1d4:	00815f03          	lhu	t5,8(sp)
    a1d8:	002f0f13          	addi	t5,t5,2
    a1dc:	01e11423          	sh	t5,8(sp)
    a1e0:	f0df806f          	j	30ec <.L2189>

0000a1e4 <.L414>:
    a1e4:	00e15b83          	lhu	s7,14(sp)
    a1e8:	00bb8b93          	addi	s7,s7,11
    a1ec:	010b9b93          	slli	s7,s7,0x10
    a1f0:	410bdb93          	srai	s7,s7,0x10
    a1f4:	f48f606f          	j	93c <.L412>

0000a1f8 <.L2144>:
    a1f8:	00e15b03          	lhu	s6,14(sp)
    a1fc:	ff8b0b13          	addi	s6,s6,-8
    a200:	010b1b13          	slli	s6,s6,0x10
    a204:	410b5b13          	srai	s6,s6,0x10
    a208:	964fb06f          	j	536c <.L2138>

0000a20c <.L577>:
    a20c:	00c15b83          	lhu	s7,12(sp)
    a210:	ffab8b93          	addi	s7,s7,-6
    a214:	010b9b93          	slli	s7,s7,0x10
    a218:	010bdb93          	srli	s7,s7,0x10
    a21c:	9edf606f          	j	c08 <.L578>

0000a220 <.L2031>:
    a220:	00a15b83          	lhu	s7,10(sp)
    a224:	ffdb8b93          	addi	s7,s7,-3
    a228:	01711523          	sh	s7,10(sp)
    a22c:	a10fb06f          	j	543c <.L2037>

0000a230 <.L598>:
    a230:	00e15b83          	lhu	s7,14(sp)
    a234:	0a900c13          	li	s8,169
    a238:	00ab8b93          	addi	s7,s7,10
    a23c:	01711723          	sh	s7,14(sp)
    a240:	01ec4463          	blt	s8,t5,a248 <.L598+0x18>
    a244:	e34f706f          	j	1878 <.L600>
    a248:	e14fb06f          	j	585c <.L2580>

0000a24c <.L56>:
    a24c:	00a15883          	lhu	a7,10(sp)
    a250:	df700e13          	li	t3,-521
    a254:	01688893          	addi	a7,a7,22
    a258:	01111523          	sh	a7,10(sp)
    a25c:	01ca5463          	bge	s4,t3,a264 <.L56+0x18>
    a260:	e70f906f          	j	38d0 <.L60>
    a264:	02a51883          	lh	a7,42(a0)
    a268:	d8cfc06f          	j	67f4 <.L2949>

0000a26c <.L61>:
    a26c:	00a15883          	lhu	a7,10(sp)
    a270:	df700e13          	li	t3,-521
    a274:	01188893          	addi	a7,a7,17
    a278:	01111523          	sh	a7,10(sp)
    a27c:	01ca5463          	bge	s4,t3,a284 <.L61+0x18>
    a280:	e50f906f          	j	38d0 <.L60>
    a284:	02a51883          	lh	a7,42(a0)
    a288:	d6cfc06f          	j	67f4 <.L2949>

0000a28c <.L2271>:
    a28c:	00e15b83          	lhu	s7,14(sp)
    a290:	001b8b93          	addi	s7,s7,1
    a294:	01711723          	sh	s7,14(sp)
    a298:	c2cfc06f          	j	66c4 <.L641>

0000a29c <.L380>:
    a29c:	00815b83          	lhu	s7,8(sp)
    a2a0:	0b500c13          	li	s8,181
    a2a4:	fffb8b93          	addi	s7,s7,-1
    a2a8:	01711423          	sh	s7,8(sp)
    a2ac:	006c5463          	bge	s8,t1,a2b4 <.L380+0x18>
    a2b0:	d98fc06f          	j	6848 <.L381>
    a2b4:	e08f606f          	j	8bc <.L2565>

0000a2b8 <.L2912>:
    a2b8:	00815b83          	lhu	s7,8(sp)
    a2bc:	ffeb8b93          	addi	s7,s7,-2
    a2c0:	010b9b93          	slli	s7,s7,0x10
    a2c4:	410bdb93          	srai	s7,s7,0x10
    a2c8:	eb0f606f          	j	978 <.L420>

0000a2cc <.L1954>:
    a2cc:	00a15b83          	lhu	s7,10(sp)
    a2d0:	003b8b93          	addi	s7,s7,3
    a2d4:	010b9b93          	slli	s7,s7,0x10
    a2d8:	010bdb93          	srli	s7,s7,0x10
    a2dc:	d15fc06f          	j	6ff0 <.L1955>

0000a2e0 <.L402>:
    a2e0:	00c15b83          	lhu	s7,12(sp)
    a2e4:	ffcb8b93          	addi	s7,s7,-4
    a2e8:	010b9b93          	slli	s7,s7,0x10
    a2ec:	410bdb93          	srai	s7,s7,0x10
    a2f0:	e20f606f          	j	910 <.L403>

0000a2f4 <.L399>:
    a2f4:	00a15b83          	lhu	s7,10(sp)
    a2f8:	008b8b93          	addi	s7,s7,8
    a2fc:	010b9b93          	slli	s7,s7,0x10
    a300:	410bdb93          	srai	s7,s7,0x10
    a304:	dd4f606f          	j	8d8 <.L383>

0000a308 <.L2246>:
    a308:	00a15703          	lhu	a4,10(sp)
    a30c:	ffe70713          	addi	a4,a4,-2
    a310:	01071713          	slli	a4,a4,0x10
    a314:	41075713          	srai	a4,a4,0x10
    a318:	915f906f          	j	3c2c <.L2247>

0000a31c <.L2244>:
    a31c:	00a15703          	lhu	a4,10(sp)
    a320:	f5b00693          	li	a3,-165
    a324:	00370713          	addi	a4,a4,3
    a328:	00e11523          	sh	a4,10(sp)
    a32c:	00d2c463          	blt	t0,a3,a334 <.L2244+0x18>
    a330:	a20fa06f          	j	4550 <.L2240>
    a334:	ea9f806f          	j	31dc <.L2669>

0000a338 <.L2265>:
    a338:	00a15b83          	lhu	s7,10(sp)
    a33c:	0dd00c13          	li	s8,221
    a340:	006b8b93          	addi	s7,s7,6
    a344:	01711523          	sh	s7,10(sp)
    a348:	d6dc40e3          	blt	s8,a3,a0a8 <.L738>
    a34c:	f5000b93          	li	s7,-176
    a350:	0175c463          	blt	a1,s7,a358 <.L2265+0x20>
    a354:	1ed0106f          	j	bd40 <.L739>
    a358:	00f00b93          	li	s7,15
    a35c:	010bd463          	bge	s7,a6,a364 <.L2265+0x2c>
    a360:	3f50106f          	j	bf54 <.L740>
    a364:	00c15b83          	lhu	s7,12(sp)
    a368:	ff8b8b93          	addi	s7,s7,-8
    a36c:	01711623          	sh	s7,12(sp)
    a370:	e59fa06f          	j	51c8 <.L741>

0000a374 <.L1797>:
    a374:	00a15b83          	lhu	s7,10(sp)
    a378:	ff8b8b93          	addi	s7,s7,-8
    a37c:	010b9b93          	slli	s7,s7,0x10
    a380:	410bdb93          	srai	s7,s7,0x10
    a384:	ee8f806f          	j	2a6c <.L1793>

0000a388 <.L453>:
    a388:	00e15b83          	lhu	s7,14(sp)
    a38c:	008b8b93          	addi	s7,s7,8
    a390:	010b9b93          	slli	s7,s7,0x10
    a394:	410bdb93          	srai	s7,s7,0x10
    a398:	99cf906f          	j	3534 <.L454>

0000a39c <.L721>:
    a39c:	00e15b83          	lhu	s7,14(sp)
    a3a0:	ff7b8b93          	addi	s7,s7,-9
    a3a4:	01711723          	sh	s7,14(sp)
    a3a8:	ed8f706f          	j	1a80 <.L722>

0000a3ac <.L1715>:
    a3ac:	00815b83          	lhu	s7,8(sp)
    a3b0:	fffb8b93          	addi	s7,s7,-1
    a3b4:	010b9b93          	slli	s7,s7,0x10
    a3b8:	010bdb93          	srli	s7,s7,0x10
    a3bc:	c09fa06f          	j	4fc4 <.L1716>

0000a3c0 <.L2042>:
    a3c0:	00a15b83          	lhu	s7,10(sp)
    a3c4:	003b8b93          	addi	s7,s7,3
    a3c8:	01711523          	sh	s7,10(sp)
    a3cc:	870fb06f          	j	543c <.L2037>

0000a3d0 <.L2017>:
    a3d0:	00e15b83          	lhu	s7,14(sp)
    a3d4:	ffeb8b93          	addi	s7,s7,-2
    a3d8:	010b9b93          	slli	s7,s7,0x10
    a3dc:	410bdb93          	srai	s7,s7,0x10
    a3e0:	a2df806f          	j	2e0c <.L2015>

0000a3e4 <.L1717>:
    a3e4:	00815b83          	lhu	s7,8(sp)
    a3e8:	00cb8b93          	addi	s7,s7,12
    a3ec:	010b9b93          	slli	s7,s7,0x10
    a3f0:	010bdb93          	srli	s7,s7,0x10
    a3f4:	bc5fd06f          	j	7fb8 <.L1718>

0000a3f8 <.L2769>:
    a3f8:	00c15b83          	lhu	s7,12(sp)
    a3fc:	03c00c13          	li	s8,60
    a400:	007b8b93          	addi	s7,s7,7
    a404:	01711623          	sh	s7,12(sp)
    a408:	00fc4463          	blt	s8,a5,a410 <.L2769+0x18>
    a40c:	a88fa06f          	j	4694 <.L1292>
    a410:	abcf706f          	j	16cc <.L2611>

0000a414 <.L1546>:
    a414:	00c15b83          	lhu	s7,12(sp)
    a418:	01800c13          	li	s8,24
    a41c:	ffab8b93          	addi	s7,s7,-6
    a420:	01711623          	sh	s7,12(sp)
    a424:	010c4463          	blt	s8,a6,a42c <.L1546+0x18>
    a428:	9bcfa06f          	j	45e4 <.L1544>
    a42c:	86df906f          	j	3c98 <.L1545>

0000a430 <.L1790>:
    a430:	00815b83          	lhu	s7,8(sp)
    a434:	001b8b93          	addi	s7,s7,1
    a438:	010b9b93          	slli	s7,s7,0x10
    a43c:	010bdb93          	srli	s7,s7,0x10
    a440:	ce8fd06f          	j	7928 <.L1791>

0000a444 <.L1285>:
    a444:	00a15b83          	lhu	s7,10(sp)
    a448:	03300c13          	li	s8,51
    a44c:	ff8b8b93          	addi	s7,s7,-8
    a450:	01711523          	sh	s7,10(sp)
    a454:	00fc4463          	blt	s8,a5,a45c <.L1285+0x18>
    a458:	a24fa06f          	j	467c <.L1287>
    a45c:	8f5fb06f          	j	5d50 <.L1284>

0000a460 <.L2158>:
    a460:	00a15b03          	lhu	s6,10(sp)
    a464:	fdb00b93          	li	s7,-37
    a468:	ff9b0b13          	addi	s6,s6,-7
    a46c:	01611523          	sh	s6,10(sp)
    a470:	01774463          	blt	a4,s7,a478 <.L2165>
    a474:	e7cf906f          	j	3af0 <.L2159>

0000a478 <.L2165>:
    a478:	00a00693          	li	a3,10
    a47c:	0136d463          	bge	a3,s3,a484 <.L2165+0xc>
    a480:	2880106f          	j	b708 <.L2177>
    a484:	00c15683          	lhu	a3,12(sp)
    a488:	ff868693          	addi	a3,a3,-8
    a48c:	00d11623          	sh	a3,12(sp)
    a490:	e74f906f          	j	3b04 <.L2161>

0000a494 <.L1746>:
    a494:	00e15b83          	lhu	s7,14(sp)
    a498:	ffbb8b93          	addi	s7,s7,-5
    a49c:	010b9b93          	slli	s7,s7,0x10
    a4a0:	410bdb93          	srai	s7,s7,0x10
    a4a4:	d75fa06f          	j	5218 <.L1744>

0000a4a8 <.L23>:
    a4a8:	01a00793          	li	a5,26
    a4ac:	00f11523          	sh	a5,10(sp)
    a4b0:	d5c00793          	li	a5,-676
    a4b4:	01851603          	lh	a2,24(a0)
    a4b8:	0cfacae3          	blt	s5,a5,ad8c <.L2338>
    a4bc:	01251483          	lh	s1,18(a0)
    a4c0:	01051b03          	lh	s6,16(a0)
    a4c4:	b68fe06f          	j	882c <.L20>

0000a4c8 <.L19>:
    a4c8:	02400793          	li	a5,36
    a4cc:	00f11523          	sh	a5,10(sp)
    a4d0:	d5c00793          	li	a5,-676
    a4d4:	01851603          	lh	a2,24(a0)
    a4d8:	00fad463          	bge	s5,a5,a4e0 <.L2542>
    a4dc:	e09f506f          	j	2e4 <.L2337>

0000a4e0 <.L2542>:
    a4e0:	01251483          	lh	s1,18(a0)
    a4e4:	02851e83          	lh	t4,40(a0)
    a4e8:	b44fe06f          	j	882c <.L20>

0000a4ec <.L2195>:
    a4ec:	00a15503          	lhu	a0,10(sp)
    a4f0:	ffd50513          	addi	a0,a0,-3
    a4f4:	01051513          	slli	a0,a0,0x10
    a4f8:	41055513          	srai	a0,a0,0x10
    a4fc:	c25f806f          	j	3120 <.L2196>

0000a500 <.L500>:
    a500:	00e15b83          	lhu	s7,14(sp)
    a504:	00ab8b93          	addi	s7,s7,10
    a508:	010b9b93          	slli	s7,s7,0x10
    a50c:	410bdb93          	srai	s7,s7,0x10
    a510:	97cfb06f          	j	568c <.L504>

0000a514 <.L2012>:
    a514:	00c15b83          	lhu	s7,12(sp)
    a518:	ffbb8b93          	addi	s7,s7,-5
    a51c:	01711623          	sh	s7,12(sp)
    a520:	8c5f806f          	j	2de4 <.L2010>

0000a524 <.L709>:
    a524:	00c15b83          	lhu	s7,12(sp)
    a528:	ff7b8b93          	addi	s7,s7,-9
    a52c:	010b9b93          	slli	s7,s7,0x10
    a530:	410bdb93          	srai	s7,s7,0x10
    a534:	8d9f606f          	j	e0c <.L706>

0000a538 <.L2235>:
    a538:	00815683          	lhu	a3,8(sp)
    a53c:	fff68693          	addi	a3,a3,-1
    a540:	01069693          	slli	a3,a3,0x10
    a544:	4106d693          	srai	a3,a3,0x10
    a548:	c59f806f          	j	31a0 <.L2236>

0000a54c <.L87>:
    a54c:	00815e03          	lhu	t3,8(sp)
    a550:	ff7e0e13          	addi	t3,t3,-9
    a554:	010e1e13          	slli	t3,t3,0x10
    a558:	010e5e13          	srli	t3,t3,0x10
    a55c:	cb5f506f          	j	210 <.L2548>

0000a560 <.L2203>:
    a560:	00a15503          	lhu	a0,10(sp)
    a564:	00550513          	addi	a0,a0,5
    a568:	01051513          	slli	a0,a0,0x10
    a56c:	41055513          	srai	a0,a0,0x10
    a570:	bb1f806f          	j	3120 <.L2196>

0000a574 <.L84>:
    a574:	00815e03          	lhu	t3,8(sp)
    a578:	02651383          	lh	t2,38(a0)
    a57c:	011e0e13          	addi	t3,t3,17
    a580:	01c11423          	sh	t3,8(sp)
    a584:	c91f506f          	j	214 <.L85>

0000a588 <.L787>:
    a588:	00815b83          	lhu	s7,8(sp)
    a58c:	03300c13          	li	s8,51
    a590:	014b8b93          	addi	s7,s7,20
    a594:	01711423          	sh	s7,8(sp)
    a598:	01fc4463          	blt	s8,t6,a5a0 <.L787+0x18>
    a59c:	de0f706f          	j	1b7c <.L788>
    a5a0:	00a15b83          	lhu	s7,10(sp)
    a5a4:	ffc00c13          	li	s8,-4
    a5a8:	004b8b93          	addi	s7,s7,4
    a5ac:	01711523          	sh	s7,10(sp)
    a5b0:	01864463          	blt	a2,s8,a5b8 <.L787+0x30>
    a5b4:	8b9fa06f          	j	4e6c <.L803>
    a5b8:	df0f706f          	j	1ba8 <.L797>

0000a5bc <.L1755>:
    a5bc:	00a15b83          	lhu	s7,10(sp)
    a5c0:	ffcb8b93          	addi	s7,s7,-4
    a5c4:	01711523          	sh	s7,10(sp)
    a5c8:	bfcf806f          	j	29c4 <.L1756>

0000a5cc <.L78>:
    a5cc:	00e15e03          	lhu	t3,14(sp)
    a5d0:	0d900393          	li	t2,217
    a5d4:	017e0e13          	addi	t3,t3,23
    a5d8:	01c11723          	sh	t3,14(sp)
    a5dc:	01e3c463          	blt	t2,t5,a5e4 <.L78+0x18>
    a5e0:	93cfd06f          	j	771c <.L80>
    a5e4:	05700e13          	li	t3,87
    a5e8:	006e5463          	bge	t3,t1,a5f0 <.L81>
    a5ec:	c19f506f          	j	204 <.L82>

0000a5f0 <.L81>:
    a5f0:	00815e03          	lhu	t3,8(sp)
    a5f4:	02651383          	lh	t2,38(a0)
    a5f8:	ff8e0e13          	addi	t3,t3,-8
    a5fc:	01c11423          	sh	t3,8(sp)
    a600:	c15f506f          	j	214 <.L85>

0000a604 <.L1053>:
    a604:	00a15b83          	lhu	s7,10(sp)
    a608:	006b8b93          	addi	s7,s7,6
    a60c:	010b9b93          	slli	s7,s7,0x10
    a610:	410bdb93          	srai	s7,s7,0x10
    a614:	cfdf606f          	j	1310 <.L1045>

0000a618 <.L1397>:
    a618:	00a15b83          	lhu	s7,10(sp)
    a61c:	ff7b8b93          	addi	s7,s7,-9
    a620:	010b9b93          	slli	s7,s7,0x10
    a624:	410bdb93          	srai	s7,s7,0x10
    a628:	e19f706f          	j	2440 <.L1399>

0000a62c <.L137>:
    a62c:	00815e03          	lhu	t3,8(sp)
    a630:	0a600b93          	li	s7,166
    a634:	fffe0e13          	addi	t3,t3,-1
    a638:	01c11423          	sh	t3,8(sp)
    a63c:	00ebc463          	blt	s7,a4,a644 <.L137+0x18>
    a640:	adcf906f          	j	391c <.L143>
    a644:	e95f506f          	j	4d8 <.L2551>

0000a648 <.L235>:
    a648:	00a15e03          	lhu	t3,10(sp)
    a64c:	08c00b93          	li	s7,140
    a650:	00fe0e13          	addi	t3,t3,15
    a654:	01c11523          	sh	t3,10(sp)
    a658:	00dbc463          	blt	s7,a3,a660 <.L235+0x18>
    a65c:	fe0fb06f          	j	5e3c <.L239>
    a660:	85cf606f          	j	6bc <.L236>

0000a664 <.L132>:
    a664:	00e15e03          	lhu	t3,14(sp)
    a668:	011e0e13          	addi	t3,t3,17
    a66c:	010e1e13          	slli	t3,t3,0x10
    a670:	410e5e13          	srai	t3,t3,0x10
    a674:	e29f506f          	j	49c <.L129>

0000a678 <.L666>:
    a678:	00a15b83          	lhu	s7,10(sp)
    a67c:	003b8b93          	addi	s7,s7,3
    a680:	010b9b93          	slli	s7,s7,0x10
    a684:	410bdb93          	srai	s7,s7,0x10
    a688:	e8cf606f          	j	d14 <.L662>

0000a68c <.L835>:
    a68c:	00a15b83          	lhu	s7,10(sp)
    a690:	ff9b8b93          	addi	s7,s7,-7
    a694:	010b9b93          	slli	s7,s7,0x10
    a698:	410bdb93          	srai	s7,s7,0x10
    a69c:	921f606f          	j	fbc <.L829>

0000a6a0 <.L347>:
    a6a0:	00815b83          	lhu	s7,8(sp)
    a6a4:	ff6b8b93          	addi	s7,s7,-10
    a6a8:	01711423          	sh	s7,8(sp)
    a6ac:	94cf606f          	j	7f8 <.L344>

0000a6b0 <.L133>:
    a6b0:	00e15e03          	lhu	t3,14(sp)
    a6b4:	ff6e0e13          	addi	t3,t3,-10
    a6b8:	010e1e13          	slli	t3,t3,0x10
    a6bc:	010e5e13          	srli	t3,t3,0x10
    a6c0:	01c11723          	sh	t3,14(sp)
    a6c4:	f05f506f          	j	5c8 <.L135>

0000a6c8 <.L2901>:
    a6c8:	00a15e03          	lhu	t3,10(sp)
    a6cc:	10b00b93          	li	s7,267
    a6d0:	00ce0e13          	addi	t3,t3,12
    a6d4:	01c11523          	sh	t3,10(sp)
    a6d8:	00dbc463          	blt	s7,a3,a6e0 <.L2901+0x18>
    a6dc:	eb8fb06f          	j	5d94 <.L161>
    a6e0:	2ff00e13          	li	t3,767
    a6e4:	00ee4463          	blt	t3,a4,a6ec <.L163>
    a6e8:	edcfc06f          	j	6dc4 <.L156>

0000a6ec <.L163>:
    a6ec:	00c15e03          	lhu	t3,12(sp)
    a6f0:	03d00b93          	li	s7,61
    a6f4:	ff5e0e13          	addi	t3,t3,-11
    a6f8:	01c11623          	sh	t3,12(sp)
    a6fc:	01778463          	beq	a5,s7,a704 <.L184>
    a700:	9b1fb06f          	j	60b0 <.L183>

0000a704 <.L184>:
    a704:	03d00793          	li	a5,61
    a708:	f31f506f          	j	638 <.L174>

0000a70c <.L511>:
    a70c:	00815b83          	lhu	s7,8(sp)
    a710:	fffb8b93          	addi	s7,s7,-1
    a714:	010b9b93          	slli	s7,s7,0x10
    a718:	410bdb93          	srai	s7,s7,0x10
    a71c:	d99f906f          	j	44b4 <.L512>

0000a720 <.L1518>:
    a720:	00a15b83          	lhu	s7,10(sp)
    a724:	ffbb8b93          	addi	s7,s7,-5
    a728:	010b9b93          	slli	s7,s7,0x10
    a72c:	410bdb93          	srai	s7,s7,0x10
    a730:	a09f906f          	j	4138 <.L1517>

0000a734 <.L644>:
    a734:	00c15b83          	lhu	s7,12(sp)
    a738:	ff9b8b93          	addi	s7,s7,-7
    a73c:	010b9b93          	slli	s7,s7,0x10
    a740:	410bdb93          	srai	s7,s7,0x10
    a744:	f51fb06f          	j	6694 <.L623>

0000a748 <.L654>:
    a748:	00e15b83          	lhu	s7,14(sp)
    a74c:	0a900c13          	li	s8,169
    a750:	d70f606f          	j	cc0 <.L2585>

0000a754 <.L363>:
    a754:	00c15b83          	lhu	s7,12(sp)
    a758:	ffab8b93          	addi	s7,s7,-6
    a75c:	010b9b93          	slli	s7,s7,0x10
    a760:	410bdb93          	srai	s7,s7,0x10
    a764:	8e0f606f          	j	844 <.L352>

0000a768 <.L2915>:
    a768:	00c15b83          	lhu	s7,12(sp)
    a76c:	008b8b93          	addi	s7,s7,8
    a770:	010b9b93          	slli	s7,s7,0x10
    a774:	410bdb93          	srai	s7,s7,0x10
    a778:	8ccf606f          	j	844 <.L352>

0000a77c <.L2799>:
    a77c:	00c00b93          	li	s7,12
    a780:	dbcbca63          	blt	s7,t3,9d34 <.L1252>

0000a784 <.L1251>:
    a784:	01700b93          	li	s7,23
    a788:	01dbd463          	bge	s7,t4,a790 <.L1251+0xc>
    a78c:	ef9f606f          	j	1684 <.L1268>
    a790:	03300b93          	li	s7,51
    a794:	00fbc463          	blt	s7,a5,a79c <.L1251+0x18>
    a798:	ed9f906f          	j	4670 <.L2733>
    a79c:	b65f706f          	j	2300 <.L1279>

0000a7a0 <.L1548>:
    a7a0:	00e15b83          	lhu	s7,14(sp)
    a7a4:	ff6b8b93          	addi	s7,s7,-10
    a7a8:	01711723          	sh	s7,14(sp)
    a7ac:	ef1f706f          	j	269c <.L1539>

0000a7b0 <.L2803>:
    a7b0:	00a15b83          	lhu	s7,10(sp)
    a7b4:	ffcb8b93          	addi	s7,s7,-4
    a7b8:	010b9b93          	slli	s7,s7,0x10
    a7bc:	410bdb93          	srai	s7,s7,0x10
    a7c0:	c81f706f          	j	2440 <.L1399>

0000a7c4 <.L267>:
    a7c4:	00c15e03          	lhu	t3,12(sp)
    a7c8:	ff8e0e13          	addi	t3,t3,-8
    a7cc:	010e1e13          	slli	t3,t3,0x10
    a7d0:	410e5e13          	srai	t3,t3,0x10
    a7d4:	f05f506f          	j	6d8 <.L263>

0000a7d8 <.L661>:
    a7d8:	00a15b83          	lhu	s7,10(sp)
    a7dc:	ff9b8b93          	addi	s7,s7,-7
    a7e0:	010b9b93          	slli	s7,s7,0x10
    a7e4:	410bdb93          	srai	s7,s7,0x10
    a7e8:	d2cf606f          	j	d14 <.L662>

0000a7ec <.L1081>:
    a7ec:	00c15b83          	lhu	s7,12(sp)
    a7f0:	00ab8b93          	addi	s7,s7,10
    a7f4:	010b9b93          	slli	s7,s7,0x10
    a7f8:	410bdb93          	srai	s7,s7,0x10
    a7fc:	fb4f706f          	j	1fb0 <.L1074>

0000a800 <.L843>:
    a800:	00c15b83          	lhu	s7,12(sp)
    a804:	d2a00c13          	li	s8,-726
    a808:	008b8b93          	addi	s7,s7,8
    a80c:	01711623          	sh	s7,12(sp)
    a810:	0185c463          	blt	a1,s8,a818 <.L843+0x18>
    a814:	c70f706f          	j	1c84 <.L2592>
    a818:	990fb06f          	j	59a8 <.L850>

0000a81c <.L524>:
    a81c:	00a15b83          	lhu	s7,10(sp)
    a820:	17000c13          	li	s8,368
    a824:	ffbb8b93          	addi	s7,s7,-5
    a828:	01711523          	sh	s7,10(sp)
    a82c:	00dc4463          	blt	s8,a3,a834 <.L527>
    a830:	c2dfc06f          	j	745c <.L525>

0000a834 <.L527>:
    a834:	00c15b83          	lhu	s7,12(sp)
    a838:	ffab8b93          	addi	s7,s7,-6
    a83c:	010b9b93          	slli	s7,s7,0x10
    a840:	410bdb93          	srai	s7,s7,0x10
    a844:	b10f606f          	j	b54 <.L538>

0000a848 <.L1117>:
    a848:	00e15b83          	lhu	s7,14(sp)
    a84c:	01500c13          	li	s8,21
    a850:	ff7b8b93          	addi	s7,s7,-9
    a854:	01711723          	sh	s7,14(sp)
    a858:	007c4463          	blt	s8,t2,a860 <.L1117+0x18>
    a85c:	845f706f          	j	20a0 <.L1118>
    a860:	ba1f606f          	j	1400 <.L2601>

0000a864 <.L1438>:
    a864:	00c15b83          	lhu	s7,12(sp)
    a868:	005b8b93          	addi	s7,s7,5
    a86c:	01711623          	sh	s7,12(sp)
    a870:	cb5f706f          	j	2524 <.L1435>

0000a874 <.L579>:
    a874:	00c15b83          	lhu	s7,12(sp)
    a878:	e0800c13          	li	s8,-504
    a87c:	ffab8b93          	addi	s7,s7,-6
    a880:	01711623          	sh	s7,12(sp)
    a884:	01845463          	bge	s0,s8,a88c <.L579+0x18>
    a888:	addfc06f          	j	7364 <.L580>
    a88c:	b8cf606f          	j	c18 <.L581>

0000a890 <.L1067>:
    a890:	00e15b83          	lhu	s7,14(sp)
    a894:	ffe00c13          	li	s8,-2
    a898:	ff9b8b93          	addi	s7,s7,-7
    a89c:	01711723          	sh	s7,14(sp)
    a8a0:	01885463          	bge	a6,s8,a8a8 <.L1067+0x18>
    a8a4:	891fe06f          	j	9134 <.L1061>
    a8a8:	03c00b93          	li	s7,60
    a8ac:	00fbd463          	bge	s7,a5,a8b4 <.L1073>
    a8b0:	f48f706f          	j	1ff8 <.L1089>

0000a8b4 <.L1073>:
    a8b4:	00815b83          	lhu	s7,8(sp)
    a8b8:	ffeb8b93          	addi	s7,s7,-2
    a8bc:	010b9b93          	slli	s7,s7,0x10
    a8c0:	410bdb93          	srai	s7,s7,0x10
    a8c4:	ab1f606f          	j	1374 <.L1092>

0000a8c8 <.L1877>:
    a8c8:	00a15b83          	lhu	s7,10(sp)
    a8cc:	001b8b93          	addi	s7,s7,1
    a8d0:	01711523          	sh	s7,10(sp)
    a8d4:	ae0f806f          	j	2bb4 <.L1880>

0000a8d8 <.L839>:
    a8d8:	00c15b83          	lhu	s7,12(sp)
    a8dc:	ff6b8b93          	addi	s7,s7,-10
    a8e0:	01711623          	sh	s7,12(sp)
    a8e4:	f04f606f          	j	fe8 <.L838>

0000a8e8 <.L2239>:
    a8e8:	00a15703          	lhu	a4,10(sp)
    a8ec:	f5b00693          	li	a3,-165
    a8f0:	ff970713          	addi	a4,a4,-7
    a8f4:	00e11523          	sh	a4,10(sp)
    a8f8:	00d2c463          	blt	t0,a3,a900 <.L2239+0x18>
    a8fc:	c55f906f          	j	4550 <.L2240>
    a900:	8ddf806f          	j	31dc <.L2669>

0000a904 <.L191>:
    a904:	00e15e03          	lhu	t3,14(sp)
    a908:	00de0e13          	addi	t3,t3,13
    a90c:	010e1e13          	slli	t3,t3,0x10
    a910:	410e5e13          	srai	t3,t3,0x10
    a914:	880f906f          	j	3994 <.L190>

0000a918 <.L980>:
    a918:	00c15b83          	lhu	s7,12(sp)
    a91c:	ff7b8b93          	addi	s7,s7,-9
    a920:	010b9b93          	slli	s7,s7,0x10
    a924:	410bdb93          	srai	s7,s7,0x10
    a928:	d4cf706f          	j	1e74 <.L979>

0000a92c <.L2763>:
    a92c:	00e15b83          	lhu	s7,14(sp)
    a930:	fa300c13          	li	s8,-93
    a934:	009b8b93          	addi	s7,s7,9
    a938:	01711723          	sh	s7,14(sp)
    a93c:	0182d463          	bge	t0,s8,a944 <.L2763+0x18>
    a940:	cbcfb06f          	j	5dfc <.L985>
    a944:	e19f906f          	j	475c <.L2595>

0000a948 <.L364>:
    a948:	00a15b83          	lhu	s7,10(sp)
    a94c:	ffbb8b93          	addi	s7,s7,-5
    a950:	010b9b93          	slli	s7,s7,0x10
    a954:	010bdb93          	srli	s7,s7,0x10
    a958:	d94fc06f          	j	6eec <.L365>

0000a95c <.L975>:
    a95c:	00c15b83          	lhu	s7,12(sp)
    a960:	00eb8b93          	addi	s7,s7,14
    a964:	010b9b93          	slli	s7,s7,0x10
    a968:	410bdb93          	srai	s7,s7,0x10
    a96c:	d08f706f          	j	1e74 <.L979>

0000a970 <.L377>:
    a970:	00e15b83          	lhu	s7,14(sp)
    a974:	ff9b8b93          	addi	s7,s7,-7
    a978:	010b9b93          	slli	s7,s7,0x10
    a97c:	410bdb93          	srai	s7,s7,0x10
    a980:	efdf506f          	j	87c <.L375>

0000a984 <.L973>:
    a984:	00a15b83          	lhu	s7,10(sp)
    a988:	fffb8b93          	addi	s7,s7,-1
    a98c:	010b9b93          	slli	s7,s7,0x10
    a990:	410bdb93          	srai	s7,s7,0x10
    a994:	829f606f          	j	11bc <.L969>

0000a998 <.L955>:
    a998:	00815b83          	lhu	s7,8(sp)
    a99c:	ff9b8b93          	addi	s7,s7,-7
    a9a0:	010b9b93          	slli	s7,s7,0x10
    a9a4:	410bdb93          	srai	s7,s7,0x10
    a9a8:	c78f706f          	j	1e20 <.L948>

0000a9ac <.L232>:
    a9ac:	00a15e03          	lhu	t3,10(sp)
    a9b0:	08c00b93          	li	s7,140
    a9b4:	017e0e13          	addi	t3,t3,23
    a9b8:	01c11523          	sh	t3,10(sp)
    a9bc:	00dbc463          	blt	s7,a3,a9c4 <.L232+0x18>
    a9c0:	c7cfb06f          	j	5e3c <.L239>
    a9c4:	cf9f506f          	j	6bc <.L236>

0000a9c8 <.L1525>:
    a9c8:	00a15b83          	lhu	s7,10(sp)
    a9cc:	f9800c13          	li	s8,-104
    a9d0:	001b8b93          	addi	s7,s7,1
    a9d4:	01711523          	sh	s7,10(sp)
    a9d8:	01844463          	blt	s0,s8,a9e0 <.L1525+0x18>
    a9dc:	bd9f906f          	j	45b4 <.L1507>
    a9e0:	00c15b83          	lhu	s7,12(sp)
    a9e4:	01800c13          	li	s8,24
    a9e8:	fffb8b93          	addi	s7,s7,-1
    a9ec:	01711623          	sh	s7,12(sp)
    a9f0:	010c5463          	bge	s8,a6,a9f8 <.L1525+0x30>
    a9f4:	c81f706f          	j	2674 <.L1534>
    a9f8:	11a00b93          	li	s7,282
    a9fc:	007bd463          	bge	s7,t2,aa04 <.L1525+0x3c>
    aa00:	bf1f906f          	j	45f0 <.L1536>
    aa04:	a74fd06f          	j	7c78 <.L1535>

0000aa08 <.L2919>:
    aa08:	00c15b83          	lhu	s7,12(sp)
    aa0c:	ffdb8b93          	addi	s7,s7,-3
    aa10:	010b9b93          	slli	s7,s7,0x10
    aa14:	410bdb93          	srai	s7,s7,0x10
    aa18:	fb4f706f          	j	21cc <.L1189>

0000aa1c <.L1454>:
    aa1c:	00a15b83          	lhu	s7,10(sp)
    aa20:	002b8b93          	addi	s7,s7,2
    aa24:	01711523          	sh	s7,10(sp)

0000aa28 <.L1485>:
    aa28:	02700b93          	li	s7,39
    aa2c:	01dbd463          	bge	s7,t4,aa34 <.L1482>
    aa30:	e68f906f          	j	4098 <.L1477>

0000aa34 <.L1482>:
    aa34:	00c15b83          	lhu	s7,12(sp)
    aa38:	003b8b93          	addi	s7,s7,3
    aa3c:	01711623          	sh	s7,12(sp)
    aa40:	b81f706f          	j	25c0 <.L1487>

0000aa44 <.L1556>:
    aa44:	00815b83          	lhu	s7,8(sp)
    aa48:	ffdb8b93          	addi	s7,s7,-3
    aa4c:	010b9b93          	slli	s7,s7,0x10
    aa50:	410bdb93          	srai	s7,s7,0x10
    aa54:	c7df706f          	j	26d0 <.L1553>

0000aa58 <.L223>:
    aa58:	00a15e03          	lhu	t3,10(sp)
    aa5c:	08c00b93          	li	s7,140
    aa60:	ffae0e13          	addi	t3,t3,-6
    aa64:	01c11523          	sh	t3,10(sp)
    aa68:	00dbd463          	bge	s7,a3,aa70 <.L241>
    aa6c:	f89f806f          	j	39f4 <.L225>

0000aa70 <.L241>:
    aa70:	00c15e03          	lhu	t3,12(sp)
    aa74:	ce400b93          	li	s7,-796
    aa78:	ff7e0e13          	addi	t3,t3,-9
    aa7c:	01c11623          	sh	t3,12(sp)
    aa80:	5b75c6e3          	blt	a1,s7,b82c <.L254>
    aa84:	00e15e03          	lhu	t3,14(sp)
    aa88:	ff6e0e13          	addi	t3,t3,-10
    aa8c:	01c11723          	sh	t3,14(sp)
    aa90:	ce5f806f          	j	3774 <.L280>

0000aa94 <.L238>:
    aa94:	00a15e03          	lhu	t3,10(sp)
    aa98:	08c00b93          	li	s7,140
    aa9c:	ffae0e13          	addi	t3,t3,-6
    aaa0:	01c11523          	sh	t3,10(sp)
    aaa4:	00dbd463          	bge	s7,a3,aaac <.L238+0x18>
    aaa8:	f4df806f          	j	39f4 <.L225>
    aaac:	03600e13          	li	t3,54
    aab0:	fcfe50e3          	bge	t3,a5,aa70 <.L241>

0000aab4 <.L243>:
    aab4:	01c51b83          	lh	s7,28(a0)
    aab8:	03b00e13          	li	t3,59
    aabc:	657e44e3          	blt	t3,s7,b904 <.L262>
    aac0:	00c15e03          	lhu	t3,12(sp)
    aac4:	ff7e0e13          	addi	t3,t3,-9
    aac8:	010e1e13          	slli	t3,t3,0x10
    aacc:	410e5e13          	srai	t3,t3,0x10
    aad0:	c09f506f          	j	6d8 <.L263>

0000aad4 <.L303>:
    aad4:	00815e03          	lhu	t3,8(sp)
    aad8:	fffe0e13          	addi	t3,t3,-1
    aadc:	010e1e13          	slli	t3,t3,0x10
    aae0:	410e5e13          	srai	t3,t3,0x10
    aae4:	cb9f806f          	j	379c <.L304>

0000aae8 <.L141>:
    aae8:	00815e03          	lhu	t3,8(sp)
    aaec:	0a600b93          	li	s7,166
    aaf0:	007e0e13          	addi	t3,t3,7
    aaf4:	01c11423          	sh	t3,8(sp)
    aaf8:	00ebc463          	blt	s7,a4,ab00 <.L141+0x18>
    aafc:	e21f806f          	j	391c <.L143>
    ab00:	9d9f506f          	j	4d8 <.L2551>

0000ab04 <.L663>:
    ab04:	00a15b83          	lhu	s7,10(sp)
    ab08:	ff6b8b93          	addi	s7,s7,-10
    ab0c:	010b9b93          	slli	s7,s7,0x10
    ab10:	410bdb93          	srai	s7,s7,0x10
    ab14:	a00f606f          	j	d14 <.L662>

0000ab18 <.L2865>:
    ab18:	02b00713          	li	a4,43
    ab1c:	01074463          	blt	a4,a6,ab24 <.L2216>
    ab20:	8f0f906f          	j	3c10 <.L2215>

0000ab24 <.L2216>:
    ab24:	00a15703          	lhu	a4,10(sp)
    ab28:	fff70713          	addi	a4,a4,-1
    ab2c:	01071713          	slli	a4,a4,0x10
    ab30:	41075713          	srai	a4,a4,0x10
    ab34:	8f8f906f          	j	3c2c <.L2247>

0000ab38 <.L2916>:
    ab38:	00c15b03          	lhu	s6,12(sp)
    ab3c:	002b0b13          	addi	s6,s6,2
    ab40:	010b1b13          	slli	s6,s6,0x10
    ab44:	410b5b13          	srai	s6,s6,0x10
    ab48:	bf8f806f          	j	2f40 <.L2082>

0000ab4c <.L1239>:
    ab4c:	00c15b83          	lhu	s7,12(sp)
    ab50:	ff7b8b93          	addi	s7,s7,-9
    ab54:	010b9b93          	slli	s7,s7,0x10
    ab58:	410bdb93          	srai	s7,s7,0x10
    ab5c:	f24f706f          	j	2280 <.L1240>

0000ab60 <.L154>:
    ab60:	00a15e03          	lhu	t3,10(sp)
    ab64:	10b00b93          	li	s7,267
    ab68:	ff6e0e13          	addi	t3,t3,-10
    ab6c:	01c11523          	sh	t3,10(sp)
    ab70:	00dbd463          	bge	s7,a3,ab78 <.L154+0x18>
    ab74:	a50fc06f          	j	6dc4 <.L156>
    ab78:	03800e13          	li	t3,56
    ab7c:	00fe5463          	bge	t3,a5,ab84 <.L157>
    ab80:	a50fc06f          	j	6dd0 <.L181>

0000ab84 <.L157>:
    ab84:	00c15e03          	lhu	t3,12(sp)
    ab88:	ff7e0e13          	addi	t3,t3,-9
    ab8c:	01c11623          	sh	t3,12(sp)
    ab90:	dddf806f          	j	396c <.L170>

0000ab94 <.L2866>:
    ab94:	00815b83          	lhu	s7,8(sp)
    ab98:	12e00c13          	li	s8,302
    ab9c:	002b8b93          	addi	s7,s7,2
    aba0:	01711423          	sh	s7,8(sp)
    aba4:	006c4463          	blt	s8,t1,abac <.L2866+0x18>
    aba8:	d68f906f          	j	4110 <.L1504>
    abac:	9e5f906f          	j	4590 <.L2630>

0000abb0 <.L2053>:
    abb0:	00c15b83          	lhu	s7,12(sp)
    abb4:	001b8b93          	addi	s7,s7,1
    abb8:	01711623          	sh	s7,12(sp)
    abbc:	5bc052e3          	blez	t3,b960 <.L2950>
    abc0:	ff600b93          	li	s7,-10
    abc4:	65765ce3          	bge	a2,s7,ba1c <.L2063>
    abc8:	02900b93          	li	s7,41
    abcc:	01dbd463          	bge	s7,t4,abd4 <.L2053+0x24>
    abd0:	3740106f          	j	bf44 <.L2064>
    abd4:	00e15b83          	lhu	s7,14(sp)
    abd8:	ffbb8b93          	addi	s7,s7,-5
    abdc:	01711723          	sh	s7,14(sp)
    abe0:	f00f906f          	j	42e0 <.L2056>

0000abe4 <.L2197>:
    abe4:	00a15503          	lhu	a0,10(sp)
    abe8:	25b00e93          	li	t4,603
    abec:	00850513          	addi	a0,a0,8
    abf0:	00a11523          	sh	a0,10(sp)
    abf4:	00eec463          	blt	t4,a4,abfc <.L2197+0x18>
    abf8:	d34f806f          	j	312c <.L2201>
    abfc:	c5cfc06f          	j	7058 <.L2198>

0000ac00 <.L2237>:
    ac00:	00815683          	lhu	a3,8(sp)
    ac04:	ff968693          	addi	a3,a3,-7
    ac08:	01069693          	slli	a3,a3,0x10
    ac0c:	4106d693          	srai	a3,a3,0x10
    ac10:	d90f806f          	j	31a0 <.L2236>

0000ac14 <.L2116>:
    ac14:	00a15b03          	lhu	s6,10(sp)
    ac18:	25b00b93          	li	s7,603
    ac1c:	fffb0b13          	addi	s6,s6,-1
    ac20:	01611523          	sh	s6,10(sp)
    ac24:	00ebc463          	blt	s7,a4,ac2c <.L2116+0x18>
    ac28:	fa0f906f          	j	43c8 <.L2120>
    ac2c:	c1dfc06f          	j	7848 <.L2117>

0000ac30 <.L2129>:
    ac30:	00c15b03          	lhu	s6,12(sp)
    ac34:	ffcb0b13          	addi	s6,s6,-4
    ac38:	01611623          	sh	s6,12(sp)
    ac3c:	ba4f806f          	j	2fe0 <.L2124>

0000ac40 <.L219>:
    ac40:	00815e03          	lhu	t3,8(sp)
    ac44:	ff9e0e13          	addi	t3,t3,-7
    ac48:	010e1e13          	slli	t3,t3,0x10
    ac4c:	410e5e13          	srai	t3,t3,0x10
    ac50:	cbcfb06f          	j	610c <.L220>

0000ac54 <.L915>:
    ac54:	00a15b83          	lhu	s7,10(sp)
    ac58:	ffeb8b93          	addi	s7,s7,-2
    ac5c:	010b9b93          	slli	s7,s7,0x10
    ac60:	410bdb93          	srai	s7,s7,0x10
    ac64:	cacf606f          	j	1110 <.L912>

0000ac68 <.L2093>:
    ac68:	00c15b03          	lhu	s6,12(sp)
    ac6c:	ff8b0b13          	addi	s6,s6,-8
    ac70:	010b1b13          	slli	s6,s6,0x10
    ac74:	410b5b13          	srai	s6,s6,0x10
    ac78:	ac8f806f          	j	2f40 <.L2082>

0000ac7c <.L1594>:
    ac7c:	00c15b83          	lhu	s7,12(sp)
    ac80:	00300c13          	li	s8,3
    ac84:	ffeb8b93          	addi	s7,s7,-2
    ac88:	01711623          	sh	s7,12(sp)
    ac8c:	01cc5463          	bge	s8,t3,ac94 <.L1632>
    ac90:	b1cfe06f          	j	8fac <.L1596>

0000ac94 <.L1632>:
    ac94:	0c100b93          	li	s7,193
    ac98:	012bc463          	blt	s7,s2,aca0 <.L1632+0xc>
    ac9c:	b71f706f          	j	280c <.L1635>
    aca0:	00e15b83          	lhu	s7,14(sp)
    aca4:	00400c13          	li	s8,4
    aca8:	007b8b93          	addi	s7,s7,7
    acac:	01711723          	sh	s7,14(sp)
    acb0:	011c4463          	blt	s8,a7,acb8 <.L1632+0x24>
    acb4:	de9fa06f          	j	5a9c <.L1643>
    acb8:	00e00b93          	li	s7,14
    acbc:	01dbc463          	blt	s7,t4,acc4 <.L1632+0x30>
    acc0:	b89f706f          	j	2848 <.L1644>
    acc4:	958f906f          	j	3e1c <.L1645>

0000acc8 <.L421>:
    acc8:	00815b83          	lhu	s7,8(sp)
    accc:	004b8b93          	addi	s7,s7,4
    acd0:	010b9b93          	slli	s7,s7,0x10
    acd4:	410bdb93          	srai	s7,s7,0x10
    acd8:	ca1f506f          	j	978 <.L420>

0000acdc <.L875>:
    acdc:	00a15b83          	lhu	s7,10(sp)
    ace0:	002b8b93          	addi	s7,s7,2
    ace4:	01711523          	sh	s7,10(sp)
    ace8:	b78f606f          	j	1060 <.L874>

0000acec <.L917>:
    acec:	00a15b83          	lhu	s7,10(sp)
    acf0:	03300c13          	li	s8,51
    acf4:	fe1b8b93          	addi	s7,s7,-31
    acf8:	01711523          	sh	s7,10(sp)
    acfc:	00fc4463          	blt	s8,a5,ad04 <.L917+0x18>
    ad00:	e0cfa06f          	j	530c <.L923>
    ad04:	89cf706f          	j	1da0 <.L918>

0000ad08 <.L72>:
    ad08:	00e15e03          	lhu	t3,14(sp)
    ad0c:	ffbe0e13          	addi	t3,t3,-5
    ad10:	01c11723          	sh	t3,14(sp)
    ad14:	a81fb06f          	j	6794 <.L74>

0000ad18 <.L630>:
    ad18:	00a15b83          	lhu	s7,10(sp)
    ad1c:	08900c13          	li	s8,137
    ad20:	ffbb8b93          	addi	s7,s7,-5
    ad24:	01711523          	sh	s7,10(sp)
    ad28:	00dc5463          	bge	s8,a3,ad30 <.L630+0x18>
    ad2c:	d45fd06f          	j	8a70 <.L2951>
    ad30:	23000b93          	li	s7,560
    ad34:	57ebd2e3          	bge	s7,t5,ba98 <.L2952>
    ad38:	00c15b83          	lhu	s7,12(sp)
    ad3c:	003b8b93          	addi	s7,s7,3
    ad40:	01711623          	sh	s7,12(sp)

0000ad44 <.L638>:
    ad44:	e4a00b93          	li	s7,-438
    ad48:	5f72cae3          	blt	t0,s7,bb3c <.L2953>
    ad4c:	01f00b93          	li	s7,31
    ad50:	d30bde63          	bge	s7,a6,a28c <.L2271>
    ad54:	00e15b83          	lhu	s7,14(sp)
    ad58:	009b8b93          	addi	s7,s7,9
    ad5c:	01711723          	sh	s7,14(sp)
    ad60:	971fb06f          	j	66d0 <.L2270>

0000ad64 <.L46>:
    ad64:	ffa88893          	addi	a7,a7,-6
    ad68:	01089893          	slli	a7,a7,0x10
    ad6c:	00851803          	lh	a6,8(a0)
    ad70:	4108d893          	srai	a7,a7,0x10
    ad74:	becf506f          	j	160 <.L47>

0000ad78 <.L438>:
    ad78:	00a15b83          	lhu	s7,10(sp)
    ad7c:	00ab8b93          	addi	s7,s7,10
    ad80:	010b9b93          	slli	s7,s7,0x10
    ad84:	410bdb93          	srai	s7,s7,0x10
    ad88:	f54f806f          	j	34dc <.L437>

0000ad8c <.L2338>:
    ad8c:	ff400793          	li	a5,-12
    ad90:	01251483          	lh	s1,18(a0)
    ad94:	01051b03          	lh	s6,16(a0)
    ad98:	00f64463          	blt	a2,a5,ada0 <.L25>
    ad9c:	d58f506f          	j	2f4 <.L22>

0000ada0 <.L25>:
    ada0:	00051783          	lh	a5,0(a0)
    ada4:	ffb00593          	li	a1,-5
    ada8:	00b11623          	sh	a1,12(sp)
    adac:	03e00593          	li	a1,62
    adb0:	01451283          	lh	t0,20(a0)
    adb4:	00f5c463          	blt	a1,a5,adbc <.L25+0x1c>
    adb8:	d54f506f          	j	30c <.L26>
    adbc:	b5cf506f          	j	118 <.L27>

0000adc0 <.L455>:
    adc0:	00e15b83          	lhu	s7,14(sp)
    adc4:	006b8b93          	addi	s7,s7,6
    adc8:	010b9b93          	slli	s7,s7,0x10
    adcc:	410bdb93          	srai	s7,s7,0x10
    add0:	f64f806f          	j	3534 <.L454>

0000add4 <.L628>:
    add4:	00a15b83          	lhu	s7,10(sp)
    add8:	004b8b93          	addi	s7,s7,4
    addc:	010b9b93          	slli	s7,s7,0x10
    ade0:	410bdb93          	srai	s7,s7,0x10
    ade4:	ae5f606f          	j	18c8 <.L629>

0000ade8 <.L1554>:
    ade8:	00815b83          	lhu	s7,8(sp)
    adec:	007b8b93          	addi	s7,s7,7
    adf0:	010b9b93          	slli	s7,s7,0x10
    adf4:	410bdb93          	srai	s7,s7,0x10
    adf8:	8d9f706f          	j	26d0 <.L1553>

0000adfc <.L2069>:
    adfc:	00815b03          	lhu	s6,8(sp)
    ae00:	ff6b0b13          	addi	s6,s6,-10
    ae04:	01611423          	sh	s6,8(sp)
    ae08:	8ecf806f          	j	2ef4 <.L2070>

0000ae0c <.L1944>:
    ae0c:	00815b83          	lhu	s7,8(sp)
    ae10:	ffeb8b93          	addi	s7,s7,-2
    ae14:	01711423          	sh	s7,8(sp)
    ae18:	ecdf706f          	j	2ce4 <.L1941>

0000ae1c <.L1029>:
    ae1c:	00e15b83          	lhu	s7,14(sp)
    ae20:	00db8b93          	addi	s7,s7,13
    ae24:	010b9b93          	slli	s7,s7,0x10
    ae28:	410bdb93          	srai	s7,s7,0x10
    ae2c:	c8cf606f          	j	12b8 <.L1028>

0000ae30 <.L2922>:
    ae30:	00c15c03          	lhu	s8,12(sp)
    ae34:	03900c93          	li	s9,57
    ae38:	fffc0c13          	addi	s8,s8,-1
    ae3c:	01811623          	sh	s8,12(sp)
    ae40:	22fcc2e3          	blt	s9,a5,b864 <.L932>
    ae44:	01500b93          	li	s7,21
    ae48:	006bd463          	bge	s7,t1,ae50 <.L2922+0x20>
    ae4c:	b04f606f          	j	1150 <.L933>
    ae50:	01f00b93          	li	s7,31
    ae54:	01dbc463          	blt	s7,t4,ae5c <.L2922+0x2c>
    ae58:	c6cf806f          	j	32c4 <.L934>
    ae5c:	00e15b83          	lhu	s7,14(sp)
    ae60:	015b8b93          	addi	s7,s7,21
    ae64:	01711723          	sh	s7,14(sp)
    ae68:	f8df606f          	j	1df4 <.L935>

0000ae6c <.L1421>:
    ae6c:	00e15b83          	lhu	s7,14(sp)
    ae70:	006b8b93          	addi	s7,s7,6
    ae74:	01711723          	sh	s7,14(sp)
    ae78:	e2cf706f          	j	24a4 <.L1411>

0000ae7c <.L1777>:
    ae7c:	00e15b83          	lhu	s7,14(sp)
    ae80:	fffb8b93          	addi	s7,s7,-1
    ae84:	01711723          	sh	s7,14(sp)
    ae88:	b99f706f          	j	2a20 <.L1775>

0000ae8c <.L1739>:
    ae8c:	00e15b83          	lhu	s7,14(sp)
    ae90:	ffab8b93          	addi	s7,s7,-6
    ae94:	01711723          	sh	s7,14(sp)
    ae98:	b8cfa06f          	j	5224 <.L1742>

0000ae9c <.L698>:
    ae9c:	00a15b83          	lhu	s7,10(sp)
    aea0:	ffdb8b93          	addi	s7,s7,-3
    aea4:	010b9b93          	slli	s7,s7,0x10
    aea8:	010bdb93          	srli	s7,s7,0x10
    aeac:	f31f506f          	j	ddc <.L699>

0000aeb0 <.L534>:
    aeb0:	00a15b83          	lhu	s7,10(sp)
    aeb4:	ff5b8b93          	addi	s7,s7,-11
    aeb8:	010b9b93          	slli	s7,s7,0x10
    aebc:	010bdb93          	srli	s7,s7,0x10
    aec0:	c65f506f          	j	b24 <.L535>

0000aec4 <.L1006>:
    aec4:	00a15b83          	lhu	s7,10(sp)
    aec8:	ff8b8b93          	addi	s7,s7,-8
    aecc:	010b9b93          	slli	s7,s7,0x10
    aed0:	410bdb93          	srai	s7,s7,0x10
    aed4:	b7cf606f          	j	1250 <.L1007>

0000aed8 <.L1566>:
    aed8:	00a15b83          	lhu	s7,10(sp)
    aedc:	10b00c13          	li	s8,267
    aee0:	003b8b93          	addi	s7,s7,3
    aee4:	01711523          	sh	s7,10(sp)
    aee8:	00dc4463          	blt	s8,a3,aef0 <.L1566+0x18>
    aeec:	c89fc06f          	j	7b74 <.L1560>
    aef0:	cd8fd06f          	j	83c8 <.L2631>

0000aef4 <.L1575>:
    aef4:	00c15b83          	lhu	s7,12(sp)
    aef8:	ff7b8b93          	addi	s7,s7,-9
    aefc:	010b9b93          	slli	s7,s7,0x10
    af00:	410bdb93          	srai	s7,s7,0x10
    af04:	835f706f          	j	2738 <.L1574>

0000af08 <.L2837>:
    af08:	ffe68693          	addi	a3,a3,-2
    af0c:	00d11723          	sh	a3,14(sp)
    af10:	a60f806f          	j	3170 <.L2210>

0000af14 <.L1134>:
    af14:	00a15b83          	lhu	s7,10(sp)
    af18:	fffb8b93          	addi	s7,s7,-1
    af1c:	010b9b93          	slli	s7,s7,0x10
    af20:	410bdb93          	srai	s7,s7,0x10
    af24:	d38f606f          	j	145c <.L1133>

0000af28 <.L1720>:
    af28:	00a15b83          	lhu	s7,10(sp)
    af2c:	ffab8b93          	addi	s7,s7,-6
    af30:	010b9b93          	slli	s7,s7,0x10
    af34:	410bdb93          	srai	s7,s7,0x10
    af38:	9ddf706f          	j	2914 <.L1721>

0000af3c <.L1370>:
    af3c:	00e15b83          	lhu	s7,14(sp)
    af40:	006b8b93          	addi	s7,s7,6
    af44:	010b9b93          	slli	s7,s7,0x10
    af48:	410bdb93          	srai	s7,s7,0x10
    af4c:	c98f706f          	j	23e4 <.L1366>

0000af50 <.L1432>:
    af50:	00a15b83          	lhu	s7,10(sp)
    af54:	001b8b93          	addi	s7,s7,1
    af58:	01711523          	sh	s7,10(sp)
    af5c:	d9cf706f          	j	24f8 <.L1429>

0000af60 <.L1322>:
    af60:	00815b83          	lhu	s7,8(sp)
    af64:	03400c13          	li	s8,52
    af68:	00bb8b93          	addi	s7,s7,11
    af6c:	01711423          	sh	s7,8(sp)
    af70:	01dc4463          	blt	s8,t4,af78 <.L1322+0x18>
    af74:	f29f806f          	j	3e9c <.L1329>
    af78:	f9cf606f          	j	1714 <.L1323>

0000af7c <.L2211>:
    af7c:	00c15503          	lhu	a0,12(sp)
    af80:	02800e93          	li	t4,40
    af84:	ffc50513          	addi	a0,a0,-4
    af88:	00a11623          	sh	a0,12(sp)
    af8c:	147ec0e3          	blt	t4,t2,b8cc <.L2223>
    af90:	03c00513          	li	a0,60
    af94:	00f54463          	blt	a0,a5,af9c <.L2527>
    af98:	e8cfc06f          	j	7624 <.L2224>

0000af9c <.L2527>:
    af9c:	f7a00693          	li	a3,-134
    afa0:	00da4463          	blt	s4,a3,afa8 <.L2667>
    afa4:	9d4f806f          	j	3178 <.L2218>

0000afa8 <.L2667>:
    afa8:	f4000693          	li	a3,-192
    afac:	00da4463          	blt	s4,a3,afb4 <.L2667+0xc>
    afb0:	c41f806f          	j	3bf0 <.L2220>
    afb4:	e5cfa06f          	j	5610 <.L2219>

0000afb8 <.L2813>:
    afb8:	00a15b83          	lhu	s7,10(sp)
    afbc:	003b8b93          	addi	s7,s7,3
    afc0:	010b9b93          	slli	s7,s7,0x10
    afc4:	410bdb93          	srai	s7,s7,0x10
    afc8:	aa5f706f          	j	2a6c <.L1793>

0000afcc <.L2914>:
    afcc:	00e15b83          	lhu	s7,14(sp)
    afd0:	009b8b93          	addi	s7,s7,9
    afd4:	01711723          	sh	s7,14(sp)
    afd8:	830f606f          	j	1008 <.L846>

0000afdc <.L69>:
    afdc:	00c15e03          	lhu	t3,12(sp)
    afe0:	ffbe0e13          	addi	t3,t3,-5
    afe4:	010e1e13          	slli	t3,t3,0x10
    afe8:	410e5e13          	srai	t3,t3,0x10
    afec:	9e0f506f          	j	1cc <.L65>

0000aff0 <.L1947>:
    aff0:	00a15b83          	lhu	s7,10(sp)
    aff4:	03c00c13          	li	s8,60
    aff8:	003b8b93          	addi	s7,s7,3
    affc:	01711523          	sh	s7,10(sp)
    b000:	00fc4463          	blt	s8,a5,b008 <.L1947+0x18>
    b004:	b05f906f          	j	4b08 <.L1963>
    b008:	daa00b93          	li	s7,-598
    b00c:	017ac463          	blt	s5,s7,b014 <.L1952>
    b010:	ff1fb06f          	j	7000 <.L1953>

0000b014 <.L1952>:
    b014:	05800b93          	li	s7,88
    b018:	009bc463          	blt	s7,s1,b020 <.L1952+0xc>
    b01c:	a4cfd06f          	j	8268 <.L1982>
    b020:	d39f706f          	j	2d58 <.L1984>

0000b024 <.L2204>:
    b024:	00a15503          	lhu	a0,10(sp)
    b028:	00250513          	addi	a0,a0,2
    b02c:	00a11523          	sh	a0,10(sp)
    b030:	b59f806f          	j	3b88 <.L2205>

0000b034 <.L1805>:
    b034:	00c15b83          	lhu	s7,12(sp)
    b038:	002b8b93          	addi	s7,s7,2
    b03c:	01711623          	sh	s7,12(sp)
    b040:	a61f706f          	j	2aa0 <.L1808>

0000b044 <.L1942>:
    b044:	00815b83          	lhu	s7,8(sp)
    b048:	ffbb8b93          	addi	s7,s7,-5
    b04c:	01711423          	sh	s7,8(sp)
    b050:	c95f706f          	j	2ce4 <.L1941>

0000b054 <.L350>:
    b054:	00a15b83          	lhu	s7,10(sp)
    b058:	17000c13          	li	s8,368
    b05c:	ff8b8b93          	addi	s7,s7,-8
    b060:	01711523          	sh	s7,10(sp)
    b064:	00dc4463          	blt	s8,a3,b06c <.L350+0x18>
    b068:	e91fb06f          	j	6ef8 <.L351>
    b06c:	f7cfc06f          	j	77e8 <.L359>

0000b070 <.L968>:
    b070:	00a15b83          	lhu	s7,10(sp)
    b074:	ffeb8b93          	addi	s7,s7,-2
    b078:	01711523          	sh	s7,10(sp)
    b07c:	e0dfb06f          	j	6e88 <.L970>

0000b080 <.L2206>:
    b080:	00c15503          	lhu	a0,12(sp)
    b084:	00350513          	addi	a0,a0,3
    b088:	01051513          	slli	a0,a0,0x10
    b08c:	41055513          	srai	a0,a0,0x10
    b090:	8c4f806f          	j	3154 <.L2207>

0000b094 <.L1498>:
    b094:	00e15b83          	lhu	s7,14(sp)
    b098:	001b8b93          	addi	s7,s7,1
    b09c:	01711723          	sh	s7,14(sp)
    b0a0:	83cf906f          	j	40dc <.L1497>

0000b0a4 <.L1493>:
    b0a4:	00e15b83          	lhu	s7,14(sp)
    b0a8:	005b8b93          	addi	s7,s7,5
    b0ac:	01711723          	sh	s7,14(sp)
    b0b0:	82cf906f          	j	40dc <.L1497>

0000b0b4 <.L1348>:
    b0b4:	00a15b83          	lhu	s7,10(sp)
    b0b8:	fffb8b93          	addi	s7,s7,-1
    b0bc:	010b9b93          	slli	s7,s7,0x10
    b0c0:	010bdb93          	srli	s7,s7,0x10
    b0c4:	cd0fc06f          	j	7594 <.L1349>

0000b0c8 <.L345>:
    b0c8:	00815b83          	lhu	s7,8(sp)
    b0cc:	ff7b8b93          	addi	s7,s7,-9
    b0d0:	01711423          	sh	s7,8(sp)
    b0d4:	f24f506f          	j	7f8 <.L344>

0000b0d8 <.L799>:
    b0d8:	00a15b83          	lhu	s7,10(sp)
    b0dc:	ffeb8b93          	addi	s7,s7,-2
    b0e0:	010b9b93          	slli	s7,s7,0x10
    b0e4:	410bdb93          	srai	s7,s7,0x10
    b0e8:	d6df906f          	j	4e54 <.L800>

0000b0ec <.L1459>:
    b0ec:	00815b83          	lhu	s7,8(sp)
    b0f0:	f8b00c13          	li	s8,-117
    b0f4:	ffeb8b93          	addi	s7,s7,-2
    b0f8:	01711423          	sh	s7,8(sp)
    b0fc:	0185c463          	blt	a1,s8,b104 <.L1459+0x18>
    b100:	f75f806f          	j	4074 <.L1464>
    b104:	c74f706f          	j	2578 <.L2736>

0000b108 <.L1834>:
    b108:	00815b83          	lhu	s7,8(sp)
    b10c:	007b8b93          	addi	s7,s7,7
    b110:	010b9b93          	slli	s7,s7,0x10
    b114:	410bdb93          	srai	s7,s7,0x10
    b118:	b91f906f          	j	4ca8 <.L1835>

0000b11c <.L1957>:
    b11c:	00a15b83          	lhu	s7,10(sp)
    b120:	ffcb8b93          	addi	s7,s7,-4
    b124:	010b9b93          	slli	s7,s7,0x10
    b128:	410bdb93          	srai	s7,s7,0x10
    b12c:	bedf706f          	j	2d18 <.L1948>

0000b130 <.L1439>:
    b130:	00c15b83          	lhu	s7,12(sp)
    b134:	ffab8b93          	addi	s7,s7,-6
    b138:	01711623          	sh	s7,12(sp)
    b13c:	be8f706f          	j	2524 <.L1435>

0000b140 <.L1384>:
    b140:	03900b93          	li	s7,57
    b144:	006bc463          	blt	s7,t1,b14c <.L1384+0xc>
    b148:	ebcf906f          	j	4804 <.L1372>
    b14c:	e05f806f          	j	3f50 <.L2619>

0000b150 <.L2130>:
    b150:	00c15b03          	lhu	s6,12(sp)
    b154:	ff7b0b13          	addi	s6,s6,-9
    b158:	01611623          	sh	s6,12(sp)
    b15c:	e85f706f          	j	2fe0 <.L2124>

0000b160 <.L1869>:
    b160:	00e15b83          	lhu	s7,14(sp)
    b164:	ff6b8b93          	addi	s7,s7,-10
    b168:	010b9b93          	slli	s7,s7,0x10
    b16c:	010bdb93          	srli	s7,s7,0x10
    b170:	f24fc06f          	j	7894 <.L1870>

0000b174 <.L2720>:
    b174:	00a00693          	li	a3,10
    b178:	5d36c663          	blt	a3,s3,b744 <.L2174>
    b17c:	00c15683          	lhu	a3,12(sp)
    b180:	ff868693          	addi	a3,a3,-8
    b184:	00d11623          	sh	a3,12(sp)
    b188:	e08fa06f          	j	5790 <.L2170>

0000b18c <.L2167>:
    b18c:	fdb00b13          	li	s6,-37
    b190:	ff6742e3          	blt	a4,s6,b174 <.L2720>
    b194:	02600b13          	li	s6,38
    b198:	00eb5463          	bge	s6,a4,b1a0 <.L2167+0x14>
    b19c:	d1cfc06f          	j	76b8 <.L2181>
    b1a0:	03c00b13          	li	s6,60
    b1a4:	00db4463          	blt	s6,a3,b1ac <.L2167+0x20>
    b1a8:	de8fa06f          	j	5790 <.L2170>
    b1ac:	eedf706f          	j	3098 <.L2171>

0000b1b0 <.L1272>:
    b1b0:	00815b83          	lhu	s7,8(sp)
    b1b4:	001b8b93          	addi	s7,s7,1
    b1b8:	010b9b93          	slli	s7,s7,0x10
    b1bc:	410bdb93          	srai	s7,s7,0x10
    b1c0:	c68f906f          	j	4628 <.L1253>

0000b1c4 <.L1335>:
    b1c4:	00a15b83          	lhu	s7,10(sp)
    b1c8:	02a00c13          	li	s8,42
    b1cc:	ff7b8b93          	addi	s7,s7,-9
    b1d0:	01711523          	sh	s7,10(sp)
    b1d4:	00dc4463          	blt	s8,a3,b1dc <.L1335+0x18>
    b1d8:	bccfc06f          	j	75a4 <.L1345>
    b1dc:	02700b93          	li	s7,39
    b1e0:	00ebd463          	bge	s7,a4,b1e8 <.L1335+0x24>
    b1e4:	d01f806f          	j	3ee4 <.L1346>
    b1e8:	cf1f806f          	j	3ed8 <.L2697>

0000b1ec <.L1473>:
    b1ec:	00815b83          	lhu	s7,8(sp)
    b1f0:	002b8b93          	addi	s7,s7,2
    b1f4:	010b9b93          	slli	s7,s7,0x10
    b1f8:	010bdb93          	srli	s7,s7,0x10
    b1fc:	a0dfa06f          	j	5c08 <.L1474>

0000b200 <.L791>:
    b200:	00815b83          	lhu	s7,8(sp)
    b204:	03300c13          	li	s8,51
    b208:	ff9b8b93          	addi	s7,s7,-7
    b20c:	01711423          	sh	s7,8(sp)
    b210:	01fc4463          	blt	s8,t6,b218 <.L791+0x18>
    b214:	969f606f          	j	1b7c <.L788>
    b218:	c21f906f          	j	4e38 <.L789>

0000b21c <.L569>:
    b21c:	00a15b83          	lhu	s7,10(sp)
    b220:	17000c13          	li	s8,368
    b224:	006b8b93          	addi	s7,s7,6
    b228:	01711523          	sh	s7,10(sp)
    b22c:	00dc4463          	blt	s8,a3,b234 <.L569+0x18>
    b230:	9b1f506f          	j	be0 <.L563>
    b234:	ad5fd06f          	j	8d08 <.L2288>

0000b238 <.L2818>:
    b238:	00e15b83          	lhu	s7,14(sp)
    b23c:	001b8b93          	addi	s7,s7,1
    b240:	010b9b93          	slli	s7,s7,0x10
    b244:	410bdb93          	srai	s7,s7,0x10
    b248:	c79f706f          	j	2ec0 <.L2058>

0000b24c <.L1824>:
    b24c:	00e15b83          	lhu	s7,14(sp)
    b250:	ffdb8b93          	addi	s7,s7,-3
    b254:	010b9b93          	slli	s7,s7,0x10
    b258:	010bdb93          	srli	s7,s7,0x10
    b25c:	01711723          	sh	s7,14(sp)
    b260:	a19f906f          	j	4c78 <.L1822>

0000b264 <.L2931>:
    b264:	00c15b83          	lhu	s7,12(sp)
    b268:	00300c13          	li	s8,3
    b26c:	004b8b93          	addi	s7,s7,4
    b270:	01711623          	sh	s7,12(sp)
    b274:	01cc4463          	blt	s8,t3,b27c <.L2931+0x18>
    b278:	b75f806f          	j	3dec <.L1621>
    b27c:	e4a00b93          	li	s7,-438
    b280:	0172c463          	blt	t0,s7,b288 <.L2931+0x24>
    b284:	fb8fa06f          	j	5a3c <.L1627>
    b288:	d31fd06f          	j	8fb8 <.L1622>

0000b28c <.L766>:
    b28c:	00c15b83          	lhu	s7,12(sp)
    b290:	03e00c13          	li	s8,62
    b294:	ffcb8b93          	addi	s7,s7,-4
    b298:	01711623          	sh	s7,12(sp)
    b29c:	00fc5463          	bge	s8,a5,b2a4 <.L766+0x18>
    b2a0:	c19f906f          	j	4eb8 <.L752>
    b2a4:	cd5fd06f          	j	8f78 <.L764>

0000b2a8 <.L761>:
    b2a8:	00c15b83          	lhu	s7,12(sp)
    b2ac:	fffb8b93          	addi	s7,s7,-1
    b2b0:	010b9b93          	slli	s7,s7,0x10
    b2b4:	010bdb93          	srli	s7,s7,0x10
    b2b8:	f05f906f          	j	51bc <.L762>

0000b2bc <.L2937>:
    b2bc:	00e15b83          	lhu	s7,14(sp)
    b2c0:	003b8b93          	addi	s7,s7,3
    b2c4:	01711723          	sh	s7,14(sp)
    b2c8:	ea1f506f          	j	1168 <.L940>

0000b2cc <.L734>:
    b2cc:	00815b83          	lhu	s7,8(sp)
    b2d0:	003b8b93          	addi	s7,s7,3
    b2d4:	01711423          	sh	s7,8(sp)
    b2d8:	fd4f606f          	j	1aac <.L718>

0000b2dc <.L2884>:
    b2dc:	007b8b93          	addi	s7,s7,7
    b2e0:	010b9b93          	slli	s7,s7,0x10
    b2e4:	410bdb93          	srai	s7,s7,0x10
    b2e8:	c19f506f          	j	f00 <.L778>

0000b2ec <.L2921>:
    b2ec:	ffdb8b93          	addi	s7,s7,-3
    b2f0:	01711623          	sh	s7,12(sp)
    b2f4:	830fa06f          	j	5324 <.L928>

0000b2f8 <.L2758>:
    b2f8:	00a15b83          	lhu	s7,10(sp)
    b2fc:	08900c13          	li	s8,137
    b300:	ff7b8b93          	addi	s7,s7,-9
    b304:	01711523          	sh	s7,10(sp)
    b308:	00dc4463          	blt	s8,a3,b310 <.L2758+0x18>
    b30c:	985f506f          	j	c90 <.L621>
    b310:	f30fc06f          	j	7a40 <.L2581>

0000b314 <.L1851>:
    b314:	00e15b83          	lhu	s7,14(sp)
    b318:	01f00c13          	li	s8,31
    b31c:	007b8b93          	addi	s7,s7,7
    b320:	01711723          	sh	s7,14(sp)
    b324:	013c5463          	bge	s8,s3,b32c <.L1851+0x18>
    b328:	85df706f          	j	2b84 <.L1860>
    b32c:	865f706f          	j	2b90 <.L1874>

0000b330 <.L1141>:
    b330:	00c15b83          	lhu	s7,12(sp)
    b334:	ff7b8b93          	addi	s7,s7,-9
    b338:	010b9b93          	slli	s7,s7,0x10
    b33c:	410bdb93          	srai	s7,s7,0x10
    b340:	950f606f          	j	1490 <.L1140>

0000b344 <.L2930>:
    b344:	00a15b83          	lhu	s7,10(sp)
    b348:	ff7b8b93          	addi	s7,s7,-9
    b34c:	010b9b93          	slli	s7,s7,0x10
    b350:	410bdb93          	srai	s7,s7,0x10
    b354:	c78f706f          	j	27cc <.L1612>

0000b358 <.L2762>:
    b358:	00a15b83          	lhu	s7,10(sp)
    b35c:	002b8b93          	addi	s7,s7,2
    b360:	010b9b93          	slli	s7,s7,0x10
    b364:	410bdb93          	srai	s7,s7,0x10
    b368:	c55f506f          	j	fbc <.L829>

0000b36c <.L2782>:
    b36c:	00c15b83          	lhu	s7,12(sp)
    b370:	ffdb8b93          	addi	s7,s7,-3
    b374:	010b9b93          	slli	s7,s7,0x10
    b378:	410bdb93          	srai	s7,s7,0x10
    b37c:	855f606f          	j	1bd0 <.L810>

0000b380 <.L2801>:
    b380:	00815b83          	lhu	s7,8(sp)
    b384:	03900c13          	li	s8,57
    b388:	006b8b93          	addi	s7,s7,6
    b38c:	01711423          	sh	s7,8(sp)
    b390:	006c4463          	blt	s8,t1,b398 <.L2801+0x18>
    b394:	c70f906f          	j	4804 <.L1372>
    b398:	ff800b93          	li	s7,-8
    b39c:	01765463          	bge	a2,s7,b3a4 <.L2801+0x24>
    b3a0:	880f706f          	j	2420 <.L1373>
    b3a4:	ea900b93          	li	s7,-343
    b3a8:	0172d463          	bge	t0,s7,b3b0 <.L2801+0x30>
    b3ac:	c89fa06f          	j	6034 <.L1374>
    b3b0:	c9dfa06f          	j	604c <.L1375>

0000b3b4 <.L1018>:
    b3b4:	00c15b83          	lhu	s7,12(sp)
    b3b8:	ff7b8b93          	addi	s7,s7,-9
    b3bc:	010b9b93          	slli	s7,s7,0x10
    b3c0:	410bdb93          	srai	s7,s7,0x10
    b3c4:	ec1f506f          	j	1284 <.L1019>

0000b3c8 <.L684>:
    b3c8:	00815b83          	lhu	s7,8(sp)
    b3cc:	07200c13          	li	s8,114
    b3d0:	014b8b93          	addi	s7,s7,20
    b3d4:	01711423          	sh	s7,8(sp)
    b3d8:	00ec4463          	blt	s8,a4,b3e0 <.L684+0x18>
    b3dc:	9d9f506f          	j	db4 <.L685>
    b3e0:	e20f606f          	j	1a00 <.L690>

0000b3e4 <.L691>:
    b3e4:	00815b83          	lhu	s7,8(sp)
    b3e8:	ff8b8b93          	addi	s7,s7,-8
    b3ec:	010b9b93          	slli	s7,s7,0x10
    b3f0:	410bdb93          	srai	s7,s7,0x10
    b3f4:	9b1f506f          	j	da4 <.L692>

0000b3f8 <.L2906>:
    b3f8:	00388893          	addi	a7,a7,3
    b3fc:	01089893          	slli	a7,a7,0x10
    b400:	4108d893          	srai	a7,a7,0x10
    b404:	d5df406f          	j	160 <.L47>

0000b408 <.L2853>:
    b408:	004b8b93          	addi	s7,s7,4
    b40c:	01711423          	sh	s7,8(sp)
    b410:	006c4463          	blt	s8,t1,b418 <.L2853+0x10>
    b414:	cfdf806f          	j	4110 <.L1504>
    b418:	e59f906f          	j	5270 <.L1520>

0000b41c <.L862>:
    b41c:	00815b83          	lhu	s7,8(sp)
    b420:	ff3b8b93          	addi	s7,s7,-13
    b424:	010b9b93          	slli	s7,s7,0x10
    b428:	010bdb93          	srli	s7,s7,0x10
    b42c:	ff9fa06f          	j	6424 <.L863>

0000b430 <.L2759>:
    b430:	ff9b8b93          	addi	s7,s7,-7
    b434:	01711723          	sh	s7,14(sp)
    b438:	01ec4463          	blt	s8,t5,b440 <.L2759+0x10>
    b43c:	ce4f606f          	j	1920 <.L648>
    b440:	899f506f          	j	cd8 <.L652>

0000b444 <.L2903>:
    b444:	003b8b93          	addi	s7,s7,3
    b448:	010b9b93          	slli	s7,s7,0x10
    b44c:	410bdb93          	srai	s7,s7,0x10
    b450:	de0f506f          	j	a30 <.L459>

0000b454 <.L1990>:
    b454:	00e15b83          	lhu	s7,14(sp)
    b458:	ffcb8b93          	addi	s7,s7,-4
    b45c:	01711723          	sh	s7,14(sp)
    b460:	ee4f906f          	j	4b44 <.L1995>

0000b464 <.L2068>:
    b464:	00e15b83          	lhu	s7,14(sp)
    b468:	004b8b93          	addi	s7,s7,4
    b46c:	010b9b93          	slli	s7,s7,0x10
    b470:	410bdb93          	srai	s7,s7,0x10
    b474:	a4df706f          	j	2ec0 <.L2058>

0000b478 <.L637>:
    b478:	00c15b83          	lhu	s7,12(sp)
    b47c:	03a00c13          	li	s8,58
    b480:	003b8b93          	addi	s7,s7,3
    b484:	01711623          	sh	s7,12(sp)
    b488:	00fc4463          	blt	s8,a5,b490 <.L637+0x18>
    b48c:	81df506f          	j	ca8 <.L636>
    b490:	8b5ff06f          	j	ad44 <.L638>

0000b494 <.L1773>:
    b494:	00c15b83          	lhu	s7,12(sp)
    b498:	001b8b93          	addi	s7,s7,1
    b49c:	01711623          	sh	s7,12(sp)
    b4a0:	d50f706f          	j	29f0 <.L1770>

0000b4a4 <.L124>:
    b4a4:	00c15e03          	lhu	t3,12(sp)
    b4a8:	ff6e0e13          	addi	t3,t3,-10
    b4ac:	010e1e13          	slli	t3,t3,0x10
    b4b0:	410e5e13          	srai	t3,t3,0x10
    b4b4:	fb5f406f          	j	468 <.L120>

0000b4b8 <.L2936>:
    b4b8:	00a15b83          	lhu	s7,10(sp)
    b4bc:	ff6b8b93          	addi	s7,s7,-10
    b4c0:	010b9b93          	slli	s7,s7,0x10
    b4c4:	410bdb93          	srai	s7,s7,0x10
    b4c8:	819fa06f          	j	5ce0 <.L288>

0000b4cc <.L2920>:
    b4cc:	23200b93          	li	s7,562
    b4d0:	51ebc263          	blt	s7,t5,b9d4 <.L1484>
    b4d4:	00a15b83          	lhu	s7,10(sp)
    b4d8:	ff7b8b93          	addi	s7,s7,-9
    b4dc:	010b9b93          	slli	s7,s7,0x10
    b4e0:	410bdb93          	srai	s7,s7,0x10
    b4e4:	f50fa06f          	j	5c34 <.L1472>

0000b4e8 <.L2904>:
    b4e8:	00c15b83          	lhu	s7,12(sp)
    b4ec:	007b8b93          	addi	s7,s7,7
    b4f0:	01711623          	sh	s7,12(sp)
    b4f4:	f79fa06f          	j	646c <.L870>

0000b4f8 <.L1179>:
    b4f8:	00a15b83          	lhu	s7,10(sp)
    b4fc:	004b8b93          	addi	s7,s7,4
    b500:	010b9b93          	slli	s7,s7,0x10
    b504:	410bdb93          	srai	s7,s7,0x10
    b508:	d64f806f          	j	3a6c <.L1169>

0000b50c <.L1182>:
    b50c:	00a15b83          	lhu	s7,10(sp)
    b510:	03c00c13          	li	s8,60
    b514:	ff6b8b93          	addi	s7,s7,-10
    b518:	01711523          	sh	s7,10(sp)
    b51c:	00fc5463          	bge	s8,a5,b524 <.L1182+0x18>
    b520:	d19fd06f          	j	9238 <.L2602>
    b524:	d58f806f          	j	3a7c <.L1167>

0000b528 <.L2772>:
    b528:	00c15b83          	lhu	s7,12(sp)
    b52c:	00ab8b93          	addi	s7,s7,10
    b530:	01711623          	sh	s7,12(sp)
    b534:	e7df606f          	j	23b0 <.L1360>

0000b538 <.L169>:
    b538:	d6700e13          	li	t3,-665
    b53c:	01ca4463          	blt	s4,t3,b544 <.L169+0xc>
    b540:	891fb06f          	j	6dd0 <.L181>
    b544:	00c15e03          	lhu	t3,12(sp)
    b548:	00be0e13          	addi	t3,t3,11
    b54c:	010e1e13          	slli	t3,t3,0x10
    b550:	410e5e13          	srai	t3,t3,0x10
    b554:	c08f806f          	j	395c <.L175>

0000b558 <.L551>:
    b558:	00815b83          	lhu	s7,8(sp)
    b55c:	013b8b93          	addi	s7,s7,19
    b560:	010b9b93          	slli	s7,s7,0x10
    b564:	410bdb93          	srai	s7,s7,0x10
    b568:	e40f506f          	j	ba8 <.L552>

0000b56c <.L1686>:
    b56c:	00a15b83          	lhu	s7,10(sp)
    b570:	00100c13          	li	s8,1
    b574:	fffb8b93          	addi	s7,s7,-1
    b578:	01711523          	sh	s7,10(sp)
    b57c:	01cc5463          	bge	s8,t3,b584 <.L1686+0x18>
    b580:	af8f706f          	j	2878 <.L1659>
    b584:	e0dfd06f          	j	9390 <.L1670>

0000b588 <.L1865>:
    b588:	00e15b83          	lhu	s7,14(sp)
    b58c:	01f00c13          	li	s8,31
    b590:	009b8b93          	addi	s7,s7,9
    b594:	01711723          	sh	s7,14(sp)
    b598:	013c4463          	blt	s8,s3,b5a0 <.L1865+0x18>
    b59c:	f59f906f          	j	54f4 <.L1866>
    b5a0:	f89f906f          	j	5528 <.L1867>

0000b5a4 <.L1428>:
    b5a4:	00a15b83          	lhu	s7,10(sp)
    b5a8:	fffb8b93          	addi	s7,s7,-1
    b5ac:	01711523          	sh	s7,10(sp)
    b5b0:	f49f606f          	j	24f8 <.L1429>

0000b5b4 <.L1701>:
    b5b4:	00e15b83          	lhu	s7,14(sp)
    b5b8:	00fb8b93          	addi	s7,s7,15
    b5bc:	01711723          	sh	s7,14(sp)
    b5c0:	afcf706f          	j	28bc <.L1699>

0000b5c4 <.L1842>:
    b5c4:	00a15b83          	lhu	s7,10(sp)
    b5c8:	fffb8b93          	addi	s7,s7,-1
    b5cc:	010b9b93          	slli	s7,s7,0x10
    b5d0:	410bdb93          	srai	s7,s7,0x10
    b5d4:	01711523          	sh	s7,10(sp)
    b5d8:	b60f906f          	j	4938 <.L2882>

0000b5dc <.L2745>:
    b5dc:	00a51683          	lh	a3,10(a0)
    b5e0:	01051b03          	lh	s6,16(a0)
    b5e4:	02851e83          	lh	t4,40(a0)
    b5e8:	a44fd06f          	j	882c <.L20>

0000b5ec <.L2942>:
    b5ec:	00c15b83          	lhu	s7,12(sp)
    b5f0:	005b8b93          	addi	s7,s7,5
    b5f4:	01711623          	sh	s7,12(sp)
    b5f8:	bc9fd06f          	j	91c0 <.L485>

0000b5fc <.L2893>:
    b5fc:	00c15b83          	lhu	s7,12(sp)
    b600:	00bb8b93          	addi	s7,s7,11
    b604:	01711623          	sh	s7,12(sp)
    b608:	bb9fd06f          	j	91c0 <.L485>

0000b60c <.L481>:
    b60c:	00c15b83          	lhu	s7,12(sp)
    b610:	e0800c13          	li	s8,-504
    b614:	006b8b93          	addi	s7,s7,6
    b618:	01711623          	sh	s7,12(sp)
    b61c:	01845463          	bge	s0,s8,b624 <.L481+0x18>
    b620:	c88f506f          	j	aa8 <.L482>
    b624:	b18fb06f          	j	693c <.L2289>

0000b628 <.L2815>:
    b628:	03300b93          	li	s7,51
    b62c:	011bc463          	blt	s7,a7,b634 <.L2815+0xc>
    b630:	d60f706f          	j	2b90 <.L1874>
    b634:	00815b83          	lhu	s7,8(sp)
    b638:	006b8b93          	addi	s7,s7,6
    b63c:	01711423          	sh	s7,8(sp)
    b640:	d50f706f          	j	2b90 <.L1874>

0000b644 <.L268>:
    b644:	00c15e03          	lhu	t3,12(sp)
    b648:	03d00b93          	li	s7,61
    b64c:	008e0e13          	addi	t3,t3,8
    b650:	01c11623          	sh	t3,12(sp)
    b654:	01778463          	beq	a5,s7,b65c <.L270>
    b658:	bccf806f          	j	3a24 <.L269>

0000b65c <.L270>:
    b65c:	03d00793          	li	a5,61
    b660:	8dcf806f          	j	373c <.L259>

0000b664 <.L2097>:
    b664:	0a400b13          	li	s6,164
    b668:	01eb4463          	blt	s6,t5,b670 <.L2097+0xc>
    b66c:	d25f806f          	j	4390 <.L2103>
    b670:	00815b03          	lhu	s6,8(sp)
    b674:	02e00b93          	li	s7,46
    b678:	ff9b0b13          	addi	s6,s6,-7
    b67c:	01611423          	sh	s6,8(sp)
    b680:	01dbc463          	blt	s7,t4,b688 <.L2097+0x24>
    b684:	d15f806f          	j	4398 <.L2099>
    b688:	8d5f906f          	j	4f5c <.L2100>

0000b68c <.L1893>:
    b68c:	00e15b83          	lhu	s7,14(sp)
    b690:	07300c13          	li	s8,115
    b694:	010b8b93          	addi	s7,s7,16
    b698:	01711723          	sh	s7,14(sp)
    b69c:	012c4463          	blt	s8,s2,b6a4 <.L1893+0x18>
    b6a0:	b6cf906f          	j	4a0c <.L1894>
    b6a4:	915fb06f          	j	6fb8 <.L1895>

0000b6a8 <.L24>:
    b6a8:	01851603          	lh	a2,24(a0)
    b6ac:	01251483          	lh	s1,18(a0)
    b6b0:	01051b03          	lh	s6,16(a0)
    b6b4:	00f65463          	bge	a2,a5,b6bc <.L24+0x14>
    b6b8:	a3df406f          	j	f4 <.L21>
    b6bc:	c39f406f          	j	2f4 <.L22>

0000b6c0 <.L716>:
    b6c0:	01c51c03          	lh	s8,28(a0)
    b6c4:	03400b93          	li	s7,52
    b6c8:	018bd463          	bge	s7,s8,b6d0 <.L716+0x10>
    b6cc:	f88f506f          	j	e54 <.L729>
    b6d0:	00815b83          	lhu	s7,8(sp)
    b6d4:	ff8b8b93          	addi	s7,s7,-8
    b6d8:	01711423          	sh	s7,8(sp)
    b6dc:	f84f506f          	j	e60 <.L715>

0000b6e0 <.L1726>:
    b6e0:	e6b00b93          	li	s7,-405
    b6e4:	5172de63          	bge	t0,s7,bc00 <.L1734>
    b6e8:	03300b93          	li	s7,51
    b6ec:	01dbc463          	blt	s7,t4,b6f4 <.L1726+0x14>
    b6f0:	929f906f          	j	5018 <.L1735>
    b6f4:	ebcf906f          	j	4db0 <.L1728>

0000b6f8 <.L2178>:
    b6f8:	08600b13          	li	s6,134
    b6fc:	00db4463          	blt	s6,a3,b704 <.L2178+0xc>
    b700:	fb9fb06f          	j	76b8 <.L2181>
    b704:	c00f806f          	j	3b04 <.L2161>

0000b708 <.L2177>:
    b708:	00c15683          	lhu	a3,12(sp)
    b70c:	ffe68693          	addi	a3,a3,-2
    b710:	00d11623          	sh	a3,12(sp)
    b714:	bf0f806f          	j	3b04 <.L2161>

0000b718 <.L1163>:
    b718:	00815b83          	lhu	s7,8(sp)
    b71c:	1b900c13          	li	s8,441
    b720:	004b8b93          	addi	s7,s7,4
    b724:	01711423          	sh	s7,8(sp)
    b728:	01ec4463          	blt	s8,t5,b730 <.L1163+0x18>
    b72c:	988f906f          	j	48b4 <.L1164>
    b730:	a49f606f          	j	2178 <.L1162>

0000b734 <.L260>:
    b734:	00c15e03          	lhu	t3,12(sp)
    b738:	018e0e13          	addi	t3,t3,24
    b73c:	01c11623          	sh	t3,12(sp)
    b740:	ffdf706f          	j	373c <.L259>

0000b744 <.L2174>:
    b744:	00c15683          	lhu	a3,12(sp)
    b748:	ffe68693          	addi	a3,a3,-2
    b74c:	00d11623          	sh	a3,12(sp)
    b750:	840fa06f          	j	5790 <.L2170>

0000b754 <.L2315>:
    b754:	00a51683          	lh	a3,10(a0)
    b758:	01051b03          	lh	s6,16(a0)
    b75c:	02851e83          	lh	t4,40(a0)
    b760:	01451283          	lh	t0,20(a0)
    b764:	ba9f406f          	j	30c <.L26>

0000b768 <.L879>:
    b768:	f5b00b93          	li	s7,-165
    b76c:	4572c263          	blt	t0,s7,bbb0 <.L882>
    b770:	0ed00b93          	li	s7,237
    b774:	08dbd8e3          	bge	s7,a3,c004 <.L893>
    b778:	00c15b83          	lhu	s7,12(sp)
    b77c:	02f00c13          	li	s8,47
    b780:	003b8b93          	addi	s7,s7,3
    b784:	01711623          	sh	s7,12(sp)
    b788:	010c4463          	blt	s8,a6,b790 <.L879+0x28>
    b78c:	cf5fa06f          	j	6480 <.L881>
    b790:	d8cf606f          	j	1d1c <.L889>

0000b794 <.L2944>:
    b794:	00a15b83          	lhu	s7,10(sp)
    b798:	00100c13          	li	s8,1
    b79c:	ff6b8b93          	addi	s7,s7,-10
    b7a0:	01711523          	sh	s7,10(sp)
    b7a4:	01cc5463          	bge	s8,t3,b7ac <.L2944+0x18>
    b7a8:	b48fa06f          	j	5af0 <.L1692>
    b7ac:	c3cfd06f          	j	8be8 <.L1694>

0000b7b0 <.L2038>:
    b7b0:	00a15b83          	lhu	s7,10(sp)
    b7b4:	01500c13          	li	s8,21
    b7b8:	004b8b93          	addi	s7,s7,4
    b7bc:	01711523          	sh	s7,10(sp)
    b7c0:	010c5463          	bge	s8,a6,b7c8 <.L2038+0x18>
    b7c4:	c81f906f          	j	5444 <.L2039>
    b7c8:	ea8f706f          	j	2e70 <.L2035>

0000b7cc <.L1653>:
    b7cc:	00a15b83          	lhu	s7,10(sp)
    b7d0:	00100c13          	li	s8,1
    b7d4:	004b8b93          	addi	s7,s7,4
    b7d8:	01711523          	sh	s7,10(sp)
    b7dc:	01cc5463          	bge	s8,t3,b7e4 <.L1653+0x18>
    b7e0:	b74fb06f          	j	6b54 <.L1655>
    b7e4:	b9cfb06f          	j	6b80 <.L1654>

0000b7e8 <.L1810>:
    b7e8:	e4a00b93          	li	s7,-438
    b7ec:	3f72d063          	bge	t0,s7,bbcc <.L1813>
    b7f0:	de700b93          	li	s7,-537
    b7f4:	4775c463          	blt	a1,s7,bc5c <.L1812>
    b7f8:	00e15b83          	lhu	s7,14(sp)
    b7fc:	ff8b8b93          	addi	s7,s7,-8
    b800:	01711723          	sh	s7,14(sp)
    b804:	c80f906f          	j	4c84 <.L1827>

0000b808 <.L1964>:
    b808:	03600b93          	li	s7,54
    b80c:	3cfbcc63          	blt	s7,a5,bbe4 <.L2954>
    b810:	00e15b83          	lhu	s7,14(sp)
    b814:	01500c13          	li	s8,21
    b818:	ff9b8b93          	addi	s7,s7,-7
    b81c:	01711723          	sh	s7,14(sp)
    b820:	007c4463          	blt	s8,t2,b828 <.L1964+0x20>
    b824:	d58f706f          	j	2d7c <.L1966>
    b828:	aa5fc06f          	j	82cc <.L1969>

0000b82c <.L254>:
    b82c:	19c00e13          	li	t3,412
    b830:	68ee4a63          	blt	t3,a4,bec4 <.L2955>
    b834:	00e15e03          	lhu	t3,14(sp)
    b838:	00fe0e13          	addi	t3,t3,15
    b83c:	01c11723          	sh	t3,14(sp)
    b840:	f35f706f          	j	3774 <.L280>

0000b844 <.L2746>:
    b844:	e4e00e13          	li	t3,-434
    b848:	33cad063          	bge	s5,t3,bb68 <.L2956>
    b84c:	6c100e13          	li	t3,1729
    b850:	0aee52e3          	bge	t3,a4,c0f4 <.L2957>
    b854:	00c15e03          	lhu	t3,12(sp)
    b858:	fffe0e13          	addi	t3,t3,-1
    b85c:	01c11623          	sh	t3,12(sp)
    b860:	c19f406f          	j	478 <.L121>

0000b864 <.L932>:
    b864:	e4a00c13          	li	s8,-438
    b868:	2782d063          	bge	t0,s8,bac8 <.L936>
    b86c:	03d00b93          	li	s7,61
    b870:	70fbc263          	blt	s7,a5,bf74 <.L937>
    b874:	00e15b83          	lhu	s7,14(sp)
    b878:	ff8b8b93          	addi	s7,s7,-8
    b87c:	01711723          	sh	s7,14(sp)
    b880:	d74f606f          	j	1df4 <.L935>

0000b884 <.L802>:
    b884:	00a15b83          	lhu	s7,10(sp)
    b888:	004b8b93          	addi	s7,s7,4
    b88c:	010b9b93          	slli	s7,s7,0x10
    b890:	410bdb93          	srai	s7,s7,0x10
    b894:	dc0f906f          	j	4e54 <.L800>

0000b898 <.L1634>:
    b898:	00e15b83          	lhu	s7,14(sp)
    b89c:	00400c13          	li	s8,4
    b8a0:	5409c463          	bltz	s3,bde8 <.L2958>
    b8a4:	003b8b93          	addi	s7,s7,3
    b8a8:	01711723          	sh	s7,14(sp)
    b8ac:	011c4463          	blt	s8,a7,b8b4 <.L1634+0x1c>
    b8b0:	9ecfa06f          	j	5a9c <.L1643>
    b8b4:	d68f806f          	j	3e1c <.L1645>

0000b8b8 <.L307>:
    b8b8:	00a15b83          	lhu	s7,10(sp)
    b8bc:	ffcb8b93          	addi	s7,s7,-4
    b8c0:	010b9b93          	slli	s7,s7,0x10
    b8c4:	410bdb93          	srai	s7,s7,0x10
    b8c8:	c18fa06f          	j	5ce0 <.L288>

0000b8cc <.L2223>:
    b8cc:	06b00513          	li	a0,107
    b8d0:	00954463          	blt	a0,s1,b8d8 <.L2223+0xc>
    b8d4:	ae8f806f          	j	3bbc <.L2213>
    b8d8:	ec4ff06f          	j	af9c <.L2527>

0000b8dc <.L477>:
    b8dc:	e4e00b93          	li	s7,-434
    b8e0:	217ad063          	bge	s5,s7,bae0 <.L487>
    b8e4:	00001bb7          	lui	s7,0x1
    b8e8:	cbbb8b93          	addi	s7,s7,-837 # cbb <.L2776+0xb>
    b8ec:	00ebc463          	blt	s7,a4,b8f4 <.L477+0x18>
    b8f0:	cb5f706f          	j	35a4 <.L2571>
    b8f4:	00c15b83          	lhu	s7,12(sp)
    b8f8:	ffab8b93          	addi	s7,s7,-6
    b8fc:	01711623          	sh	s7,12(sp)
    b900:	d71f906f          	j	5670 <.L491>

0000b904 <.L262>:
    b904:	00c15e03          	lhu	t3,12(sp)
    b908:	018e0e13          	addi	t3,t3,24
    b90c:	010e1e13          	slli	t3,t3,0x10
    b910:	410e5e13          	srai	t3,t3,0x10
    b914:	dc5f406f          	j	6d8 <.L263>

0000b918 <.L264>:
    b918:	00c15e03          	lhu	t3,12(sp)
    b91c:	008e0e13          	addi	t3,t3,8
    b920:	01c11623          	sh	t3,12(sp)
    b924:	e19f706f          	j	373c <.L259>

0000b928 <.L2926>:
    b928:	02a00b93          	li	s7,42
    b92c:	011bc463          	blt	s7,a7,b934 <.L2926+0xc>
    b930:	c74fc06f          	j	7da4 <.L2614>
    b934:	00e15b83          	lhu	s7,14(sp)
    b938:	002b8b93          	addi	s7,s7,2
    b93c:	01711723          	sh	s7,14(sp)
    b940:	d85f806f          	j	46c4 <.L1301>

0000b944 <.L2945>:
    b944:	00c15e03          	lhu	t3,12(sp)
    b948:	ff5e0e13          	addi	t3,t3,-11
    b94c:	01c11623          	sh	t3,12(sp)
    b950:	ce9f406f          	j	638 <.L174>

0000b954 <.L2896>:
    b954:	ffcb8b93          	addi	s7,s7,-4
    b958:	01711723          	sh	s7,14(sp)
    b95c:	ca8f806f          	j	3e04 <.L1628>

0000b960 <.L2950>:
    b960:	00e15b83          	lhu	s7,14(sp)
    b964:	ffab8b93          	addi	s7,s7,-6
    b968:	01711723          	sh	s7,14(sp)
    b96c:	975f806f          	j	42e0 <.L2056>

0000b970 <.L1388>:
    b970:	00c15b83          	lhu	s7,12(sp)
    b974:	03c00c13          	li	s8,60
    b978:	ff7b8b93          	addi	s7,s7,-9
    b97c:	01711623          	sh	s7,12(sp)
    b980:	00fc5463          	bge	s8,a5,b988 <.L2626>
    b984:	ed1f806f          	j	4854 <.L1390>

0000b988 <.L2626>:
    b988:	e4f00b93          	li	s7,-433
    b98c:	017ad463          	bge	s5,s7,b994 <.L2626+0xc>
    b990:	afdf606f          	j	248c <.L1391>
    b994:	e00f806f          	j	3f94 <.L1392>

0000b998 <.L1852>:
    b998:	f8b00b93          	li	s7,-117
    b99c:	0175c463          	blt	a1,s7,b9a4 <.L1852+0xc>
    b9a0:	fedf806f          	j	498c <.L1855>
    b9a4:	9ecf706f          	j	2b90 <.L1874>

0000b9a8 <.L2911>:
    b9a8:	00c15b83          	lhu	s7,12(sp)
    b9ac:	ffbb8b93          	addi	s7,s7,-5
    b9b0:	01711623          	sh	s7,12(sp)
    b9b4:	f89fa06f          	j	693c <.L2289>

0000b9b8 <.L1478>:
    b9b8:	00a15b83          	lhu	s7,10(sp)
    b9bc:	04900c13          	li	s8,73
    b9c0:	007b8b93          	addi	s7,s7,7
    b9c4:	01711523          	sh	s7,10(sp)
    b9c8:	011c5463          	bge	s8,a7,b9d0 <.L1478+0x18>
    b9cc:	a78fa06f          	j	5c44 <.L1483>
    b9d0:	ec8f806f          	j	4098 <.L1477>

0000b9d4 <.L1484>:
    b9d4:	00a15b83          	lhu	s7,10(sp)
    b9d8:	04900c13          	li	s8,73
    b9dc:	002b8b93          	addi	s7,s7,2
    b9e0:	01711523          	sh	s7,10(sp)
    b9e4:	011c5463          	bge	s8,a7,b9ec <.L1484+0x18>
    b9e8:	a5cfa06f          	j	5c44 <.L1483>
    b9ec:	83cff06f          	j	aa28 <.L1485>

0000b9f0 <.L2932>:
    b9f0:	ff300b93          	li	s7,-13
    b9f4:	01765463          	bge	a2,s7,b9fc <.L2653>
    b9f8:	b48f706f          	j	2d40 <.L1981>

0000b9fc <.L2653>:
    b9fc:	05800b93          	li	s7,88
    ba00:	009bc463          	blt	s7,s1,ba08 <.L2653+0xc>
    ba04:	865fc06f          	j	8268 <.L1982>
    ba08:	b5cf706f          	j	2d64 <.L1983>

0000ba0c <.L2898>:
    ba0c:	00100b93          	li	s7,1
    ba10:	01cbd463          	bge	s7,t3,ba18 <.L2898+0xc>
    ba14:	940fb06f          	j	6b54 <.L1655>
    ba18:	968fb06f          	j	6b80 <.L1654>

0000ba1c <.L2063>:
    ba1c:	ed600b93          	li	s7,-298
    ba20:	5972d863          	bge	t0,s7,bfb0 <.L2067>
    ba24:	00e15b83          	lhu	s7,14(sp)
    ba28:	ffdb8b93          	addi	s7,s7,-3
    ba2c:	01711723          	sh	s7,14(sp)
    ba30:	8b1f806f          	j	42e0 <.L2056>

0000ba34 <.L2059>:
    ba34:	00e15b83          	lhu	s7,14(sp)
    ba38:	0a900c13          	li	s8,169
    ba3c:	004b8b93          	addi	s7,s7,4
    ba40:	01711723          	sh	s7,14(sp)
    ba44:	01ec4463          	blt	s8,t5,ba4c <.L2059+0x18>
    ba48:	c88f706f          	j	2ed0 <.L2050>
    ba4c:	e89f906f          	j	58d4 <.L2046>

0000ba50 <.L2533>:
    ba50:	e4300b93          	li	s7,-445
    ba54:	4f745063          	bge	s0,s7,bf34 <.L733>
    ba58:	00815b83          	lhu	s7,8(sp)
    ba5c:	ff7b8b93          	addi	s7,s7,-9
    ba60:	01711423          	sh	s7,8(sp)
    ba64:	bfcf506f          	j	e60 <.L715>

0000ba68 <.L1313>:
    ba68:	00e15b83          	lhu	s7,14(sp)
    ba6c:	005b8b93          	addi	s7,s7,5
    ba70:	01711723          	sh	s7,14(sp)
    ba74:	c51f806f          	j	46c4 <.L1301>

0000ba78 <.L2572>:
    ba78:	00c15b83          	lhu	s7,12(sp)
    ba7c:	005b8b93          	addi	s7,s7,5
    ba80:	01711623          	sh	s7,12(sp)
    ba84:	f48fd06f          	j	91cc <.L498>

0000ba88 <.L2747>:
    ba88:	00c15e03          	lhu	t3,12(sp)
    ba8c:	ff6e0e13          	addi	t3,t3,-10
    ba90:	01c11623          	sh	t3,12(sp)
    ba94:	9e5f406f          	j	478 <.L121>

0000ba98 <.L2952>:
    ba98:	00c15b83          	lhu	s7,12(sp)
    ba9c:	ff8b8b93          	addi	s7,s7,-8
    baa0:	01711623          	sh	s7,12(sp)
    baa4:	c01fa06f          	j	66a4 <.L643>

0000baa8 <.L1965>:
    baa8:	01500b93          	li	s7,21
    baac:	007bc463          	blt	s7,t2,bab4 <.L1965+0xc>
    bab0:	accf706f          	j	2d7c <.L1966>
    bab4:	945fb06f          	j	73f8 <.L1967>

0000bab8 <.L2943>:
    bab8:	00a15b83          	lhu	s7,10(sp)
    babc:	007b8b93          	addi	s7,s7,7
    bac0:	01711523          	sh	s7,10(sp)
    bac4:	fb9f706f          	j	3a7c <.L1167>

0000bac8 <.L936>:
    bac8:	010bc463          	blt	s7,a6,bad0 <.L936+0x8>
    bacc:	b28f606f          	j	1df4 <.L935>
    bad0:	00e15b83          	lhu	s7,14(sp)
    bad4:	008b8b93          	addi	s7,s7,8
    bad8:	01711723          	sh	s7,14(sp)
    badc:	b18f606f          	j	1df4 <.L935>

0000bae0 <.L487>:
    bae0:	30200b93          	li	s7,770
    bae4:	f8ebdae3          	bge	s7,a4,ba78 <.L2572>
    bae8:	00c15b83          	lhu	s7,12(sp)
    baec:	ff7b8b93          	addi	s7,s7,-9
    baf0:	01711623          	sh	s7,12(sp)
    baf4:	b7df906f          	j	5670 <.L491>

0000baf8 <.L757>:
    baf8:	03d00b93          	li	s7,61
    bafc:	00fbc463          	blt	s7,a5,bb04 <.L757+0xc>
    bb00:	db4fe06f          	j	a0b4 <.L753>
    bb04:	00c15b83          	lhu	s7,12(sp)
    bb08:	03e00c13          	li	s8,62
    bb0c:	ffcb8b93          	addi	s7,s7,-4
    bb10:	01711623          	sh	s7,12(sp)
    bb14:	01879463          	bne	a5,s8,bb1c <.L757+0x24>
    bb18:	ffdf506f          	j	1b14 <.L754>
    bb1c:	ba8f906f          	j	4ec4 <.L755>

0000bb20 <.L2934>:
    bb20:	0c600b93          	li	s7,198
    bb24:	009bc463          	blt	s7,s1,bb2c <.L2934+0xc>
    bb28:	ebdf606f          	j	29e4 <.L1772>
    bb2c:	02700b93          	li	s7,39
    bb30:	007bc463          	blt	s7,t2,bb38 <.L2934+0x18>
    bb34:	90dfc06f          	j	8440 <.L1762>
    bb38:	9c8f906f          	j	4d00 <.L1763>

0000bb3c <.L2953>:
    bb3c:	de700b93          	li	s7,-537
    bb40:	0175d463          	bge	a1,s7,bb48 <.L2953+0xc>
    bb44:	b8dfa06f          	j	66d0 <.L2270>
    bb48:	b71fa06f          	j	66b8 <.L656>

0000bb4c <.L2946>:
    bb4c:	00a15e03          	lhu	t3,10(sp)
    bb50:	2df00b93          	li	s7,735
    bb54:	ff7e0e13          	addi	t3,t3,-9
    bb58:	01c11523          	sh	t3,10(sp)
    bb5c:	00ebd463          	bge	s7,a4,bb64 <.L2946+0x18>
    bb60:	df8fa06f          	j	6158 <.L2539>
    bb64:	b59f406f          	j	6bc <.L236>

0000bb68 <.L2956>:
    bb68:	00c15e03          	lhu	t3,12(sp)
    bb6c:	ff7e0e13          	addi	t3,t3,-9
    bb70:	010e1e13          	slli	t3,t3,0x10
    bb74:	410e5e13          	srai	t3,t3,0x10
    bb78:	01c11623          	sh	t3,12(sp)
    bb7c:	8fdf406f          	j	478 <.L121>

0000bb80 <.L2935>:
    bb80:	27200b93          	li	s7,626
    bb84:	58ebd063          	bge	s7,a4,c104 <.L642>
    bb88:	00c15b83          	lhu	s7,12(sp)
    bb8c:	fffb8b93          	addi	s7,s7,-1
    bb90:	01711623          	sh	s7,12(sp)
    bb94:	b11fa06f          	j	66a4 <.L643>

0000bb98 <.L744>:
    bb98:	ddb00b93          	li	s7,-549
    bb9c:	4d7acc63          	blt	s5,s7,c074 <.L2959>
    bba0:	00c15b83          	lhu	s7,12(sp)
    bba4:	ff7b8b93          	addi	s7,s7,-9
    bba8:	01711623          	sh	s7,12(sp)
    bbac:	f75f506f          	j	1b20 <.L751>

0000bbb0 <.L882>:
    bbb0:	00c15b83          	lhu	s7,12(sp)
    bbb4:	02f00c13          	li	s8,47
    bbb8:	007b8b93          	addi	s7,s7,7
    bbbc:	01711623          	sh	s7,12(sp)
    bbc0:	010c5463          	bge	s8,a6,bbc8 <.L882+0x18>
    bbc4:	958f606f          	j	1d1c <.L889>
    bbc8:	8b9fa06f          	j	6480 <.L881>

0000bbcc <.L1813>:
    bbcc:	16c00b93          	li	s7,364
    bbd0:	40dbc063          	blt	s7,a3,bfd0 <.L1823>
    bbd4:	00e15b83          	lhu	s7,14(sp)
    bbd8:	003b8b93          	addi	s7,s7,3
    bbdc:	01711723          	sh	s7,14(sp)
    bbe0:	8a4f906f          	j	4c84 <.L1827>

0000bbe4 <.L2954>:
    bbe4:	00e15b83          	lhu	s7,14(sp)
    bbe8:	01500c13          	li	s8,21
    bbec:	001b8b93          	addi	s7,s7,1
    bbf0:	01711723          	sh	s7,14(sp)
    bbf4:	007c4463          	blt	s8,t2,bbfc <.L2954+0x18>
    bbf8:	984f706f          	j	2d7c <.L1966>
    bbfc:	ffcfb06f          	j	73f8 <.L1967>

0000bc00 <.L1734>:
    bc00:	e9800b93          	li	s7,-360
    bc04:	0175d463          	bge	a1,s7,bc0c <.L1734+0xc>
    bc08:	9dcfd06f          	j	8de4 <.L1736>
    bc0c:	9a4f906f          	j	4db0 <.L1728>

0000bc10 <.L1177>:
    bc10:	00a15b83          	lhu	s7,10(sp)
    bc14:	004b8b93          	addi	s7,s7,4
    bc18:	01711523          	sh	s7,10(sp)
    bc1c:	e61f706f          	j	3a7c <.L1167>

0000bc20 <.L2764>:
    bc20:	00e15b83          	lhu	s7,14(sp)
    bc24:	008b8b93          	addi	s7,s7,8
    bc28:	01711723          	sh	s7,14(sp)
    bc2c:	f2cf506f          	j	1358 <.L1062>

0000bc30 <.L316>:
    bc30:	00c15e03          	lhu	t3,12(sp)
    bc34:	d2500b93          	li	s7,-731
    bc38:	ff7e0e13          	addi	t3,t3,-9
    bc3c:	01c11623          	sh	t3,12(sp)
    bc40:	02051e03          	lh	t3,32(a0)
    bc44:	0175d463          	bge	a1,s7,bc4c <.L316+0x1c>
    bc48:	dc5fa06f          	j	6a0c <.L320>
    bc4c:	8ccfa06f          	j	5d18 <.L321>

0000bc50 <.L2879>:
    bc50:	00e15b83          	lhu	s7,14(sp)
    bc54:	ff8b8b93          	addi	s7,s7,-8
    bc58:	01711723          	sh	s7,14(sp)

0000bc5c <.L1812>:
    bc5c:	01700b93          	li	s7,23
    bc60:	01dbd463          	bge	s7,t4,bc68 <.L1812+0xc>
    bc64:	828f906f          	j	4c8c <.L1836>
    bc68:	00815b83          	lhu	s7,8(sp)
    bc6c:	03300c13          	li	s8,51
    bc70:	fffb8b93          	addi	s7,s7,-1
    bc74:	01711423          	sh	s7,8(sp)
    bc78:	01fc4463          	blt	s8,t6,bc80 <.L1812+0x24>
    bc7c:	c91f806f          	j	490c <.L1832>
    bc80:	840f906f          	j	4cc0 <.L1846>

0000bc84 <.L1340>:
    bc84:	00c15b83          	lhu	s7,12(sp)
    bc88:	03600c13          	li	s8,54
    bc8c:	00ab8b93          	addi	s7,s7,10
    bc90:	01711623          	sh	s7,12(sp)
    bc94:	00fc4463          	blt	s8,a5,bc9c <.L1340+0x18>
    bc98:	925f906f          	j	55bc <.L1341>
    bc9c:	a60f806f          	j	3efc <.L1342>

0000bca0 <.L2807>:
    bca0:	00e15b83          	lhu	s7,14(sp)
    bca4:	00400c13          	li	s8,4
    bca8:	007b8b93          	addi	s7,s7,7
    bcac:	01711723          	sh	s7,14(sp)
    bcb0:	011c4463          	blt	s8,a7,bcb8 <.L2807+0x18>
    bcb4:	de9f906f          	j	5a9c <.L1643>
    bcb8:	b85f606f          	j	283c <.L1646>

0000bcbc <.L2805>:
    bcbc:	00815b83          	lhu	s7,8(sp)
    bcc0:	00c00c13          	li	s8,12
    bcc4:	ffbb8b93          	addi	s7,s7,-5
    bcc8:	01711423          	sh	s7,8(sp)
    bccc:	01cc5463          	bge	s8,t3,bcd4 <.L2805+0x18>
    bcd0:	95df606f          	j	262c <.L1505>
    bcd4:	8c9f806f          	j	459c <.L1508>

0000bcd8 <.L2810>:
    bcd8:	01100b93          	li	s7,17
    bcdc:	011bc463          	blt	s7,a7,bce4 <.L2810+0xc>
    bce0:	ea1fa06f          	j	6b80 <.L1654>
    bce4:	eacfd06f          	j	9390 <.L1670>

0000bce8 <.L1339>:
    bce8:	00c15b83          	lhu	s7,12(sp)
    bcec:	03600c13          	li	s8,54
    bcf0:	001b8b93          	addi	s7,s7,1
    bcf4:	01711623          	sh	s7,12(sp)
    bcf8:	00fc4463          	blt	s8,a5,bd00 <.L1339+0x18>
    bcfc:	8c1f906f          	j	55bc <.L1341>
    bd00:	a08f806f          	j	3f08 <.L1364>

0000bd04 <.L2924>:
    bd04:	00a15b83          	lhu	s7,10(sp)
    bd08:	03300c13          	li	s8,51
    bd0c:	007b8b93          	addi	s7,s7,7
    bd10:	01711523          	sh	s7,10(sp)
    bd14:	00fc4463          	blt	s8,a5,bd1c <.L2924+0x18>
    bd18:	959f806f          	j	4670 <.L2733>
    bd1c:	98df506f          	j	16a8 <.L1266>

0000bd20 <.L2918>:
    bd20:	00e15b83          	lhu	s7,14(sp)
    bd24:	00eb8b93          	addi	s7,s7,14
    bd28:	01711723          	sh	s7,14(sp)
    bd2c:	ec0fb06f          	j	73ec <.L1975>

0000bd30 <.L2913>:
    bd30:	00815b83          	lhu	s7,8(sp)
    bd34:	008b8b93          	addi	s7,s7,8
    bd38:	01711423          	sh	s7,8(sp)
    bd3c:	924f506f          	j	e60 <.L715>

0000bd40 <.L739>:
    bd40:	f5c00b93          	li	s7,-164
    bd44:	27745e63          	bge	s0,s7,bfc0 <.L763>
    bd48:	00c15b83          	lhu	s7,12(sp)
    bd4c:	009b8b93          	addi	s7,s7,9
    bd50:	01711623          	sh	s7,12(sp)
    bd54:	a24fd06f          	j	8f78 <.L764>

0000bd58 <.L1039>:
    bd58:	03100b93          	li	s7,49
    bd5c:	01fbc463          	blt	s7,t6,bd64 <.L1039+0xc>
    bd60:	ce0fa06f          	j	6240 <.L1044>
    bd64:	a08f606f          	j	1f6c <.L1054>

0000bd68 <.L1071>:
    bd68:	00300b93          	li	s7,3
    bd6c:	00dbc463          	blt	s7,a3,bd74 <.L1071+0xc>
    bd70:	d69fc06f          	j	8ad8 <.L1072>
    bd74:	b41fe06f          	j	a8b4 <.L1073>

0000bd78 <.L2910>:
    bd78:	00f00b93          	li	s7,15
    bd7c:	01dbc463          	blt	s7,t4,bd84 <.L2910+0xc>
    bd80:	c4cfd06f          	j	91cc <.L498>
    bd84:	00c15b83          	lhu	s7,12(sp)
    bd88:	ff8b8b93          	addi	s7,s7,-8
    bd8c:	01711623          	sh	s7,12(sp)
    bd90:	c3cfd06f          	j	91cc <.L498>

0000bd94 <.L2802>:
    bd94:	ea900b93          	li	s7,-343
    bd98:	0172d463          	bge	t0,s7,bda0 <.L2802+0xc>
    bd9c:	a98fa06f          	j	6034 <.L1374>
    bda0:	9bcf806f          	j	3f5c <.L1385>

0000bda4 <.L2864>:
    bda4:	ff968693          	addi	a3,a3,-7
    bda8:	00d11723          	sh	a3,14(sp)
    bdac:	f7a00693          	li	a3,-134
    bdb0:	00da4463          	blt	s4,a3,bdb8 <.L2864+0x14>
    bdb4:	bc4f706f          	j	3178 <.L2218>
    bdb8:	9f0ff06f          	j	afa8 <.L2667>

0000bdbc <.L2863>:
    bdbc:	00815b03          	lhu	s6,8(sp)
    bdc0:	008b0b13          	addi	s6,s6,8
    bdc4:	01611423          	sh	s6,8(sp)
    bdc8:	cf9f706f          	j	3ac0 <.L2146>

0000bdcc <.L1065>:
    bdcc:	00e15b83          	lhu	s7,14(sp)
    bdd0:	ffe00c13          	li	s8,-2
    bdd4:	ff9b8b93          	addi	s7,s7,-7
    bdd8:	01711723          	sh	s7,14(sp)
    bddc:	01885463          	bge	a6,s8,bde4 <.L1065+0x18>
    bde0:	b54fd06f          	j	9134 <.L1061>
    bde4:	ad1fe06f          	j	a8b4 <.L1073>

0000bde8 <.L2958>:
    bde8:	ffcb8b93          	addi	s7,s7,-4
    bdec:	01711723          	sh	s7,14(sp)
    bdf0:	011c4463          	blt	s8,a7,bdf8 <.L2958+0x10>
    bdf4:	ca9f906f          	j	5a9c <.L1643>
    bdf8:	824f806f          	j	3e1c <.L1645>

0000bdfc <.L555>:
    bdfc:	ff400b93          	li	s7,-12
    be00:	23765063          	bge	a2,s7,c020 <.L2960>
    be04:	00a15b83          	lhu	s7,10(sp)
    be08:	ff6b8b93          	addi	s7,s7,-10
    be0c:	01711523          	sh	s7,10(sp)
    be10:	ef9fc06f          	j	8d08 <.L2288>

0000be14 <.L2098>:
    be14:	00815b03          	lhu	s6,8(sp)
    be18:	02e00b93          	li	s7,46
    be1c:	004b0b13          	addi	s6,s6,4
    be20:	01611423          	sh	s6,8(sp)
    be24:	01dbc463          	blt	s7,t4,be2c <.L2098+0x18>
    be28:	d70f806f          	j	4398 <.L2099>
    be2c:	930f906f          	j	4f5c <.L2100>

0000be30 <.L1407>:
    be30:	00e15b83          	lhu	s7,14(sp)
    be34:	01f00c13          	li	s8,31
    be38:	008b8b93          	addi	s7,s7,8
    be3c:	01711723          	sh	s7,14(sp)
    be40:	013c4463          	blt	s8,s3,be48 <.L1407+0x18>
    be44:	e6cf606f          	j	24b0 <.L1408>
    be48:	ebdfb06f          	j	7d04 <.L1409>

0000be4c <.L2774>:
    be4c:	1aa00b93          	li	s7,426
    be50:	016bc463          	blt	s7,s6,be58 <.L2774+0xc>
    be54:	9a9f506f          	j	17fc <.L547>
    be58:	00815b83          	lhu	s7,8(sp)
    be5c:	013b8b93          	addi	s7,s7,19
    be60:	01711423          	sh	s7,8(sp)
    be64:	9a5f506f          	j	1808 <.L549>

0000be68 <.L2897>:
    be68:	ffcb8b93          	addi	s7,s7,-4
    be6c:	01711723          	sh	s7,14(sp)
    be70:	011c4463          	blt	s8,a7,be78 <.L2897+0x10>
    be74:	c29f906f          	j	5a9c <.L1643>
    be78:	9c5f606f          	j	283c <.L1646>

0000be7c <.L2870>:
    be7c:	03c00b93          	li	s7,60
    be80:	00fbd463          	bge	s7,a5,be88 <.L2870+0xc>
    be84:	9d1f806f          	j	4854 <.L1390>
    be88:	b01ff06f          	j	b988 <.L2626>

0000be8c <.L1084>:
    be8c:	00815b83          	lhu	s7,8(sp)
    be90:	30000c13          	li	s8,768
    be94:	009b8b93          	addi	s7,s7,9
    be98:	01711423          	sh	s7,8(sp)
    be9c:	01ec4463          	blt	s8,t5,bea4 <.L1084+0x18>
    bea0:	ce0f506f          	j	1380 <.L1085>
    bea4:	f60f706f          	j	3604 <.L1086>

0000bea8 <.L2296>:
    bea8:	01251483          	lh	s1,18(a0)
    beac:	00a51683          	lh	a3,10(a0)
    beb0:	01051b03          	lh	s6,16(a0)
    beb4:	02851e83          	lh	t4,40(a0)
    beb8:	01451283          	lh	t0,20(a0)
    bebc:	ff700593          	li	a1,-9
    bec0:	985fc06f          	j	8844 <.L28>

0000bec4 <.L2955>:
    bec4:	00e15e03          	lhu	t3,14(sp)
    bec8:	ffae0e13          	addi	t3,t3,-6
    becc:	01c11723          	sh	t3,14(sp)
    bed0:	8a5f706f          	j	3774 <.L280>

0000bed4 <.L1687>:
    bed4:	00a15b83          	lhu	s7,10(sp)
    bed8:	00100c13          	li	s8,1
    bedc:	fffb8b93          	addi	s7,s7,-1
    bee0:	01711523          	sh	s7,10(sp)
    bee4:	01cc5463          	bge	s8,t3,beec <.L1688>
    bee8:	f85f706f          	j	3e6c <.L1689>

0000beec <.L1688>:
    beec:	01000b93          	li	s7,16
    bef0:	01dbc463          	blt	s7,t4,bef8 <.L1688+0xc>
    bef4:	c9cfd06f          	j	9390 <.L1670>
    bef8:	cfdfc06f          	j	8bf4 <.L1693>

0000befc <.L1679>:
    befc:	00c15b83          	lhu	s7,12(sp)
    bf00:	ff600c13          	li	s8,-10
    bf04:	ff8b8b93          	addi	s7,s7,-8
    bf08:	01711623          	sh	s7,12(sp)
    bf0c:	01865463          	bge	a2,s8,bf14 <.L1679+0x18>
    bf10:	98df606f          	j	289c <.L1682>
    bf14:	9e0f906f          	j	50f4 <.L1683>

0000bf18 <.L2060>:
    bf18:	00e15b83          	lhu	s7,14(sp)
    bf1c:	0a900c13          	li	s8,169
    bf20:	001b8b93          	addi	s7,s7,1
    bf24:	01711723          	sh	s7,14(sp)
    bf28:	01ec4463          	blt	s8,t5,bf30 <.L2060+0x18>
    bf2c:	fa5f606f          	j	2ed0 <.L2050>
    bf30:	9a5f906f          	j	58d4 <.L2046>

0000bf34 <.L733>:
    bf34:	00815b83          	lhu	s7,8(sp)
    bf38:	003b8b93          	addi	s7,s7,3
    bf3c:	01711423          	sh	s7,8(sp)
    bf40:	f21f406f          	j	e60 <.L715>

0000bf44 <.L2064>:
    bf44:	00e15b83          	lhu	s7,14(sp)
    bf48:	001b8b93          	addi	s7,s7,1
    bf4c:	01711723          	sh	s7,14(sp)
    bf50:	b90f806f          	j	42e0 <.L2056>

0000bf54 <.L740>:
    bf54:	00c15b83          	lhu	s7,12(sp)
    bf58:	fffb8b93          	addi	s7,s7,-1
    bf5c:	01711623          	sh	s7,12(sp)
    bf60:	a68f906f          	j	51c8 <.L741>

0000bf64 <.L2880>:
    bf64:	00e15c03          	lhu	s8,14(sp)
    bf68:	00815b83          	lhu	s7,8(sp)
    bf6c:	002c0c13          	addi	s8,s8,2
    bf70:	cb9f806f          	j	4c28 <.L2649>

0000bf74 <.L937>:
    bf74:	00e15b83          	lhu	s7,14(sp)
    bf78:	003b8b93          	addi	s7,s7,3
    bf7c:	01711723          	sh	s7,14(sp)
    bf80:	e75f506f          	j	1df4 <.L935>

0000bf84 <.L1600>:
    bf84:	00c15b83          	lhu	s7,12(sp)
    bf88:	00300c13          	li	s8,3
    bf8c:	004b8b93          	addi	s7,s7,4
    bf90:	01711623          	sh	s7,12(sp)
    bf94:	01cc4463          	blt	s8,t3,bf9c <.L1600+0x18>
    bf98:	e55f706f          	j	3dec <.L1621>
    bf9c:	81cfd06f          	j	8fb8 <.L1622>

0000bfa0 <.L2947>:
    bfa0:	00a15e03          	lhu	t3,10(sp)
    bfa4:	ffae0e13          	addi	t3,t3,-6
    bfa8:	01c11523          	sh	t3,10(sp)
    bfac:	a49f706f          	j	39f4 <.L225>

0000bfb0 <.L2067>:
    bfb0:	00e15b83          	lhu	s7,14(sp)
    bfb4:	004b8b93          	addi	s7,s7,4
    bfb8:	01711723          	sh	s7,14(sp)
    bfbc:	b24f806f          	j	42e0 <.L2056>

0000bfc0 <.L763>:
    bfc0:	00c15b83          	lhu	s7,12(sp)
    bfc4:	ffcb8b93          	addi	s7,s7,-4
    bfc8:	01711623          	sh	s7,12(sp)
    bfcc:	fadfc06f          	j	8f78 <.L764>

0000bfd0 <.L1823>:
    bfd0:	00e15b83          	lhu	s7,14(sp)
    bfd4:	ffdb8b93          	addi	s7,s7,-3
    bfd8:	01711723          	sh	s7,14(sp)
    bfdc:	ca9f806f          	j	4c84 <.L1827>

0000bfe0 <.L1617>:
    bfe0:	ec100b93          	li	s7,-319
    bfe4:	17745863          	bge	s0,s7,c154 <.L2961>
    bfe8:	00c15b83          	lhu	s7,12(sp)
    bfec:	00300c13          	li	s8,3
    bff0:	ffeb8b93          	addi	s7,s7,-2
    bff4:	01711623          	sh	s7,12(sp)
    bff8:	01cc4463          	blt	s8,t3,c000 <.L1617+0x20>
    bffc:	c99fe06f          	j	ac94 <.L1632>
    c000:	a31f906f          	j	5a30 <.L1620>

0000c004 <.L893>:
    c004:	00c15b83          	lhu	s7,12(sp)
    c008:	02f00c13          	li	s8,47
    c00c:	ff8b8b93          	addi	s7,s7,-8
    c010:	01711623          	sh	s7,12(sp)
    c014:	010c5463          	bge	s8,a6,c01c <.L893+0x18>
    c018:	d05f506f          	j	1d1c <.L889>
    c01c:	c64fa06f          	j	6480 <.L881>

0000c020 <.L2960>:
    c020:	00a15b83          	lhu	s7,10(sp)
    c024:	006b8b93          	addi	s7,s7,6
    c028:	01711523          	sh	s7,10(sp)
    c02c:	cddfc06f          	j	8d08 <.L2288>

0000c030 <.L2845>:
    c030:	01200b93          	li	s7,18
    c034:	0fdbdc63          	bge	s7,t4,c12c <.L2962>
    c038:	00a15b83          	lhu	s7,10(sp)
    c03c:	00100c13          	li	s8,1
    c040:	002b8b93          	addi	s7,s7,2
    c044:	01711523          	sh	s7,10(sp)
    c048:	01cc5463          	bge	s8,t3,c050 <.L2845+0x20>
    c04c:	b81fb06f          	j	7bcc <.L1680>
    c050:	01100b93          	li	s7,17
    c054:	eb1bd4e3          	bge	s7,a7,befc <.L1679>
    c058:	00c15b83          	lhu	s7,12(sp)
    c05c:	ff600c13          	li	s8,-10
    c060:	ffab8b93          	addi	s7,s7,-6
    c064:	01711623          	sh	s7,12(sp)
    c068:	01865463          	bge	a2,s8,c070 <.L2845+0x40>
    c06c:	831f606f          	j	289c <.L1682>
    c070:	884f906f          	j	50f4 <.L1683>

0000c074 <.L2959>:
    c074:	00c15b83          	lhu	s7,12(sp)
    c078:	c3900c13          	li	s8,-967
    c07c:	004b8b93          	addi	s7,s7,4
    c080:	01711623          	sh	s7,12(sp)
    c084:	0185c463          	blt	a1,s8,c08c <.L2959+0x18>
    c088:	efdfc06f          	j	8f84 <.L767>
    c08c:	00e15b83          	lhu	s7,14(sp)
    c090:	ffe00c13          	li	s8,-2
    c094:	008b8b93          	addi	s7,s7,8
    c098:	01711723          	sh	s7,14(sp)
    c09c:	01885463          	bge	a6,s8,c0a4 <.L2959+0x30>
    c0a0:	b81fc06f          	j	8c20 <.L776>
    c0a4:	aa9f506f          	j	1b4c <.L786>

0000c0a8 <.L221>:
    c0a8:	00815e03          	lhu	t3,8(sp)
    c0ac:	08000b93          	li	s7,128
    c0b0:	ff8e0e13          	addi	t3,t3,-8
    c0b4:	01c11423          	sh	t3,8(sp)
    c0b8:	00ebc463          	blt	s7,a4,c0c0 <.L221+0x18>
    c0bc:	dd0f406f          	j	68c <.L215>
    c0c0:	b60fd06f          	j	9420 <.L211>

0000c0c4 <.L2905>:
    c0c4:	00a51683          	lh	a3,10(a0)
    c0c8:	01051b03          	lh	s6,16(a0)
    c0cc:	02851e83          	lh	t4,40(a0)
    c0d0:	a24f406f          	j	2f4 <.L22>

0000c0d4 <.L2832>:
    c0d4:	00a15e03          	lhu	t3,10(sp)
    c0d8:	08f00b93          	li	s7,143
    c0dc:	00be0e13          	addi	t3,t3,11
    c0e0:	01c11523          	sh	t3,10(sp)
    c0e4:	02051e03          	lh	t3,32(a0)
    c0e8:	00dbc463          	blt	s7,a3,c0f0 <.L2832+0x1c>
    c0ec:	c05f906f          	j	5cf0 <.L291>
    c0f0:	8edfa06f          	j	69dc <.L315>

0000c0f4 <.L2957>:
    c0f4:	00c15e03          	lhu	t3,12(sp)
    c0f8:	015e0e13          	addi	t3,t3,21
    c0fc:	01c11623          	sh	t3,12(sp)
    c100:	b78f406f          	j	478 <.L121>

0000c104 <.L642>:
    c104:	00c15b83          	lhu	s7,12(sp)
    c108:	008b8b93          	addi	s7,s7,8
    c10c:	01711623          	sh	s7,12(sp)
    c110:	d94fa06f          	j	66a4 <.L643>

0000c114 <.L1992>:
    c114:	1a500b93          	li	s7,421
    c118:	b27bce63          	blt	s7,t2,b454 <.L1990>
    c11c:	00e15b83          	lhu	s7,14(sp)
    c120:	001b8b93          	addi	s7,s7,1
    c124:	01711723          	sh	s7,14(sp)
    c128:	ac4fb06f          	j	73ec <.L1975>

0000c12c <.L2962>:
    c12c:	00a15b83          	lhu	s7,10(sp)
    c130:	00100c13          	li	s8,1
    c134:	ffeb8b93          	addi	s7,s7,-2
    c138:	01711523          	sh	s7,10(sp)
    c13c:	01cc5463          	bge	s8,t3,c144 <.L2962+0x18>
    c140:	f38f606f          	j	2878 <.L1659>
    c144:	01100b93          	li	s7,17
    c148:	011bc463          	blt	s7,a7,c150 <.L2962+0x24>
    c14c:	a35fa06f          	j	6b80 <.L1654>
    c150:	d9dff06f          	j	beec <.L1688>

0000c154 <.L2961>:
    c154:	00c15b83          	lhu	s7,12(sp)
    c158:	00300c13          	li	s8,3
    c15c:	006b8b93          	addi	s7,s7,6
    c160:	01711623          	sh	s7,12(sp)
    c164:	01cc4463          	blt	s8,t3,c16c <.L2961+0x18>
    c168:	d44fc06f          	j	86ac <.L1595>
    c16c:	8c5f906f          	j	5a30 <.L1620>

0000c170 <argmax>:
    c170:	00100713          	li	a4,1
    c174:	02b75e63          	bge	a4,a1,c1b0 <.L2967>
    c178:	00250693          	addi	a3,a0,2
    c17c:	00000813          	li	a6,0

0000c180 <.L2966>:
    c180:	00181793          	slli	a5,a6,0x1
    c184:	00f507b3          	add	a5,a0,a5
    c188:	00069603          	lh	a2,0(a3)
    c18c:	00079783          	lh	a5,0(a5)
    c190:	00268693          	addi	a3,a3,2
    c194:	00c7d663          	bge	a5,a2,c1a0 <.L2965>
    c198:	01071813          	slli	a6,a4,0x10
    c19c:	41085813          	srai	a6,a6,0x10

0000c1a0 <.L2965>:
    c1a0:	00170713          	addi	a4,a4,1
    c1a4:	fce59ee3          	bne	a1,a4,c180 <.L2966>
    c1a8:	00080513          	mv	a0,a6
    c1ac:	00008067          	ret

0000c1b0 <.L2967>:
    c1b0:	00000513          	li	a0,0
    c1b4:	00008067          	ret
