
header_editado.o:     formato de ficheiro elf32-littleriscv


Desmontagem da secção .text:

00000000 <get_num_target>:
       0:	00100513          	li	a0,1
       4:	00008067          	ret

00000008 <get_num_class>:
       8:	00400793          	li	a5,4
       c:	00f52023          	sw	a5,0(a0)
      10:	00008067          	ret

00000014 <get_num_feature>:
      14:	01600513          	li	a0,22
      18:	00008067          	ret

0000001c <get_threshold_type>:
      1c:	00000517          	auipc	a0,0x0
      20:	00050513          	mv	a0,a0
      24:	00008067          	ret

00000028 <get_leaf_output_type>:
      28:	00000517          	auipc	a0,0x0
      2c:	00050513          	mv	a0,a0
      30:	00008067          	ret

00000034 <argmax>:
      34:	00050813          	mv	a6,a0
      38:	00100793          	li	a5,1
      3c:	04b7d263          	bge	a5,a1,80 <.L10>
      40:	00250693          	addi	a3,a0,2 # 2a <get_leaf_output_type+0x2>
      44:	00078713          	mv	a4,a5
      48:	00000513          	li	a0,0
      4c:	0100006f          	j	5c <.L9>

00000050 <.L8>:
      50:	00170713          	addi	a4,a4,1
      54:	00268693          	addi	a3,a3,2
      58:	02e58263          	beq	a1,a4,7c <.L13>

0000005c <.L9>:
      5c:	00151793          	slli	a5,a0,0x1
      60:	00f807b3          	add	a5,a6,a5
      64:	00069603          	lh	a2,0(a3)
      68:	00079783          	lh	a5,0(a5)
      6c:	fec7d2e3          	bge	a5,a2,50 <.L8>
      70:	01071513          	slli	a0,a4,0x10
      74:	41055513          	srai	a0,a0,0x10
      78:	fd9ff06f          	j	50 <.L8>

0000007c <.L13>:
      7c:	00008067          	ret

00000080 <.L10>:
      80:	00000513          	li	a0,0
      84:	00008067          	ret

00000088 <predict>:
      88:	fa010113          	addi	sp,sp,-96
      8c:	04112e23          	sw	ra,92(sp)
      90:	04812c23          	sw	s0,88(sp)
      94:	04912a23          	sw	s1,84(sp)
      98:	05212823          	sw	s2,80(sp)
      9c:	05312623          	sw	s3,76(sp)
      a0:	05412423          	sw	s4,72(sp)
      a4:	05512223          	sw	s5,68(sp)
      a8:	05612023          	sw	s6,64(sp)
      ac:	03712e23          	sw	s7,60(sp)
      b0:	03812c23          	sw	s8,56(sp)
      b4:	03912a23          	sw	s9,52(sp)
      b8:	03a12823          	sw	s10,48(sp)
      bc:	03b12623          	sw	s11,44(sp)
      c0:	00451883          	lh	a7,4(a0)
      c4:	04600793          	li	a5,70
      c8:	0917ce63          	blt	a5,a7,164 <.L15>
      cc:	02451803          	lh	a6,36(a0)
      d0:	01900793          	li	a5,25
      d4:	0107ce63          	blt	a5,a6,f0 <.L16>
      d8:	01651703          	lh	a4,22(a0)
      dc:	efc00793          	li	a5,-260
      e0:	02400813          	li	a6,36
      e4:	02f75063          	bge	a4,a5,104 <.L17>
      e8:	01300813          	li	a6,19
      ec:	0180006f          	j	104 <.L17>

000000f0 <.L16>:
      f0:	01f00793          	li	a5,31
      f4:	0107a833          	slt	a6,a5,a6
      f8:	41000833          	neg	a6,a6
      fc:	fec87813          	andi	a6,a6,-20
     100:	00980813          	addi	a6,a6,9

00000104 <.L17>:
     104:	00251603          	lh	a2,2(a0)
     108:	2df00793          	li	a5,735
     10c:	0ec7c263          	blt	a5,a2,1f0 <.L19>
     110:	01851703          	lh	a4,24(a0)
     114:	ffd00793          	li	a5,-3
     118:	08f75663          	bge	a4,a5,1a4 <.L20>
     11c:	01251783          	lh	a5,18(a0)
     120:	19100713          	li	a4,401
     124:	00f727b3          	slt	a5,a4,a5
     128:	40f007b3          	neg	a5,a5
     12c:	00c7f793          	andi	a5,a5,12
     130:	ff678793          	addi	a5,a5,-10

00000134 <.L21>:
     134:	00651483          	lh	s1,6(a0)
     138:	d5c00713          	li	a4,-676
     13c:	0ee4dc63          	bge	s1,a4,234 <.L25>
     140:	01851683          	lh	a3,24(a0)
     144:	ff400713          	li	a4,-12
     148:	06e6de63          	bge	a3,a4,1c4 <.L23>
     14c:	02851683          	lh	a3,40(a0)
     150:	06300713          	li	a4,99
     154:	02500313          	li	t1,37
     158:	08d75063          	bge	a4,a3,1d8 <.L27>
     15c:	ffb00313          	li	t1,-5
     160:	0780006f          	j	1d8 <.L27>

00000164 <.L15>:
     164:	02251703          	lh	a4,34(a0)
     168:	0d900793          	li	a5,217
     16c:	02e7c063          	blt	a5,a4,18c <.L18>
     170:	00e51803          	lh	a6,14(a0)
     174:	03c00793          	li	a5,60
     178:	0107a833          	slt	a6,a5,a6
     17c:	41000833          	neg	a6,a6
     180:	fd987813          	andi	a6,a6,-39
     184:	01c80813          	addi	a6,a6,28
     188:	f7dff06f          	j	104 <.L17>

0000018c <.L18>:
     18c:	01a51703          	lh	a4,26(a0)
     190:	f2900793          	li	a5,-215
     194:	ffc00813          	li	a6,-4
     198:	f6f756e3          	bge	a4,a5,104 <.L17>
     19c:	ff500813          	li	a6,-11
     1a0:	f65ff06f          	j	104 <.L17>

000001a4 <.L20>:
     1a4:	00651483          	lh	s1,6(a0)
     1a8:	f4700793          	li	a5,-185
     1ac:	00f4c463          	blt	s1,a5,1b4 <.L20+0x10>
     1b0:	0380806f          	j	81e8 <.L1590>
     1b4:	d5c00713          	li	a4,-676
     1b8:	01f00793          	li	a5,31
     1bc:	00e4c463          	blt	s1,a4,1c4 <.L23>
     1c0:	02c0806f          	j	81ec <.L22>

000001c4 <.L23>:
     1c4:	26a00713          	li	a4,618
     1c8:	00c72733          	slt	a4,a4,a2
     1cc:	40e00733          	neg	a4,a4
     1d0:	fea77313          	andi	t1,a4,-22
     1d4:	00b30313          	addi	t1,t1,11

000001d8 <.L27>:
     1d8:	00051683          	lh	a3,0(a0)
     1dc:	03e00593          	li	a1,62
     1e0:	00d5c463          	blt	a1,a3,1e8 <.L1569>
     1e4:	03c0806f          	j	8220 <.L1568>

000001e8 <.L1569>:
     1e8:	ff600713          	li	a4,-10
     1ec:	05c0806f          	j	8248 <.L32>

000001f0 <.L19>:
     1f0:	00a51703          	lh	a4,10(a0)
     1f4:	7e700793          	li	a5,2023
     1f8:	02e7c063          	blt	a5,a4,218 <.L24>
     1fc:	01051783          	lh	a5,16(a0)
     200:	10100713          	li	a4,257
     204:	00f727b3          	slt	a5,a4,a5
     208:	40f007b3          	neg	a5,a5
     20c:	0267f793          	andi	a5,a5,38
     210:	ffe78793          	addi	a5,a5,-2
     214:	f21ff06f          	j	134 <.L21>

00000218 <.L24>:
     218:	02851783          	lh	a5,40(a0)
     21c:	06a00713          	li	a4,106
     220:	00f727b3          	slt	a5,a4,a5
     224:	40f007b3          	neg	a5,a5
     228:	0267f793          	andi	a5,a5,38
     22c:	ff478793          	addi	a5,a5,-12
     230:	f05ff06f          	j	134 <.L21>

00000234 <.L25>:
     234:	01651683          	lh	a3,22(a0)
     238:	ea700713          	li	a4,-345
     23c:	00e6c463          	blt	a3,a4,244 <.L25+0x10>
     240:	7bd0706f          	j	81fc <.L28>
     244:	01851683          	lh	a3,24(a0)
     248:	ff700713          	li	a4,-9
     24c:	00070313          	mv	t1,a4
     250:	00e6c463          	blt	a3,a4,258 <.L25+0x24>
     254:	7bd0706f          	j	8210 <.L29>
     258:	00600313          	li	t1,6
     25c:	7b50706f          	j	8210 <.L29>

00000260 <.L31>:
     260:	00c51703          	lh	a4,12(a0)
     264:	17c00593          	li	a1,380
     268:	00e5a733          	slt	a4,a1,a4
     26c:	40e00733          	neg	a4,a4
     270:	01177713          	andi	a4,a4,17
     274:	ff670713          	addi	a4,a4,-10
     278:	7d10706f          	j	8248 <.L32>

0000027c <.L30>:
     27c:	d8400593          	li	a1,-636
     280:	02600713          	li	a4,38
     284:	00b4c463          	blt	s1,a1,28c <.L30+0x10>
     288:	7c10706f          	j	8248 <.L32>
     28c:	f5dff06f          	j	1e8 <.L1569>

00000290 <.L34>:
     290:	fba00593          	li	a1,-70
     294:	00b4da63          	bge	s1,a1,2a8 <.L36>
     298:	ff480813          	addi	a6,a6,-12
     29c:	01081813          	slli	a6,a6,0x10
     2a0:	41085813          	srai	a6,a6,0x10
     2a4:	0600006f          	j	304 <.L35>

000002a8 <.L36>:
     2a8:	00180813          	addi	a6,a6,1
     2ac:	01081813          	slli	a6,a6,0x10
     2b0:	41085813          	srai	a6,a6,0x10
     2b4:	0500006f          	j	304 <.L35>

000002b8 <.L33>:
     2b8:	01051e03          	lh	t3,16(a0)
     2bc:	0ac00593          	li	a1,172
     2c0:	03c5c863          	blt	a1,t3,2f0 <.L37>
     2c4:	00e51e03          	lh	t3,14(a0)
     2c8:	03a00593          	li	a1,58
     2cc:	01c5ca63          	blt	a1,t3,2e0 <.L38>
     2d0:	01580813          	addi	a6,a6,21
     2d4:	01081813          	slli	a6,a6,0x10
     2d8:	41085813          	srai	a6,a6,0x10
     2dc:	0280006f          	j	304 <.L35>

000002e0 <.L38>:
     2e0:	ffa80813          	addi	a6,a6,-6
     2e4:	01081813          	slli	a6,a6,0x10
     2e8:	41085813          	srai	a6,a6,0x10
     2ec:	0180006f          	j	304 <.L35>

000002f0 <.L37>:
     2f0:	00851583          	lh	a1,8(a0)
     2f4:	1205ca63          	bltz	a1,428 <.L1612>
     2f8:	ff680813          	addi	a6,a6,-10
     2fc:	01081813          	slli	a6,a6,0x10
     300:	41085813          	srai	a6,a6,0x10

00000304 <.L35>:
     304:	1b500593          	li	a1,437
     308:	18c5c063          	blt	a1,a2,488 <.L40>
     30c:	02a51e03          	lh	t3,42(a0)
     310:	00800593          	li	a1,8
     314:	15c5c663          	blt	a1,t3,460 <.L41>
     318:	01451e03          	lh	t3,20(a0)
     31c:	f4100593          	li	a1,-191
     320:	10be5c63          	bge	t3,a1,438 <.L42>
     324:	01478793          	addi	a5,a5,20
     328:	01079793          	slli	a5,a5,0x10
     32c:	4107d793          	srai	a5,a5,0x10

00000330 <.L43>:
     330:	01651403          	lh	s0,22(a0)
     334:	df700593          	li	a1,-521
     338:	20b45463          	bge	s0,a1,540 <.L50>

0000033c <.L44>:
     33c:	01851e03          	lh	t3,24(a0)
     340:	ff400593          	li	a1,-12
     344:	1cbe5a63          	bge	t3,a1,518 <.L51>
     348:	df800593          	li	a1,-520
     34c:	18b4de63          	bge	s1,a1,4e8 <.L52>
     350:	01630313          	addi	t1,t1,22
     354:	01031e13          	slli	t3,t1,0x10
     358:	410e5e13          	srai	t3,t3,0x10

0000035c <.L53>:
     35c:	03d00593          	li	a1,61
     360:	20d5d063          	bge	a1,a3,560 <.L54>
     364:	dce00593          	li	a1,-562
     368:	18b4da63          	bge	s1,a1,4fc <.L55>
     36c:	ff570713          	addi	a4,a4,-11
     370:	01071713          	slli	a4,a4,0x10
     374:	41075713          	srai	a4,a4,0x10

00000378 <.L62>:
     378:	02251e83          	lh	t4,34(a0)
     37c:	0d900593          	li	a1,217
     380:	23d5ce63          	blt	a1,t4,5bc <.L63>
     384:	00851303          	lh	t1,8(a0)
     388:	01a00593          	li	a1,26
     38c:	2a65c063          	blt	a1,t1,62c <.L66>
     390:	00c51303          	lh	t1,12(a0)
     394:	0da00593          	li	a1,218
     398:	0065c863          	blt	a1,t1,3a8 <.L68>
     39c:	01180813          	addi	a6,a6,17
     3a0:	01081813          	slli	a6,a6,0x10
     3a4:	41085813          	srai	a6,a6,0x10

000003a8 <.L68>:
     3a8:	1de00593          	li	a1,478
     3ac:	30c5c863          	blt	a1,a2,6bc <.L73>
     3b0:	01851303          	lh	t1,24(a0)
     3b4:	ffd00593          	li	a1,-3
     3b8:	2cb35863          	bge	t1,a1,688 <.L74>
     3bc:	01251303          	lh	t1,18(a0)
     3c0:	1b300593          	li	a1,435
     3c4:	2a65ca63          	blt	a1,t1,678 <.L75>
     3c8:	ff778793          	addi	a5,a5,-9
     3cc:	01079793          	slli	a5,a5,0x10
     3d0:	4107d793          	srai	a5,a5,0x10

000003d4 <.L76>:
     3d4:	00a51583          	lh	a1,10(a0)
     3d8:	31a00313          	li	t1,794
     3dc:	42b34463          	blt	t1,a1,804 <.L84>

000003e0 <.L78>:
     3e0:	ea700313          	li	t1,-345
     3e4:	36645663          	bge	s0,t1,750 <.L85>
     3e8:	11d00313          	li	t1,285
     3ec:	34c34a63          	blt	t1,a2,740 <.L86>
     3f0:	005e0313          	addi	t1,t3,5
     3f4:	01031e13          	slli	t3,t1,0x10
     3f8:	410e5e13          	srai	t3,t3,0x10

000003fc <.L87>:
     3fc:	03d00313          	li	t1,61
     400:	36d35263          	bge	t1,a3,764 <.L89>
     404:	1f800313          	li	t1,504
     408:	49d34463          	blt	t1,t4,890 <.L97>
     40c:	00e51f03          	lh	t5,14(a0)
     410:	03a00313          	li	t1,58
     414:	47e34663          	blt	t1,t5,880 <.L98>
     418:	ff870713          	addi	a4,a4,-8
     41c:	01071713          	slli	a4,a4,0x10
     420:	41075713          	srai	a4,a4,0x10
     424:	3600006f          	j	784 <.L95>

00000428 <.L1612>:
     428:	00380813          	addi	a6,a6,3
     42c:	01081813          	slli	a6,a6,0x10
     430:	41085813          	srai	a6,a6,0x10
     434:	ed1ff06f          	j	304 <.L35>

00000438 <.L42>:
     438:	ff978793          	addi	a5,a5,-7
     43c:	01079793          	slli	a5,a5,0x10
     440:	4107d793          	srai	a5,a5,0x10
     444:	01651403          	lh	s0,22(a0)
     448:	df700593          	li	a1,-521
     44c:	eeb448e3          	blt	s0,a1,33c <.L44>

00000450 <.L45>:
     450:	ff530313          	addi	t1,t1,-11
     454:	01031e13          	slli	t3,t1,0x10
     458:	410e5e13          	srai	t3,t3,0x10
     45c:	f01ff06f          	j	35c <.L53>

00000460 <.L41>:
     460:	0f200593          	li	a1,242
     464:	0115ca63          	blt	a1,a7,478 <.L46>
     468:	ff678793          	addi	a5,a5,-10
     46c:	01079793          	slli	a5,a5,0x10
     470:	4107d793          	srai	a5,a5,0x10
     474:	ebdff06f          	j	330 <.L43>

00000478 <.L46>:
     478:	fff78793          	addi	a5,a5,-1
     47c:	01079793          	slli	a5,a5,0x10
     480:	4107d793          	srai	a5,a5,0x10
     484:	eadff06f          	j	330 <.L43>

00000488 <.L40>:
     488:	00a51e03          	lh	t3,10(a0)
     48c:	40a00593          	li	a1,1034
     490:	03c5c863          	blt	a1,t3,4c0 <.L47>
     494:	01251e03          	lh	t3,18(a0)
     498:	10f00593          	li	a1,271
     49c:	01c5ca63          	blt	a1,t3,4b0 <.L48>
     4a0:	ffe78793          	addi	a5,a5,-2
     4a4:	01079793          	slli	a5,a5,0x10
     4a8:	4107d793          	srai	a5,a5,0x10
     4ac:	e85ff06f          	j	330 <.L43>

000004b0 <.L48>:
     4b0:	01678793          	addi	a5,a5,22
     4b4:	01079793          	slli	a5,a5,0x10
     4b8:	4107d793          	srai	a5,a5,0x10
     4bc:	e75ff06f          	j	330 <.L43>

000004c0 <.L47>:
     4c0:	6ca00593          	li	a1,1738
     4c4:	00c5ca63          	blt	a1,a2,4d8 <.L49>
     4c8:	ff678793          	addi	a5,a5,-10
     4cc:	01079793          	slli	a5,a5,0x10
     4d0:	4107d793          	srai	a5,a5,0x10
     4d4:	e5dff06f          	j	330 <.L43>

000004d8 <.L49>:
     4d8:	01178793          	addi	a5,a5,17
     4dc:	01079793          	slli	a5,a5,0x10
     4e0:	4107d793          	srai	a5,a5,0x10
     4e4:	e4dff06f          	j	330 <.L43>

000004e8 <.L52>:
     4e8:	ff530313          	addi	t1,t1,-11
     4ec:	01031e13          	slli	t3,t1,0x10
     4f0:	410e5e13          	srai	t3,t3,0x10
     4f4:	03d00593          	li	a1,61
     4f8:	06d5d463          	bge	a1,a3,560 <.L54>

000004fc <.L55>:
     4fc:	00851303          	lh	t1,8(a0)
     500:	01f00593          	li	a1,31
     504:	1065c663          	blt	a1,t1,610 <.L65>
     508:	00c70713          	addi	a4,a4,12
     50c:	01071713          	slli	a4,a4,0x10
     510:	41075713          	srai	a4,a4,0x10
     514:	e65ff06f          	j	378 <.L62>

00000518 <.L51>:
     518:	03b00593          	li	a1,59
     51c:	00c5ca63          	blt	a1,a2,530 <.L56>
     520:	01230313          	addi	t1,t1,18
     524:	01031e13          	slli	t3,t1,0x10
     528:	410e5e13          	srai	t3,t3,0x10
     52c:	e31ff06f          	j	35c <.L53>

00000530 <.L56>:
     530:	ff630313          	addi	t1,t1,-10
     534:	01031e13          	slli	t3,t1,0x10
     538:	410e5e13          	srai	t3,t3,0x10
     53c:	e21ff06f          	j	35c <.L53>

00000540 <.L50>:
     540:	01451583          	lh	a1,20(a0)
     544:	eef00e13          	li	t3,-273
     548:	05c5d863          	bge	a1,t3,598 <.L57>
     54c:	03300593          	li	a1,51
     550:	02d5cc63          	blt	a1,a3,588 <.L58>
     554:	01030313          	addi	t1,t1,16
     558:	01031e13          	slli	t3,t1,0x10
     55c:	410e5e13          	srai	t3,t3,0x10

00000560 <.L54>:
     560:	01e51303          	lh	t1,30(a0)
     564:	d8200593          	li	a1,-638
     568:	06b35e63          	bge	t1,a1,5e4 <.L60>
     56c:	02251e83          	lh	t4,34(a0)
     570:	27300593          	li	a1,627
     574:	03d5ce63          	blt	a1,t4,5b0 <.L61>
     578:	01770713          	addi	a4,a4,23
     57c:	01071713          	slli	a4,a4,0x10
     580:	41075713          	srai	a4,a4,0x10
     584:	df5ff06f          	j	378 <.L62>

00000588 <.L58>:
     588:	ffb30313          	addi	t1,t1,-5
     58c:	01031e13          	slli	t3,t1,0x10
     590:	410e5e13          	srai	t3,t3,0x10
     594:	dc9ff06f          	j	35c <.L53>

00000598 <.L57>:
     598:	ef500e13          	li	t3,-267
     59c:	ebc5dae3          	bge	a1,t3,450 <.L45>
     5a0:	ff930313          	addi	t1,t1,-7
     5a4:	01031e13          	slli	t3,t1,0x10
     5a8:	410e5e13          	srai	t3,t3,0x10
     5ac:	db1ff06f          	j	35c <.L53>

000005b0 <.L61>:
     5b0:	ffb70713          	addi	a4,a4,-5
     5b4:	01071713          	slli	a4,a4,0x10
     5b8:	41075713          	srai	a4,a4,0x10

000005bc <.L63>:
     5bc:	05700593          	li	a1,87
     5c0:	0115d463          	bge	a1,a7,5c8 <.L63+0xc>
     5c4:	4090706f          	j	81cc <.L70>
     5c8:	00851303          	lh	t1,8(a0)
     5cc:	01800593          	li	a1,24
     5d0:	0865c463          	blt	a1,t1,658 <.L71>
     5d4:	00a80813          	addi	a6,a6,10
     5d8:	01081813          	slli	a6,a6,0x10
     5dc:	41085813          	srai	a6,a6,0x10
     5e0:	dc9ff06f          	j	3a8 <.L68>

000005e4 <.L60>:
     5e4:	00c51303          	lh	t1,12(a0)
     5e8:	0de00593          	li	a1,222
     5ec:	0065ca63          	blt	a1,t1,600 <.L64>
     5f0:	ff670713          	addi	a4,a4,-10
     5f4:	01071713          	slli	a4,a4,0x10
     5f8:	41075713          	srai	a4,a4,0x10
     5fc:	d7dff06f          	j	378 <.L62>

00000600 <.L64>:
     600:	fff70713          	addi	a4,a4,-1
     604:	01071713          	slli	a4,a4,0x10
     608:	41075713          	srai	a4,a4,0x10
     60c:	d6dff06f          	j	378 <.L62>

00000610 <.L65>:
     610:	01770713          	addi	a4,a4,23
     614:	01071713          	slli	a4,a4,0x10
     618:	41075713          	srai	a4,a4,0x10
     61c:	02251e83          	lh	t4,34(a0)
     620:	0d900593          	li	a1,217
     624:	01d5d463          	bge	a1,t4,62c <.L66>
     628:	3990706f          	j	81c0 <.L1613>

0000062c <.L66>:
     62c:	02651303          	lh	t1,38(a0)
     630:	fe800593          	li	a1,-24
     634:	00b35a63          	bge	t1,a1,648 <.L69>
     638:	01180813          	addi	a6,a6,17
     63c:	01081813          	slli	a6,a6,0x10
     640:	41085813          	srai	a6,a6,0x10
     644:	d65ff06f          	j	3a8 <.L68>

00000648 <.L69>:
     648:	ff780813          	addi	a6,a6,-9
     64c:	01081813          	slli	a6,a6,0x10
     650:	41085813          	srai	a6,a6,0x10
     654:	d55ff06f          	j	3a8 <.L68>

00000658 <.L71>:
     658:	ff880813          	addi	a6,a6,-8
     65c:	01081813          	slli	a6,a6,0x10
     660:	41085813          	srai	a6,a6,0x10
     664:	d45ff06f          	j	3a8 <.L68>

00000668 <.L72>:
     668:	ff780813          	addi	a6,a6,-9
     66c:	01081813          	slli	a6,a6,0x10
     670:	41085813          	srai	a6,a6,0x10
     674:	d35ff06f          	j	3a8 <.L68>

00000678 <.L75>:
     678:	00178793          	addi	a5,a5,1
     67c:	01079793          	slli	a5,a5,0x10
     680:	4107d793          	srai	a5,a5,0x10
     684:	d51ff06f          	j	3d4 <.L76>

00000688 <.L74>:
     688:	f1900593          	li	a1,-231
     68c:	00b4da63          	bge	s1,a1,6a0 <.L77>
     690:	01278793          	addi	a5,a5,18
     694:	01079793          	slli	a5,a5,0x10
     698:	4107d793          	srai	a5,a5,0x10
     69c:	d39ff06f          	j	3d4 <.L76>

000006a0 <.L77>:
     6a0:	ff978793          	addi	a5,a5,-7
     6a4:	01079793          	slli	a5,a5,0x10
     6a8:	4107d793          	srai	a5,a5,0x10
     6ac:	00a51583          	lh	a1,10(a0)
     6b0:	31a00313          	li	t1,794
     6b4:	d2b356e3          	bge	t1,a1,3e0 <.L78>
     6b8:	1540006f          	j	80c <.L79>

000006bc <.L73>:
     6bc:	00a51583          	lh	a1,10(a0)
     6c0:	4ae00313          	li	t1,1198
     6c4:	02b34663          	blt	t1,a1,6f0 <.L80>
     6c8:	03e00593          	li	a1,62
     6cc:	00d5ca63          	blt	a1,a3,6e0 <.L81>
     6d0:	01078793          	addi	a5,a5,16
     6d4:	01079793          	slli	a5,a5,0x10
     6d8:	4107d793          	srai	a5,a5,0x10
     6dc:	cf9ff06f          	j	3d4 <.L76>

000006e0 <.L81>:
     6e0:	ff578793          	addi	a5,a5,-11
     6e4:	01079793          	slli	a5,a5,0x10
     6e8:	4107d793          	srai	a5,a5,0x10
     6ec:	ce9ff06f          	j	3d4 <.L76>

000006f0 <.L80>:
     6f0:	00001337          	lui	t1,0x1
     6f4:	9f830313          	addi	t1,t1,-1544 # 9f8 <.L144+0x10>
     6f8:	02c34c63          	blt	t1,a2,730 <.L82>
     6fc:	ff678793          	addi	a5,a5,-10
     700:	01079793          	slli	a5,a5,0x10
     704:	0107d793          	srli	a5,a5,0x10

00000708 <.L83>:
     708:	01079793          	slli	a5,a5,0x10
     70c:	4107d793          	srai	a5,a5,0x10
     710:	e4e00313          	li	t1,-434
     714:	1264d063          	bge	s1,t1,834 <.L91>

00000718 <.L1567>:
     718:	6c100313          	li	t1,1729
     71c:	10c34463          	blt	t1,a2,824 <.L90>
     720:	015e0313          	addi	t1,t3,21
     724:	01031e13          	slli	t3,t1,0x10
     728:	410e5e13          	srai	t3,t3,0x10
     72c:	cd1ff06f          	j	3fc <.L87>

00000730 <.L82>:
     730:	00e78793          	addi	a5,a5,14
     734:	01079793          	slli	a5,a5,0x10
     738:	0107d793          	srli	a5,a5,0x10
     73c:	fcdff06f          	j	708 <.L83>

00000740 <.L86>:
     740:	ff6e0313          	addi	t1,t3,-10
     744:	01031e13          	slli	t3,t1,0x10
     748:	410e5e13          	srai	t3,t3,0x10
     74c:	cb1ff06f          	j	3fc <.L87>

00000750 <.L85>:
     750:	03700313          	li	t1,55
     754:	0ad34063          	blt	t1,a3,7f4 <.L88>
     758:	ffae0313          	addi	t1,t3,-6
     75c:	01031e13          	slli	t3,t1,0x10
     760:	410e5e13          	srai	t3,t3,0x10

00000764 <.L89>:
     764:	01e51f03          	lh	t5,30(a0)
     768:	d8200313          	li	t1,-638
     76c:	0e6f5463          	bge	t5,t1,854 <.L93>
     770:	0b100313          	li	t1,177
     774:	0cc34863          	blt	t1,a2,844 <.L94>
     778:	01270713          	addi	a4,a4,18
     77c:	01071713          	slli	a4,a4,0x10
     780:	41075713          	srai	a4,a4,0x10

00000784 <.L95>:
     784:	0d900313          	li	t1,217
     788:	13d34463          	blt	t1,t4,8b0 <.L101>
     78c:	00851f03          	lh	t5,8(a0)
     790:	01a00313          	li	t1,26
     794:	17e34063          	blt	t1,t5,8f4 <.L102>
     798:	00c51f03          	lh	t5,12(a0)
     79c:	11800313          	li	t1,280
     7a0:	15e34263          	blt	t1,t5,8e4 <.L103>
     7a4:	00e80813          	addi	a6,a6,14
     7a8:	01081813          	slli	a6,a6,0x10
     7ac:	41085813          	srai	a6,a6,0x10

000007b0 <.L104>:
     7b0:	0a600313          	li	t1,166
     7b4:	2ac34263          	blt	t1,a2,a58 <.L109>
     7b8:	01851f03          	lh	t5,24(a0)
     7bc:	ffe00313          	li	t1,-2
     7c0:	266f5863          	bge	t5,t1,a30 <.L110>
     7c4:	01451f03          	lh	t5,20(a0)
     7c8:	e2c00313          	li	t1,-468
     7cc:	186f5863          	bge	t5,t1,95c <.L111>
     7d0:	00178793          	addi	a5,a5,1
     7d4:	01079793          	slli	a5,a5,0x10
     7d8:	4107d793          	srai	a5,a5,0x10
     7dc:	10b00313          	li	t1,267
     7e0:	18b35863          	bge	t1,a1,970 <.L112>

000007e4 <.L113>:
     7e4:	012e0313          	addi	t1,t3,18
     7e8:	01031f93          	slli	t6,t1,0x10
     7ec:	410fdf93          	srai	t6,t6,0x10
     7f0:	2d40006f          	j	ac4 <.L124>

000007f4 <.L88>:
     7f4:	ff6e0313          	addi	t1,t3,-10
     7f8:	01031e13          	slli	t3,t1,0x10
     7fc:	410e5e13          	srai	t3,t3,0x10
     800:	bfdff06f          	j	3fc <.L87>

00000804 <.L84>:
     804:	e4e00313          	li	t1,-434
     808:	f064c8e3          	blt	s1,t1,718 <.L1567>

0000080c <.L79>:
     80c:	1a100313          	li	t1,417
     810:	02c34263          	blt	t1,a2,834 <.L91>
     814:	00de0313          	addi	t1,t3,13
     818:	01031e13          	slli	t3,t1,0x10
     81c:	410e5e13          	srai	t3,t3,0x10
     820:	bddff06f          	j	3fc <.L87>

00000824 <.L90>:
     824:	fffe0313          	addi	t1,t3,-1
     828:	01031e13          	slli	t3,t1,0x10
     82c:	410e5e13          	srai	t3,t3,0x10
     830:	bcdff06f          	j	3fc <.L87>

00000834 <.L91>:
     834:	ff7e0313          	addi	t1,t3,-9
     838:	01031e13          	slli	t3,t1,0x10
     83c:	410e5e13          	srai	t3,t3,0x10
     840:	bbdff06f          	j	3fc <.L87>

00000844 <.L94>:
     844:	ffa70713          	addi	a4,a4,-6
     848:	01071713          	slli	a4,a4,0x10
     84c:	41075713          	srai	a4,a4,0x10
     850:	f35ff06f          	j	784 <.L95>

00000854 <.L93>:
     854:	00c51f03          	lh	t5,12(a0)
     858:	1ca00313          	li	t1,458
     85c:	01e34a63          	blt	t1,t5,870 <.L96>
     860:	ff770713          	addi	a4,a4,-9
     864:	01071713          	slli	a4,a4,0x10
     868:	41075713          	srai	a4,a4,0x10
     86c:	f19ff06f          	j	784 <.L95>

00000870 <.L96>:
     870:	00670713          	addi	a4,a4,6
     874:	01071713          	slli	a4,a4,0x10
     878:	41075713          	srai	a4,a4,0x10
     87c:	f09ff06f          	j	784 <.L95>

00000880 <.L98>:
     880:	01170713          	addi	a4,a4,17
     884:	01071713          	slli	a4,a4,0x10
     888:	41075713          	srai	a4,a4,0x10
     88c:	ef9ff06f          	j	784 <.L95>

00000890 <.L97>:
     890:	01a51f03          	lh	t5,26(a0)
     894:	b6f00313          	li	t1,-1169
     898:	026f5e63          	bge	t5,t1,8d4 <.L99>
     89c:	00c70713          	addi	a4,a4,12
     8a0:	01071713          	slli	a4,a4,0x10
     8a4:	01075713          	srli	a4,a4,0x10

000008a8 <.L100>:
     8a8:	01071713          	slli	a4,a4,0x10
     8ac:	41075713          	srai	a4,a4,0x10

000008b0 <.L101>:
     8b0:	03e00313          	li	t1,62
     8b4:	07134e63          	blt	t1,a7,930 <.L106>
     8b8:	00851f03          	lh	t5,8(a0)
     8bc:	02000313          	li	t1,32
     8c0:	07e34063          	blt	t1,t5,920 <.L107>
     8c4:	00980813          	addi	a6,a6,9
     8c8:	01081813          	slli	a6,a6,0x10
     8cc:	41085813          	srai	a6,a6,0x10
     8d0:	ee1ff06f          	j	7b0 <.L104>

000008d4 <.L99>:
     8d4:	ff670713          	addi	a4,a4,-10
     8d8:	01071713          	slli	a4,a4,0x10
     8dc:	01075713          	srli	a4,a4,0x10
     8e0:	fc9ff06f          	j	8a8 <.L100>

000008e4 <.L103>:
     8e4:	fff80813          	addi	a6,a6,-1
     8e8:	01081813          	slli	a6,a6,0x10
     8ec:	41085813          	srai	a6,a6,0x10
     8f0:	ec1ff06f          	j	7b0 <.L104>

000008f4 <.L102>:
     8f4:	01c51f03          	lh	t5,28(a0)
     8f8:	03500313          	li	t1,53
     8fc:	01e34a63          	blt	t1,t5,910 <.L105>
     900:	ff780813          	addi	a6,a6,-9
     904:	01081813          	slli	a6,a6,0x10
     908:	41085813          	srai	a6,a6,0x10
     90c:	ea5ff06f          	j	7b0 <.L104>

00000910 <.L105>:
     910:	00780813          	addi	a6,a6,7
     914:	01081813          	slli	a6,a6,0x10
     918:	41085813          	srai	a6,a6,0x10
     91c:	e95ff06f          	j	7b0 <.L104>

00000920 <.L107>:
     920:	ff680813          	addi	a6,a6,-10
     924:	01081813          	slli	a6,a6,0x10
     928:	41085813          	srai	a6,a6,0x10
     92c:	e85ff06f          	j	7b0 <.L104>

00000930 <.L106>:
     930:	02451f03          	lh	t5,36(a0)
     934:	00d00313          	li	t1,13
     938:	01e34a63          	blt	t1,t5,94c <.L108>
     93c:	ffd80813          	addi	a6,a6,-3
     940:	01081813          	slli	a6,a6,0x10
     944:	41085813          	srai	a6,a6,0x10
     948:	e69ff06f          	j	7b0 <.L104>

0000094c <.L108>:
     94c:	ff680813          	addi	a6,a6,-10
     950:	01081813          	slli	a6,a6,0x10
     954:	41085813          	srai	a6,a6,0x10
     958:	e59ff06f          	j	7b0 <.L104>

0000095c <.L111>:
     95c:	ff778793          	addi	a5,a5,-9
     960:	01079793          	slli	a5,a5,0x10
     964:	4107d793          	srai	a5,a5,0x10

00000968 <.L114>:
     968:	10b00313          	li	t1,267
     96c:	1cb34463          	blt	t1,a1,b34 <.L1566>

00000970 <.L112>:
     970:	03800313          	li	t1,56
     974:	12d34e63          	blt	t1,a3,ab0 <.L120>
     978:	efb00313          	li	t1,-261
     97c:	16645a63          	bge	s0,t1,af0 <.L121>
     980:	004e0313          	addi	t1,t3,4
     984:	01031313          	slli	t1,t1,0x10
     988:	01035313          	srli	t1,t1,0x10

0000098c <.L122>:
     98c:	01031f93          	slli	t6,t1,0x10
     990:	410fdf93          	srai	t6,t6,0x10

00000994 <.L1565>:
     994:	01e51e03          	lh	t3,30(a0)
     998:	ce400313          	li	t1,-796
     99c:	1c6e5263          	bge	t3,t1,b60 <.L129>
     9a0:	19c00313          	li	t1,412
     9a4:	1ac34663          	blt	t1,a2,b50 <.L130>
     9a8:	01270713          	addi	a4,a4,18
     9ac:	01071f13          	slli	t5,a4,0x10
     9b0:	410f5f13          	srai	t5,t5,0x10

000009b4 <.L131>:
     9b4:	0d900713          	li	a4,217
     9b8:	25d74a63          	blt	a4,t4,c0c <.L137>
     9bc:	00851303          	lh	t1,8(a0)
     9c0:	01a00713          	li	a4,26
     9c4:	22674063          	blt	a4,t1,be4 <.L138>
     9c8:	00c51303          	lh	t1,12(a0)
     9cc:	0da00713          	li	a4,218
     9d0:	00674863          	blt	a4,t1,9e0 <.L139>
     9d4:	00c80813          	addi	a6,a6,12
     9d8:	01081813          	slli	a6,a6,0x10
     9dc:	41085813          	srai	a6,a6,0x10

000009e0 <.L139>:
     9e0:	08000713          	li	a4,128
     9e4:	30c74c63          	blt	a4,a2,cfc <.L146>

000009e8 <.L144>:
     9e8:	01851303          	lh	t1,24(a0)
     9ec:	ffd00713          	li	a4,-3
     9f0:	2ee35063          	bge	t1,a4,cd0 <.L147>
     9f4:	01051303          	lh	t1,16(a0)
     9f8:	36800713          	li	a4,872
     9fc:	2c674263          	blt	a4,t1,cc0 <.L148>
     a00:	ff778793          	addi	a5,a5,-9
     a04:	01079293          	slli	t0,a5,0x10
     a08:	4102d293          	srai	t0,t0,0x10

00000a0c <.L149>:
     a0c:	08c00e13          	li	t3,140
     a10:	26be5863          	bge	t3,a1,c80 <.L1562>

00000a14 <.L1563>:
     a14:	01451703          	lh	a4,20(a0)
     a18:	eef00793          	li	a5,-273
     a1c:	3af75863          	bge	a4,a5,dcc <.L163>
     a20:	00df8313          	addi	t1,t6,13
     a24:	01031313          	slli	t1,t1,0x10
     a28:	41035313          	srai	t1,t1,0x10
     a2c:	3640006f          	j	d90 <.L161>

00000a30 <.L110>:
     a30:	f8c00313          	li	t1,-116
     a34:	00645a63          	bge	s0,t1,a48 <.L115>
     a38:	00f78793          	addi	a5,a5,15
     a3c:	01079793          	slli	a5,a5,0x10
     a40:	4107d793          	srai	a5,a5,0x10
     a44:	f25ff06f          	j	968 <.L114>

00000a48 <.L115>:
     a48:	ff678793          	addi	a5,a5,-10
     a4c:	01079793          	slli	a5,a5,0x10
     a50:	4107d793          	srai	a5,a5,0x10
     a54:	f15ff06f          	j	968 <.L114>

00000a58 <.L109>:
     a58:	03d00313          	li	t1,61
     a5c:	02d34c63          	blt	t1,a3,a94 <.L116>
     a60:	38100313          	li	t1,897
     a64:	0ab34663          	blt	t1,a1,b10 <.L117>
     a68:	00c78793          	addi	a5,a5,12
     a6c:	01079793          	slli	a5,a5,0x10
     a70:	4107d793          	srai	a5,a5,0x10
     a74:	10b00313          	li	t1,267
     a78:	eeb35ce3          	bge	t1,a1,970 <.L112>
     a7c:	2ff00313          	li	t1,767
     a80:	0ac35a63          	bge	t1,a2,b34 <.L1566>

00000a84 <.L1584>:
     a84:	ff5e0313          	addi	t1,t3,-11
     a88:	01031f93          	slli	t6,t1,0x10
     a8c:	410fdf93          	srai	t6,t6,0x10
     a90:	0340006f          	j	ac4 <.L124>

00000a94 <.L116>:
     a94:	21a00313          	li	t1,538
     a98:	01d34863          	blt	t1,t4,aa8 <.L119>
     a9c:	ff578793          	addi	a5,a5,-11
     aa0:	01079793          	slli	a5,a5,0x10
     aa4:	4107d793          	srai	a5,a5,0x10

00000aa8 <.L119>:
     aa8:	10b00313          	li	t1,267
     aac:	06b34263          	blt	t1,a1,b10 <.L117>

00000ab0 <.L120>:
     ab0:	d6700313          	li	t1,-665
     ab4:	04645663          	bge	s0,t1,b00 <.L123>
     ab8:	00be0313          	addi	t1,t3,11
     abc:	01031f93          	slli	t6,t1,0x10
     ac0:	410fdf93          	srai	t6,t6,0x10

00000ac4 <.L124>:
     ac4:	03c00313          	li	t1,60
     ac8:	ecd356e3          	bge	t1,a3,994 <.L1565>
     acc:	1e500313          	li	t1,485
     ad0:	0dd34663          	blt	t1,t4,b9c <.L133>
     ad4:	01a51e03          	lh	t3,26(a0)
     ad8:	ec100313          	li	t1,-319
     adc:	0a6e5863          	bge	t3,t1,b8c <.L134>
     ae0:	00e70713          	addi	a4,a4,14
     ae4:	01071f13          	slli	t5,a4,0x10
     ae8:	410f5f13          	srai	t5,t5,0x10
     aec:	ec9ff06f          	j	9b4 <.L131>

00000af0 <.L121>:
     af0:	ff7e0313          	addi	t1,t3,-9
     af4:	01031313          	slli	t1,t1,0x10
     af8:	01035313          	srli	t1,t1,0x10
     afc:	e91ff06f          	j	98c <.L122>

00000b00 <.L123>:
     b00:	ff6e0313          	addi	t1,t3,-10
     b04:	01031f93          	slli	t6,t1,0x10
     b08:	410fdf93          	srai	t6,t6,0x10
     b0c:	fb9ff06f          	j	ac4 <.L124>

00000b10 <.L117>:
     b10:	2ff00313          	li	t1,767
     b14:	02c35063          	bge	t1,a2,b34 <.L1566>
     b18:	00001337          	lui	t1,0x1
     b1c:	85b30313          	addi	t1,t1,-1957 # 85b <.L93+0x7>
     b20:	f6b352e3          	bge	t1,a1,a84 <.L1584>
     b24:	00ae0313          	addi	t1,t3,10
     b28:	01031f93          	slli	t6,t1,0x10
     b2c:	410fdf93          	srai	t6,t6,0x10
     b30:	f95ff06f          	j	ac4 <.L124>

00000b34 <.L1566>:
     b34:	01451f03          	lh	t5,20(a0)
     b38:	eef00313          	li	t1,-273
     b3c:	ca6f44e3          	blt	t5,t1,7e4 <.L113>
     b40:	ff6e0313          	addi	t1,t3,-10
     b44:	01031f93          	slli	t6,t1,0x10
     b48:	410fdf93          	srai	t6,t6,0x10
     b4c:	f79ff06f          	j	ac4 <.L124>

00000b50 <.L130>:
     b50:	ffa70713          	addi	a4,a4,-6
     b54:	01071f13          	slli	t5,a4,0x10
     b58:	410f5f13          	srai	t5,t5,0x10
     b5c:	e59ff06f          	j	9b4 <.L131>

00000b60 <.L129>:
     b60:	02451e03          	lh	t3,36(a0)
     b64:	03400313          	li	t1,52
     b68:	01c34a63          	blt	t1,t3,b7c <.L132>
     b6c:	ff770713          	addi	a4,a4,-9
     b70:	01071f13          	slli	t5,a4,0x10
     b74:	410f5f13          	srai	t5,t5,0x10
     b78:	e3dff06f          	j	9b4 <.L131>

00000b7c <.L132>:
     b7c:	00d70713          	addi	a4,a4,13
     b80:	01071f13          	slli	t5,a4,0x10
     b84:	410f5f13          	srai	t5,t5,0x10
     b88:	e2dff06f          	j	9b4 <.L131>

00000b8c <.L134>:
     b8c:	00270713          	addi	a4,a4,2
     b90:	01071f13          	slli	t5,a4,0x10
     b94:	410f5f13          	srai	t5,t5,0x10
     b98:	e1dff06f          	j	9b4 <.L131>

00000b9c <.L133>:
     b9c:	01e51e03          	lh	t3,30(a0)
     ba0:	bba00313          	li	t1,-1094
     ba4:	026e5863          	bge	t3,t1,bd4 <.L135>
     ba8:	00f70713          	addi	a4,a4,15
     bac:	01071713          	slli	a4,a4,0x10
     bb0:	01075713          	srli	a4,a4,0x10

00000bb4 <.L136>:
     bb4:	01071f13          	slli	t5,a4,0x10
     bb8:	410f5f13          	srai	t5,t5,0x10
     bbc:	07a00713          	li	a4,122
     bc0:	05175a63          	bge	a4,a7,c14 <.L1564>

00000bc4 <.L143>:
     bc4:	ff880813          	addi	a6,a6,-8
     bc8:	01081813          	slli	a6,a6,0x10
     bcc:	41085813          	srai	a6,a6,0x10
     bd0:	e11ff06f          	j	9e0 <.L139>

00000bd4 <.L135>:
     bd4:	ff770713          	addi	a4,a4,-9
     bd8:	01071713          	slli	a4,a4,0x10
     bdc:	01075713          	srli	a4,a4,0x10
     be0:	fd5ff06f          	j	bb4 <.L136>

00000be4 <.L138>:
     be4:	0fd00713          	li	a4,253
     be8:	00b74a63          	blt	a4,a1,bfc <.L140>
     bec:	ff880813          	addi	a6,a6,-8
     bf0:	01081813          	slli	a6,a6,0x10
     bf4:	41085813          	srai	a6,a6,0x10
     bf8:	de9ff06f          	j	9e0 <.L139>

00000bfc <.L140>:
     bfc:	00880813          	addi	a6,a6,8
     c00:	01081813          	slli	a6,a6,0x10
     c04:	41085813          	srai	a6,a6,0x10
     c08:	dd9ff06f          	j	9e0 <.L139>

00000c0c <.L137>:
     c0c:	07a00713          	li	a4,122
     c10:	03174863          	blt	a4,a7,c40 <.L141>

00000c14 <.L1564>:
     c14:	00851303          	lh	t1,8(a0)
     c18:	01800713          	li	a4,24
     c1c:	00674a63          	blt	a4,t1,c30 <.L142>
     c20:	00680813          	addi	a6,a6,6
     c24:	01081813          	slli	a6,a6,0x10
     c28:	41085813          	srai	a6,a6,0x10
     c2c:	db5ff06f          	j	9e0 <.L139>

00000c30 <.L142>:
     c30:	ff980813          	addi	a6,a6,-7
     c34:	01081813          	slli	a6,a6,0x10
     c38:	41085813          	srai	a6,a6,0x10
     c3c:	da5ff06f          	j	9e0 <.L139>

00000c40 <.L141>:
     c40:	02700713          	li	a4,39
     c44:	f8d740e3          	blt	a4,a3,bc4 <.L143>
     c48:	00480813          	addi	a6,a6,4
     c4c:	01081813          	slli	a6,a6,0x10
     c50:	41085813          	srai	a6,a6,0x10
     c54:	08000713          	li	a4,128
     c58:	d8c758e3          	bge	a4,a2,9e8 <.L144>

00000c5c <.L145>:
     c5c:	f2000713          	li	a4,-224
     c60:	0ee45463          	bge	s0,a4,d48 <.L152>
     c64:	00978793          	addi	a5,a5,9
     c68:	01079793          	slli	a5,a5,0x10
     c6c:	0107d793          	srli	a5,a5,0x10

00000c70 <.L153>:
     c70:	01079293          	slli	t0,a5,0x10
     c74:	4102d293          	srai	t0,t0,0x10
     c78:	08c00793          	li	a5,140
     c7c:	0ab7c663          	blt	a5,a1,d28 <.L156>

00000c80 <.L1562>:
     c80:	03600793          	li	a5,54
     c84:	0ed7ca63          	blt	a5,a3,d78 <.L157>
     c88:	efc00793          	li	a5,-260
     c8c:	0cf45e63          	bge	s0,a5,d68 <.L158>
     c90:	003f8313          	addi	t1,t6,3
     c94:	01031313          	slli	t1,t1,0x10
     c98:	01035313          	srli	t1,t1,0x10

00000c9c <.L159>:
     c9c:	01031313          	slli	t1,t1,0x10
     ca0:	41035313          	srai	t1,t1,0x10
     ca4:	01e51703          	lh	a4,30(a0)
     ca8:	ce400793          	li	a5,-796
     cac:	14f74663          	blt	a4,a5,df8 <.L1560>

00000cb0 <.L1561>:
     cb0:	ff6f0f13          	addi	t5,t5,-10
     cb4:	010f1f13          	slli	t5,t5,0x10
     cb8:	410f5f13          	srai	t5,t5,0x10
     cbc:	1500006f          	j	e0c <.L168>

00000cc0 <.L148>:
     cc0:	01778793          	addi	a5,a5,23
     cc4:	01079293          	slli	t0,a5,0x10
     cc8:	4102d293          	srai	t0,t0,0x10
     ccc:	d41ff06f          	j	a0c <.L149>

00000cd0 <.L147>:
     cd0:	01251303          	lh	t1,18(a0)
     cd4:	0d500713          	li	a4,213
     cd8:	00674a63          	blt	a4,t1,cec <.L150>
     cdc:	ff978793          	addi	a5,a5,-7
     ce0:	01079293          	slli	t0,a5,0x10
     ce4:	4102d293          	srai	t0,t0,0x10
     ce8:	d25ff06f          	j	a0c <.L149>

00000cec <.L150>:
     cec:	00f78793          	addi	a5,a5,15
     cf0:	01079293          	slli	t0,a5,0x10
     cf4:	4102d293          	srai	t0,t0,0x10
     cf8:	d15ff06f          	j	a0c <.L149>

00000cfc <.L146>:
     cfc:	03d00713          	li	a4,61
     d00:	f4d75ee3          	bge	a4,a3,c5c <.L145>
     d04:	35d00713          	li	a4,861
     d08:	05d74863          	blt	a4,t4,d58 <.L154>
     d0c:	ff778793          	addi	a5,a5,-9
     d10:	01079793          	slli	a5,a5,0x10
     d14:	0107d793          	srli	a5,a5,0x10

00000d18 <.L155>:
     d18:	01079293          	slli	t0,a5,0x10
     d1c:	4102d293          	srai	t0,t0,0x10
     d20:	08c00793          	li	a5,140
     d24:	04b7da63          	bge	a5,a1,d78 <.L157>

00000d28 <.L156>:
     d28:	2df00793          	li	a5,735
     d2c:	cec7d4e3          	bge	a5,a2,a14 <.L1563>
     d30:	7e700793          	li	a5,2023
     d34:	0ab7c463          	blt	a5,a1,ddc <.L164>
     d38:	ff6f8313          	addi	t1,t6,-10
     d3c:	01031313          	slli	t1,t1,0x10
     d40:	41035313          	srai	t1,t1,0x10
     d44:	04c0006f          	j	d90 <.L161>

00000d48 <.L152>:
     d48:	ffa78793          	addi	a5,a5,-6
     d4c:	01079793          	slli	a5,a5,0x10
     d50:	0107d793          	srli	a5,a5,0x10
     d54:	f1dff06f          	j	c70 <.L153>

00000d58 <.L154>:
     d58:	00378793          	addi	a5,a5,3
     d5c:	01079793          	slli	a5,a5,0x10
     d60:	0107d793          	srli	a5,a5,0x10
     d64:	fb5ff06f          	j	d18 <.L155>

00000d68 <.L158>:
     d68:	ff7f8313          	addi	t1,t6,-9
     d6c:	01031313          	slli	t1,t1,0x10
     d70:	01035313          	srli	t1,t1,0x10
     d74:	f29ff06f          	j	c9c <.L159>

00000d78 <.L157>:
     d78:	01c51703          	lh	a4,28(a0)
     d7c:	03b00793          	li	a5,59
     d80:	02e7ce63          	blt	a5,a4,dbc <.L160>
     d84:	ff7f8313          	addi	t1,t6,-9
     d88:	01031313          	slli	t1,t1,0x10
     d8c:	41035313          	srai	t1,t1,0x10

00000d90 <.L161>:
     d90:	03c00793          	li	a5,60
     d94:	04d7dc63          	bge	a5,a3,dec <.L1614>
     d98:	1e500793          	li	a5,485
     d9c:	0dd7ca63          	blt	a5,t4,e70 <.L170>
     da0:	01a51703          	lh	a4,26(a0)
     da4:	ec100793          	li	a5,-319
     da8:	0af75c63          	bge	a4,a5,e60 <.L171>
     dac:	00cf0f13          	addi	t5,t5,12
     db0:	010f1f13          	slli	t5,t5,0x10
     db4:	410f5f13          	srai	t5,t5,0x10
     db8:	0540006f          	j	e0c <.L168>

00000dbc <.L160>:
     dbc:	018f8313          	addi	t1,t6,24
     dc0:	01031313          	slli	t1,t1,0x10
     dc4:	41035313          	srai	t1,t1,0x10
     dc8:	fc9ff06f          	j	d90 <.L161>

00000dcc <.L163>:
     dcc:	ff8f8313          	addi	t1,t6,-8
     dd0:	01031313          	slli	t1,t1,0x10
     dd4:	41035313          	srai	t1,t1,0x10
     dd8:	fb9ff06f          	j	d90 <.L161>

00000ddc <.L164>:
     ddc:	008f8313          	addi	t1,t6,8
     de0:	01031313          	slli	t1,t1,0x10
     de4:	41035313          	srai	t1,t1,0x10
     de8:	fa9ff06f          	j	d90 <.L161>

00000dec <.L1614>:
     dec:	01e51703          	lh	a4,30(a0)
     df0:	ce400793          	li	a5,-796
     df4:	04f75a63          	bge	a4,a5,e48 <.L166>

00000df8 <.L1560>:
     df8:	19c00793          	li	a5,412
     dfc:	02c7ce63          	blt	a5,a2,e38 <.L167>
     e00:	00ff0f13          	addi	t5,t5,15
     e04:	010f1f13          	slli	t5,t5,0x10
     e08:	410f5f13          	srai	t5,t5,0x10

00000e0c <.L168>:
     e0c:	efb00793          	li	a5,-261
     e10:	0cf45463          	bge	s0,a5,ed8 <.L173>
     e14:	08700793          	li	a5,135
     e18:	0917ca63          	blt	a5,a7,eac <.L174>
     e1c:	00851703          	lh	a4,8(a0)
     e20:	02200793          	li	a5,34
     e24:	06e7cc63          	blt	a5,a4,e9c <.L175>
     e28:	00280813          	addi	a6,a6,2
     e2c:	01081e13          	slli	t3,a6,0x10
     e30:	410e5e13          	srai	t3,t3,0x10
     e34:	0e80006f          	j	f1c <.L176>

00000e38 <.L167>:
     e38:	ffaf0f13          	addi	t5,t5,-6
     e3c:	010f1f13          	slli	t5,t5,0x10
     e40:	410f5f13          	srai	t5,t5,0x10
     e44:	fc9ff06f          	j	e0c <.L168>

00000e48 <.L166>:
     e48:	03a00793          	li	a5,58
     e4c:	e6d7d2e3          	bge	a5,a3,cb0 <.L1561>
     e50:	ffaf0f13          	addi	t5,t5,-6
     e54:	010f1f13          	slli	t5,t5,0x10
     e58:	410f5f13          	srai	t5,t5,0x10
     e5c:	fb1ff06f          	j	e0c <.L168>

00000e60 <.L171>:
     e60:	002f0f13          	addi	t5,t5,2
     e64:	010f1f13          	slli	t5,t5,0x10
     e68:	410f5f13          	srai	t5,t5,0x10
     e6c:	fa1ff06f          	j	e0c <.L168>

00000e70 <.L170>:
     e70:	01e51703          	lh	a4,30(a0)
     e74:	bba00793          	li	a5,-1094
     e78:	00f75a63          	bge	a4,a5,e8c <.L172>
     e7c:	00df0f13          	addi	t5,t5,13
     e80:	010f1f13          	slli	t5,t5,0x10
     e84:	410f5f13          	srai	t5,t5,0x10
     e88:	f85ff06f          	j	e0c <.L168>

00000e8c <.L172>:
     e8c:	ff7f0f13          	addi	t5,t5,-9
     e90:	010f1f13          	slli	t5,t5,0x10
     e94:	410f5f13          	srai	t5,t5,0x10
     e98:	f75ff06f          	j	e0c <.L168>

00000e9c <.L175>:
     e9c:	ff680813          	addi	a6,a6,-10
     ea0:	01081e13          	slli	t3,a6,0x10
     ea4:	410e5e13          	srai	t3,t3,0x10
     ea8:	0740006f          	j	f1c <.L176>

00000eac <.L174>:
     eac:	01251703          	lh	a4,18(a0)
     eb0:	09900793          	li	a5,153
     eb4:	00e7ca63          	blt	a5,a4,ec8 <.L177>
     eb8:	00780813          	addi	a6,a6,7
     ebc:	01081e13          	slli	t3,a6,0x10
     ec0:	410e5e13          	srai	t3,t3,0x10
     ec4:	0580006f          	j	f1c <.L176>

00000ec8 <.L177>:
     ec8:	ff880813          	addi	a6,a6,-8
     ecc:	01081e13          	slli	t3,a6,0x10
     ed0:	410e5e13          	srai	t3,t3,0x10
     ed4:	0480006f          	j	f1c <.L176>

00000ed8 <.L173>:
     ed8:	02451703          	lh	a4,36(a0)
     edc:	01f00793          	li	a5,31
     ee0:	02e7c863          	blt	a5,a4,f10 <.L178>
     ee4:	00c51703          	lh	a4,12(a0)
     ee8:	0d800793          	li	a5,216
     eec:	00e7ca63          	blt	a5,a4,f00 <.L179>
     ef0:	00b80813          	addi	a6,a6,11
     ef4:	01081e13          	slli	t3,a6,0x10
     ef8:	410e5e13          	srai	t3,t3,0x10
     efc:	0200006f          	j	f1c <.L176>

00000f00 <.L179>:
     f00:	fff80813          	addi	a6,a6,-1
     f04:	01081e13          	slli	t3,a6,0x10
     f08:	410e5e13          	srai	t3,t3,0x10
     f0c:	0100006f          	j	f1c <.L176>

00000f10 <.L178>:
     f10:	ff680813          	addi	a6,a6,-10
     f14:	01081e13          	slli	t3,a6,0x10
     f18:	410e5e13          	srai	t3,t3,0x10

00000f1c <.L176>:
     f1c:	2df00793          	li	a5,735
     f20:	08c7c663          	blt	a5,a2,fac <.L180>
     f24:	02051703          	lh	a4,32(a0)
     f28:	00400793          	li	a5,4
     f2c:	04e7ca63          	blt	a5,a4,f80 <.L181>
     f30:	09700793          	li	a5,151
     f34:	0317ce63          	blt	a5,a7,f70 <.L182>
     f38:	ffc28793          	addi	a5,t0,-4
     f3c:	01079293          	slli	t0,a5,0x10
     f40:	4102d293          	srai	t0,t0,0x10

00000f44 <.L183>:
     f44:	08f00793          	li	a5,143
     f48:	08b7da63          	bge	a5,a1,fdc <.L1559>
     f4c:	2b200793          	li	a5,690
     f50:	14c7cc63          	blt	a5,a2,10a8 <.L188>
     f54:	01451703          	lh	a4,20(a0)
     f58:	ef500793          	li	a5,-267
     f5c:	1cf75463          	bge	a4,a5,1124 <.L195>
     f60:	00b30313          	addi	t1,t1,11
     f64:	01031313          	slli	t1,t1,0x10
     f68:	41035313          	srai	t1,t1,0x10
     f6c:	17c0006f          	j	10e8 <.L194>

00000f70 <.L182>:
     f70:	00928793          	addi	a5,t0,9
     f74:	01079293          	slli	t0,a5,0x10
     f78:	4102d293          	srai	t0,t0,0x10
     f7c:	fc9ff06f          	j	f44 <.L183>

00000f80 <.L181>:
     f80:	01251703          	lh	a4,18(a0)
     f84:	1a600793          	li	a5,422
     f88:	00e7ca63          	blt	a5,a4,f9c <.L184>
     f8c:	ff628793          	addi	a5,t0,-10
     f90:	01079293          	slli	t0,a5,0x10
     f94:	4102d293          	srai	t0,t0,0x10
     f98:	fadff06f          	j	f44 <.L183>

00000f9c <.L184>:
     f9c:	00128793          	addi	a5,t0,1
     fa0:	01079293          	slli	t0,a5,0x10
     fa4:	4102d293          	srai	t0,t0,0x10
     fa8:	f9dff06f          	j	f44 <.L183>

00000fac <.L180>:
     fac:	000017b7          	lui	a5,0x1
     fb0:	bac78793          	addi	a5,a5,-1108 # bac <.L133+0x10>
     fb4:	0eb7c463          	blt	a5,a1,109c <.L185>
     fb8:	f5100793          	li	a5,-175
     fbc:	0cf45863          	bge	s0,a5,108c <.L186>
     fc0:	00b28793          	addi	a5,t0,11
     fc4:	01079793          	slli	a5,a5,0x10
     fc8:	0107d793          	srli	a5,a5,0x10

00000fcc <.L187>:
     fcc:	01079293          	slli	t0,a5,0x10
     fd0:	4102d293          	srai	t0,t0,0x10
     fd4:	08f00793          	li	a5,143
     fd8:	0cb7c863          	blt	a5,a1,10a8 <.L188>

00000fdc <.L1559>:
     fdc:	03300793          	li	a5,51
     fe0:	0ed7c863          	blt	a5,a3,10d0 <.L190>
     fe4:	efc00793          	li	a5,-260
     fe8:	0cf45c63          	bge	s0,a5,10c0 <.L191>
     fec:	00730313          	addi	t1,t1,7
     ff0:	01031313          	slli	t1,t1,0x10
     ff4:	01035313          	srli	t1,t1,0x10

00000ff8 <.L192>:
     ff8:	01031313          	slli	t1,t1,0x10
     ffc:	41035313          	srai	t1,t1,0x10

00001000 <.L1558>:
    1000:	01e51703          	lh	a4,30(a0)
    1004:	d2500793          	li	a5,-731
    1008:	16f75863          	bge	a4,a5,1178 <.L200>

0000100c <.L1583>:
    100c:	19c00793          	li	a5,412
    1010:	14c7cc63          	blt	a5,a2,1168 <.L201>
    1014:	00df0f13          	addi	t5,t5,13
    1018:	010f1f13          	slli	t5,t5,0x10
    101c:	410f5f13          	srai	t5,t5,0x10

00001020 <.L202>:
    1020:	efb00793          	li	a5,-261
    1024:	1cf45663          	bge	s0,a5,11f0 <.L206>
    1028:	02451703          	lh	a4,36(a0)
    102c:	00d00793          	li	a5,13
    1030:	18e7ca63          	blt	a5,a4,11c4 <.L207>
    1034:	0f400793          	li	a5,244
    1038:	1717ce63          	blt	a5,a7,11b4 <.L208>
    103c:	003e0813          	addi	a6,t3,3
    1040:	01081e13          	slli	t3,a6,0x10
    1044:	410e5e13          	srai	t3,t3,0x10

00001048 <.L209>:
    1048:	07600793          	li	a5,118
    104c:	26c7ca63          	blt	a5,a2,12c0 <.L213>
    1050:	01851703          	lh	a4,24(a0)
    1054:	ffe00793          	li	a5,-2
    1058:	20f75c63          	bge	a4,a5,1270 <.L214>
    105c:	01451703          	lh	a4,20(a0)
    1060:	e2c00793          	li	a5,-468
    1064:	1cf75e63          	bge	a4,a5,1240 <.L215>
    1068:	00128793          	addi	a5,t0,1
    106c:	01079f93          	slli	t6,a5,0x10
    1070:	410fdf93          	srai	t6,t6,0x10
    1074:	17000793          	li	a5,368
    1078:	2eb7d063          	bge	a5,a1,1358 <.L216>

0000107c <.L217>:
    107c:	00c30713          	addi	a4,t1,12
    1080:	01071713          	slli	a4,a4,0x10
    1084:	41075713          	srai	a4,a4,0x10
    1088:	2f40006f          	j	137c <.L229>

0000108c <.L186>:
    108c:	ff828793          	addi	a5,t0,-8
    1090:	01079793          	slli	a5,a5,0x10
    1094:	0107d793          	srli	a5,a5,0x10
    1098:	f35ff06f          	j	fcc <.L187>

0000109c <.L185>:
    109c:	ff528793          	addi	a5,t0,-11
    10a0:	01079293          	slli	t0,a5,0x10
    10a4:	4102d293          	srai	t0,t0,0x10

000010a8 <.L188>:
    10a8:	ddb00793          	li	a5,-549
    10ac:	0af4d663          	bge	s1,a5,1158 <.L198>
    10b0:	00530313          	addi	t1,t1,5
    10b4:	01031313          	slli	t1,t1,0x10
    10b8:	41035313          	srai	t1,t1,0x10
    10bc:	02c0006f          	j	10e8 <.L194>

000010c0 <.L191>:
    10c0:	ff730313          	addi	t1,t1,-9
    10c4:	01031313          	slli	t1,t1,0x10
    10c8:	01035313          	srli	t1,t1,0x10
    10cc:	f2dff06f          	j	ff8 <.L192>

000010d0 <.L190>:
    10d0:	01c51703          	lh	a4,28(a0)
    10d4:	03b00793          	li	a5,59
    10d8:	02e7ce63          	blt	a5,a4,1114 <.L193>
    10dc:	ff830313          	addi	t1,t1,-8
    10e0:	01031313          	slli	t1,t1,0x10
    10e4:	41035313          	srai	t1,t1,0x10

000010e8 <.L194>:
    10e8:	03c00793          	li	a5,60
    10ec:	f0d7dae3          	bge	a5,a3,1000 <.L1558>
    10f0:	01451703          	lh	a4,20(a0)
    10f4:	e2d00793          	li	a5,-467
    10f8:	04f75263          	bge	a4,a5,113c <.L197>
    10fc:	03e00793          	li	a5,62
    1100:	08d7ca63          	blt	a5,a3,1194 <.L204>
    1104:	ff7f0f13          	addi	t5,t5,-9
    1108:	010f1f13          	slli	t5,t5,0x10
    110c:	410f5f13          	srai	t5,t5,0x10
    1110:	f11ff06f          	j	1020 <.L202>

00001114 <.L193>:
    1114:	01430313          	addi	t1,t1,20
    1118:	01031313          	slli	t1,t1,0x10
    111c:	41035313          	srai	t1,t1,0x10
    1120:	fc9ff06f          	j	10e8 <.L194>

00001124 <.L195>:
    1124:	ff830313          	addi	t1,t1,-8
    1128:	01031313          	slli	t1,t1,0x10
    112c:	41035313          	srai	t1,t1,0x10
    1130:	03c00793          	li	a5,60
    1134:	00d7c463          	blt	a5,a3,113c <.L197>
    1138:	0680706f          	j	81a0 <.L1615>

0000113c <.L197>:
    113c:	00851703          	lh	a4,8(a0)
    1140:	01f00793          	li	a5,31
    1144:	06e7c063          	blt	a5,a4,11a4 <.L205>
    1148:	003f0f13          	addi	t5,t5,3
    114c:	010f1f13          	slli	t5,t5,0x10
    1150:	410f5f13          	srai	t5,t5,0x10
    1154:	ecdff06f          	j	1020 <.L202>

00001158 <.L198>:
    1158:	ff630313          	addi	t1,t1,-10
    115c:	01031313          	slli	t1,t1,0x10
    1160:	41035313          	srai	t1,t1,0x10
    1164:	f85ff06f          	j	10e8 <.L194>

00001168 <.L201>:
    1168:	ffaf0f13          	addi	t5,t5,-6
    116c:	010f1f13          	slli	t5,t5,0x10
    1170:	410f5f13          	srai	t5,t5,0x10
    1174:	eadff06f          	j	1020 <.L202>

00001178 <.L200>:
    1178:	02400793          	li	a5,36
    117c:	00b7d463          	bge	a5,a1,1184 <.L200+0xc>
    1180:	0300706f          	j	81b0 <.L203>
    1184:	ffbf0f13          	addi	t5,t5,-5
    1188:	010f1f13          	slli	t5,t5,0x10
    118c:	410f5f13          	srai	t5,t5,0x10
    1190:	e91ff06f          	j	1020 <.L202>

00001194 <.L204>:
    1194:	007f0f13          	addi	t5,t5,7
    1198:	010f1f13          	slli	t5,t5,0x10
    119c:	410f5f13          	srai	t5,t5,0x10
    11a0:	e81ff06f          	j	1020 <.L202>

000011a4 <.L205>:
    11a4:	00df0f13          	addi	t5,t5,13
    11a8:	010f1f13          	slli	t5,t5,0x10
    11ac:	410f5f13          	srai	t5,t5,0x10
    11b0:	e71ff06f          	j	1020 <.L202>

000011b4 <.L208>:
    11b4:	ffae0813          	addi	a6,t3,-6
    11b8:	01081e13          	slli	t3,a6,0x10
    11bc:	410e5e13          	srai	t3,t3,0x10
    11c0:	e89ff06f          	j	1048 <.L209>

000011c4 <.L207>:
    11c4:	00c51703          	lh	a4,12(a0)
    11c8:	ffa00793          	li	a5,-6
    11cc:	00f75a63          	bge	a4,a5,11e0 <.L210>
    11d0:	006e0813          	addi	a6,t3,6
    11d4:	01081e13          	slli	t3,a6,0x10
    11d8:	410e5e13          	srai	t3,t3,0x10
    11dc:	e6dff06f          	j	1048 <.L209>

000011e0 <.L210>:
    11e0:	ff7e0813          	addi	a6,t3,-9
    11e4:	01081e13          	slli	t3,a6,0x10
    11e8:	410e5e13          	srai	t3,t3,0x10
    11ec:	e5dff06f          	j	1048 <.L209>

000011f0 <.L206>:
    11f0:	02451783          	lh	a5,36(a0)
    11f4:	01900713          	li	a4,25
    11f8:	02f74063          	blt	a4,a5,1218 <.L211>
    11fc:	00c51703          	lh	a4,12(a0)
    1200:	0be00793          	li	a5,190
    1204:	e4e7c2e3          	blt	a5,a4,1048 <.L209>
    1208:	00ae0813          	addi	a6,t3,10
    120c:	01081e13          	slli	t3,a6,0x10
    1210:	410e5e13          	srai	t3,t3,0x10
    1214:	e35ff06f          	j	1048 <.L209>

00001218 <.L211>:
    1218:	01f00713          	li	a4,31
    121c:	00f74a63          	blt	a4,a5,1230 <.L212>
    1220:	fffe0813          	addi	a6,t3,-1
    1224:	01081e13          	slli	t3,a6,0x10
    1228:	410e5e13          	srai	t3,t3,0x10
    122c:	e1dff06f          	j	1048 <.L209>

00001230 <.L212>:
    1230:	ff6e0813          	addi	a6,t3,-10
    1234:	01081e13          	slli	t3,a6,0x10
    1238:	410e5e13          	srai	t3,t3,0x10
    123c:	e0dff06f          	j	1048 <.L209>

00001240 <.L215>:
    1240:	ff828793          	addi	a5,t0,-8
    1244:	01079f93          	slli	t6,a5,0x10
    1248:	410fdf93          	srai	t6,t6,0x10
    124c:	17000793          	li	a5,368
    1250:	10b7d463          	bge	a5,a1,1358 <.L216>

00001254 <.L218>:
    1254:	01451703          	lh	a4,20(a0)
    1258:	ef700793          	li	a5,-265
    125c:	e2f740e3          	blt	a4,a5,107c <.L217>
    1260:	ff730713          	addi	a4,t1,-9
    1264:	01071713          	slli	a4,a4,0x10
    1268:	41075713          	srai	a4,a4,0x10
    126c:	1100006f          	j	137c <.L229>

00001270 <.L214>:
    1270:	09900793          	li	a5,153
    1274:	03d7ce63          	blt	a5,t4,12b0 <.L219>
    1278:	ff628793          	addi	a5,t0,-10
    127c:	01079793          	slli	a5,a5,0x10
    1280:	0107d793          	srli	a5,a5,0x10

00001284 <.L220>:
    1284:	01079f93          	slli	t6,a5,0x10
    1288:	410fdf93          	srai	t6,t6,0x10
    128c:	17000793          	li	a5,368
    1290:	fcb7c2e3          	blt	a5,a1,1254 <.L218>

00001294 <.L228>:
    1294:	01c51703          	lh	a4,28(a0)
    1298:	03c00793          	li	a5,60
    129c:	1ee7c663          	blt	a5,a4,1488 <.L230>
    12a0:	ff630713          	addi	a4,t1,-10
    12a4:	01071713          	slli	a4,a4,0x10
    12a8:	41075713          	srai	a4,a4,0x10
    12ac:	0d00006f          	j	137c <.L229>

000012b0 <.L219>:
    12b0:	00b28793          	addi	a5,t0,11
    12b4:	01079793          	slli	a5,a5,0x10
    12b8:	0107d793          	srli	a5,a5,0x10
    12bc:	fc9ff06f          	j	1284 <.L220>

000012c0 <.L213>:
    12c0:	01851703          	lh	a4,24(a0)
    12c4:	ff700793          	li	a5,-9
    12c8:	06f75663          	bge	a4,a5,1334 <.L221>
    12cc:	02851703          	lh	a4,40(a0)
    12d0:	03100793          	li	a5,49
    12d4:	02e7ce63          	blt	a5,a4,1310 <.L222>
    12d8:	ffa28793          	addi	a5,t0,-6
    12dc:	01079f93          	slli	t6,a5,0x10
    12e0:	410fdf93          	srai	t6,t6,0x10
    12e4:	17000793          	li	a5,368
    12e8:	06b7de63          	bge	a5,a1,1364 <.L223>

000012ec <.L224>:
    12ec:	3fa00793          	li	a5,1018
    12f0:	f6c7d2e3          	bge	a5,a2,1254 <.L218>
    12f4:	000017b7          	lui	a5,0x1
    12f8:	bd578793          	addi	a5,a5,-1067 # bd5 <.L135+0x1>
    12fc:	18b7ce63          	blt	a5,a1,1498 <.L233>
    1300:	ff730713          	addi	a4,t1,-9
    1304:	01071713          	slli	a4,a4,0x10
    1308:	41075713          	srai	a4,a4,0x10
    130c:	0700006f          	j	137c <.L229>

00001310 <.L222>:
    1310:	00828793          	addi	a5,t0,8
    1314:	01079f93          	slli	t6,a5,0x10
    1318:	410fdf93          	srai	t6,t6,0x10
    131c:	17000793          	li	a5,368
    1320:	fcb7c6e3          	blt	a5,a1,12ec <.L224>

00001324 <.L225>:
    1324:	ffa30713          	addi	a4,t1,-6
    1328:	01071713          	slli	a4,a4,0x10
    132c:	41075713          	srai	a4,a4,0x10
    1330:	04c0006f          	j	137c <.L229>

00001334 <.L221>:
    1334:	f2b00793          	li	a5,-213
    1338:	14f4d063          	bge	s1,a5,1478 <.L226>
    133c:	00c28793          	addi	a5,t0,12
    1340:	01079f93          	slli	t6,a5,0x10
    1344:	010fdf93          	srli	t6,t6,0x10

00001348 <.L227>:
    1348:	010f9f93          	slli	t6,t6,0x10
    134c:	410fdf93          	srai	t6,t6,0x10
    1350:	17000793          	li	a5,368
    1354:	f8b7cce3          	blt	a5,a1,12ec <.L224>

00001358 <.L216>:
    1358:	01851703          	lh	a4,24(a0)
    135c:	ffa00793          	li	a5,-6
    1360:	f2f75ae3          	bge	a4,a5,1294 <.L228>

00001364 <.L223>:
    1364:	02851703          	lh	a4,40(a0)
    1368:	01200793          	li	a5,18
    136c:	fae7cce3          	blt	a5,a4,1324 <.L225>
    1370:	00630713          	addi	a4,t1,6
    1374:	01071713          	slli	a4,a4,0x10
    1378:	41075713          	srai	a4,a4,0x10

0000137c <.L229>:
    137c:	01e51803          	lh	a6,30(a0)
    1380:	e9900793          	li	a5,-359
    1384:	14f85e63          	bge	a6,a5,14e0 <.L234>
    1388:	01051303          	lh	t1,16(a0)
    138c:	20200793          	li	a5,514
    1390:	1267c463          	blt	a5,t1,14b8 <.L235>
    1394:	01451303          	lh	t1,20(a0)
    1398:	df000793          	li	a5,-528
    139c:	10f35663          	bge	t1,a5,14a8 <.L236>
    13a0:	ff7f0f13          	addi	t5,t5,-9
    13a4:	010f1f13          	slli	t5,t5,0x10
    13a8:	410f5f13          	srai	t5,t5,0x10

000013ac <.L237>:
    13ac:	0a900793          	li	a5,169
    13b0:	1dd7c463          	blt	a5,t4,1578 <.L242>
    13b4:	00851303          	lh	t1,8(a0)
    13b8:	01d00793          	li	a5,29
    13bc:	1867c863          	blt	a5,t1,154c <.L243>
    13c0:	00c51303          	lh	t1,12(a0)
    13c4:	11800793          	li	a5,280
    13c8:	1667ca63          	blt	a5,t1,153c <.L244>
    13cc:	00be0e13          	addi	t3,t3,11
    13d0:	010e1e13          	slli	t3,t3,0x10
    13d4:	410e5e13          	srai	t3,t3,0x10

000013d8 <.L245>:
    13d8:	0b500793          	li	a5,181
    13dc:	2317ca63          	blt	a5,a7,1610 <.L250>
    13e0:	02a51303          	lh	t1,42(a0)
    13e4:	00a00793          	li	a5,10
    13e8:	2067c063          	blt	a5,t1,15e8 <.L251>
    13ec:	02451303          	lh	t1,36(a0)
    13f0:	01a00793          	li	a5,26
    13f4:	1e67c263          	blt	a5,t1,15d8 <.L252>
    13f8:	ffbf8f93          	addi	t6,t6,-5
    13fc:	010f9f93          	slli	t6,t6,0x10
    1400:	410fdf93          	srai	t6,t6,0x10

00001404 <.L253>:
    1404:	06300793          	li	a5,99
    1408:	2eb7ce63          	blt	a5,a1,1704 <.L258>
    140c:	f2100793          	li	a5,-223
    1410:	26f85863          	bge	a6,a5,1680 <.L259>
    1414:	01051303          	lh	t1,16(a0)
    1418:	21800793          	li	a5,536
    141c:	2467ca63          	blt	a5,t1,1670 <.L260>
    1420:	ff670713          	addi	a4,a4,-10
    1424:	01071713          	slli	a4,a4,0x10
    1428:	41075713          	srai	a4,a4,0x10

0000142c <.L261>:
    142c:	03b00793          	li	a5,59
    1430:	36d7c063          	blt	a5,a3,1790 <.L267>
    1434:	cd800793          	li	a5,-808
    1438:	32f85663          	bge	a6,a5,1764 <.L268>
    143c:	008f0f13          	addi	t5,t5,8
    1440:	010f1313          	slli	t1,t5,0x10
    1444:	41035313          	srai	t1,t1,0x10

00001448 <.L269>:
    1448:	0a900793          	li	a5,169
    144c:	29d7c263          	blt	a5,t4,16d0 <.L275>
    1450:	00851f03          	lh	t5,8(a0)
    1454:	01d00793          	li	a5,29
    1458:	37e7de63          	bge	a5,t5,17d4 <.L274>
    145c:	01c51f03          	lh	t5,28(a0)
    1460:	03800793          	li	a5,56
    1464:	39e7ce63          	blt	a5,t5,1800 <.L279>
    1468:	ff8e0e13          	addi	t3,t3,-8
    146c:	010e1e13          	slli	t3,t3,0x10
    1470:	410e5e13          	srai	t3,t3,0x10
    1474:	3b80006f          	j	182c <.L278>

00001478 <.L226>:
    1478:	ffb28793          	addi	a5,t0,-5
    147c:	01079f93          	slli	t6,a5,0x10
    1480:	010fdf93          	srli	t6,t6,0x10
    1484:	ec5ff06f          	j	1348 <.L227>

00001488 <.L230>:
    1488:	00830713          	addi	a4,t1,8
    148c:	01071713          	slli	a4,a4,0x10
    1490:	41075713          	srai	a4,a4,0x10
    1494:	ee9ff06f          	j	137c <.L229>

00001498 <.L233>:
    1498:	00a30713          	addi	a4,t1,10
    149c:	01071713          	slli	a4,a4,0x10
    14a0:	41075713          	srai	a4,a4,0x10
    14a4:	ed9ff06f          	j	137c <.L229>

000014a8 <.L236>:
    14a8:	00af0f13          	addi	t5,t5,10
    14ac:	010f1f13          	slli	t5,t5,0x10
    14b0:	410f5f13          	srai	t5,t5,0x10
    14b4:	ef9ff06f          	j	13ac <.L237>

000014b8 <.L235>:
    14b8:	ac400793          	li	a5,-1340
    14bc:	00f85a63          	bge	a6,a5,14d0 <.L238>
    14c0:	00df0f13          	addi	t5,t5,13
    14c4:	010f1f13          	slli	t5,t5,0x10
    14c8:	410f5f13          	srai	t5,t5,0x10
    14cc:	ee1ff06f          	j	13ac <.L237>

000014d0 <.L238>:
    14d0:	ff6f0f13          	addi	t5,t5,-10
    14d4:	010f1f13          	slli	t5,t5,0x10
    14d8:	410f5f13          	srai	t5,t5,0x10
    14dc:	ed1ff06f          	j	13ac <.L237>

000014e0 <.L234>:
    14e0:	03d00793          	li	a5,61
    14e4:	02d7c663          	blt	a5,a3,1510 <.L239>
    14e8:	03800793          	li	a5,56
    14ec:	00c7ca63          	blt	a5,a2,1500 <.L240>
    14f0:	ffaf0f13          	addi	t5,t5,-6
    14f4:	010f1f13          	slli	t5,t5,0x10
    14f8:	410f5f13          	srai	t5,t5,0x10
    14fc:	eb1ff06f          	j	13ac <.L237>

00001500 <.L240>:
    1500:	ff6f0f13          	addi	t5,t5,-10
    1504:	010f1f13          	slli	t5,t5,0x10
    1508:	410f5f13          	srai	t5,t5,0x10
    150c:	ea1ff06f          	j	13ac <.L237>

00001510 <.L239>:
    1510:	02651303          	lh	t1,38(a0)
    1514:	0b300793          	li	a5,179
    1518:	0067ca63          	blt	a5,t1,152c <.L241>
    151c:	00bf0f13          	addi	t5,t5,11
    1520:	010f1f13          	slli	t5,t5,0x10
    1524:	410f5f13          	srai	t5,t5,0x10
    1528:	e85ff06f          	j	13ac <.L237>

0000152c <.L241>:
    152c:	ff9f0f13          	addi	t5,t5,-7
    1530:	010f1f13          	slli	t5,t5,0x10
    1534:	410f5f13          	srai	t5,t5,0x10
    1538:	e75ff06f          	j	13ac <.L237>

0000153c <.L244>:
    153c:	fffe0e13          	addi	t3,t3,-1
    1540:	010e1e13          	slli	t3,t3,0x10
    1544:	410e5e13          	srai	t3,t3,0x10
    1548:	e91ff06f          	j	13d8 <.L245>

0000154c <.L243>:
    154c:	01c51303          	lh	t1,28(a0)
    1550:	03800793          	li	a5,56
    1554:	0067ca63          	blt	a5,t1,1568 <.L246>
    1558:	ff7e0e13          	addi	t3,t3,-9
    155c:	010e1e13          	slli	t3,t3,0x10
    1560:	410e5e13          	srai	t3,t3,0x10
    1564:	e75ff06f          	j	13d8 <.L245>

00001568 <.L246>:
    1568:	006e0e13          	addi	t3,t3,6
    156c:	010e1e13          	slli	t3,t3,0x10
    1570:	410e5e13          	srai	t3,t3,0x10
    1574:	e65ff06f          	j	13d8 <.L245>

00001578 <.L242>:
    1578:	ea900793          	li	a5,-343
    157c:	02f45863          	bge	s0,a5,15ac <.L247>
    1580:	02451303          	lh	t1,36(a0)
    1584:	00d00793          	li	a5,13
    1588:	0067ca63          	blt	a5,t1,159c <.L248>
    158c:	ffde0e13          	addi	t3,t3,-3
    1590:	010e1e13          	slli	t3,t3,0x10
    1594:	410e5e13          	srai	t3,t3,0x10
    1598:	e41ff06f          	j	13d8 <.L245>

0000159c <.L248>:
    159c:	ff6e0e13          	addi	t3,t3,-10
    15a0:	010e1e13          	slli	t3,t3,0x10
    15a4:	410e5e13          	srai	t3,t3,0x10
    15a8:	e31ff06f          	j	13d8 <.L245>

000015ac <.L247>:
    15ac:	02651303          	lh	t1,38(a0)
    15b0:	16600793          	li	a5,358
    15b4:	0067ca63          	blt	a5,t1,15c8 <.L249>
    15b8:	ffee0e13          	addi	t3,t3,-2
    15bc:	010e1e13          	slli	t3,t3,0x10
    15c0:	410e5e13          	srai	t3,t3,0x10
    15c4:	e15ff06f          	j	13d8 <.L245>

000015c8 <.L249>:
    15c8:	00be0e13          	addi	t3,t3,11
    15cc:	010e1e13          	slli	t3,t3,0x10
    15d0:	410e5e13          	srai	t3,t3,0x10
    15d4:	e05ff06f          	j	13d8 <.L245>

000015d8 <.L252>:
    15d8:	00bf8f93          	addi	t6,t6,11
    15dc:	010f9f93          	slli	t6,t6,0x10
    15e0:	410fdf93          	srai	t6,t6,0x10
    15e4:	e21ff06f          	j	1404 <.L253>

000015e8 <.L251>:
    15e8:	18f00793          	li	a5,399
    15ec:	01d7ca63          	blt	a5,t4,1600 <.L254>
    15f0:	ff7f8f93          	addi	t6,t6,-9
    15f4:	010f9f93          	slli	t6,t6,0x10
    15f8:	410fdf93          	srai	t6,t6,0x10
    15fc:	e09ff06f          	j	1404 <.L253>

00001600 <.L254>:
    1600:	ffdf8f93          	addi	t6,t6,-3
    1604:	010f9f93          	slli	t6,t6,0x10
    1608:	410fdf93          	srai	t6,t6,0x10
    160c:	df9ff06f          	j	1404 <.L253>

00001610 <.L250>:
    1610:	01a51303          	lh	t1,26(a0)
    1614:	e2700793          	li	a5,-473
    1618:	02f35663          	bge	t1,a5,1644 <.L255>
    161c:	36200793          	li	a5,866
    1620:	01d7ca63          	blt	a5,t4,1634 <.L256>
    1624:	ff9f8f93          	addi	t6,t6,-7
    1628:	010f9f93          	slli	t6,t6,0x10
    162c:	410fdf93          	srai	t6,t6,0x10
    1630:	dd5ff06f          	j	1404 <.L253>

00001634 <.L256>:
    1634:	009f8f93          	addi	t6,t6,9
    1638:	010f9f93          	slli	t6,t6,0x10
    163c:	410fdf93          	srai	t6,t6,0x10
    1640:	dc5ff06f          	j	1404 <.L253>

00001644 <.L255>:
    1644:	01051303          	lh	t1,16(a0)
    1648:	0ce00793          	li	a5,206
    164c:	0067ca63          	blt	a5,t1,1660 <.L257>
    1650:	ff8f8f93          	addi	t6,t6,-8
    1654:	010f9f93          	slli	t6,t6,0x10
    1658:	410fdf93          	srai	t6,t6,0x10
    165c:	da9ff06f          	j	1404 <.L253>

00001660 <.L257>:
    1660:	008f8f93          	addi	t6,t6,8
    1664:	010f9f93          	slli	t6,t6,0x10
    1668:	410fdf93          	srai	t6,t6,0x10
    166c:	d99ff06f          	j	1404 <.L253>

00001670 <.L260>:
    1670:	ffc70713          	addi	a4,a4,-4
    1674:	01071713          	slli	a4,a4,0x10
    1678:	41075713          	srai	a4,a4,0x10
    167c:	db1ff06f          	j	142c <.L261>

00001680 <.L259>:
    1680:	efc00793          	li	a5,-260
    1684:	06f45863          	bge	s0,a5,16f4 <.L262>
    1688:	00370713          	addi	a4,a4,3
    168c:	01071713          	slli	a4,a4,0x10
    1690:	01075713          	srli	a4,a4,0x10

00001694 <.L263>:
    1694:	01071713          	slli	a4,a4,0x10
    1698:	41075713          	srai	a4,a4,0x10
    169c:	03b00793          	li	a5,59
    16a0:	0cd7d263          	bge	a5,a3,1764 <.L268>
    16a4:	01451303          	lh	t1,20(a0)
    16a8:	e4700793          	li	a5,-441
    16ac:	10f34463          	blt	t1,a5,17b4 <.L272>

000016b0 <.L271>:
    16b0:	00851303          	lh	t1,8(a0)
    16b4:	01800793          	li	a5,24
    16b8:	1067c663          	blt	a5,t1,17c4 <.L273>
    16bc:	001f0f13          	addi	t5,t5,1
    16c0:	010f1313          	slli	t1,t5,0x10
    16c4:	41035313          	srai	t1,t1,0x10
    16c8:	0a900793          	li	a5,169
    16cc:	11d7d463          	bge	a5,t4,17d4 <.L274>

000016d0 <.L275>:
    16d0:	02451f03          	lh	t5,36(a0)
    16d4:	01e00793          	li	a5,30
    16d8:	15e7c463          	blt	a5,t5,1820 <.L280>
    16dc:	ea900793          	li	a5,-343
    16e0:	12f45863          	bge	s0,a5,1810 <.L281>
    16e4:	ffbe0e13          	addi	t3,t3,-5
    16e8:	010e1e13          	slli	t3,t3,0x10
    16ec:	410e5e13          	srai	t3,t3,0x10
    16f0:	13c0006f          	j	182c <.L278>

000016f4 <.L262>:
    16f4:	ff770713          	addi	a4,a4,-9
    16f8:	01071713          	slli	a4,a4,0x10
    16fc:	01075713          	srli	a4,a4,0x10
    1700:	f95ff06f          	j	1694 <.L263>

00001704 <.L258>:
    1704:	01851303          	lh	t1,24(a0)
    1708:	ff700793          	li	a5,-9
    170c:	02f35863          	bge	t1,a5,173c <.L264>
    1710:	02851303          	lh	t1,40(a0)
    1714:	03300793          	li	a5,51
    1718:	0067ca63          	blt	a5,t1,172c <.L265>
    171c:	00870713          	addi	a4,a4,8
    1720:	01071713          	slli	a4,a4,0x10
    1724:	41075713          	srai	a4,a4,0x10
    1728:	d05ff06f          	j	142c <.L261>

0000172c <.L265>:
    172c:	ffd70713          	addi	a4,a4,-3
    1730:	01071713          	slli	a4,a4,0x10
    1734:	41075713          	srai	a4,a4,0x10
    1738:	cf5ff06f          	j	142c <.L261>

0000173c <.L264>:
    173c:	03b00793          	li	a5,59
    1740:	00c7ca63          	blt	a5,a2,1754 <.L266>
    1744:	00870713          	addi	a4,a4,8
    1748:	01071713          	slli	a4,a4,0x10
    174c:	41075713          	srai	a4,a4,0x10
    1750:	cddff06f          	j	142c <.L261>

00001754 <.L266>:
    1754:	ff770713          	addi	a4,a4,-9
    1758:	01071713          	slli	a4,a4,0x10
    175c:	41075713          	srai	a4,a4,0x10
    1760:	ccdff06f          	j	142c <.L261>

00001764 <.L268>:
    1764:	00e51303          	lh	t1,14(a0)
    1768:	03800793          	li	a5,56
    176c:	0067ca63          	blt	a5,t1,1780 <.L270>
    1770:	ff9f0f13          	addi	t5,t5,-7
    1774:	010f1313          	slli	t1,t5,0x10
    1778:	41035313          	srai	t1,t1,0x10
    177c:	ccdff06f          	j	1448 <.L269>

00001780 <.L270>:
    1780:	ff6f0f13          	addi	t5,t5,-10
    1784:	010f1313          	slli	t1,t5,0x10
    1788:	41035313          	srai	t1,t1,0x10
    178c:	cbdff06f          	j	1448 <.L269>

00001790 <.L267>:
    1790:	01451303          	lh	t1,20(a0)
    1794:	e4700793          	li	a5,-441
    1798:	f0f35ce3          	bge	t1,a5,16b0 <.L271>
    179c:	bf300793          	li	a5,-1037
    17a0:	00f85a63          	bge	a6,a5,17b4 <.L272>
    17a4:	00af0f13          	addi	t5,t5,10
    17a8:	010f1313          	slli	t1,t5,0x10
    17ac:	41035313          	srai	t1,t1,0x10
    17b0:	c99ff06f          	j	1448 <.L269>

000017b4 <.L272>:
    17b4:	ff9f0f13          	addi	t5,t5,-7
    17b8:	010f1313          	slli	t1,t5,0x10
    17bc:	41035313          	srai	t1,t1,0x10
    17c0:	c89ff06f          	j	1448 <.L269>

000017c4 <.L273>:
    17c4:	00bf0f13          	addi	t5,t5,11
    17c8:	010f1313          	slli	t1,t5,0x10
    17cc:	41035313          	srai	t1,t1,0x10
    17d0:	c79ff06f          	j	1448 <.L269>

000017d4 <.L274>:
    17d4:	00c51f03          	lh	t5,12(a0)
    17d8:	11800793          	li	a5,280
    17dc:	01e7ca63          	blt	a5,t5,17f0 <.L277>
    17e0:	00ae0e13          	addi	t3,t3,10
    17e4:	010e1e13          	slli	t3,t3,0x10
    17e8:	410e5e13          	srai	t3,t3,0x10
    17ec:	0400006f          	j	182c <.L278>

000017f0 <.L277>:
    17f0:	ffee0e13          	addi	t3,t3,-2
    17f4:	010e1e13          	slli	t3,t3,0x10
    17f8:	410e5e13          	srai	t3,t3,0x10
    17fc:	0300006f          	j	182c <.L278>

00001800 <.L279>:
    1800:	004e0e13          	addi	t3,t3,4
    1804:	010e1e13          	slli	t3,t3,0x10
    1808:	410e5e13          	srai	t3,t3,0x10
    180c:	0200006f          	j	182c <.L278>

00001810 <.L281>:
    1810:	002e0e13          	addi	t3,t3,2
    1814:	010e1e13          	slli	t3,t3,0x10
    1818:	410e5e13          	srai	t3,t3,0x10
    181c:	0100006f          	j	182c <.L278>

00001820 <.L280>:
    1820:	ff6e0e13          	addi	t3,t3,-10
    1824:	010e1e13          	slli	t3,t3,0x10
    1828:	410e5e13          	srai	t3,t3,0x10

0000182c <.L278>:
    182c:	03900793          	li	a5,57
    1830:	0cc7ce63          	blt	a5,a2,190c <.L282>
    1834:	02a51f03          	lh	t5,42(a0)
    1838:	00700793          	li	a5,7
    183c:	0be7c263          	blt	a5,t5,18e0 <.L283>
    1840:	02851f03          	lh	t5,40(a0)
    1844:	00a00793          	li	a5,10
    1848:	09e7c463          	blt	a5,t5,18d0 <.L284>
    184c:	ffcf8793          	addi	a5,t6,-4
    1850:	01079793          	slli	a5,a5,0x10
    1854:	4107d793          	srai	a5,a5,0x10

00001858 <.L285>:
    1858:	06300f13          	li	t5,99
    185c:	14bf4463          	blt	t5,a1,19a4 <.L290>
    1860:	f2100f13          	li	t5,-223
    1864:	11e85c63          	bge	a6,t5,197c <.L291>
    1868:	23000f13          	li	t5,560
    186c:	11df4063          	blt	t5,t4,196c <.L292>
    1870:	ff770713          	addi	a4,a4,-9
    1874:	01071713          	slli	a4,a4,0x10
    1878:	41075713          	srai	a4,a4,0x10

0000187c <.L293>:
    187c:	01a51383          	lh	t2,26(a0)
    1880:	e2500f13          	li	t5,-475
    1884:	1de3da63          	bge	t2,t5,1a58 <.L300>

00001888 <.L297>:
    1888:	01251f83          	lh	t6,18(a0)
    188c:	25500f13          	li	t5,597
    1890:	1bff4063          	blt	t5,t6,1a30 <.L301>
    1894:	01451f83          	lh	t6,20(a0)
    1898:	df400f13          	li	t5,-524
    189c:	19efd263          	bge	t6,t5,1a20 <.L302>
    18a0:	ff730313          	addi	t1,t1,-9
    18a4:	01031313          	slli	t1,t1,0x10
    18a8:	41035313          	srai	t1,t1,0x10

000018ac <.L1556>:
    18ac:	00851f83          	lh	t6,8(a0)
    18b0:	02200f13          	li	t5,34
    18b4:	27ff4a63          	blt	t5,t6,1b28 <.L309>
    18b8:	0f600f13          	li	t5,246
    18bc:	251f4e63          	blt	t5,a7,1b18 <.L310>
    18c0:	002e0e13          	addi	t3,t3,2
    18c4:	010e1e13          	slli	t3,t3,0x10
    18c8:	410e5e13          	srai	t3,t3,0x10
    18cc:	2700006f          	j	1b3c <.L311>

000018d0 <.L284>:
    18d0:	009f8793          	addi	a5,t6,9
    18d4:	01079793          	slli	a5,a5,0x10
    18d8:	4107d793          	srai	a5,a5,0x10
    18dc:	f7dff06f          	j	1858 <.L285>

000018e0 <.L283>:
    18e0:	02651f03          	lh	t5,38(a0)
    18e4:	42700793          	li	a5,1063
    18e8:	01e7ca63          	blt	a5,t5,18fc <.L286>
    18ec:	ff7f8793          	addi	a5,t6,-9
    18f0:	01079793          	slli	a5,a5,0x10
    18f4:	4107d793          	srai	a5,a5,0x10
    18f8:	f61ff06f          	j	1858 <.L285>

000018fc <.L286>:
    18fc:	001f8793          	addi	a5,t6,1
    1900:	01079793          	slli	a5,a5,0x10
    1904:	4107d793          	srai	a5,a5,0x10
    1908:	f51ff06f          	j	1858 <.L285>

0000190c <.L282>:
    190c:	08c00793          	li	a5,140
    1910:	0317c863          	blt	a5,a7,1940 <.L287>
    1914:	02a51f03          	lh	t5,42(a0)
    1918:	00a00793          	li	a5,10
    191c:	01e7ca63          	blt	a5,t5,1930 <.L288>
    1920:	008f8793          	addi	a5,t6,8
    1924:	01079793          	slli	a5,a5,0x10
    1928:	4107d793          	srai	a5,a5,0x10
    192c:	f2dff06f          	j	1858 <.L285>

00001930 <.L288>:
    1930:	ff9f8793          	addi	a5,t6,-7
    1934:	01079793          	slli	a5,a5,0x10
    1938:	4107d793          	srai	a5,a5,0x10
    193c:	f1dff06f          	j	1858 <.L285>

00001940 <.L287>:
    1940:	01851f03          	lh	t5,24(a0)
    1944:	ff700793          	li	a5,-9
    1948:	00ff5a63          	bge	t5,a5,195c <.L289>
    194c:	001f8793          	addi	a5,t6,1
    1950:	01079793          	slli	a5,a5,0x10
    1954:	4107d793          	srai	a5,a5,0x10
    1958:	f01ff06f          	j	1858 <.L285>

0000195c <.L289>:
    195c:	00af8793          	addi	a5,t6,10
    1960:	01079793          	slli	a5,a5,0x10
    1964:	4107d793          	srai	a5,a5,0x10
    1968:	ef1ff06f          	j	1858 <.L285>

0000196c <.L292>:
    196c:	ffe70713          	addi	a4,a4,-2
    1970:	01071713          	slli	a4,a4,0x10
    1974:	41075713          	srai	a4,a4,0x10
    1978:	f05ff06f          	j	187c <.L293>

0000197c <.L291>:
    197c:	efc00f13          	li	t5,-260
    1980:	01e45a63          	bge	s0,t5,1994 <.L294>
    1984:	00270713          	addi	a4,a4,2
    1988:	01071713          	slli	a4,a4,0x10
    198c:	41075713          	srai	a4,a4,0x10
    1990:	eedff06f          	j	187c <.L293>

00001994 <.L294>:
    1994:	ff870713          	addi	a4,a4,-8
    1998:	01071713          	slli	a4,a4,0x10
    199c:	41075713          	srai	a4,a4,0x10
    19a0:	eddff06f          	j	187c <.L293>

000019a4 <.L290>:
    19a4:	ed000f13          	li	t5,-304
    19a8:	05e4d863          	bge	s1,t5,19f8 <.L295>
    19ac:	25b00f13          	li	t5,603
    19b0:	00cf4a63          	blt	t5,a2,19c4 <.L296>
    19b4:	00870713          	addi	a4,a4,8
    19b8:	01071713          	slli	a4,a4,0x10
    19bc:	41075713          	srai	a4,a4,0x10
    19c0:	ebdff06f          	j	187c <.L293>

000019c4 <.L296>:
    19c4:	ffe70713          	addi	a4,a4,-2
    19c8:	01071713          	slli	a4,a4,0x10
    19cc:	41075713          	srai	a4,a4,0x10
    19d0:	01a51383          	lh	t2,26(a0)
    19d4:	e2500f13          	li	t5,-475
    19d8:	ebe3c8e3          	blt	t2,t5,1888 <.L297>

000019dc <.L298>:
    19dc:	00e51f83          	lh	t6,14(a0)
    19e0:	03d00f13          	li	t5,61
    19e4:	13ff4263          	blt	t5,t6,1b08 <.L307>
    19e8:	ff830313          	addi	t1,t1,-8
    19ec:	01031313          	slli	t1,t1,0x10
    19f0:	41035313          	srai	t1,t1,0x10
    19f4:	0800006f          	j	1a74 <.L306>

000019f8 <.L295>:
    19f8:	f9f00f13          	li	t5,-97
    19fc:	01e85a63          	bge	a6,t5,1a10 <.L299>
    1a00:	ff870713          	addi	a4,a4,-8
    1a04:	01071713          	slli	a4,a4,0x10
    1a08:	41075713          	srai	a4,a4,0x10
    1a0c:	e71ff06f          	j	187c <.L293>

00001a10 <.L299>:
    1a10:	00a70713          	addi	a4,a4,10
    1a14:	01071713          	slli	a4,a4,0x10
    1a18:	41075713          	srai	a4,a4,0x10
    1a1c:	e61ff06f          	j	187c <.L293>

00001a20 <.L302>:
    1a20:	00a30313          	addi	t1,t1,10
    1a24:	01031313          	slli	t1,t1,0x10
    1a28:	41035313          	srai	t1,t1,0x10
    1a2c:	e81ff06f          	j	18ac <.L1556>

00001a30 <.L301>:
    1a30:	c2600f13          	li	t5,-986
    1a34:	01e85a63          	bge	a6,t5,1a48 <.L304>
    1a38:	00830313          	addi	t1,t1,8
    1a3c:	01031313          	slli	t1,t1,0x10
    1a40:	41035313          	srai	t1,t1,0x10
    1a44:	e69ff06f          	j	18ac <.L1556>

00001a48 <.L304>:
    1a48:	ff630313          	addi	t1,t1,-10
    1a4c:	01031313          	slli	t1,t1,0x10
    1a50:	41035313          	srai	t1,t1,0x10
    1a54:	e59ff06f          	j	18ac <.L1556>

00001a58 <.L300>:
    1a58:	03800f13          	li	t5,56
    1a5c:	f8cf40e3          	blt	t5,a2,19dc <.L298>
    1a60:	03a00f13          	li	t5,58
    1a64:	08df4a63          	blt	t5,a3,1af8 <.L305>
    1a68:	ff930313          	addi	t1,t1,-7
    1a6c:	01031313          	slli	t1,t1,0x10
    1a70:	41035313          	srai	t1,t1,0x10

00001a74 <.L306>:
    1a74:	f5c00f13          	li	t5,-164
    1a78:	e3e3cae3          	blt	t2,t5,18ac <.L1556>
    1a7c:	00c51f83          	lh	t6,12(a0)
    1a80:	0bb00f13          	li	t5,187
    1a84:	11ff4263          	blt	t5,t6,1b88 <.L314>
    1a88:	01251f83          	lh	t6,18(a0)
    1a8c:	18500f13          	li	t5,389
    1a90:	0fff4463          	blt	t5,t6,1b78 <.L315>
    1a94:	009e0e13          	addi	t3,t3,9
    1a98:	010e1e13          	slli	t3,t3,0x10
    1a9c:	410e5e13          	srai	t3,t3,0x10

00001aa0 <.L316>:
    1aa0:	0b500f13          	li	t5,181
    1aa4:	151f4c63          	blt	t5,a7,1bfc <.L322>

00001aa8 <.L1555>:
    1aa8:	02051f83          	lh	t6,32(a0)
    1aac:	00200f13          	li	t5,2
    1ab0:	11ff4a63          	blt	t5,t6,1bc4 <.L318>
    1ab4:	02451f83          	lh	t6,36(a0)
    1ab8:	00b00f13          	li	t5,11
    1abc:	0fff4c63          	blt	t5,t6,1bb4 <.L319>
    1ac0:	ff978793          	addi	a5,a5,-7
    1ac4:	01079793          	slli	a5,a5,0x10
    1ac8:	4107d793          	srai	a5,a5,0x10

00001acc <.L320>:
    1acc:	2be00f13          	li	t5,702
    1ad0:	1ebf4a63          	blt	t5,a1,1cc4 <.L327>
    1ad4:	0a300f13          	li	t5,163
    1ad8:	16cf5863          	bge	t5,a2,1c48 <.L325>
    1adc:	02851f83          	lh	t6,40(a0)
    1ae0:	00f00f13          	li	t5,15
    1ae4:	17ff5c63          	bge	t5,t6,1c5c <.L330>
    1ae8:	ff870713          	addi	a4,a4,-8
    1aec:	01071713          	slli	a4,a4,0x10
    1af0:	41075713          	srai	a4,a4,0x10
    1af4:	1680006f          	j	1c5c <.L330>

00001af8 <.L305>:
    1af8:	00830313          	addi	t1,t1,8
    1afc:	01031313          	slli	t1,t1,0x10
    1b00:	41035313          	srai	t1,t1,0x10
    1b04:	f71ff06f          	j	1a74 <.L306>

00001b08 <.L307>:
    1b08:	00630313          	addi	t1,t1,6
    1b0c:	01031313          	slli	t1,t1,0x10
    1b10:	41035313          	srai	t1,t1,0x10
    1b14:	f61ff06f          	j	1a74 <.L306>

00001b18 <.L310>:
    1b18:	ffbe0e13          	addi	t3,t3,-5
    1b1c:	010e1e13          	slli	t3,t3,0x10
    1b20:	410e5e13          	srai	t3,t3,0x10
    1b24:	0200006f          	j	1b44 <.L312>

00001b28 <.L309>:
    1b28:	00c51f03          	lh	t5,12(a0)
    1b2c:	020f4e63          	bltz	t5,1b68 <.L1616>
    1b30:	ff6e0e13          	addi	t3,t3,-10
    1b34:	010e1e13          	slli	t3,t3,0x10
    1b38:	410e5e13          	srai	t3,t3,0x10

00001b3c <.L311>:
    1b3c:	0b500f13          	li	t5,181
    1b40:	f71f54e3          	bge	t5,a7,1aa8 <.L1555>

00001b44 <.L312>:
    1b44:	e0d00f13          	li	t5,-499
    1b48:	0be3da63          	bge	t2,t5,1bfc <.L322>
    1b4c:	01051f83          	lh	t6,16(a0)
    1b50:	27d00f13          	li	t5,637
    1b54:	09ff4c63          	blt	t5,t6,1bec <.L323>
    1b58:	ff678793          	addi	a5,a5,-10
    1b5c:	01079793          	slli	a5,a5,0x10
    1b60:	4107d793          	srai	a5,a5,0x10
    1b64:	f69ff06f          	j	1acc <.L320>

00001b68 <.L1616>:
    1b68:	003e0e13          	addi	t3,t3,3
    1b6c:	010e1e13          	slli	t3,t3,0x10
    1b70:	410e5e13          	srai	t3,t3,0x10
    1b74:	fc9ff06f          	j	1b3c <.L311>

00001b78 <.L315>:
    1b78:	ffbe0e13          	addi	t3,t3,-5
    1b7c:	010e1e13          	slli	t3,t3,0x10
    1b80:	410e5e13          	srai	t3,t3,0x10
    1b84:	f1dff06f          	j	1aa0 <.L316>

00001b88 <.L314>:
    1b88:	00e51f83          	lh	t6,14(a0)
    1b8c:	03200f13          	li	t5,50
    1b90:	01ff4a63          	blt	t5,t6,1ba4 <.L317>
    1b94:	00ce0e13          	addi	t3,t3,12
    1b98:	010e1e13          	slli	t3,t3,0x10
    1b9c:	410e5e13          	srai	t3,t3,0x10
    1ba0:	f01ff06f          	j	1aa0 <.L316>

00001ba4 <.L317>:
    1ba4:	ff8e0e13          	addi	t3,t3,-8
    1ba8:	010e1e13          	slli	t3,t3,0x10
    1bac:	410e5e13          	srai	t3,t3,0x10
    1bb0:	ef1ff06f          	j	1aa0 <.L316>

00001bb4 <.L319>:
    1bb4:	00778793          	addi	a5,a5,7
    1bb8:	01079793          	slli	a5,a5,0x10
    1bbc:	4107d793          	srai	a5,a5,0x10
    1bc0:	f0dff06f          	j	1acc <.L320>

00001bc4 <.L318>:
    1bc4:	19e00f13          	li	t5,414
    1bc8:	01df4a63          	blt	t5,t4,1bdc <.L321>
    1bcc:	ff778793          	addi	a5,a5,-9
    1bd0:	01079793          	slli	a5,a5,0x10
    1bd4:	4107d793          	srai	a5,a5,0x10
    1bd8:	ef5ff06f          	j	1acc <.L320>

00001bdc <.L321>:
    1bdc:	ffe78793          	addi	a5,a5,-2
    1be0:	01079793          	slli	a5,a5,0x10
    1be4:	4107d793          	srai	a5,a5,0x10
    1be8:	ee5ff06f          	j	1acc <.L320>

00001bec <.L323>:
    1bec:	00478793          	addi	a5,a5,4
    1bf0:	01079793          	slli	a5,a5,0x10
    1bf4:	4107d793          	srai	a5,a5,0x10
    1bf8:	ed5ff06f          	j	1acc <.L320>

00001bfc <.L322>:
    1bfc:	01300f13          	li	t5,19
    1c00:	02cf4c63          	blt	t5,a2,1c38 <.L324>
    1c04:	ffa78793          	addi	a5,a5,-6
    1c08:	01079793          	slli	a5,a5,0x10
    1c0c:	4107d793          	srai	a5,a5,0x10
    1c10:	2be00f13          	li	t5,702
    1c14:	02bf5a63          	bge	t5,a1,1c48 <.L325>
    1c18:	e4e00f13          	li	t5,-434
    1c1c:	0de4c663          	blt	s1,t5,1ce8 <.L1582>

00001c20 <.L331>:
    1c20:	30200f13          	li	t5,770
    1c24:	0ccf4a63          	blt	t5,a2,1cf8 <.L333>
    1c28:	00570713          	addi	a4,a4,5
    1c2c:	01071713          	slli	a4,a4,0x10
    1c30:	41075713          	srai	a4,a4,0x10
    1c34:	0280006f          	j	1c5c <.L330>

00001c38 <.L324>:
    1c38:	00678793          	addi	a5,a5,6
    1c3c:	01079793          	slli	a5,a5,0x10
    1c40:	4107d793          	srai	a5,a5,0x10
    1c44:	e89ff06f          	j	1acc <.L320>

00001c48 <.L325>:
    1c48:	04d00f13          	li	t5,77
    1c4c:	06bf4463          	blt	t5,a1,1cb4 <.L329>
    1c50:	ffb70713          	addi	a4,a4,-5
    1c54:	01071713          	slli	a4,a4,0x10
    1c58:	41075713          	srai	a4,a4,0x10

00001c5c <.L330>:
    1c5c:	e0800f13          	li	t5,-504
    1c60:	0fe3d063          	bge	t2,t5,1d40 <.L334>
    1c64:	01251f83          	lh	t6,18(a0)
    1c68:	25500f13          	li	t5,597
    1c6c:	0bff4663          	blt	t5,t6,1d18 <.L335>
    1c70:	df100f13          	li	t5,-527
    1c74:	09e45a63          	bge	s0,t5,1d08 <.L336>
    1c78:	ff930313          	addi	t1,t1,-7
    1c7c:	01031313          	slli	t1,t1,0x10
    1c80:	41035313          	srai	t1,t1,0x10

00001c84 <.L337>:
    1c84:	0a900f13          	li	t5,169
    1c88:	15df4863          	blt	t5,t4,1dd8 <.L342>
    1c8c:	00851f83          	lh	t6,8(a0)
    1c90:	01d00f13          	li	t5,29
    1c94:	11ff4c63          	blt	t5,t6,1dac <.L343>
    1c98:	00c51f83          	lh	t6,12(a0)
    1c9c:	11800f13          	li	t5,280
    1ca0:	0fff4e63          	blt	t5,t6,1d9c <.L344>
    1ca4:	009e0e13          	addi	t3,t3,9
    1ca8:	010e1f13          	slli	t5,t3,0x10
    1cac:	410f5f13          	srai	t5,t5,0x10
    1cb0:	1680006f          	j	1e18 <.L345>

00001cb4 <.L329>:
    1cb4:	00670713          	addi	a4,a4,6
    1cb8:	01071713          	slli	a4,a4,0x10
    1cbc:	41075713          	srai	a4,a4,0x10
    1cc0:	f9dff06f          	j	1c5c <.L330>

00001cc4 <.L327>:
    1cc4:	e4e00f13          	li	t5,-434
    1cc8:	f5e4dce3          	bge	s1,t5,1c20 <.L331>
    1ccc:	00001f37          	lui	t5,0x1
    1cd0:	cbbf0f13          	addi	t5,t5,-837 # cbb <.L1561+0xb>
    1cd4:	00cf5a63          	bge	t5,a2,1ce8 <.L1582>
    1cd8:	ffa70713          	addi	a4,a4,-6
    1cdc:	01071713          	slli	a4,a4,0x10
    1ce0:	41075713          	srai	a4,a4,0x10
    1ce4:	f79ff06f          	j	1c5c <.L330>

00001ce8 <.L1582>:
    1ce8:	00b70713          	addi	a4,a4,11
    1cec:	01071713          	slli	a4,a4,0x10
    1cf0:	41075713          	srai	a4,a4,0x10
    1cf4:	f69ff06f          	j	1c5c <.L330>

00001cf8 <.L333>:
    1cf8:	ff770713          	addi	a4,a4,-9
    1cfc:	01071713          	slli	a4,a4,0x10
    1d00:	41075713          	srai	a4,a4,0x10
    1d04:	f59ff06f          	j	1c5c <.L330>

00001d08 <.L336>:
    1d08:	00a30313          	addi	t1,t1,10
    1d0c:	01031313          	slli	t1,t1,0x10
    1d10:	41035313          	srai	t1,t1,0x10
    1d14:	f71ff06f          	j	1c84 <.L337>

00001d18 <.L335>:
    1d18:	c2600f13          	li	t5,-986
    1d1c:	01e85a63          	bge	a6,t5,1d30 <.L338>
    1d20:	00830313          	addi	t1,t1,8
    1d24:	01031313          	slli	t1,t1,0x10
    1d28:	41035313          	srai	t1,t1,0x10
    1d2c:	f59ff06f          	j	1c84 <.L337>

00001d30 <.L338>:
    1d30:	ff630313          	addi	t1,t1,-10
    1d34:	01031313          	slli	t1,t1,0x10
    1d38:	41035313          	srai	t1,t1,0x10
    1d3c:	f49ff06f          	j	1c84 <.L337>

00001d40 <.L334>:
    1d40:	03b00f13          	li	t5,59
    1d44:	02df4863          	blt	t5,a3,1d74 <.L339>
    1d48:	00e51f83          	lh	t6,14(a0)
    1d4c:	03800f13          	li	t5,56
    1d50:	01ff4a63          	blt	t5,t6,1d64 <.L340>
    1d54:	ffa30313          	addi	t1,t1,-6
    1d58:	01031313          	slli	t1,t1,0x10
    1d5c:	41035313          	srai	t1,t1,0x10
    1d60:	f25ff06f          	j	1c84 <.L337>

00001d64 <.L340>:
    1d64:	ff630313          	addi	t1,t1,-10
    1d68:	01031313          	slli	t1,t1,0x10
    1d6c:	41035313          	srai	t1,t1,0x10
    1d70:	f15ff06f          	j	1c84 <.L337>

00001d74 <.L339>:
    1d74:	0d400f13          	li	t5,212
    1d78:	00cf4a63          	blt	t5,a2,1d8c <.L341>
    1d7c:	00530313          	addi	t1,t1,5
    1d80:	01031313          	slli	t1,t1,0x10
    1d84:	41035313          	srai	t1,t1,0x10
    1d88:	efdff06f          	j	1c84 <.L337>

00001d8c <.L341>:
    1d8c:	ff830313          	addi	t1,t1,-8
    1d90:	01031313          	slli	t1,t1,0x10
    1d94:	41035313          	srai	t1,t1,0x10
    1d98:	eedff06f          	j	1c84 <.L337>

00001d9c <.L344>:
    1d9c:	fffe0e13          	addi	t3,t3,-1
    1da0:	010e1f13          	slli	t5,t3,0x10
    1da4:	410f5f13          	srai	t5,t5,0x10
    1da8:	0700006f          	j	1e18 <.L345>

00001dac <.L343>:
    1dac:	01451f83          	lh	t6,20(a0)
    1db0:	fb100f13          	li	t5,-79
    1db4:	01efda63          	bge	t6,t5,1dc8 <.L346>
    1db8:	ff8e0e13          	addi	t3,t3,-8
    1dbc:	010e1f13          	slli	t5,t3,0x10
    1dc0:	410f5f13          	srai	t5,t5,0x10
    1dc4:	0540006f          	j	1e18 <.L345>

00001dc8 <.L346>:
    1dc8:	004e0e13          	addi	t3,t3,4
    1dcc:	010e1f13          	slli	t5,t3,0x10
    1dd0:	410f5f13          	srai	t5,t5,0x10
    1dd4:	0440006f          	j	1e18 <.L345>

00001dd8 <.L342>:
    1dd8:	02451f83          	lh	t6,36(a0)
    1ddc:	01e00f13          	li	t5,30
    1de0:	03ff4663          	blt	t5,t6,1e0c <.L347>
    1de4:	ea900f13          	li	t5,-343
    1de8:	01e45a63          	bge	s0,t5,1dfc <.L348>
    1dec:	ffce0e13          	addi	t3,t3,-4
    1df0:	010e1f13          	slli	t5,t3,0x10
    1df4:	410f5f13          	srai	t5,t5,0x10
    1df8:	0200006f          	j	1e18 <.L345>

00001dfc <.L348>:
    1dfc:	002e0e13          	addi	t3,t3,2
    1e00:	010e1f13          	slli	t5,t3,0x10
    1e04:	410f5f13          	srai	t5,t5,0x10
    1e08:	0100006f          	j	1e18 <.L345>

00001e0c <.L347>:
    1e0c:	ff6e0e13          	addi	t3,t3,-10
    1e10:	010e1f13          	slli	t5,t3,0x10
    1e14:	410f5f13          	srai	t5,t5,0x10

00001e18 <.L345>:
    1e18:	34b00f93          	li	t6,843
    1e1c:	10cfc863          	blt	t6,a2,1f2c <.L349>
    1e20:	01851f83          	lh	t6,24(a0)
    1e24:	ff900e13          	li	t3,-7
    1e28:	0dcfd263          	bge	t6,t3,1eec <.L350>
    1e2c:	01051f83          	lh	t6,16(a0)
    1e30:	1ba00e13          	li	t3,442
    1e34:	01fe4863          	blt	t3,t6,1e44 <.L351>
    1e38:	ff778793          	addi	a5,a5,-9
    1e3c:	01079793          	slli	a5,a5,0x10
    1e40:	4107d793          	srai	a5,a5,0x10

00001e44 <.L351>:
    1e44:	17000e13          	li	t3,368
    1e48:	1cbe4263          	blt	t3,a1,200c <.L1553>

00001e4c <.L353>:
    1e4c:	02851f83          	lh	t6,40(a0)
    1e50:	02200e13          	li	t3,34
    1e54:	1bfe4063          	blt	t3,t6,1ff4 <.L362>

00001e58 <.L1580>:
    1e58:	01851f83          	lh	t6,24(a0)
    1e5c:	ffa00e13          	li	t3,-6
    1e60:	19cfd263          	bge	t6,t3,1fe4 <.L363>
    1e64:	00270713          	addi	a4,a4,2
    1e68:	01071713          	slli	a4,a4,0x10
    1e6c:	41075713          	srai	a4,a4,0x10

00001e70 <.L364>:
    1e70:	e9900f93          	li	t6,-359
    1e74:	1df85e63          	bge	a6,t6,2050 <.L367>
    1e78:	01051f83          	lh	t6,16(a0)
    1e7c:	20200e13          	li	t3,514
    1e80:	1bfe4463          	blt	t3,t6,2028 <.L368>
    1e84:	02651f83          	lh	t6,38(a0)
    1e88:	14600e13          	li	t3,326
    1e8c:	01fe4863          	blt	t3,t6,1e9c <.L369>
    1e90:	00930313          	addi	t1,t1,9
    1e94:	01031313          	slli	t1,t1,0x10
    1e98:	41035313          	srai	t1,t1,0x10

00001e9c <.L369>:
    1e9c:	00851e03          	lh	t3,8(a0)
    1ea0:	200e4463          	bltz	t3,20a8 <.L1617>
    1ea4:	00c51f83          	lh	t6,12(a0)
    1ea8:	280fcc63          	bltz	t6,2140 <.L1618>
    1eac:	02200f93          	li	t6,34
    1eb0:	2bcfce63          	blt	t6,t3,216c <.L382>
    1eb4:	ffff0f13          	addi	t5,t5,-1
    1eb8:	010f1f13          	slli	t5,t5,0x10
    1ebc:	410f5f13          	srai	t5,t5,0x10

00001ec0 <.L377>:
    1ec0:	0f000f93          	li	t6,240
    1ec4:	231fd663          	bge	t6,a7,20f0 <.L379>
    1ec8:	d6c00f93          	li	t6,-660
    1ecc:	41f4da63          	bge	s1,t6,22e0 <.L390>
    1ed0:	01851283          	lh	t0,24(a0)
    1ed4:	ff400f93          	li	t6,-12
    1ed8:	3ff2dc63          	bge	t0,t6,22d0 <.L391>
    1edc:	ff678793          	addi	a5,a5,-10
    1ee0:	01079793          	slli	a5,a5,0x10
    1ee4:	4107d793          	srai	a5,a5,0x10
    1ee8:	2a00006f          	j	2188 <.L388>

00001eec <.L350>:
    1eec:	01451f83          	lh	t6,20(a0)
    1ef0:	f2000e13          	li	t3,-224
    1ef4:	01cfda63          	bge	t6,t3,1f08 <.L352>
    1ef8:	00978793          	addi	a5,a5,9
    1efc:	01079793          	slli	a5,a5,0x10
    1f00:	4107d793          	srai	a5,a5,0x10
    1f04:	f41ff06f          	j	1e44 <.L351>

00001f08 <.L352>:
    1f08:	ffb78793          	addi	a5,a5,-5
    1f0c:	01079793          	slli	a5,a5,0x10
    1f10:	4107d793          	srai	a5,a5,0x10
    1f14:	17000e13          	li	t3,368
    1f18:	f2be5ae3          	bge	t3,a1,1e4c <.L353>

00001f1c <.L354>:
    1f1c:	ffa70713          	addi	a4,a4,-6
    1f20:	01071713          	slli	a4,a4,0x10
    1f24:	41075713          	srai	a4,a4,0x10
    1f28:	f49ff06f          	j	1e70 <.L364>

00001f2c <.L349>:
    1f2c:	00001fb7          	lui	t6,0x1
    1f30:	a9df8f93          	addi	t6,t6,-1379 # a9d <.L116+0x9>
    1f34:	04bfcc63          	blt	t6,a1,1f8c <.L355>
    1f38:	f5100e13          	li	t3,-175
    1f3c:	05c45063          	bge	s0,t3,1f7c <.L356>
    1f40:	00978793          	addi	a5,a5,9
    1f44:	01079793          	slli	a5,a5,0x10
    1f48:	0107d793          	srli	a5,a5,0x10

00001f4c <.L357>:
    1f4c:	01079793          	slli	a5,a5,0x10
    1f50:	4107d793          	srai	a5,a5,0x10
    1f54:	17000e13          	li	t3,368
    1f58:	00be5463          	bge	t3,a1,1f60 <.L357+0x14>
    1f5c:	2280606f          	j	8184 <.L1619>
    1f60:	02851f83          	lh	t6,40(a0)
    1f64:	02200e13          	li	t3,34
    1f68:	effe58e3          	bge	t3,t6,1e58 <.L1580>

00001f6c <.L365>:
    1f6c:	ff670713          	addi	a4,a4,-10
    1f70:	01071713          	slli	a4,a4,0x10
    1f74:	41075713          	srai	a4,a4,0x10
    1f78:	ef9ff06f          	j	1e70 <.L364>

00001f7c <.L356>:
    1f7c:	ffb78793          	addi	a5,a5,-5
    1f80:	01079793          	slli	a5,a5,0x10
    1f84:	0107d793          	srli	a5,a5,0x10
    1f88:	fc5ff06f          	j	1f4c <.L357>

00001f8c <.L355>:
    1f8c:	02051f83          	lh	t6,32(a0)
    1f90:	00b00e13          	li	t3,11
    1f94:	05fe4063          	blt	t3,t6,1fd4 <.L358>
    1f98:	fff78793          	addi	a5,a5,-1
    1f9c:	01079793          	slli	a5,a5,0x10
    1fa0:	0107d793          	srli	a5,a5,0x10

00001fa4 <.L359>:
    1fa4:	01079793          	slli	a5,a5,0x10
    1fa8:	4107d793          	srai	a5,a5,0x10
    1fac:	3fa00e13          	li	t3,1018
    1fb0:	04ce5e63          	bge	t3,a2,200c <.L1553>
    1fb4:	00001e37          	lui	t3,0x1
    1fb8:	b13e0e13          	addi	t3,t3,-1261 # b13 <.L117+0x3>
    1fbc:	00be4463          	blt	t3,a1,1fc4 <.L359+0x20>
    1fc0:	1d00606f          	j	8190 <.L1581>
    1fc4:	00970713          	addi	a4,a4,9
    1fc8:	01071713          	slli	a4,a4,0x10
    1fcc:	41075713          	srai	a4,a4,0x10
    1fd0:	ea1ff06f          	j	1e70 <.L364>

00001fd4 <.L358>:
    1fd4:	ff578793          	addi	a5,a5,-11
    1fd8:	01079793          	slli	a5,a5,0x10
    1fdc:	0107d793          	srli	a5,a5,0x10
    1fe0:	fc5ff06f          	j	1fa4 <.L359>

00001fe4 <.L363>:
    1fe4:	ff870713          	addi	a4,a4,-8
    1fe8:	01071713          	slli	a4,a4,0x10
    1fec:	41075713          	srai	a4,a4,0x10
    1ff0:	e81ff06f          	j	1e70 <.L364>

00001ff4 <.L362>:
    1ff4:	fda00e13          	li	t3,-38
    1ff8:	f7c65ae3          	bge	a2,t3,1f6c <.L365>
    1ffc:	00670713          	addi	a4,a4,6
    2000:	01071713          	slli	a4,a4,0x10
    2004:	41075713          	srai	a4,a4,0x10
    2008:	e69ff06f          	j	1e70 <.L364>

0000200c <.L1553>:
    200c:	01451f83          	lh	t6,20(a0)
    2010:	eef00e13          	li	t3,-273
    2014:	f1cfd4e3          	bge	t6,t3,1f1c <.L354>
    2018:	00a70713          	addi	a4,a4,10
    201c:	01071713          	slli	a4,a4,0x10
    2020:	41075713          	srai	a4,a4,0x10
    2024:	e4dff06f          	j	1e70 <.L364>

00002028 <.L368>:
    2028:	ac400e13          	li	t3,-1340
    202c:	01c85a63          	bge	a6,t3,2040 <.L370>
    2030:	00b30313          	addi	t1,t1,11
    2034:	01031313          	slli	t1,t1,0x10
    2038:	41035313          	srai	t1,t1,0x10
    203c:	e61ff06f          	j	1e9c <.L369>

00002040 <.L370>:
    2040:	ff730313          	addi	t1,t1,-9
    2044:	01031313          	slli	t1,t1,0x10
    2048:	41035313          	srai	t1,t1,0x10
    204c:	e51ff06f          	j	1e9c <.L369>

00002050 <.L367>:
    2050:	ee600e13          	li	t3,-282
    2054:	03c4d663          	bge	s1,t3,2080 <.L371>
    2058:	ffc00e13          	li	t3,-4
    205c:	01c8da63          	bge	a7,t3,2070 <.L372>
    2060:	00230313          	addi	t1,t1,2
    2064:	01031313          	slli	t1,t1,0x10
    2068:	41035313          	srai	t1,t1,0x10
    206c:	e31ff06f          	j	1e9c <.L369>

00002070 <.L372>:
    2070:	ff730313          	addi	t1,t1,-9
    2074:	01031313          	slli	t1,t1,0x10
    2078:	41035313          	srai	t1,t1,0x10
    207c:	e21ff06f          	j	1e9c <.L369>

00002080 <.L371>:
    2080:	03600e13          	li	t3,54
    2084:	00de4a63          	blt	t3,a3,2098 <.L373>
    2088:	ff730313          	addi	t1,t1,-9
    208c:	01031313          	slli	t1,t1,0x10
    2090:	41035313          	srai	t1,t1,0x10
    2094:	e09ff06f          	j	1e9c <.L369>

00002098 <.L373>:
    2098:	00330313          	addi	t1,t1,3
    209c:	01031313          	slli	t1,t1,0x10
    20a0:	41035313          	srai	t1,t1,0x10
    20a4:	df9ff06f          	j	1e9c <.L369>

000020a8 <.L1617>:
    20a8:	18f00f93          	li	t6,399
    20ac:	02bfc863          	blt	t6,a1,20dc <.L375>
    20b0:	01051283          	lh	t0,16(a0)
    20b4:	1aa00f93          	li	t6,426
    20b8:	005fca63          	blt	t6,t0,20cc <.L376>
    20bc:	007f0f13          	addi	t5,t5,7
    20c0:	010f1f13          	slli	t5,t5,0x10
    20c4:	410f5f13          	srai	t5,t5,0x10
    20c8:	df9ff06f          	j	1ec0 <.L377>

000020cc <.L376>:
    20cc:	013f0f13          	addi	t5,t5,19
    20d0:	010f1f13          	slli	t5,t5,0x10
    20d4:	410f5f13          	srai	t5,t5,0x10
    20d8:	de9ff06f          	j	1ec0 <.L377>

000020dc <.L375>:
    20dc:	0dd00f93          	li	t6,221
    20e0:	051fc863          	blt	t6,a7,2130 <.L378>
    20e4:	007f0f13          	addi	t5,t5,7
    20e8:	010f1f13          	slli	t5,t5,0x10
    20ec:	410f5f13          	srai	t5,t5,0x10

000020f0 <.L379>:
    20f0:	02051283          	lh	t0,32(a0)
    20f4:	00400f93          	li	t6,4
    20f8:	1a5fc663          	blt	t6,t0,22a4 <.L384>
    20fc:	12e00f93          	li	t6,302
    2100:	06cfce63          	blt	t6,a2,217c <.L385>
    2104:	ffe78793          	addi	a5,a5,-2
    2108:	01079793          	slli	a5,a5,0x10
    210c:	4107d793          	srai	a5,a5,0x10
    2110:	17000f93          	li	t6,368
    2114:	06bfde63          	bge	t6,a1,2190 <.L386>

00002118 <.L387>:
    2118:	ea700f93          	li	t6,-345
    211c:	23f4dc63          	bge	s1,t6,2354 <.L398>
    2120:	00a70713          	addi	a4,a4,10
    2124:	01071713          	slli	a4,a4,0x10
    2128:	41075713          	srai	a4,a4,0x10
    212c:	0800006f          	j	21ac <.L395>

00002130 <.L378>:
    2130:	ff8f0f13          	addi	t5,t5,-8
    2134:	010f1f13          	slli	t5,t5,0x10
    2138:	410f5f13          	srai	t5,t5,0x10
    213c:	d85ff06f          	j	1ec0 <.L377>

00002140 <.L1618>:
    2140:	02a51283          	lh	t0,42(a0)
    2144:	01600f93          	li	t6,22
    2148:	005fca63          	blt	t6,t0,215c <.L381>
    214c:	00bf0f13          	addi	t5,t5,11
    2150:	010f1f13          	slli	t5,t5,0x10
    2154:	410f5f13          	srai	t5,t5,0x10
    2158:	d69ff06f          	j	1ec0 <.L377>

0000215c <.L381>:
    215c:	ffff0f13          	addi	t5,t5,-1
    2160:	010f1f13          	slli	t5,t5,0x10
    2164:	410f5f13          	srai	t5,t5,0x10
    2168:	d59ff06f          	j	1ec0 <.L377>

0000216c <.L382>:
    216c:	ff7f0f13          	addi	t5,t5,-9
    2170:	010f1f13          	slli	t5,t5,0x10
    2174:	410f5f13          	srai	t5,t5,0x10
    2178:	d49ff06f          	j	1ec0 <.L377>

0000217c <.L385>:
    217c:	00678793          	addi	a5,a5,6
    2180:	01079793          	slli	a5,a5,0x10
    2184:	4107d793          	srai	a5,a5,0x10

00002188 <.L388>:
    2188:	17000f93          	li	t6,368
    218c:	1abfc463          	blt	t6,a1,2334 <.L392>

00002190 <.L386>:
    2190:	f5200f93          	li	t6,-174
    2194:	17f85c63          	bge	a6,t6,230c <.L393>
    2198:	03200f93          	li	t6,50
    219c:	16dfc063          	blt	t6,a3,22fc <.L394>
    21a0:	00270713          	addi	a4,a4,2
    21a4:	01071713          	slli	a4,a4,0x10
    21a8:	41075713          	srai	a4,a4,0x10

000021ac <.L395>:
    21ac:	e0800f93          	li	t6,-504
    21b0:	1ff3de63          	bge	t2,t6,23ac <.L400>
    21b4:	01251283          	lh	t0,18(a0)
    21b8:	25500f93          	li	t6,597
    21bc:	1c5fc463          	blt	t6,t0,2384 <.L401>
    21c0:	01451283          	lh	t0,20(a0)
    21c4:	de700f93          	li	t6,-537
    21c8:	1bf2d663          	bge	t0,t6,2374 <.L402>
    21cc:	ff830313          	addi	t1,t1,-8
    21d0:	01031313          	slli	t1,t1,0x10
    21d4:	41035313          	srai	t1,t1,0x10

000021d8 <.L403>:
    21d8:	0a900f93          	li	t6,169
    21dc:	25dfc663          	blt	t6,t4,2428 <.L407>
    21e0:	01a00f93          	li	t6,26
    21e4:	21cfcc63          	blt	t6,t3,23fc <.L408>
    21e8:	00c51283          	lh	t0,12(a0)
    21ec:	11800f93          	li	t6,280
    21f0:	005fc863          	blt	t6,t0,2200 <.L409>
    21f4:	009f0f13          	addi	t5,t5,9
    21f8:	010f1f13          	slli	t5,t5,0x10
    21fc:	410f5f13          	srai	t5,t5,0x10

00002200 <.L409>:
    2200:	03900f93          	li	t6,57
    2204:	2acfc863          	blt	t6,a2,24b4 <.L413>
    2208:	02a51283          	lh	t0,42(a0)
    220c:	00900f93          	li	t6,9
    2210:	265fcc63          	blt	t6,t0,2488 <.L414>
    2214:	fff00f93          	li	t6,-1
    2218:	27f64063          	blt	a2,t6,2478 <.L1620>
    221c:	00678793          	addi	a5,a5,6
    2220:	01079293          	slli	t0,a5,0x10
    2224:	4102d293          	srai	t0,t0,0x10

00002228 <.L416>:
    2228:	08900f93          	li	t6,137
    222c:	2ebfc663          	blt	t6,a1,2518 <.L422>
    2230:	03700793          	li	a5,55
    2234:	30d7ca63          	blt	a5,a3,2548 <.L421>
    2238:	02a51f83          	lh	t6,42(a0)
    223c:	00900793          	li	a5,9
    2240:	2ff7cc63          	blt	a5,t6,2538 <.L423>
    2244:	ff770713          	addi	a4,a4,-9
    2248:	01071713          	slli	a4,a4,0x10
    224c:	01075713          	srli	a4,a4,0x10

00002250 <.L424>:
    2250:	01071713          	slli	a4,a4,0x10
    2254:	41075713          	srai	a4,a4,0x10

00002258 <.L1552>:
    2258:	00e51f83          	lh	t6,14(a0)
    225c:	03000793          	li	a5,48
    2260:	39f7cc63          	blt	a5,t6,25f8 <.L431>
    2264:	02451783          	lh	a5,36(a0)
    2268:	3607c663          	bltz	a5,25d4 <.L1621>
    226c:	00930313          	addi	t1,t1,9
    2270:	01031313          	slli	t1,t1,0x10
    2274:	41035313          	srai	t1,t1,0x10

00002278 <.L435>:
    2278:	0a900f93          	li	t6,169
    227c:	3ddfc863          	blt	t6,t4,264c <.L440>

00002280 <.L433>:
    2280:	01a00793          	li	a5,26
    2284:	43c7cc63          	blt	a5,t3,26bc <.L439>
    2288:	00c51f83          	lh	t6,12(a0)
    228c:	11800793          	li	a5,280
    2290:	3df7ca63          	blt	a5,t6,2664 <.L441>
    2294:	008f0f13          	addi	t5,t5,8
    2298:	010f1f13          	slli	t5,t5,0x10
    229c:	410f5f13          	srai	t5,t5,0x10
    22a0:	3c40006f          	j	2664 <.L441>

000022a4 <.L384>:
    22a4:	02651283          	lh	t0,38(a0)
    22a8:	46700f93          	li	t6,1127
    22ac:	005fca63          	blt	t6,t0,22c0 <.L389>
    22b0:	ff878793          	addi	a5,a5,-8
    22b4:	01079793          	slli	a5,a5,0x10
    22b8:	4107d793          	srai	a5,a5,0x10
    22bc:	ecdff06f          	j	2188 <.L388>

000022c0 <.L389>:
    22c0:	00378793          	addi	a5,a5,3
    22c4:	01079793          	slli	a5,a5,0x10
    22c8:	4107d793          	srai	a5,a5,0x10
    22cc:	ebdff06f          	j	2188 <.L388>

000022d0 <.L391>:
    22d0:	00678793          	addi	a5,a5,6
    22d4:	01079793          	slli	a5,a5,0x10
    22d8:	4107d793          	srai	a5,a5,0x10
    22dc:	eadff06f          	j	2188 <.L388>

000022e0 <.L390>:
    22e0:	01251283          	lh	t0,18(a0)
    22e4:	18000f93          	li	t6,384
    22e8:	ea5fd0e3          	bge	t6,t0,2188 <.L388>
    22ec:	00778793          	addi	a5,a5,7
    22f0:	01079793          	slli	a5,a5,0x10
    22f4:	4107d793          	srai	a5,a5,0x10
    22f8:	e91ff06f          	j	2188 <.L388>

000022fc <.L394>:
    22fc:	ffa70713          	addi	a4,a4,-6
    2300:	01071713          	slli	a4,a4,0x10
    2304:	41075713          	srai	a4,a4,0x10
    2308:	ea5ff06f          	j	21ac <.L395>

0000230c <.L393>:
    230c:	efc00f93          	li	t6,-260
    2310:	01f45a63          	bge	s0,t6,2324 <.L396>
    2314:	00970713          	addi	a4,a4,9
    2318:	01071713          	slli	a4,a4,0x10
    231c:	41075713          	srai	a4,a4,0x10
    2320:	e8dff06f          	j	21ac <.L395>

00002324 <.L396>:
    2324:	ffa70713          	addi	a4,a4,-6
    2328:	01071713          	slli	a4,a4,0x10
    232c:	41075713          	srai	a4,a4,0x10
    2330:	e7dff06f          	j	21ac <.L395>

00002334 <.L392>:
    2334:	3fa00f93          	li	t6,1018
    2338:	decfd0e3          	bge	t6,a2,2118 <.L387>
    233c:	ddb00f93          	li	t6,-549
    2340:	03f45263          	bge	s0,t6,2364 <.L399>
    2344:	00570713          	addi	a4,a4,5
    2348:	01071713          	slli	a4,a4,0x10
    234c:	41075713          	srai	a4,a4,0x10
    2350:	e5dff06f          	j	21ac <.L395>

00002354 <.L398>:
    2354:	ffd70713          	addi	a4,a4,-3
    2358:	01071713          	slli	a4,a4,0x10
    235c:	41075713          	srai	a4,a4,0x10
    2360:	e4dff06f          	j	21ac <.L395>

00002364 <.L399>:
    2364:	ff670713          	addi	a4,a4,-10
    2368:	01071713          	slli	a4,a4,0x10
    236c:	41075713          	srai	a4,a4,0x10
    2370:	e3dff06f          	j	21ac <.L395>

00002374 <.L402>:
    2374:	00a30313          	addi	t1,t1,10
    2378:	01031313          	slli	t1,t1,0x10
    237c:	41035313          	srai	t1,t1,0x10
    2380:	e59ff06f          	j	21d8 <.L403>

00002384 <.L401>:
    2384:	c2600f93          	li	t6,-986
    2388:	01f85a63          	bge	a6,t6,239c <.L404>
    238c:	00630313          	addi	t1,t1,6
    2390:	01031313          	slli	t1,t1,0x10
    2394:	41035313          	srai	t1,t1,0x10
    2398:	e41ff06f          	j	21d8 <.L403>

0000239c <.L404>:
    239c:	ff730313          	addi	t1,t1,-9
    23a0:	01031313          	slli	t1,t1,0x10
    23a4:	41035313          	srai	t1,t1,0x10
    23a8:	e31ff06f          	j	21d8 <.L403>

000023ac <.L400>:
    23ac:	00c51283          	lh	t0,12(a0)
    23b0:	0de00f93          	li	t6,222
    23b4:	005fce63          	blt	t6,t0,23d0 <.L405>
    23b8:	02600f93          	li	t6,38
    23bc:	e0bfdee3          	bge	t6,a1,21d8 <.L403>
    23c0:	ff830313          	addi	t1,t1,-8
    23c4:	01031313          	slli	t1,t1,0x10
    23c8:	41035313          	srai	t1,t1,0x10
    23cc:	e0dff06f          	j	21d8 <.L403>

000023d0 <.L405>:
    23d0:	01451283          	lh	t0,20(a0)
    23d4:	ea900f93          	li	t6,-343
    23d8:	01f2da63          	bge	t0,t6,23ec <.L406>
    23dc:	ffa30313          	addi	t1,t1,-6
    23e0:	01031313          	slli	t1,t1,0x10
    23e4:	41035313          	srai	t1,t1,0x10
    23e8:	df1ff06f          	j	21d8 <.L403>

000023ec <.L406>:
    23ec:	00930313          	addi	t1,t1,9
    23f0:	01031313          	slli	t1,t1,0x10
    23f4:	41035313          	srai	t1,t1,0x10
    23f8:	de1ff06f          	j	21d8 <.L403>

000023fc <.L408>:
    23fc:	02051283          	lh	t0,32(a0)
    2400:	00400f93          	li	t6,4
    2404:	005fca63          	blt	t6,t0,2418 <.L410>
    2408:	ff7f0f13          	addi	t5,t5,-9
    240c:	010f1f13          	slli	t5,t5,0x10
    2410:	410f5f13          	srai	t5,t5,0x10
    2414:	dedff06f          	j	2200 <.L409>

00002418 <.L410>:
    2418:	004f0f13          	addi	t5,t5,4
    241c:	010f1f13          	slli	t5,t5,0x10
    2420:	410f5f13          	srai	t5,t5,0x10
    2424:	dddff06f          	j	2200 <.L409>

00002428 <.L407>:
    2428:	02651283          	lh	t0,38(a0)
    242c:	10700f93          	li	t6,263
    2430:	025fc063          	blt	t6,t0,2450 <.L411>
    2434:	02451283          	lh	t0,36(a0)
    2438:	00b00f93          	li	t6,11
    243c:	dc5fd2e3          	bge	t6,t0,2200 <.L409>
    2440:	ff9f0f13          	addi	t5,t5,-7
    2444:	010f1f13          	slli	t5,t5,0x10
    2448:	410f5f13          	srai	t5,t5,0x10
    244c:	db5ff06f          	j	2200 <.L409>

00002450 <.L411>:
    2450:	e4300f93          	li	t6,-445
    2454:	01f3da63          	bge	t2,t6,2468 <.L412>
    2458:	ff6f0f13          	addi	t5,t5,-10
    245c:	010f1f13          	slli	t5,t5,0x10
    2460:	410f5f13          	srai	t5,t5,0x10
    2464:	d9dff06f          	j	2200 <.L409>

00002468 <.L412>:
    2468:	004f0f13          	addi	t5,t5,4
    246c:	010f1f13          	slli	t5,t5,0x10
    2470:	410f5f13          	srai	t5,t5,0x10
    2474:	d8dff06f          	j	2200 <.L409>

00002478 <.L1620>:
    2478:	ff778293          	addi	t0,a5,-9
    247c:	01029293          	slli	t0,t0,0x10
    2480:	4102d293          	srai	t0,t0,0x10
    2484:	da5ff06f          	j	2228 <.L416>

00002488 <.L414>:
    2488:	02651283          	lh	t0,38(a0)
    248c:	1ab00f93          	li	t6,427
    2490:	005fca63          	blt	t6,t0,24a4 <.L417>
    2494:	ff778793          	addi	a5,a5,-9
    2498:	01079293          	slli	t0,a5,0x10
    249c:	4102d293          	srai	t0,t0,0x10
    24a0:	d89ff06f          	j	2228 <.L416>

000024a4 <.L417>:
    24a4:	fff78793          	addi	a5,a5,-1
    24a8:	01079293          	slli	t0,a5,0x10
    24ac:	4102d293          	srai	t0,t0,0x10
    24b0:	d79ff06f          	j	2228 <.L416>

000024b4 <.L413>:
    24b4:	01851283          	lh	t0,24(a0)
    24b8:	ff900f93          	li	t6,-7
    24bc:	03f2d863          	bge	t0,t6,24ec <.L418>
    24c0:	01051283          	lh	t0,16(a0)
    24c4:	1d700f93          	li	t6,471
    24c8:	005fca63          	blt	t6,t0,24dc <.L419>
    24cc:	ff978793          	addi	a5,a5,-7
    24d0:	01079293          	slli	t0,a5,0x10
    24d4:	4102d293          	srai	t0,t0,0x10
    24d8:	d51ff06f          	j	2228 <.L416>

000024dc <.L419>:
    24dc:	00478793          	addi	a5,a5,4
    24e0:	01079293          	slli	t0,a5,0x10
    24e4:	4102d293          	srai	t0,t0,0x10
    24e8:	d41ff06f          	j	2228 <.L416>

000024ec <.L418>:
    24ec:	03c00f93          	li	t6,60
    24f0:	00dfca63          	blt	t6,a3,2504 <.L420>
    24f4:	00978793          	addi	a5,a5,9
    24f8:	01079293          	slli	t0,a5,0x10
    24fc:	4102d293          	srai	t0,t0,0x10
    2500:	d29ff06f          	j	2228 <.L416>

00002504 <.L420>:
    2504:	ffb78793          	addi	a5,a5,-5
    2508:	01079293          	slli	t0,a5,0x10
    250c:	4102d293          	srai	t0,t0,0x10
    2510:	08900793          	li	a5,137
    2514:	02b7da63          	bge	a5,a1,2548 <.L421>

00002518 <.L422>:
    2518:	e9b00793          	li	a5,-357
    251c:	08f4d663          	bge	s1,a5,25a8 <.L427>
    2520:	27200793          	li	a5,626
    2524:	06c7ca63          	blt	a5,a2,2598 <.L428>
    2528:	00870713          	addi	a4,a4,8
    252c:	01071713          	slli	a4,a4,0x10
    2530:	41075713          	srai	a4,a4,0x10
    2534:	0280006f          	j	255c <.L426>

00002538 <.L423>:
    2538:	00270713          	addi	a4,a4,2
    253c:	01071713          	slli	a4,a4,0x10
    2540:	01075713          	srli	a4,a4,0x10
    2544:	d0dff06f          	j	2250 <.L424>

00002548 <.L421>:
    2548:	23000793          	li	a5,560
    254c:	03d7ce63          	blt	a5,t4,2588 <.L425>
    2550:	ff870713          	addi	a4,a4,-8
    2554:	01071713          	slli	a4,a4,0x10
    2558:	41075713          	srai	a4,a4,0x10

0000255c <.L426>:
    255c:	03a00f93          	li	t6,58
    2560:	cedfdce3          	bge	t6,a3,2258 <.L1552>
    2564:	01451f83          	lh	t6,20(a0)
    2568:	e4a00793          	li	a5,-438
    256c:	0affda63          	bge	t6,a5,2620 <.L437>
    2570:	de700793          	li	a5,-537
    2574:	d0f842e3          	blt	a6,a5,2278 <.L435>
    2578:	ff730313          	addi	t1,t1,-9
    257c:	01031313          	slli	t1,t1,0x10
    2580:	41035313          	srai	t1,t1,0x10
    2584:	cf5ff06f          	j	2278 <.L435>

00002588 <.L425>:
    2588:	00370713          	addi	a4,a4,3
    258c:	01071713          	slli	a4,a4,0x10
    2590:	41075713          	srai	a4,a4,0x10
    2594:	fc9ff06f          	j	255c <.L426>

00002598 <.L428>:
    2598:	fff70713          	addi	a4,a4,-1
    259c:	01071713          	slli	a4,a4,0x10
    25a0:	41075713          	srai	a4,a4,0x10
    25a4:	fb9ff06f          	j	255c <.L426>

000025a8 <.L427>:
    25a8:	02851f83          	lh	t6,40(a0)
    25ac:	01000793          	li	a5,16
    25b0:	01f7ca63          	blt	a5,t6,25c4 <.L429>
    25b4:	00770713          	addi	a4,a4,7
    25b8:	01071713          	slli	a4,a4,0x10
    25bc:	41075713          	srai	a4,a4,0x10
    25c0:	f9dff06f          	j	255c <.L426>

000025c4 <.L429>:
    25c4:	ff970713          	addi	a4,a4,-7
    25c8:	01071713          	slli	a4,a4,0x10
    25cc:	41075713          	srai	a4,a4,0x10
    25d0:	f8dff06f          	j	255c <.L426>

000025d4 <.L1621>:
    25d4:	ff930313          	addi	t1,t1,-7
    25d8:	01031313          	slli	t1,t1,0x10
    25dc:	41035313          	srai	t1,t1,0x10
    25e0:	0a900793          	li	a5,169
    25e4:	c9d7dee3          	bge	a5,t4,2280 <.L433>

000025e8 <.L434>:
    25e8:	ffff0f13          	addi	t5,t5,-1
    25ec:	010f1f13          	slli	t5,t5,0x10
    25f0:	410f5f13          	srai	t5,t5,0x10
    25f4:	0700006f          	j	2664 <.L441>

000025f8 <.L431>:
    25f8:	faf00793          	li	a5,-81
    25fc:	00f45a63          	bge	s0,a5,2610 <.L436>
    2600:	ff630313          	addi	t1,t1,-10
    2604:	01031313          	slli	t1,t1,0x10
    2608:	41035313          	srai	t1,t1,0x10
    260c:	c6dff06f          	j	2278 <.L435>

00002610 <.L436>:
    2610:	00930313          	addi	t1,t1,9
    2614:	01031313          	slli	t1,t1,0x10
    2618:	41035313          	srai	t1,t1,0x10
    261c:	c5dff06f          	j	2278 <.L435>

00002620 <.L437>:
    2620:	01f00793          	li	a5,31
    2624:	01c7ca63          	blt	a5,t3,2638 <.L438>
    2628:	00130313          	addi	t1,t1,1
    262c:	01031313          	slli	t1,t1,0x10
    2630:	41035313          	srai	t1,t1,0x10
    2634:	c45ff06f          	j	2278 <.L435>

00002638 <.L438>:
    2638:	00930313          	addi	t1,t1,9
    263c:	01031313          	slli	t1,t1,0x10
    2640:	41035313          	srai	t1,t1,0x10
    2644:	0a900793          	li	a5,169
    2648:	07d7da63          	bge	a5,t4,26bc <.L439>

0000264c <.L440>:
    264c:	02451f83          	lh	t6,36(a0)
    2650:	01e00793          	li	a5,30
    2654:	09f7da63          	bge	a5,t6,26e8 <.L1622>
    2658:	ff7f0f13          	addi	t5,t5,-9
    265c:	010f1f13          	slli	t5,t5,0x10
    2660:	410f5f13          	srai	t5,t5,0x10

00002664 <.L441>:
    2664:	0b500f93          	li	t6,181
    2668:	0d1fc863          	blt	t6,a7,2738 <.L445>
    266c:	02a51f83          	lh	t6,42(a0)
    2670:	00b00793          	li	a5,11
    2674:	09f7ce63          	blt	a5,t6,2710 <.L446>
    2678:	f8700793          	li	a5,-121
    267c:	08f3d263          	bge	t2,a5,2700 <.L447>
    2680:	00628293          	addi	t0,t0,6
    2684:	01029293          	slli	t0,t0,0x10
    2688:	4102d293          	srai	t0,t0,0x10

0000268c <.L448>:
    268c:	27a00f93          	li	t6,634
    2690:	14bfc263          	blt	t6,a1,27d4 <.L453>
    2694:	02851f83          	lh	t6,40(a0)
    2698:	02200793          	li	a5,34
    269c:	11f7c863          	blt	a5,t6,27ac <.L454>
    26a0:	01851f83          	lh	t6,24(a0)
    26a4:	ff400793          	li	a5,-12
    26a8:	0effda63          	bge	t6,a5,279c <.L455>
    26ac:	00770713          	addi	a4,a4,7
    26b0:	01071713          	slli	a4,a4,0x10
    26b4:	41075713          	srai	a4,a4,0x10
    26b8:	1480006f          	j	2800 <.L456>

000026bc <.L439>:
    26bc:	01851f83          	lh	t6,24(a0)
    26c0:	ff500793          	li	a5,-11
    26c4:	00ffda63          	bge	t6,a5,26d8 <.L442>
    26c8:	009f0f13          	addi	t5,t5,9
    26cc:	010f1f13          	slli	t5,t5,0x10
    26d0:	410f5f13          	srai	t5,t5,0x10
    26d4:	f91ff06f          	j	2664 <.L441>

000026d8 <.L442>:
    26d8:	ffbf0f13          	addi	t5,t5,-5
    26dc:	010f1f13          	slli	t5,t5,0x10
    26e0:	410f5f13          	srai	t5,t5,0x10
    26e4:	f81ff06f          	j	2664 <.L441>

000026e8 <.L1622>:
    26e8:	03c00793          	li	a5,60
    26ec:	eed7dee3          	bge	a5,a3,25e8 <.L434>
    26f0:	006f0f13          	addi	t5,t5,6
    26f4:	010f1f13          	slli	t5,t5,0x10
    26f8:	410f5f13          	srai	t5,t5,0x10
    26fc:	f69ff06f          	j	2664 <.L441>

00002700 <.L447>:
    2700:	ff928293          	addi	t0,t0,-7
    2704:	01029293          	slli	t0,t0,0x10
    2708:	4102d293          	srai	t0,t0,0x10
    270c:	f81ff06f          	j	268c <.L448>

00002710 <.L446>:
    2710:	ecc00793          	li	a5,-308
    2714:	00f45a63          	bge	s0,a5,2728 <.L449>
    2718:	ffd28293          	addi	t0,t0,-3
    271c:	01029293          	slli	t0,t0,0x10
    2720:	4102d293          	srai	t0,t0,0x10
    2724:	f69ff06f          	j	268c <.L448>

00002728 <.L449>:
    2728:	ff628293          	addi	t0,t0,-10
    272c:	01029293          	slli	t0,t0,0x10
    2730:	4102d293          	srai	t0,t0,0x10
    2734:	f59ff06f          	j	268c <.L448>

00002738 <.L445>:
    2738:	02051f83          	lh	t6,32(a0)
    273c:	00400793          	li	a5,4
    2740:	03f7c863          	blt	a5,t6,2770 <.L450>
    2744:	01051f83          	lh	t6,16(a0)
    2748:	0bb00793          	li	a5,187
    274c:	01f7ca63          	blt	a5,t6,2760 <.L451>
    2750:	ff728293          	addi	t0,t0,-9
    2754:	01029293          	slli	t0,t0,0x10
    2758:	4102d293          	srai	t0,t0,0x10
    275c:	f31ff06f          	j	268c <.L448>

00002760 <.L451>:
    2760:	00828293          	addi	t0,t0,8
    2764:	01029293          	slli	t0,t0,0x10
    2768:	4102d293          	srai	t0,t0,0x10
    276c:	f21ff06f          	j	268c <.L448>

00002770 <.L450>:
    2770:	01051f83          	lh	t6,16(a0)
    2774:	1dc00793          	li	a5,476
    2778:	01f7ca63          	blt	a5,t6,278c <.L452>
    277c:	ffa28293          	addi	t0,t0,-6
    2780:	01029293          	slli	t0,t0,0x10
    2784:	4102d293          	srai	t0,t0,0x10
    2788:	f05ff06f          	j	268c <.L448>

0000278c <.L452>:
    278c:	00328293          	addi	t0,t0,3
    2790:	01029293          	slli	t0,t0,0x10
    2794:	4102d293          	srai	t0,t0,0x10
    2798:	ef5ff06f          	j	268c <.L448>

0000279c <.L455>:
    279c:	ffe70713          	addi	a4,a4,-2
    27a0:	01071713          	slli	a4,a4,0x10
    27a4:	41075713          	srai	a4,a4,0x10
    27a8:	0580006f          	j	2800 <.L456>

000027ac <.L454>:
    27ac:	fda00793          	li	a5,-38
    27b0:	00f65a63          	bge	a2,a5,27c4 <.L457>
    27b4:	00470713          	addi	a4,a4,4
    27b8:	01071713          	slli	a4,a4,0x10
    27bc:	41075713          	srai	a4,a4,0x10
    27c0:	0400006f          	j	2800 <.L456>

000027c4 <.L457>:
    27c4:	ff770713          	addi	a4,a4,-9
    27c8:	01071713          	slli	a4,a4,0x10
    27cc:	41075713          	srai	a4,a4,0x10
    27d0:	0300006f          	j	2800 <.L456>

000027d4 <.L453>:
    27d4:	ed100793          	li	a5,-303
    27d8:	00f4de63          	bge	s1,a5,27f4 <.L458>
    27dc:	3fa00793          	li	a5,1018
    27e0:	02c7c063          	blt	a5,a2,2800 <.L456>
    27e4:	00a70713          	addi	a4,a4,10
    27e8:	01071713          	slli	a4,a4,0x10
    27ec:	41075713          	srai	a4,a4,0x10
    27f0:	0100006f          	j	2800 <.L456>

000027f4 <.L458>:
    27f4:	ff870713          	addi	a4,a4,-8
    27f8:	01071713          	slli	a4,a4,0x10
    27fc:	41075713          	srai	a4,a4,0x10

00002800 <.L456>:
    2800:	d8200f93          	li	t6,-638
    2804:	0ff85263          	bge	a6,t6,28e8 <.L459>
    2808:	01251f83          	lh	t6,18(a0)
    280c:	25500793          	li	a5,597
    2810:	0bf7c863          	blt	a5,t6,28c0 <.L460>
    2814:	02651f83          	lh	t6,38(a0)
    2818:	47700793          	li	a5,1143
    281c:	09f7ca63          	blt	a5,t6,28b0 <.L461>
    2820:	00a30313          	addi	t1,t1,10
    2824:	01031913          	slli	s2,t1,0x10
    2828:	41095913          	srai	s2,s2,0x10

0000282c <.L462>:
    282c:	140e4263          	bltz	t3,2970 <.L1551>
    2830:	00c51303          	lh	t1,12(a0)
    2834:	00a00793          	li	a5,10
    2838:	1067c463          	blt	a5,t1,2940 <.L474>
    283c:	02851303          	lh	t1,40(a0)
    2840:	02e00793          	li	a5,46
    2844:	1e67c063          	blt	a5,t1,2a24 <.L475>
    2848:	006f0f13          	addi	t5,t5,6
    284c:	010f1f13          	slli	t5,t5,0x10
    2850:	410f5f13          	srai	t5,t5,0x10

00002854 <.L473>:
    2854:	07200f93          	li	t6,114
    2858:	00cfd463          	bge	t6,a2,2860 <.L1548>
    285c:	0bd0506f          	j	8118 <.L477>

00002860 <.L1548>:
    2860:	01851303          	lh	t1,24(a0)
    2864:	ffa00793          	li	a5,-6
    2868:	1cf34663          	blt	t1,a5,2a34 <.L1550>
    286c:	ed100793          	li	a5,-303
    2870:	1ef4d263          	bge	s1,a5,2a54 <.L480>
    2874:	00a28293          	addi	t0,t0,10
    2878:	01029293          	slli	t0,t0,0x10
    287c:	0102d293          	srli	t0,t0,0x10

00002880 <.L481>:
    2880:	01029293          	slli	t0,t0,0x10
    2884:	4102d293          	srai	t0,t0,0x10

00002888 <.L486>:
    2888:	01c51f83          	lh	t6,28(a0)
    288c:	03c00793          	li	a5,60
    2890:	23f7ce63          	blt	a5,t6,2acc <.L491>
    2894:	00e51f83          	lh	t6,14(a0)
    2898:	03600793          	li	a5,54
    289c:	23f7c063          	blt	a5,t6,2abc <.L492>
    28a0:	ffe70793          	addi	a5,a4,-2
    28a4:	01079793          	slli	a5,a5,0x10
    28a8:	4107d793          	srai	a5,a5,0x10
    28ac:	22c0006f          	j	2ad8 <.L489>

000028b0 <.L461>:
    28b0:	ffa30313          	addi	t1,t1,-6
    28b4:	01031913          	slli	s2,t1,0x10
    28b8:	41095913          	srai	s2,s2,0x10
    28bc:	f71ff06f          	j	282c <.L462>

000028c0 <.L460>:
    28c0:	c2600793          	li	a5,-986
    28c4:	00f85a63          	bge	a6,a5,28d8 <.L463>
    28c8:	00430313          	addi	t1,t1,4
    28cc:	01031913          	slli	s2,t1,0x10
    28d0:	41095913          	srai	s2,s2,0x10
    28d4:	f59ff06f          	j	282c <.L462>

000028d8 <.L463>:
    28d8:	ff730313          	addi	t1,t1,-9
    28dc:	01031913          	slli	s2,t1,0x10
    28e0:	41095913          	srai	s2,s2,0x10
    28e4:	f49ff06f          	j	282c <.L462>

000028e8 <.L459>:
    28e8:	00c51f83          	lh	t6,12(a0)
    28ec:	0de00793          	li	a5,222
    28f0:	03f7c663          	blt	a5,t6,291c <.L464>
    28f4:	03e00793          	li	a5,62
    28f8:	00d7ca63          	blt	a5,a3,290c <.L465>
    28fc:	ffb30313          	addi	t1,t1,-5
    2900:	01031913          	slli	s2,t1,0x10
    2904:	41095913          	srai	s2,s2,0x10
    2908:	f25ff06f          	j	282c <.L462>

0000290c <.L465>:
    290c:	00830313          	addi	t1,t1,8
    2910:	01031913          	slli	s2,t1,0x10
    2914:	41095913          	srai	s2,s2,0x10
    2918:	f15ff06f          	j	282c <.L462>

0000291c <.L464>:
    291c:	01451f83          	lh	t6,20(a0)
    2920:	ea900793          	li	a5,-343
    2924:	02ffde63          	bge	t6,a5,2960 <.L466>
    2928:	ffb30313          	addi	t1,t1,-5
    292c:	01031313          	slli	t1,t1,0x10
    2930:	01035313          	srli	t1,t1,0x10

00002934 <.L467>:
    2934:	01031913          	slli	s2,t1,0x10
    2938:	41095913          	srai	s2,s2,0x10
    293c:	020e4a63          	bltz	t3,2970 <.L1551>

00002940 <.L474>:
    2940:	01851303          	lh	t1,24(a0)
    2944:	ff700793          	li	a5,-9
    2948:	00f35463          	bge	t1,a5,2950 <.L474+0x10>
    294c:	7c00506f          	j	810c <.L476>
    2950:	ffbf0f13          	addi	t5,t5,-5
    2954:	010f1f13          	slli	t5,t5,0x10
    2958:	410f5f13          	srai	t5,t5,0x10
    295c:	ef9ff06f          	j	2854 <.L473>

00002960 <.L466>:
    2960:	00830313          	addi	t1,t1,8
    2964:	01031313          	slli	t1,t1,0x10
    2968:	01035313          	srli	t1,t1,0x10
    296c:	fc9ff06f          	j	2934 <.L467>

00002970 <.L1551>:
    2970:	0cd00793          	li	a5,205
    2974:	08b7c463          	blt	a5,a1,29fc <.L469>
    2978:	01051303          	lh	t1,16(a0)
    297c:	1aa00793          	li	a5,426
    2980:	0667c663          	blt	a5,t1,29ec <.L470>
    2984:	006f0f13          	addi	t5,t5,6
    2988:	010f1f13          	slli	t5,t5,0x10
    298c:	010f5f13          	srli	t5,t5,0x10

00002990 <.L471>:
    2990:	010f1f13          	slli	t5,t5,0x10
    2994:	410f5f13          	srai	t5,t5,0x10
    2998:	07200793          	li	a5,114
    299c:	ecc7d2e3          	bge	a5,a2,2860 <.L1548>

000029a0 <.L1549>:
    29a0:	00e51303          	lh	t1,14(a0)
    29a4:	03300793          	li	a5,51
    29a8:	0a67ce63          	blt	a5,t1,2a64 <.L483>
    29ac:	ffa28293          	addi	t0,t0,-6
    29b0:	01029293          	slli	t0,t0,0x10
    29b4:	4102d293          	srai	t0,t0,0x10

000029b8 <.L484>:
    29b8:	01851303          	lh	t1,24(a0)
    29bc:	ffa00793          	li	a5,-6
    29c0:	ecf354e3          	bge	t1,a5,2888 <.L486>

000029c4 <.L1547>:
    29c4:	02851f83          	lh	t6,40(a0)
    29c8:	01000793          	li	a5,16
    29cc:	0df7c463          	blt	a5,t6,2a94 <.L487>
    29d0:	02a51f83          	lh	t6,42(a0)
    29d4:	00c00793          	li	a5,12
    29d8:	0bf7c663          	blt	a5,t6,2a84 <.L488>
    29dc:	00170793          	addi	a5,a4,1
    29e0:	01079793          	slli	a5,a5,0x10
    29e4:	4107d793          	srai	a5,a5,0x10
    29e8:	0f00006f          	j	2ad8 <.L489>

000029ec <.L470>:
    29ec:	014f0f13          	addi	t5,t5,20
    29f0:	010f1f13          	slli	t5,t5,0x10
    29f4:	010f5f13          	srli	t5,t5,0x10
    29f8:	f99ff06f          	j	2990 <.L471>

000029fc <.L469>:
    29fc:	0dd00793          	li	a5,221
    2a00:	0117ca63          	blt	a5,a7,2a14 <.L472>
    2a04:	007f0f13          	addi	t5,t5,7
    2a08:	010f1f13          	slli	t5,t5,0x10
    2a0c:	410f5f13          	srai	t5,t5,0x10
    2a10:	e45ff06f          	j	2854 <.L473>

00002a14 <.L472>:
    2a14:	ff8f0f13          	addi	t5,t5,-8
    2a18:	010f1f13          	slli	t5,t5,0x10
    2a1c:	410f5f13          	srai	t5,t5,0x10
    2a20:	e35ff06f          	j	2854 <.L473>

00002a24 <.L475>:
    2a24:	ff7f0f13          	addi	t5,t5,-9
    2a28:	010f1f13          	slli	t5,t5,0x10
    2a2c:	410f5f13          	srai	t5,t5,0x10
    2a30:	e25ff06f          	j	2854 <.L473>

00002a34 <.L1550>:
    2a34:	02651303          	lh	t1,38(a0)
    2a38:	1ab00793          	li	a5,427
    2a3c:	0067c863          	blt	a5,t1,2a4c <.L479>
    2a40:	ff728293          	addi	t0,t0,-9
    2a44:	01029293          	slli	t0,t0,0x10
    2a48:	4102d293          	srai	t0,t0,0x10

00002a4c <.L479>:
    2a4c:	01851303          	lh	t1,24(a0)
    2a50:	f75ff06f          	j	29c4 <.L1547>

00002a54 <.L480>:
    2a54:	ffd28293          	addi	t0,t0,-3
    2a58:	01029293          	slli	t0,t0,0x10
    2a5c:	0102d293          	srli	t0,t0,0x10
    2a60:	e21ff06f          	j	2880 <.L481>

00002a64 <.L483>:
    2a64:	00528293          	addi	t0,t0,5
    2a68:	01029293          	slli	t0,t0,0x10
    2a6c:	4102d293          	srai	t0,t0,0x10
    2a70:	f49ff06f          	j	29b8 <.L484>

00002a74 <.L485>:
    2a74:	00328293          	addi	t0,t0,3
    2a78:	01029293          	slli	t0,t0,0x10
    2a7c:	4102d293          	srai	t0,t0,0x10
    2a80:	f39ff06f          	j	29b8 <.L484>

00002a84 <.L488>:
    2a84:	00d70793          	addi	a5,a4,13
    2a88:	01079793          	slli	a5,a5,0x10
    2a8c:	4107d793          	srai	a5,a5,0x10
    2a90:	0480006f          	j	2ad8 <.L489>

00002a94 <.L487>:
    2a94:	eb900793          	li	a5,-327
    2a98:	00f45a63          	bge	s0,a5,2aac <.L490>
    2a9c:	00270793          	addi	a5,a4,2
    2aa0:	01079793          	slli	a5,a5,0x10
    2aa4:	4107d793          	srai	a5,a5,0x10
    2aa8:	0300006f          	j	2ad8 <.L489>

00002aac <.L490>:
    2aac:	ff870793          	addi	a5,a4,-8
    2ab0:	01079793          	slli	a5,a5,0x10
    2ab4:	4107d793          	srai	a5,a5,0x10
    2ab8:	0200006f          	j	2ad8 <.L489>

00002abc <.L492>:
    2abc:	ff770793          	addi	a5,a4,-9
    2ac0:	01079793          	slli	a5,a5,0x10
    2ac4:	4107d793          	srai	a5,a5,0x10
    2ac8:	0100006f          	j	2ad8 <.L489>

00002acc <.L491>:
    2acc:	00e70793          	addi	a5,a4,14
    2ad0:	01079793          	slli	a5,a5,0x10
    2ad4:	4107d793          	srai	a5,a5,0x10

00002ad8 <.L489>:
    2ad8:	03900f93          	li	t6,57
    2adc:	12dfc863          	blt	t6,a3,2c0c <.L493>
    2ae0:	feb00713          	li	a4,-21
    2ae4:	0ee8de63          	bge	a7,a4,2be0 <.L494>
    2ae8:	02651f83          	lh	t6,38(a0)
    2aec:	07700713          	li	a4,119
    2af0:	03f74863          	blt	a4,t6,2b20 <.L495>
    2af4:	ffa90913          	addi	s2,s2,-6
    2af8:	01091913          	slli	s2,s2,0x10
    2afc:	41095913          	srai	s2,s2,0x10
    2b00:	0a900713          	li	a4,169
    2b04:	03d75863          	bge	a4,t4,2b34 <.L496>

00002b08 <.L497>:
    2b08:	02400713          	li	a4,36
    2b0c:	19f74e63          	blt	a4,t6,2ca8 <.L507>
    2b10:	004f0f13          	addi	t5,t5,4
    2b14:	010f1f13          	slli	t5,t5,0x10
    2b18:	410f5f13          	srai	t5,t5,0x10
    2b1c:	0380006f          	j	2b54 <.L504>

00002b20 <.L495>:
    2b20:	00c90913          	addi	s2,s2,12
    2b24:	01091913          	slli	s2,s2,0x10
    2b28:	41095913          	srai	s2,s2,0x10

00002b2c <.L498>:
    2b2c:	0a900f93          	li	t6,169
    2b30:	15dfca63          	blt	t6,t4,2c84 <.L502>

00002b34 <.L496>:
    2b34:	01a00713          	li	a4,26
    2b38:	13c74063          	blt	a4,t3,2c58 <.L503>
    2b3c:	00c51f83          	lh	t6,12(a0)
    2b40:	11800713          	li	a4,280
    2b44:	01f74863          	blt	a4,t6,2b54 <.L504>
    2b48:	008f0f13          	addi	t5,t5,8
    2b4c:	010f1f13          	slli	t5,t5,0x10
    2b50:	410f5f13          	srai	t5,t5,0x10

00002b54 <.L504>:
    2b54:	0f000f93          	li	t6,240
    2b58:	1b1fc663          	blt	t6,a7,2d04 <.L509>
    2b5c:	02051f83          	lh	t6,32(a0)
    2b60:	00200713          	li	a4,2
    2b64:	17f74a63          	blt	a4,t6,2cd8 <.L510>
    2b68:	03b00713          	li	a4,59
    2b6c:	14d74e63          	blt	a4,a3,2cc8 <.L511>
    2b70:	00628293          	addi	t0,t0,6
    2b74:	01029293          	slli	t0,t0,0x10
    2b78:	4102d293          	srai	t0,t0,0x10

00002b7c <.L512>:
    2b7c:	0dd00f93          	li	t6,221
    2b80:	20bfcc63          	blt	t6,a1,2d98 <.L517>
    2b84:	f5000713          	li	a4,-176
    2b88:	1ee85463          	bge	a6,a4,2d70 <.L518>
    2b8c:	00f00713          	li	a4,15
    2b90:	1dc74863          	blt	a4,t3,2d60 <.L519>
    2b94:	ff878793          	addi	a5,a5,-8
    2b98:	01079793          	slli	a5,a5,0x10
    2b9c:	4107d793          	srai	a5,a5,0x10

00002ba0 <.L520>:
    2ba0:	03e00713          	li	a4,62
    2ba4:	20d75863          	bge	a4,a3,2db4 <.L524>

00002ba8 <.L527>:
    2ba8:	fec00713          	li	a4,-20
    2bac:	2ae35a63          	bge	t1,a4,2e60 <.L532>
    2bb0:	00c51f83          	lh	t6,12(a0)
    2bb4:	08900713          	li	a4,137
    2bb8:	29f74c63          	blt	a4,t6,2e50 <.L533>
    2bbc:	ff990913          	addi	s2,s2,-7
    2bc0:	01091c13          	slli	s8,s2,0x10
    2bc4:	410c5c13          	srai	s8,s8,0x10
    2bc8:	ffe00713          	li	a4,-2
    2bcc:	2aee4463          	blt	t3,a4,2e74 <.L534>

00002bd0 <.L535>:
    2bd0:	002f0f13          	addi	t5,t5,2
    2bd4:	010f1f93          	slli	t6,t5,0x10
    2bd8:	410fdf93          	srai	t6,t6,0x10
    2bdc:	3500006f          	j	2f2c <.L544>

00002be0 <.L494>:
    2be0:	01051f83          	lh	t6,16(a0)
    2be4:	06200713          	li	a4,98
    2be8:	01f74a63          	blt	a4,t6,2bfc <.L499>
    2bec:	fff90913          	addi	s2,s2,-1
    2bf0:	01091913          	slli	s2,s2,0x10
    2bf4:	41095913          	srai	s2,s2,0x10
    2bf8:	f35ff06f          	j	2b2c <.L498>

00002bfc <.L499>:
    2bfc:	ff790913          	addi	s2,s2,-9
    2c00:	01091913          	slli	s2,s2,0x10
    2c04:	41095913          	srai	s2,s2,0x10
    2c08:	f25ff06f          	j	2b2c <.L498>

00002c0c <.L493>:
    2c0c:	01451f83          	lh	t6,20(a0)
    2c10:	e4a00713          	li	a4,-438
    2c14:	02efd663          	bge	t6,a4,2c40 <.L500>
    2c18:	03d00713          	li	a4,61
    2c1c:	00d74a63          	blt	a4,a3,2c30 <.L501>
    2c20:	ff890913          	addi	s2,s2,-8
    2c24:	01091913          	slli	s2,s2,0x10
    2c28:	41095913          	srai	s2,s2,0x10
    2c2c:	f01ff06f          	j	2b2c <.L498>

00002c30 <.L501>:
    2c30:	00390913          	addi	s2,s2,3
    2c34:	01091913          	slli	s2,s2,0x10
    2c38:	41095913          	srai	s2,s2,0x10
    2c3c:	ef1ff06f          	j	2b2c <.L498>

00002c40 <.L500>:
    2c40:	03800713          	li	a4,56
    2c44:	eec744e3          	blt	a4,a2,2b2c <.L498>
    2c48:	00790913          	addi	s2,s2,7
    2c4c:	01091913          	slli	s2,s2,0x10
    2c50:	41095913          	srai	s2,s2,0x10
    2c54:	ed9ff06f          	j	2b2c <.L498>

00002c58 <.L503>:
    2c58:	01c51f83          	lh	t6,28(a0)
    2c5c:	03400713          	li	a4,52
    2c60:	01f74a63          	blt	a4,t6,2c74 <.L505>
    2c64:	ff8f0f13          	addi	t5,t5,-8
    2c68:	010f1f13          	slli	t5,t5,0x10
    2c6c:	410f5f13          	srai	t5,t5,0x10
    2c70:	ee5ff06f          	j	2b54 <.L504>

00002c74 <.L505>:
    2c74:	004f0f13          	addi	t5,t5,4
    2c78:	010f1f13          	slli	t5,t5,0x10
    2c7c:	410f5f13          	srai	t5,t5,0x10
    2c80:	ed5ff06f          	j	2b54 <.L504>

00002c84 <.L502>:
    2c84:	02651f83          	lh	t6,38(a0)
    2c88:	10700713          	li	a4,263
    2c8c:	e7f75ee3          	bge	a4,t6,2b08 <.L497>
    2c90:	e4300713          	li	a4,-445
    2c94:	02e3d263          	bge	t2,a4,2cb8 <.L508>
    2c98:	ff7f0f13          	addi	t5,t5,-9
    2c9c:	010f1f13          	slli	t5,t5,0x10
    2ca0:	410f5f13          	srai	t5,t5,0x10
    2ca4:	eb1ff06f          	j	2b54 <.L504>

00002ca8 <.L507>:
    2ca8:	ffcf0f13          	addi	t5,t5,-4
    2cac:	010f1f13          	slli	t5,t5,0x10
    2cb0:	410f5f13          	srai	t5,t5,0x10
    2cb4:	ea1ff06f          	j	2b54 <.L504>

00002cb8 <.L508>:
    2cb8:	003f0f13          	addi	t5,t5,3
    2cbc:	010f1f13          	slli	t5,t5,0x10
    2cc0:	410f5f13          	srai	t5,t5,0x10
    2cc4:	e91ff06f          	j	2b54 <.L504>

00002cc8 <.L511>:
    2cc8:	ff928293          	addi	t0,t0,-7
    2ccc:	01029293          	slli	t0,t0,0x10
    2cd0:	4102d293          	srai	t0,t0,0x10
    2cd4:	ea9ff06f          	j	2b7c <.L512>

00002cd8 <.L510>:
    2cd8:	01251f83          	lh	t6,18(a0)
    2cdc:	12800713          	li	a4,296
    2ce0:	01f74a63          	blt	a4,t6,2cf4 <.L513>
    2ce4:	ff728293          	addi	t0,t0,-9
    2ce8:	01029293          	slli	t0,t0,0x10
    2cec:	4102d293          	srai	t0,t0,0x10
    2cf0:	e8dff06f          	j	2b7c <.L512>

00002cf4 <.L513>:
    2cf4:	ffe28293          	addi	t0,t0,-2
    2cf8:	01029293          	slli	t0,t0,0x10
    2cfc:	4102d293          	srai	t0,t0,0x10
    2d00:	e7dff06f          	j	2b7c <.L512>

00002d04 <.L509>:
    2d04:	d6c00713          	li	a4,-660
    2d08:	02e4d663          	bge	s1,a4,2d34 <.L514>
    2d0c:	ff400713          	li	a4,-12
    2d10:	00e35a63          	bge	t1,a4,2d24 <.L515>
    2d14:	ff728293          	addi	t0,t0,-9
    2d18:	01029293          	slli	t0,t0,0x10
    2d1c:	4102d293          	srai	t0,t0,0x10
    2d20:	e5dff06f          	j	2b7c <.L512>

00002d24 <.L515>:
    2d24:	00528293          	addi	t0,t0,5
    2d28:	01029293          	slli	t0,t0,0x10
    2d2c:	4102d293          	srai	t0,t0,0x10
    2d30:	e4dff06f          	j	2b7c <.L512>

00002d34 <.L514>:
    2d34:	01051f83          	lh	t6,16(a0)
    2d38:	0bb00713          	li	a4,187
    2d3c:	01f74a63          	blt	a4,t6,2d50 <.L516>
    2d40:	ff728293          	addi	t0,t0,-9
    2d44:	01029293          	slli	t0,t0,0x10
    2d48:	4102d293          	srai	t0,t0,0x10
    2d4c:	e31ff06f          	j	2b7c <.L512>

00002d50 <.L516>:
    2d50:	00428293          	addi	t0,t0,4
    2d54:	01029293          	slli	t0,t0,0x10
    2d58:	4102d293          	srai	t0,t0,0x10
    2d5c:	e21ff06f          	j	2b7c <.L512>

00002d60 <.L519>:
    2d60:	fff78793          	addi	a5,a5,-1
    2d64:	01079793          	slli	a5,a5,0x10
    2d68:	4107d793          	srai	a5,a5,0x10
    2d6c:	e35ff06f          	j	2ba0 <.L520>

00002d70 <.L518>:
    2d70:	f5c00713          	li	a4,-164
    2d74:	00e3da63          	bge	t2,a4,2d88 <.L521>
    2d78:	00978793          	addi	a5,a5,9
    2d7c:	01079793          	slli	a5,a5,0x10
    2d80:	4107d793          	srai	a5,a5,0x10
    2d84:	e1dff06f          	j	2ba0 <.L520>

00002d88 <.L521>:
    2d88:	ffc78793          	addi	a5,a5,-4
    2d8c:	01079793          	slli	a5,a5,0x10
    2d90:	4107d793          	srai	a5,a5,0x10
    2d94:	e0dff06f          	j	2ba0 <.L520>

00002d98 <.L517>:
    2d98:	25b00713          	li	a4,603
    2d9c:	04c74463          	blt	a4,a2,2de4 <.L522>
    2da0:	03d00713          	li	a4,61
    2da4:	02d74863          	blt	a4,a3,2dd4 <.L523>
    2da8:	00778793          	addi	a5,a5,7
    2dac:	01079793          	slli	a5,a5,0x10
    2db0:	4107d793          	srai	a5,a5,0x10

00002db4 <.L524>:
    2db4:	03800713          	li	a4,56
    2db8:	04c74863          	blt	a4,a2,2e08 <.L528>
    2dbc:	03600713          	li	a4,54
    2dc0:	06d74863          	blt	a4,a3,2e30 <.L529>
    2dc4:	ff790913          	addi	s2,s2,-9
    2dc8:	01091c13          	slli	s8,s2,0x10
    2dcc:	410c5c13          	srai	s8,s8,0x10
    2dd0:	09c0006f          	j	2e6c <.L530>

00002dd4 <.L523>:
    2dd4:	ffc78793          	addi	a5,a5,-4
    2dd8:	01079793          	slli	a5,a5,0x10
    2ddc:	4107d793          	srai	a5,a5,0x10
    2de0:	dc1ff06f          	j	2ba0 <.L520>

00002de4 <.L522>:
    2de4:	ddb00713          	li	a4,-549
    2de8:	02e4dc63          	bge	s1,a4,2e20 <.L525>
    2dec:	00478793          	addi	a5,a5,4
    2df0:	01079793          	slli	a5,a5,0x10
    2df4:	0107d793          	srli	a5,a5,0x10

00002df8 <.L526>:
    2df8:	01079793          	slli	a5,a5,0x10
    2dfc:	4107d793          	srai	a5,a5,0x10
    2e00:	03e00713          	li	a4,62
    2e04:	dad742e3          	blt	a4,a3,2ba8 <.L527>

00002e08 <.L528>:
    2e08:	c3900713          	li	a4,-967
    2e0c:	02e85a63          	bge	a6,a4,2e40 <.L531>
    2e10:	00890913          	addi	s2,s2,8
    2e14:	01091c13          	slli	s8,s2,0x10
    2e18:	410c5c13          	srai	s8,s8,0x10
    2e1c:	0500006f          	j	2e6c <.L530>

00002e20 <.L525>:
    2e20:	ff778793          	addi	a5,a5,-9
    2e24:	01079793          	slli	a5,a5,0x10
    2e28:	0107d793          	srli	a5,a5,0x10
    2e2c:	fcdff06f          	j	2df8 <.L526>

00002e30 <.L529>:
    2e30:	00490913          	addi	s2,s2,4
    2e34:	01091c13          	slli	s8,s2,0x10
    2e38:	410c5c13          	srai	s8,s8,0x10
    2e3c:	0300006f          	j	2e6c <.L530>

00002e40 <.L531>:
    2e40:	ffa90913          	addi	s2,s2,-6
    2e44:	01091c13          	slli	s8,s2,0x10
    2e48:	410c5c13          	srai	s8,s8,0x10
    2e4c:	0200006f          	j	2e6c <.L530>

00002e50 <.L533>:
    2e50:	00490913          	addi	s2,s2,4
    2e54:	01091c13          	slli	s8,s2,0x10
    2e58:	410c5c13          	srai	s8,s8,0x10
    2e5c:	0100006f          	j	2e6c <.L530>

00002e60 <.L532>:
    2e60:	00990913          	addi	s2,s2,9
    2e64:	01091c13          	slli	s8,s2,0x10
    2e68:	410c5c13          	srai	s8,s8,0x10

00002e6c <.L530>:
    2e6c:	ffe00713          	li	a4,-2
    2e70:	08ee5e63          	bge	t3,a4,2f0c <.L536>

00002e74 <.L534>:
    2e74:	0a400713          	li	a4,164
    2e78:	06b74663          	blt	a4,a1,2ee4 <.L537>
    2e7c:	01051f83          	lh	t6,16(a0)
    2e80:	1aa00713          	li	a4,426
    2e84:	03f74c63          	blt	a4,t6,2ebc <.L538>
    2e88:	007f0f13          	addi	t5,t5,7
    2e8c:	010f1f93          	slli	t6,t5,0x10
    2e90:	410fdf93          	srai	t6,t6,0x10

00002e94 <.L539>:
    2e94:	00e51f03          	lh	t5,14(a0)
    2e98:	03300713          	li	a4,51
    2e9c:	09e75e63          	bge	a4,t5,2f38 <.L540>

00002ea0 <.L1546>:
    2ea0:	01051903          	lh	s2,16(a0)
    2ea4:	0c400713          	li	a4,196
    2ea8:	03274663          	blt	a4,s2,2ed4 <.L541>
    2eac:	ff828713          	addi	a4,t0,-8
    2eb0:	01071713          	slli	a4,a4,0x10
    2eb4:	41075713          	srai	a4,a4,0x10
    2eb8:	15c0006f          	j	3014 <.L551>

00002ebc <.L538>:
    2ebc:	014f0f13          	addi	t5,t5,20
    2ec0:	010f1f93          	slli	t6,t5,0x10
    2ec4:	410fdf93          	srai	t6,t6,0x10
    2ec8:	00e51f03          	lh	t5,14(a0)
    2ecc:	03300713          	li	a4,51
    2ed0:	07e75463          	bge	a4,t5,2f38 <.L540>

00002ed4 <.L541>:
    2ed4:	00428713          	addi	a4,t0,4
    2ed8:	01071713          	slli	a4,a4,0x10
    2edc:	41075713          	srai	a4,a4,0x10
    2ee0:	1340006f          	j	3014 <.L551>

00002ee4 <.L537>:
    2ee4:	0dd00713          	li	a4,221
    2ee8:	01174a63          	blt	a4,a7,2efc <.L542>
    2eec:	006f0f13          	addi	t5,t5,6
    2ef0:	010f1f93          	slli	t6,t5,0x10
    2ef4:	410fdf93          	srai	t6,t6,0x10
    2ef8:	f9dff06f          	j	2e94 <.L539>

00002efc <.L542>:
    2efc:	ff9f0f13          	addi	t5,t5,-7
    2f00:	010f1f93          	slli	t6,t5,0x10
    2f04:	410fdf93          	srai	t6,t6,0x10
    2f08:	f8dff06f          	j	2e94 <.L539>

00002f0c <.L536>:
    2f0c:	00c51f83          	lh	t6,12(a0)
    2f10:	0ba00713          	li	a4,186
    2f14:	0bf75a63          	bge	a4,t6,2fc8 <.L1623>
    2f18:	02051703          	lh	a4,32(a0)
    2f1c:	0ce05263          	blez	a4,2fe0 <.L1624>
    2f20:	ff8f0f13          	addi	t5,t5,-8
    2f24:	010f1f93          	slli	t6,t5,0x10
    2f28:	410fdf93          	srai	t6,t6,0x10

00002f2c <.L544>:
    2f2c:	00e51f03          	lh	t5,14(a0)
    2f30:	03300713          	li	a4,51
    2f34:	13e74863          	blt	a4,t5,3064 <.L546>

00002f38 <.L540>:
    2f38:	fe200713          	li	a4,-30
    2f3c:	0ce35263          	bge	t1,a4,3000 <.L547>
    2f40:	e3d00713          	li	a4,-451
    2f44:	0ae3d663          	bge	t2,a4,2ff0 <.L548>
    2f48:	ff828713          	addi	a4,t0,-8
    2f4c:	01071713          	slli	a4,a4,0x10
    2f50:	01075713          	srli	a4,a4,0x10

00002f54 <.L549>:
    2f54:	01071713          	slli	a4,a4,0x10
    2f58:	41075713          	srai	a4,a4,0x10

00002f5c <.L1545>:
    2f5c:	02851903          	lh	s2,40(a0)
    2f60:	01000293          	li	t0,16
    2f64:	1722ca63          	blt	t0,s2,30d8 <.L556>
    2f68:	02051903          	lh	s2,32(a0)
    2f6c:	00100293          	li	t0,1
    2f70:	1522dc63          	bge	t0,s2,30c8 <.L1625>
    2f74:	00978793          	addi	a5,a5,9
    2f78:	01079793          	slli	a5,a5,0x10
    2f7c:	4107d793          	srai	a5,a5,0x10

00002f80 <.L558>:
    2f80:	03e00293          	li	t0,62
    2f84:	18d2d663          	bge	t0,a3,3110 <.L1544>
    2f88:	fec00293          	li	t0,-20
    2f8c:	10535e63          	bge	t1,t0,30a8 <.L569>
    2f90:	ffec0c13          	addi	s8,s8,-2
    2f94:	010c1c13          	slli	s8,s8,0x10
    2f98:	410c5c13          	srai	s8,s8,0x10

00002f9c <.L567>:
    2f9c:	02451a03          	lh	s4,36(a0)
    2fa0:	01f00293          	li	t0,31
    2fa4:	1f42c263          	blt	t0,s4,3188 <.L570>
    2fa8:	02051283          	lh	t0,32(a0)
    2fac:	1a505263          	blez	t0,3150 <.L1626>
    2fb0:	00300913          	li	s2,3
    2fb4:	1c594263          	blt	s2,t0,3178 <.L574>
    2fb8:	ffcf8f93          	addi	t6,t6,-4
    2fbc:	010f9f93          	slli	t6,t6,0x10
    2fc0:	410fdf93          	srai	t6,t6,0x10
    2fc4:	1dc0006f          	j	31a0 <.L573>

00002fc8 <.L1623>:
    2fc8:	03800713          	li	a4,56
    2fcc:	c0d742e3          	blt	a4,a3,2bd0 <.L535>
    2fd0:	ffdf0f13          	addi	t5,t5,-3
    2fd4:	010f1f93          	slli	t6,t5,0x10
    2fd8:	410fdf93          	srai	t6,t6,0x10
    2fdc:	f51ff06f          	j	2f2c <.L544>

00002fe0 <.L1624>:
    2fe0:	007f0f13          	addi	t5,t5,7
    2fe4:	010f1f93          	slli	t6,t5,0x10
    2fe8:	410fdf93          	srai	t6,t6,0x10
    2fec:	f41ff06f          	j	2f2c <.L544>

00002ff0 <.L548>:
    2ff0:	00628713          	addi	a4,t0,6
    2ff4:	01071713          	slli	a4,a4,0x10
    2ff8:	01075713          	srli	a4,a4,0x10
    2ffc:	f59ff06f          	j	2f54 <.L549>

00003000 <.L547>:
    3000:	64b00713          	li	a4,1611
    3004:	04c74863          	blt	a4,a2,3054 <.L550>
    3008:	ff628713          	addi	a4,t0,-10
    300c:	01071713          	slli	a4,a4,0x10
    3010:	41075713          	srai	a4,a4,0x10

00003014 <.L551>:
    3014:	ffc00293          	li	t0,-4
    3018:	f45342e3          	blt	t1,t0,2f5c <.L1545>
    301c:	07c04c63          	bgtz	t3,3094 <.L560>
    3020:	03500293          	li	t0,53
    3024:	0cd2ce63          	blt	t0,a3,3100 <.L561>
    3028:	ff978793          	addi	a5,a5,-7
    302c:	01079793          	slli	a5,a5,0x10
    3030:	4107d793          	srai	a5,a5,0x10
    3034:	03800293          	li	t0,56
    3038:	0ec2dc63          	bge	t0,a2,3130 <.L562>

0000303c <.L563>:
    303c:	f5100293          	li	t0,-175
    3040:	1054d063          	bge	s1,t0,3140 <.L568>
    3044:	ffac0c13          	addi	s8,s8,-6
    3048:	010c1c13          	slli	s8,s8,0x10
    304c:	410c5c13          	srai	s8,s8,0x10
    3050:	f4dff06f          	j	2f9c <.L567>

00003054 <.L550>:
    3054:	ffe28713          	addi	a4,t0,-2
    3058:	01071713          	slli	a4,a4,0x10
    305c:	41075713          	srai	a4,a4,0x10
    3060:	fb5ff06f          	j	3014 <.L551>

00003064 <.L546>:
    3064:	01400713          	li	a4,20
    3068:	e3c75ce3          	bge	a4,t3,2ea0 <.L1546>
    306c:	02a51903          	lh	s2,42(a0)
    3070:	00b00713          	li	a4,11
    3074:	05274263          	blt	a4,s2,30b8 <.L553>
    3078:	00528713          	addi	a4,t0,5
    307c:	01071713          	slli	a4,a4,0x10
    3080:	01075713          	srli	a4,a4,0x10

00003084 <.L554>:
    3084:	01071713          	slli	a4,a4,0x10
    3088:	41075713          	srai	a4,a4,0x10
    308c:	ffc00293          	li	t0,-4
    3090:	ec5346e3          	blt	t1,t0,2f5c <.L1545>

00003094 <.L560>:
    3094:	ff778793          	addi	a5,a5,-9
    3098:	01079793          	slli	a5,a5,0x10
    309c:	4107d793          	srai	a5,a5,0x10

000030a0 <.L564>:
    30a0:	03e00293          	li	t0,62
    30a4:	06d2d663          	bge	t0,a3,3110 <.L1544>

000030a8 <.L569>:
    30a8:	009c0c13          	addi	s8,s8,9
    30ac:	010c1c13          	slli	s8,s8,0x10
    30b0:	410c5c13          	srai	s8,s8,0x10
    30b4:	ee9ff06f          	j	2f9c <.L567>

000030b8 <.L553>:
    30b8:	ffb28713          	addi	a4,t0,-5
    30bc:	01071713          	slli	a4,a4,0x10
    30c0:	01075713          	srli	a4,a4,0x10
    30c4:	fc1ff06f          	j	3084 <.L554>

000030c8 <.L1625>:
    30c8:	ffd78793          	addi	a5,a5,-3
    30cc:	01079793          	slli	a5,a5,0x10
    30d0:	4107d793          	srai	a5,a5,0x10
    30d4:	eadff06f          	j	2f80 <.L558>

000030d8 <.L556>:
    30d8:	eb900293          	li	t0,-327
    30dc:	00545a63          	bge	s0,t0,30f0 <.L559>
    30e0:	00178793          	addi	a5,a5,1
    30e4:	01079793          	slli	a5,a5,0x10
    30e8:	4107d793          	srai	a5,a5,0x10
    30ec:	e95ff06f          	j	2f80 <.L558>

000030f0 <.L559>:
    30f0:	ff978793          	addi	a5,a5,-7
    30f4:	01079793          	slli	a5,a5,0x10
    30f8:	4107d793          	srai	a5,a5,0x10
    30fc:	e85ff06f          	j	2f80 <.L558>

00003100 <.L561>:
    3100:	00d78793          	addi	a5,a5,13
    3104:	01079793          	slli	a5,a5,0x10
    3108:	4107d793          	srai	a5,a5,0x10
    310c:	f95ff06f          	j	30a0 <.L564>

00003110 <.L1544>:
    3110:	03800293          	li	t0,56
    3114:	f2c2c4e3          	blt	t0,a2,303c <.L563>
    3118:	03600293          	li	t0,54
    311c:	00d2da63          	bge	t0,a3,3130 <.L562>
    3120:	003c0c13          	addi	s8,s8,3
    3124:	010c1c13          	slli	s8,s8,0x10
    3128:	410c5c13          	srai	s8,s8,0x10
    312c:	e71ff06f          	j	2f9c <.L567>

00003130 <.L562>:
    3130:	ff7c0c13          	addi	s8,s8,-9
    3134:	010c1c13          	slli	s8,s8,0x10
    3138:	410c5c13          	srai	s8,s8,0x10
    313c:	e61ff06f          	j	2f9c <.L567>

00003140 <.L568>:
    3140:	003c0c13          	addi	s8,s8,3
    3144:	010c1c13          	slli	s8,s8,0x10
    3148:	410c5c13          	srai	s8,s8,0x10
    314c:	e51ff06f          	j	2f9c <.L567>

00003150 <.L1626>:
    3150:	01900293          	li	t0,25
    3154:	01c2ca63          	blt	t0,t3,3168 <.L572>
    3158:	00af8f93          	addi	t6,t6,10
    315c:	010f9f93          	slli	t6,t6,0x10
    3160:	410fdf93          	srai	t6,t6,0x10
    3164:	03c0006f          	j	31a0 <.L573>

00003168 <.L572>:
    3168:	ffcf8f93          	addi	t6,t6,-4
    316c:	010f9f93          	slli	t6,t6,0x10
    3170:	410fdf93          	srai	t6,t6,0x10
    3174:	02c0006f          	j	31a0 <.L573>

00003178 <.L574>:
    3178:	001f8f93          	addi	t6,t6,1
    317c:	010f9f93          	slli	t6,t6,0x10
    3180:	410fdf93          	srai	t6,t6,0x10
    3184:	01c0006f          	j	31a0 <.L573>

00003188 <.L570>:
    3188:	02a51903          	lh	s2,42(a0)
    318c:	00500293          	li	t0,5
    3190:	0122d863          	bge	t0,s2,31a0 <.L573>
    3194:	ff7f8f93          	addi	t6,t6,-9
    3198:	010f9f93          	slli	t6,t6,0x10
    319c:	410fdf93          	srai	t6,t6,0x10

000031a0 <.L573>:
    31a0:	01051903          	lh	s2,16(a0)
    31a4:	01212623          	sw	s2,12(sp)
    31a8:	1ac00293          	li	t0,428
    31ac:	1122c463          	blt	t0,s2,32b4 <.L575>
    31b0:	ff900293          	li	t0,-7
    31b4:	08535063          	bge	t1,t0,3234 <.L576>
    31b8:	02051903          	lh	s2,32(a0)
    31bc:	00100293          	li	t0,1
    31c0:	0722d263          	bge	t0,s2,3224 <.L1627>
    31c4:	ff870713          	addi	a4,a4,-8
    31c8:	01071713          	slli	a4,a4,0x10
    31cc:	41075713          	srai	a4,a4,0x10

000031d0 <.L578>:
    31d0:	27a00293          	li	t0,634
    31d4:	12b2cc63          	blt	t0,a1,330c <.L584>
    31d8:	02851903          	lh	s2,40(a0)
    31dc:	02200293          	li	t0,34
    31e0:	0922c263          	blt	t0,s2,3264 <.L585>
    31e4:	ff000293          	li	t0,-16
    31e8:	00535863          	bge	t1,t0,31f8 <.L586>
    31ec:	00a78793          	addi	a5,a5,10
    31f0:	01079793          	slli	a5,a5,0x10
    31f4:	4107d793          	srai	a5,a5,0x10

000031f8 <.L586>:
    31f8:	d2a00293          	li	t0,-726
    31fc:	08585463          	bge	a6,t0,3284 <.L592>
    3200:	01251903          	lh	s2,18(a0)
    3204:	25d00293          	li	t0,605
    3208:	1722da63          	bge	t0,s2,337c <.L1542>
    320c:	c2600293          	li	t0,-986
    3210:	1c585263          	bge	a6,t0,33d4 <.L596>
    3214:	003c0c13          	addi	s8,s8,3
    3218:	010c1c13          	slli	s8,s8,0x10
    321c:	410c5c13          	srai	s8,s8,0x10
    3220:	1740006f          	j	3394 <.L595>

00003224 <.L1627>:
    3224:	00270713          	addi	a4,a4,2
    3228:	01071713          	slli	a4,a4,0x10
    322c:	41075713          	srai	a4,a4,0x10
    3230:	fa1ff06f          	j	31d0 <.L578>

00003234 <.L576>:
    3234:	03b00293          	li	t0,59
    3238:	06d2c663          	blt	t0,a3,32a4 <.L579>
    323c:	00570713          	addi	a4,a4,5
    3240:	01071713          	slli	a4,a4,0x10
    3244:	01075713          	srli	a4,a4,0x10

00003248 <.L580>:
    3248:	01071713          	slli	a4,a4,0x10
    324c:	41075713          	srai	a4,a4,0x10
    3250:	27a00293          	li	t0,634
    3254:	0eb2ce63          	blt	t0,a1,3350 <.L589>
    3258:	02851903          	lh	s2,40(a0)
    325c:	02200293          	li	t0,34
    3260:	f922dce3          	bge	t0,s2,31f8 <.L586>

00003264 <.L585>:
    3264:	01251903          	lh	s2,18(a0)
    3268:	15300293          	li	t0,339
    326c:	0d22c263          	blt	t0,s2,3330 <.L587>
    3270:	ffd78793          	addi	a5,a5,-3
    3274:	01079793          	slli	a5,a5,0x10
    3278:	4107d793          	srai	a5,a5,0x10

0000327c <.L588>:
    327c:	d2a00293          	li	t0,-726
    3280:	0e584e63          	blt	a6,t0,337c <.L1542>

00003284 <.L592>:
    3284:	eea00293          	li	t0,-278
    3288:	14545e63          	bge	s0,t0,33e4 <.L597>
    328c:	02700293          	li	t0,39
    3290:	10b2d263          	bge	t0,a1,3394 <.L595>
    3294:	ff8c0c13          	addi	s8,s8,-8
    3298:	010c1c13          	slli	s8,s8,0x10
    329c:	410c5c13          	srai	s8,s8,0x10
    32a0:	0f40006f          	j	3394 <.L595>

000032a4 <.L579>:
    32a4:	ffb70713          	addi	a4,a4,-5
    32a8:	01071713          	slli	a4,a4,0x10
    32ac:	01075713          	srli	a4,a4,0x10
    32b0:	f99ff06f          	j	3248 <.L580>

000032b4 <.L575>:
    32b4:	0a500293          	li	t0,165
    32b8:	02c2c863          	blt	t0,a2,32e8 <.L581>
    32bc:	01251903          	lh	s2,18(a0)
    32c0:	1ff00293          	li	t0,511
    32c4:	0122ca63          	blt	t0,s2,32d8 <.L582>
    32c8:	00670713          	addi	a4,a4,6
    32cc:	01071713          	slli	a4,a4,0x10
    32d0:	41075713          	srai	a4,a4,0x10
    32d4:	efdff06f          	j	31d0 <.L578>

000032d8 <.L582>:
    32d8:	ff970713          	addi	a4,a4,-7
    32dc:	01071713          	slli	a4,a4,0x10
    32e0:	41075713          	srai	a4,a4,0x10
    32e4:	eedff06f          	j	31d0 <.L578>

000032e8 <.L581>:
    32e8:	31000293          	li	t0,784
    32ec:	00b2ca63          	blt	t0,a1,3300 <.L583>
    32f0:	00770713          	addi	a4,a4,7
    32f4:	01071713          	slli	a4,a4,0x10
    32f8:	41075713          	srai	a4,a4,0x10
    32fc:	ed5ff06f          	j	31d0 <.L578>

00003300 <.L583>:
    3300:	fff70713          	addi	a4,a4,-1
    3304:	01071713          	slli	a4,a4,0x10
    3308:	41075713          	srai	a4,a4,0x10

0000330c <.L584>:
    330c:	ff700293          	li	t0,-9
    3310:	04535063          	bge	t1,t0,3350 <.L589>
    3314:	01251903          	lh	s2,18(a0)
    3318:	0e600293          	li	t0,230
    331c:	0322c263          	blt	t0,s2,3340 <.L590>
    3320:	ffc78793          	addi	a5,a5,-4
    3324:	01079793          	slli	a5,a5,0x10
    3328:	4107d793          	srai	a5,a5,0x10
    332c:	f51ff06f          	j	327c <.L588>

00003330 <.L587>:
    3330:	ff678793          	addi	a5,a5,-10
    3334:	01079793          	slli	a5,a5,0x10
    3338:	4107d793          	srai	a5,a5,0x10
    333c:	ebdff06f          	j	31f8 <.L586>

00003340 <.L590>:
    3340:	00878793          	addi	a5,a5,8
    3344:	01079793          	slli	a5,a5,0x10
    3348:	4107d793          	srai	a5,a5,0x10
    334c:	eadff06f          	j	31f8 <.L586>

00003350 <.L589>:
    3350:	02a51903          	lh	s2,42(a0)
    3354:	00f00293          	li	t0,15
    3358:	0122ca63          	blt	t0,s2,336c <.L591>
    335c:	fff78793          	addi	a5,a5,-1
    3360:	01079793          	slli	a5,a5,0x10
    3364:	4107d793          	srai	a5,a5,0x10
    3368:	e91ff06f          	j	31f8 <.L586>

0000336c <.L591>:
    336c:	ff878793          	addi	a5,a5,-8
    3370:	01079793          	slli	a5,a5,0x10
    3374:	4107d793          	srai	a5,a5,0x10
    3378:	e81ff06f          	j	31f8 <.L586>

0000337c <.L1542>:
    337c:	01451903          	lh	s2,20(a0)
    3380:	e2c00293          	li	t0,-468
    3384:	04595063          	bge	s2,t0,33c4 <.L594>
    3388:	fffc0c13          	addi	s8,s8,-1
    338c:	010c1c13          	slli	s8,s8,0x10
    3390:	410c5c13          	srai	s8,s8,0x10

00003394 <.L595>:
    3394:	0a900293          	li	t0,169
    3398:	21d2ca63          	blt	t0,t4,35ac <.L599>
    339c:	02051903          	lh	s2,32(a0)
    33a0:	fff00293          	li	t0,-1
    33a4:	06594463          	blt	s2,t0,340c <.L1628>
    33a8:	00c51903          	lh	s2,12(a0)
    33ac:	09e00293          	li	t0,158
    33b0:	2322cc63          	blt	t0,s2,35e8 <.L603>
    33b4:	008f8f93          	addi	t6,t6,8
    33b8:	010f9f93          	slli	t6,t6,0x10
    33bc:	410fdf93          	srai	t6,t6,0x10
    33c0:	2280006f          	j	35e8 <.L603>

000033c4 <.L594>:
    33c4:	009c0c13          	addi	s8,s8,9
    33c8:	010c1c13          	slli	s8,s8,0x10
    33cc:	410c5c13          	srai	s8,s8,0x10
    33d0:	fc5ff06f          	j	3394 <.L595>

000033d4 <.L596>:
    33d4:	ff9c0c13          	addi	s8,s8,-7
    33d8:	010c1c13          	slli	s8,s8,0x10
    33dc:	410c5c13          	srai	s8,s8,0x10
    33e0:	fb5ff06f          	j	3394 <.L595>

000033e4 <.L597>:
    33e4:	03600293          	li	t0,54
    33e8:	00d2ca63          	blt	t0,a3,33fc <.L598>
    33ec:	ff9c0c13          	addi	s8,s8,-7
    33f0:	010c1c13          	slli	s8,s8,0x10
    33f4:	410c5c13          	srai	s8,s8,0x10
    33f8:	f9dff06f          	j	3394 <.L595>

000033fc <.L598>:
    33fc:	003c0c13          	addi	s8,s8,3
    3400:	010c1c13          	slli	s8,s8,0x10
    3404:	410c5c13          	srai	s8,s8,0x10
    3408:	f8dff06f          	j	3394 <.L595>

0000340c <.L1628>:
    340c:	02651903          	lh	s2,38(a0)
    3410:	04200293          	li	t0,66
    3414:	1922c463          	blt	t0,s2,359c <.L601>
    3418:	005f8f93          	addi	t6,t6,5
    341c:	010f9f93          	slli	t6,t6,0x10
    3420:	010fdf93          	srli	t6,t6,0x10

00003424 <.L602>:
    3424:	010f9f93          	slli	t6,t6,0x10
    3428:	410fdf93          	srai	t6,t6,0x10
    342c:	0b500293          	li	t0,181
    3430:	1f12d463          	bge	t0,a7,3618 <.L1541>

00003434 <.L606>:
    3434:	f5700293          	li	t0,-169
    3438:	2a585463          	bge	a6,t0,36e0 <.L613>
    343c:	ff100293          	li	t0,-15
    3440:	28535863          	bge	t1,t0,36d0 <.L614>
    3444:	fff70713          	addi	a4,a4,-1
    3448:	01071713          	slli	a4,a4,0x10
    344c:	01075713          	srli	a4,a4,0x10

00003450 <.L615>:
    3450:	01071713          	slli	a4,a4,0x10
    3454:	41075713          	srai	a4,a4,0x10

00003458 <.L1540>:
    3458:	17000293          	li	t0,368
    345c:	28b2de63          	bge	t0,a1,36f8 <.L609>
    3460:	2ba00293          	li	t0,698
    3464:	2cc2c463          	blt	t0,a2,372c <.L620>
    3468:	00678793          	addi	a5,a5,6
    346c:	01079793          	slli	a5,a5,0x10
    3470:	4107d793          	srai	a5,a5,0x10

00003474 <.L618>:
    3474:	02f00293          	li	t0,47
    3478:	29c2da63          	bge	t0,t3,370c <.L619>

0000347c <.L624>:
    347c:	01451903          	lh	s2,20(a0)
    3480:	e0400293          	li	t0,-508
    3484:	1c595c63          	bge	s2,t0,365c <.L631>
    3488:	ffdc0c13          	addi	s8,s8,-3
    348c:	010c1c13          	slli	s8,s8,0x10
    3490:	410c5c13          	srai	s8,s8,0x10

00003494 <.L629>:
    3494:	ec600293          	li	t0,-314
    3498:	3053dc63          	bge	t2,t0,37b0 <.L632>
    349c:	01c51903          	lh	s2,28(a0)
    34a0:	02600293          	li	t0,38
    34a4:	2f22c063          	blt	t0,s2,3784 <.L633>
    34a8:	01451903          	lh	s2,20(a0)
    34ac:	e9900293          	li	t0,-359
    34b0:	00595863          	bge	s2,t0,34c0 <.L634>
    34b4:	ff7f8f93          	addi	t6,t6,-9
    34b8:	010f9f93          	slli	t6,t6,0x10
    34bc:	410fdf93          	srai	t6,t6,0x10

000034c0 <.L634>:
    34c0:	02851283          	lh	t0,40(a0)
    34c4:	03400913          	li	s2,52
    34c8:	3c594463          	blt	s2,t0,3890 <.L639>
    34cc:	ff800913          	li	s2,-8
    34d0:	39235a63          	bge	t1,s2,3864 <.L640>
    34d4:	02a51983          	lh	s3,42(a0)
    34d8:	01e00913          	li	s2,30
    34dc:	33394663          	blt	s2,s3,3808 <.L641>
    34e0:	ffd70713          	addi	a4,a4,-3
    34e4:	01071713          	slli	a4,a4,0x10
    34e8:	41075713          	srai	a4,a4,0x10

000034ec <.L642>:
    34ec:	03300913          	li	s2,51
    34f0:	32d94663          	blt	s2,a3,381c <.L644>
    34f4:	02a51983          	lh	s3,42(a0)
    34f8:	00900913          	li	s2,9
    34fc:	3f394a63          	blt	s2,s3,38f0 <.L643>
    3500:	ff878793          	addi	a5,a5,-8
    3504:	01079793          	slli	a5,a5,0x10
    3508:	4107d793          	srai	a5,a5,0x10

0000350c <.L1539>:
    350c:	01500913          	li	s2,21
    3510:	45194663          	blt	s2,a7,395c <.L656>
    3514:	01f00913          	li	s2,31
    3518:	42594a63          	blt	s2,t0,394c <.L657>
    351c:	ffac0c13          	addi	s8,s8,-6
    3520:	010c1c13          	slli	s8,s8,0x10
    3524:	410c5c13          	srai	s8,s8,0x10

00003528 <.L658>:
    3528:	00c00913          	li	s2,12
    352c:	4d494e63          	blt	s2,s4,3a08 <.L662>
    3530:	01251983          	lh	s3,18(a0)
    3534:	1b000913          	li	s2,432
    3538:	4b394263          	blt	s2,s3,39dc <.L663>
    353c:	10600913          	li	s2,262
    3540:	46c94863          	blt	s2,a2,39b0 <.L664>
    3544:	ffff8f93          	addi	t6,t6,-1
    3548:	010f9f93          	slli	t6,t6,0x10
    354c:	410fdf93          	srai	t6,t6,0x10

00003550 <.L665>:
    3550:	03300913          	li	s2,51
    3554:	55e94863          	blt	s2,t5,3aa4 <.L672>

00003558 <.L666>:
    3558:	fe200913          	li	s2,-30
    355c:	53235063          	bge	t1,s2,3a7c <.L673>
    3560:	e3d00913          	li	s2,-451
    3564:	5123d463          	bge	t2,s2,3a6c <.L674>
    3568:	ff970713          	addi	a4,a4,-7
    356c:	01071993          	slli	s3,a4,0x10
    3570:	4109d993          	srai	s3,s3,0x10

00003574 <.L675>:
    3574:	03900913          	li	s2,57
    3578:	54b95463          	bge	s2,a1,3ac0 <.L679>

0000357c <.L677>:
    357c:	02700713          	li	a4,39
    3580:	5cc75263          	bge	a4,a2,3b44 <.L680>
    3584:	ff600713          	li	a4,-10
    3588:	64e35e63          	bge	t1,a4,3be4 <.L690>
    358c:	00278793          	addi	a5,a5,2
    3590:	01079b13          	slli	s6,a5,0x10
    3594:	410b5b13          	srai	s6,s6,0x10
    3598:	5e00006f          	j	3b78 <.L686>

0000359c <.L601>:
    359c:	ff3f8f93          	addi	t6,t6,-13
    35a0:	010f9f93          	slli	t6,t6,0x10
    35a4:	010fdf93          	srli	t6,t6,0x10
    35a8:	e7dff06f          	j	3424 <.L602>

000035ac <.L599>:
    35ac:	01e00293          	li	t0,30
    35b0:	0342c663          	blt	t0,s4,35dc <.L604>
    35b4:	03c00293          	li	t0,60
    35b8:	00d2ca63          	blt	t0,a3,35cc <.L605>
    35bc:	ffff8f93          	addi	t6,t6,-1
    35c0:	010f9f93          	slli	t6,t6,0x10
    35c4:	410fdf93          	srai	t6,t6,0x10
    35c8:	0200006f          	j	35e8 <.L603>

000035cc <.L605>:
    35cc:	005f8f93          	addi	t6,t6,5
    35d0:	010f9f93          	slli	t6,t6,0x10
    35d4:	410fdf93          	srai	t6,t6,0x10
    35d8:	0100006f          	j	35e8 <.L603>

000035dc <.L604>:
    35dc:	ff7f8f93          	addi	t6,t6,-9
    35e0:	010f9f93          	slli	t6,t6,0x10
    35e4:	410fdf93          	srai	t6,t6,0x10

000035e8 <.L603>:
    35e8:	0b500293          	li	t0,181
    35ec:	e512c4e3          	blt	t0,a7,3434 <.L606>
    35f0:	02051903          	lh	s2,32(a0)
    35f4:	00300293          	li	t0,3
    35f8:	0322d063          	bge	t0,s2,3618 <.L1541>
    35fc:	02651903          	lh	s2,38(a0)
    3600:	47000293          	li	t0,1136
    3604:	0b22ce63          	blt	t0,s2,36c0 <.L612>
    3608:	ff870713          	addi	a4,a4,-8
    360c:	01071713          	slli	a4,a4,0x10
    3610:	41075713          	srai	a4,a4,0x10
    3614:	0640006f          	j	3678 <.L611>

00003618 <.L1541>:
    3618:	02c00293          	li	t0,44
    361c:	04b2c863          	blt	t0,a1,366c <.L608>
    3620:	00470713          	addi	a4,a4,4
    3624:	01071713          	slli	a4,a4,0x10
    3628:	41075713          	srai	a4,a4,0x10
    362c:	f6a00293          	li	t0,-150
    3630:	0c584463          	blt	a6,t0,36f8 <.L609>
    3634:	01451903          	lh	s2,20(a0)
    3638:	f5b00293          	li	t0,-165
    363c:	04594863          	blt	s2,t0,368c <.L1578>

00003640 <.L1579>:
    3640:	ff878793          	addi	a5,a5,-8
    3644:	01079793          	slli	a5,a5,0x10
    3648:	0107d793          	srli	a5,a5,0x10

0000364c <.L626>:
    364c:	01079793          	slli	a5,a5,0x10
    3650:	4107d793          	srai	a5,a5,0x10
    3654:	02f00293          	li	t0,47
    3658:	0bc2da63          	bge	t0,t3,370c <.L619>

0000365c <.L631>:
    365c:	009c0c13          	addi	s8,s8,9
    3660:	010c1c13          	slli	s8,s8,0x10
    3664:	410c5c13          	srai	s8,s8,0x10
    3668:	e2dff06f          	j	3494 <.L629>

0000366c <.L608>:
    366c:	ffd70713          	addi	a4,a4,-3
    3670:	01071713          	slli	a4,a4,0x10
    3674:	41075713          	srai	a4,a4,0x10

00003678 <.L611>:
    3678:	f6a00293          	li	t0,-150
    367c:	dc584ee3          	blt	a6,t0,3458 <.L1540>
    3680:	01451903          	lh	s2,20(a0)
    3684:	f5b00293          	li	t0,-165
    3688:	0c595263          	bge	s2,t0,374c <.L621>

0000368c <.L1578>:
    368c:	03200293          	li	t0,50
    3690:	0be2c663          	blt	t0,t5,373c <.L622>
    3694:	01578793          	addi	a5,a5,21
    3698:	01079793          	slli	a5,a5,0x10
    369c:	4107d793          	srai	a5,a5,0x10
    36a0:	02f00293          	li	t0,47
    36a4:	ddc2cce3          	blt	t0,t3,347c <.L624>

000036a8 <.L623>:
    36a8:	08d00293          	li	t0,141
    36ac:	0ab2cc63          	blt	t0,a1,3764 <.L628>
    36b0:	005c0c13          	addi	s8,s8,5
    36b4:	010c1c13          	slli	s8,s8,0x10
    36b8:	410c5c13          	srai	s8,s8,0x10
    36bc:	dd9ff06f          	j	3494 <.L629>

000036c0 <.L612>:
    36c0:	00270713          	addi	a4,a4,2
    36c4:	01071713          	slli	a4,a4,0x10
    36c8:	41075713          	srai	a4,a4,0x10
    36cc:	fadff06f          	j	3678 <.L611>

000036d0 <.L614>:
    36d0:	00570713          	addi	a4,a4,5
    36d4:	01071713          	slli	a4,a4,0x10
    36d8:	01075713          	srli	a4,a4,0x10
    36dc:	d75ff06f          	j	3450 <.L615>

000036e0 <.L613>:
    36e0:	03800293          	li	t0,56
    36e4:	f9e2dae3          	bge	t0,t5,3678 <.L611>
    36e8:	ff570713          	addi	a4,a4,-11
    36ec:	01071713          	slli	a4,a4,0x10
    36f0:	41075713          	srai	a4,a4,0x10
    36f4:	f85ff06f          	j	3678 <.L611>

000036f8 <.L609>:
    36f8:	01500293          	li	t0,21
    36fc:	d7c2cce3          	blt	t0,t3,3474 <.L618>
    3700:	ffa78793          	addi	a5,a5,-6
    3704:	01079793          	slli	a5,a5,0x10
    3708:	4107d793          	srai	a5,a5,0x10

0000370c <.L619>:
    370c:	03800293          	li	t0,56
    3710:	f9e2dce3          	bge	t0,t5,36a8 <.L623>
    3714:	03d00293          	li	t0,61
    3718:	04d2ce63          	blt	t0,a3,3774 <.L630>
    371c:	ffac0c13          	addi	s8,s8,-6
    3720:	010c1c13          	slli	s8,s8,0x10
    3724:	410c5c13          	srai	s8,s8,0x10
    3728:	d6dff06f          	j	3494 <.L629>

0000372c <.L620>:
    372c:	fff78793          	addi	a5,a5,-1
    3730:	01079793          	slli	a5,a5,0x10
    3734:	4107d793          	srai	a5,a5,0x10
    3738:	d3dff06f          	j	3474 <.L618>

0000373c <.L622>:
    373c:	00778793          	addi	a5,a5,7
    3740:	01079793          	slli	a5,a5,0x10
    3744:	4107d793          	srai	a5,a5,0x10
    3748:	d2dff06f          	j	3474 <.L618>

0000374c <.L621>:
    374c:	0ed00293          	li	t0,237
    3750:	eeb2d8e3          	bge	t0,a1,3640 <.L1579>
    3754:	00378793          	addi	a5,a5,3
    3758:	01079793          	slli	a5,a5,0x10
    375c:	0107d793          	srli	a5,a5,0x10
    3760:	eedff06f          	j	364c <.L626>

00003764 <.L628>:
    3764:	ff8c0c13          	addi	s8,s8,-8
    3768:	010c1c13          	slli	s8,s8,0x10
    376c:	410c5c13          	srai	s8,s8,0x10
    3770:	d25ff06f          	j	3494 <.L629>

00003774 <.L630>:
    3774:	001c0c13          	addi	s8,s8,1
    3778:	010c1c13          	slli	s8,s8,0x10
    377c:	410c5c13          	srai	s8,s8,0x10
    3780:	d15ff06f          	j	3494 <.L629>

00003784 <.L633>:
    3784:	00c51903          	lh	s2,12(a0)
    3788:	0b900293          	li	t0,185
    378c:	0122ca63          	blt	t0,s2,37a0 <.L635>
    3790:	006f8f93          	addi	t6,t6,6
    3794:	010f9f93          	slli	t6,t6,0x10
    3798:	410fdf93          	srai	t6,t6,0x10
    379c:	d25ff06f          	j	34c0 <.L634>

000037a0 <.L635>:
    37a0:	ff7f8f93          	addi	t6,t6,-9
    37a4:	010f9f93          	slli	t6,t6,0x10
    37a8:	410fdf93          	srai	t6,t6,0x10
    37ac:	d15ff06f          	j	34c0 <.L634>

000037b0 <.L632>:
    37b0:	ebf00293          	li	t0,-321
    37b4:	02585663          	bge	a6,t0,37e0 <.L636>
    37b8:	03c00293          	li	t0,60
    37bc:	00d2ca63          	blt	t0,a3,37d0 <.L637>
    37c0:	006f8f93          	addi	t6,t6,6
    37c4:	010f9f93          	slli	t6,t6,0x10
    37c8:	410fdf93          	srai	t6,t6,0x10
    37cc:	cf5ff06f          	j	34c0 <.L634>

000037d0 <.L637>:
    37d0:	019f8f93          	addi	t6,t6,25
    37d4:	010f9f93          	slli	t6,t6,0x10
    37d8:	410fdf93          	srai	t6,t6,0x10
    37dc:	ce5ff06f          	j	34c0 <.L634>

000037e0 <.L636>:
    37e0:	03b00293          	li	t0,59
    37e4:	00d2ca63          	blt	t0,a3,37f8 <.L638>
    37e8:	ffff8f93          	addi	t6,t6,-1
    37ec:	010f9f93          	slli	t6,t6,0x10
    37f0:	410fdf93          	srai	t6,t6,0x10
    37f4:	ccdff06f          	j	34c0 <.L634>

000037f8 <.L638>:
    37f8:	004f8f93          	addi	t6,t6,4
    37fc:	010f9f93          	slli	t6,t6,0x10
    3800:	410fdf93          	srai	t6,t6,0x10
    3804:	cbdff06f          	j	34c0 <.L634>

00003808 <.L641>:
    3808:	ff670713          	addi	a4,a4,-10
    380c:	01071713          	slli	a4,a4,0x10
    3810:	41075713          	srai	a4,a4,0x10
    3814:	03300913          	li	s2,51
    3818:	0cd95c63          	bge	s2,a3,38f0 <.L643>

0000381c <.L644>:
    381c:	d7800913          	li	s2,-648
    3820:	11245263          	bge	s0,s2,3924 <.L651>
    3824:	02200913          	li	s2,34
    3828:	0f494663          	blt	s2,s4,3914 <.L652>
    382c:	00978793          	addi	a5,a5,9
    3830:	01079793          	slli	a5,a5,0x10
    3834:	4107d793          	srai	a5,a5,0x10

00003838 <.L653>:
    3838:	03900913          	li	s2,57
    383c:	ccd958e3          	bge	s2,a3,350c <.L1539>
    3840:	01451983          	lh	s3,20(a0)
    3844:	e4a00913          	li	s2,-438
    3848:	1529d863          	bge	s3,s2,3998 <.L660>
    384c:	03d00913          	li	s2,61
    3850:	12d94c63          	blt	s2,a3,3988 <.L661>
    3854:	ff8c0c13          	addi	s8,s8,-8
    3858:	010c1c13          	slli	s8,s8,0x10
    385c:	410c5c13          	srai	s8,s8,0x10
    3860:	cc9ff06f          	j	3528 <.L658>

00003864 <.L640>:
    3864:	01451983          	lh	s3,20(a0)
    3868:	ea700913          	li	s2,-345
    386c:	0129da63          	bge	s3,s2,3880 <.L645>
    3870:	00770713          	addi	a4,a4,7
    3874:	01071713          	slli	a4,a4,0x10
    3878:	41075713          	srai	a4,a4,0x10
    387c:	c71ff06f          	j	34ec <.L642>

00003880 <.L645>:
    3880:	ffe70713          	addi	a4,a4,-2
    3884:	01071713          	slli	a4,a4,0x10
    3888:	41075713          	srai	a4,a4,0x10
    388c:	c61ff06f          	j	34ec <.L642>

00003890 <.L639>:
    3890:	1db00913          	li	s2,475
    3894:	00c12983          	lw	s3,12(sp)
    3898:	03394663          	blt	s2,s3,38c4 <.L646>
    389c:	ff400913          	li	s2,-12
    38a0:	01235a63          	bge	t1,s2,38b4 <.L647>
    38a4:	ffe70713          	addi	a4,a4,-2
    38a8:	01071713          	slli	a4,a4,0x10
    38ac:	41075713          	srai	a4,a4,0x10
    38b0:	c3dff06f          	j	34ec <.L642>

000038b4 <.L647>:
    38b4:	fe170713          	addi	a4,a4,-31
    38b8:	01071713          	slli	a4,a4,0x10
    38bc:	41075713          	srai	a4,a4,0x10
    38c0:	c2dff06f          	j	34ec <.L642>

000038c4 <.L646>:
    38c4:	02051983          	lh	s3,32(a0)
    38c8:	02700913          	li	s2,39
    38cc:	01394a63          	blt	s2,s3,38e0 <.L648>
    38d0:	00a70713          	addi	a4,a4,10
    38d4:	01071713          	slli	a4,a4,0x10
    38d8:	41075713          	srai	a4,a4,0x10
    38dc:	c11ff06f          	j	34ec <.L642>

000038e0 <.L648>:
    38e0:	ffa70713          	addi	a4,a4,-6
    38e4:	01071713          	slli	a4,a4,0x10
    38e8:	41075713          	srai	a4,a4,0x10
    38ec:	c01ff06f          	j	34ec <.L642>

000038f0 <.L643>:
    38f0:	000e4a63          	bltz	t3,3904 <.L1629>
    38f4:	00878793          	addi	a5,a5,8
    38f8:	01079793          	slli	a5,a5,0x10
    38fc:	4107d793          	srai	a5,a5,0x10
    3900:	c0dff06f          	j	350c <.L1539>

00003904 <.L1629>:
    3904:	ffd78793          	addi	a5,a5,-3
    3908:	01079793          	slli	a5,a5,0x10
    390c:	4107d793          	srai	a5,a5,0x10
    3910:	bfdff06f          	j	350c <.L1539>

00003914 <.L652>:
    3914:	fff78793          	addi	a5,a5,-1
    3918:	01079793          	slli	a5,a5,0x10
    391c:	4107d793          	srai	a5,a5,0x10
    3920:	f19ff06f          	j	3838 <.L653>

00003924 <.L651>:
    3924:	01500913          	li	s2,21
    3928:	00594a63          	blt	s2,t0,393c <.L654>
    392c:	00178793          	addi	a5,a5,1
    3930:	01079793          	slli	a5,a5,0x10
    3934:	4107d793          	srai	a5,a5,0x10
    3938:	f01ff06f          	j	3838 <.L653>

0000393c <.L654>:
    393c:	ffb78793          	addi	a5,a5,-5
    3940:	01079793          	slli	a5,a5,0x10
    3944:	4107d793          	srai	a5,a5,0x10
    3948:	ef1ff06f          	j	3838 <.L653>

0000394c <.L657>:
    394c:	015c0c13          	addi	s8,s8,21
    3950:	010c1c13          	slli	s8,s8,0x10
    3954:	410c5c13          	srai	s8,s8,0x10
    3958:	bd1ff06f          	j	3528 <.L658>

0000395c <.L656>:
    395c:	00c51983          	lh	s3,12(a0)
    3960:	27700913          	li	s2,631
    3964:	01394a63          	blt	s2,s3,3978 <.L659>
    3968:	ff7c0c13          	addi	s8,s8,-9
    396c:	010c1c13          	slli	s8,s8,0x10
    3970:	410c5c13          	srai	s8,s8,0x10
    3974:	bb5ff06f          	j	3528 <.L658>

00003978 <.L659>:
    3978:	002c0c13          	addi	s8,s8,2
    397c:	010c1c13          	slli	s8,s8,0x10
    3980:	410c5c13          	srai	s8,s8,0x10
    3984:	ba5ff06f          	j	3528 <.L658>

00003988 <.L661>:
    3988:	003c0c13          	addi	s8,s8,3
    398c:	010c1c13          	slli	s8,s8,0x10
    3990:	410c5c13          	srai	s8,s8,0x10
    3994:	b95ff06f          	j	3528 <.L658>

00003998 <.L660>:
    3998:	02200913          	li	s2,34
    399c:	b9c956e3          	bge	s2,t3,3528 <.L658>
    39a0:	008c0c13          	addi	s8,s8,8
    39a4:	010c1c13          	slli	s8,s8,0x10
    39a8:	410c5c13          	srai	s8,s8,0x10
    39ac:	b7dff06f          	j	3528 <.L658>

000039b0 <.L664>:
    39b0:	008f8f93          	addi	t6,t6,8
    39b4:	010f9f93          	slli	t6,t6,0x10
    39b8:	410fdf93          	srai	t6,t6,0x10
    39bc:	03300913          	li	s2,51
    39c0:	b9e95ce3          	bge	s2,t5,3558 <.L666>

000039c4 <.L667>:
    39c4:	03b00913          	li	s2,59
    39c8:	18d94a63          	blt	s2,a3,3b5c <.L681>
    39cc:	00570713          	addi	a4,a4,5
    39d0:	01071993          	slli	s3,a4,0x10
    39d4:	4109d993          	srai	s3,s3,0x10
    39d8:	b9dff06f          	j	3574 <.L675>

000039dc <.L663>:
    39dc:	01c51983          	lh	s3,28(a0)
    39e0:	01900913          	li	s2,25
    39e4:	01394a63          	blt	s2,s3,39f8 <.L668>
    39e8:	ffff8f93          	addi	t6,t6,-1
    39ec:	010f9f93          	slli	t6,t6,0x10
    39f0:	410fdf93          	srai	t6,t6,0x10
    39f4:	b5dff06f          	j	3550 <.L665>

000039f8 <.L668>:
    39f8:	00df8f93          	addi	t6,t6,13
    39fc:	010f9f93          	slli	t6,t6,0x10
    3a00:	410fdf93          	srai	t6,t6,0x10
    3a04:	b4dff06f          	j	3550 <.L665>

00003a08 <.L662>:
    3a08:	01c51983          	lh	s3,28(a0)
    3a0c:	03500913          	li	s2,53
    3a10:	03394863          	blt	s2,s3,3a40 <.L669>
    3a14:	00c51983          	lh	s3,12(a0)
    3a18:	ffa00913          	li	s2,-6
    3a1c:	0129da63          	bge	s3,s2,3a30 <.L670>
    3a20:	004f8f93          	addi	t6,t6,4
    3a24:	010f9f93          	slli	t6,t6,0x10
    3a28:	410fdf93          	srai	t6,t6,0x10
    3a2c:	b25ff06f          	j	3550 <.L665>

00003a30 <.L670>:
    3a30:	ffbf8f93          	addi	t6,t6,-5
    3a34:	010f9f93          	slli	t6,t6,0x10
    3a38:	410fdf93          	srai	t6,t6,0x10
    3a3c:	b15ff06f          	j	3550 <.L665>

00003a40 <.L669>:
    3a40:	13100913          	li	s2,305
    3a44:	00c12983          	lw	s3,12(sp)
    3a48:	01394a63          	blt	s2,s3,3a5c <.L671>
    3a4c:	008f8f93          	addi	t6,t6,8
    3a50:	010f9f93          	slli	t6,t6,0x10
    3a54:	410fdf93          	srai	t6,t6,0x10
    3a58:	af9ff06f          	j	3550 <.L665>

00003a5c <.L671>:
    3a5c:	ff9f8f93          	addi	t6,t6,-7
    3a60:	010f9f93          	slli	t6,t6,0x10
    3a64:	410fdf93          	srai	t6,t6,0x10
    3a68:	ae9ff06f          	j	3550 <.L665>

00003a6c <.L674>:
    3a6c:	00570713          	addi	a4,a4,5
    3a70:	01071993          	slli	s3,a4,0x10
    3a74:	4109d993          	srai	s3,s3,0x10
    3a78:	afdff06f          	j	3574 <.L675>

00003a7c <.L673>:
    3a7c:	32100913          	li	s2,801
    3a80:	00b94a63          	blt	s2,a1,3a94 <.L676>
    3a84:	ff570713          	addi	a4,a4,-11
    3a88:	01071993          	slli	s3,a4,0x10
    3a8c:	4109d993          	srai	s3,s3,0x10
    3a90:	ae5ff06f          	j	3574 <.L675>

00003a94 <.L676>:
    3a94:	ffe70713          	addi	a4,a4,-2
    3a98:	01071993          	slli	s3,a4,0x10
    3a9c:	4109d993          	srai	s3,s3,0x10
    3aa0:	addff06f          	j	357c <.L677>

00003aa4 <.L672>:
    3aa4:	01b00913          	li	s2,27
    3aa8:	f0c94ee3          	blt	s2,a2,39c4 <.L667>
    3aac:	fcd00913          	li	s2,-51
    3ab0:	0925d063          	bge	a1,s2,3b30 <.L678>
    3ab4:	00670713          	addi	a4,a4,6
    3ab8:	01071993          	slli	s3,a4,0x10
    3abc:	4109d993          	srai	s3,s3,0x10

00003ac0 <.L679>:
    3ac0:	02a51903          	lh	s2,42(a0)
    3ac4:	01300713          	li	a4,19
    3ac8:	0f274063          	blt	a4,s2,3ba8 <.L682>
    3acc:	01251903          	lh	s2,18(a0)
    3ad0:	20f00713          	li	a4,527
    3ad4:	09274c63          	blt	a4,s2,3b6c <.L683>
    3ad8:	ffe78793          	addi	a5,a5,-2
    3adc:	01079b13          	slli	s6,a5,0x10
    3ae0:	410b5b13          	srai	s6,s6,0x10
    3ae4:	cf000793          	li	a5,-784
    3ae8:	10f84663          	blt	a6,a5,3bf4 <.L684>

00003aec <.L685>:
    3aec:	00c51703          	lh	a4,12(a0)
    3af0:	0de00793          	li	a5,222
    3af4:	18e7c263          	blt	a5,a4,3c78 <.L696>
    3af8:	02600793          	li	a5,38
    3afc:	00b7d863          	bge	a5,a1,3b0c <.L697>
    3b00:	ffac0c13          	addi	s8,s8,-6
    3b04:	010c1c13          	slli	s8,s8,0x10
    3b08:	410c5c13          	srai	s8,s8,0x10

00003b0c <.L697>:
    3b0c:	01451a83          	lh	s5,20(a0)
    3b10:	fa300793          	li	a5,-93
    3b14:	18fac863          	blt	s5,a5,3ca4 <.L1537>

00003b18 <.L1538>:
    3b18:	efb00793          	li	a5,-261
    3b1c:	1ef85c63          	bge	a6,a5,3d14 <.L703>
    3b20:	001f8f93          	addi	t6,t6,1
    3b24:	010f9f93          	slli	t6,t6,0x10
    3b28:	410fdf93          	srai	t6,t6,0x10
    3b2c:	18c0006f          	j	3cb8 <.L701>

00003b30 <.L678>:
    3b30:	ffb70713          	addi	a4,a4,-5
    3b34:	01071993          	slli	s3,a4,0x10
    3b38:	4109d993          	srai	s3,s3,0x10
    3b3c:	03900713          	li	a4,57
    3b40:	f8b750e3          	bge	a4,a1,3ac0 <.L679>

00003b44 <.L680>:
    3b44:	ea600713          	li	a4,-346
    3b48:	08e3d663          	bge	t2,a4,3bd4 <.L689>
    3b4c:	fff78793          	addi	a5,a5,-1
    3b50:	01079b13          	slli	s6,a5,0x10
    3b54:	410b5b13          	srai	s6,s6,0x10
    3b58:	0200006f          	j	3b78 <.L686>

00003b5c <.L681>:
    3b5c:	fff70713          	addi	a4,a4,-1
    3b60:	01071993          	slli	s3,a4,0x10
    3b64:	4109d993          	srai	s3,s3,0x10
    3b68:	a0dff06f          	j	3574 <.L675>

00003b6c <.L683>:
    3b6c:	00e78793          	addi	a5,a5,14
    3b70:	01079b13          	slli	s6,a5,0x10
    3b74:	410b5b13          	srai	s6,s6,0x10

00003b78 <.L686>:
    3b78:	cf000913          	li	s2,-784
    3b7c:	f72858e3          	bge	a6,s2,3aec <.L685>
    3b80:	01251703          	lh	a4,18(a0)
    3b84:	25d00793          	li	a5,605
    3b88:	06e7d663          	bge	a5,a4,3bf4 <.L684>
    3b8c:	02651703          	lh	a4,38(a0)
    3b90:	0f600793          	li	a5,246
    3b94:	0ce7ca63          	blt	a5,a4,3c68 <.L695>
    3b98:	ffac0c13          	addi	s8,s8,-6
    3b9c:	010c1c13          	slli	s8,s8,0x10
    3ba0:	410c5c13          	srai	s8,s8,0x10
    3ba4:	0940006f          	j	3c38 <.L694>

00003ba8 <.L682>:
    3ba8:	01451903          	lh	s2,20(a0)
    3bac:	d8400713          	li	a4,-636
    3bb0:	00e95a63          	bge	s2,a4,3bc4 <.L687>
    3bb4:	00278793          	addi	a5,a5,2
    3bb8:	01079b13          	slli	s6,a5,0x10
    3bbc:	410b5b13          	srai	s6,s6,0x10
    3bc0:	fb9ff06f          	j	3b78 <.L686>

00003bc4 <.L687>:
    3bc4:	ff778793          	addi	a5,a5,-9
    3bc8:	01079b13          	slli	s6,a5,0x10
    3bcc:	410b5b13          	srai	s6,s6,0x10
    3bd0:	fa9ff06f          	j	3b78 <.L686>

00003bd4 <.L689>:
    3bd4:	00b78793          	addi	a5,a5,11
    3bd8:	01079b13          	slli	s6,a5,0x10
    3bdc:	410b5b13          	srai	s6,s6,0x10
    3be0:	f99ff06f          	j	3b78 <.L686>

00003be4 <.L690>:
    3be4:	ffa78793          	addi	a5,a5,-6
    3be8:	01079b13          	slli	s6,a5,0x10
    3bec:	410b5b13          	srai	s6,s6,0x10
    3bf0:	f89ff06f          	j	3b78 <.L686>

00003bf4 <.L684>:
    3bf4:	01451703          	lh	a4,20(a0)
    3bf8:	e2c00793          	li	a5,-468
    3bfc:	02f75863          	bge	a4,a5,3c2c <.L692>
    3c00:	ffec0c13          	addi	s8,s8,-2
    3c04:	010c1c13          	slli	s8,s8,0x10
    3c08:	410c5c13          	srai	s8,s8,0x10

00003c0c <.L693>:
    3c0c:	01451a83          	lh	s5,20(a0)

00003c10 <.L1536>:
    3c10:	02a51703          	lh	a4,42(a0)
    3c14:	00400793          	li	a5,4
    3c18:	0ae7c063          	blt	a5,a4,3cb8 <.L701>
    3c1c:	00cf8f93          	addi	t6,t6,12
    3c20:	010f9f93          	slli	t6,t6,0x10
    3c24:	410fdf93          	srai	t6,t6,0x10
    3c28:	0900006f          	j	3cb8 <.L701>

00003c2c <.L692>:
    3c2c:	009c0c13          	addi	s8,s8,9
    3c30:	010c1c13          	slli	s8,s8,0x10
    3c34:	410c5c13          	srai	s8,s8,0x10

00003c38 <.L694>:
    3c38:	01451a83          	lh	s5,20(a0)
    3c3c:	fa300793          	li	a5,-93
    3c40:	06fac263          	blt	s5,a5,3ca4 <.L1537>
    3c44:	00c51703          	lh	a4,12(a0)
    3c48:	11c00793          	li	a5,284
    3c4c:	ece7d6e3          	bge	a5,a4,3b18 <.L1538>
    3c50:	02300793          	li	a5,35
    3c54:	0cb7c863          	blt	a5,a1,3d24 <.L704>
    3c58:	ff8f8f93          	addi	t6,t6,-8
    3c5c:	010f9f93          	slli	t6,t6,0x10
    3c60:	410fdf93          	srai	t6,t6,0x10
    3c64:	0540006f          	j	3cb8 <.L701>

00003c68 <.L695>:
    3c68:	003c0c13          	addi	s8,s8,3
    3c6c:	010c1c13          	slli	s8,s8,0x10
    3c70:	410c5c13          	srai	s8,s8,0x10
    3c74:	fc5ff06f          	j	3c38 <.L694>

00003c78 <.L696>:
    3c78:	01451703          	lh	a4,20(a0)
    3c7c:	f1900793          	li	a5,-231
    3c80:	00f75a63          	bge	a4,a5,3c94 <.L698>
    3c84:	fffc0c13          	addi	s8,s8,-1
    3c88:	010c1c13          	slli	s8,s8,0x10
    3c8c:	410c5c13          	srai	s8,s8,0x10
    3c90:	f7dff06f          	j	3c0c <.L693>

00003c94 <.L698>:
    3c94:	008c0c13          	addi	s8,s8,8
    3c98:	010c1c13          	slli	s8,s8,0x10
    3c9c:	410c5c13          	srai	s8,s8,0x10
    3ca0:	f99ff06f          	j	3c38 <.L694>

00003ca4 <.L1537>:
    3ca4:	fa100793          	li	a5,-95
    3ca8:	f6fac4e3          	blt	s5,a5,3c10 <.L1536>
    3cac:	feaf8f93          	addi	t6,t6,-22
    3cb0:	010f9f93          	slli	t6,t6,0x10
    3cb4:	410fdf93          	srai	t6,t6,0x10

00003cb8 <.L701>:
    3cb8:	1ac00913          	li	s2,428
    3cbc:	00c12783          	lw	a5,12(sp)
    3cc0:	0cf94e63          	blt	s2,a5,3d9c <.L705>
    3cc4:	02051703          	lh	a4,32(a0)
    3cc8:	00400793          	li	a5,4
    3ccc:	06e7cc63          	blt	a5,a4,3d44 <.L706>
    3cd0:	02651703          	lh	a4,38(a0)
    3cd4:	16a00793          	li	a5,362
    3cd8:	04e7ce63          	blt	a5,a4,3d34 <.L707>
    3cdc:	00398993          	addi	s3,s3,3
    3ce0:	01099993          	slli	s3,s3,0x10
    3ce4:	4109d993          	srai	s3,s3,0x10

00003ce8 <.L708>:
    3ce8:	03d00913          	li	s2,61
    3cec:	08d94063          	blt	s2,a3,3d6c <.L716>

00003cf0 <.L714>:
    3cf0:	02051703          	lh	a4,32(a0)
    3cf4:	00100793          	li	a5,1
    3cf8:	14e7c263          	blt	a5,a4,3e3c <.L717>
    3cfc:	e4e00793          	li	a5,-434
    3d00:	12f85663          	bge	a6,a5,3e2c <.L718>
    3d04:	004b0713          	addi	a4,s6,4
    3d08:	01071713          	slli	a4,a4,0x10
    3d0c:	41075713          	srai	a4,a4,0x10
    3d10:	1940006f          	j	3ea4 <.L719>

00003d14 <.L703>:
    3d14:	00af8f93          	addi	t6,t6,10
    3d18:	010f9f93          	slli	t6,t6,0x10
    3d1c:	410fdf93          	srai	t6,t6,0x10
    3d20:	f99ff06f          	j	3cb8 <.L701>

00003d24 <.L704>:
    3d24:	006f8f93          	addi	t6,t6,6
    3d28:	010f9f93          	slli	t6,t6,0x10
    3d2c:	410fdf93          	srai	t6,t6,0x10
    3d30:	f89ff06f          	j	3cb8 <.L701>

00003d34 <.L707>:
    3d34:	ff898993          	addi	s3,s3,-8
    3d38:	01099993          	slli	s3,s3,0x10
    3d3c:	4109d993          	srai	s3,s3,0x10
    3d40:	fa9ff06f          	j	3ce8 <.L708>

00003d44 <.L706>:
    3d44:	02a51703          	lh	a4,42(a0)
    3d48:	01400793          	li	a5,20
    3d4c:	04e7c063          	blt	a5,a4,3d8c <.L709>
    3d50:	ffe98993          	addi	s3,s3,-2
    3d54:	01099993          	slli	s3,s3,0x10
    3d58:	0109d993          	srli	s3,s3,0x10

00003d5c <.L710>:
    3d5c:	01099993          	slli	s3,s3,0x10
    3d60:	4109d993          	srai	s3,s3,0x10
    3d64:	03d00793          	li	a5,61
    3d68:	0cd7da63          	bge	a5,a3,3e3c <.L717>

00003d6c <.L716>:
    3d6c:	d9500793          	li	a5,-619
    3d70:	06f4ce63          	blt	s1,a5,3dec <.L715>
    3d74:	55900793          	li	a5,1369
    3d78:	14b7ca63          	blt	a5,a1,3ecc <.L725>
    3d7c:	ff7b0713          	addi	a4,s6,-9
    3d80:	01071713          	slli	a4,a4,0x10
    3d84:	41075713          	srai	a4,a4,0x10
    3d88:	0700006f          	j	3df8 <.L722>

00003d8c <.L709>:
    3d8c:	ff798993          	addi	s3,s3,-9
    3d90:	01099993          	slli	s3,s3,0x10
    3d94:	0109d993          	srli	s3,s3,0x10
    3d98:	fc5ff06f          	j	3d5c <.L710>

00003d9c <.L705>:
    3d9c:	0a500793          	li	a5,165
    3da0:	02c7c863          	blt	a5,a2,3dd0 <.L711>
    3da4:	01251703          	lh	a4,18(a0)
    3da8:	1ff00793          	li	a5,511
    3dac:	00e7ca63          	blt	a5,a4,3dc0 <.L712>
    3db0:	00598993          	addi	s3,s3,5
    3db4:	01099993          	slli	s3,s3,0x10
    3db8:	4109d993          	srai	s3,s3,0x10
    3dbc:	f2dff06f          	j	3ce8 <.L708>

00003dc0 <.L712>:
    3dc0:	ffa98993          	addi	s3,s3,-6
    3dc4:	01099993          	slli	s3,s3,0x10
    3dc8:	4109d993          	srai	s3,s3,0x10
    3dcc:	f1dff06f          	j	3ce8 <.L708>

00003dd0 <.L711>:
    3dd0:	d5d00793          	li	a5,-675
    3dd4:	04f4d463          	bge	s1,a5,3e1c <.L713>
    3dd8:	ffd98993          	addi	s3,s3,-3
    3ddc:	01099993          	slli	s3,s3,0x10
    3de0:	4109d993          	srai	s3,s3,0x10
    3de4:	03d00793          	li	a5,61
    3de8:	f0d7d4e3          	bge	a5,a3,3cf0 <.L714>

00003dec <.L715>:
    3dec:	007b0713          	addi	a4,s6,7
    3df0:	01071713          	slli	a4,a4,0x10
    3df4:	41075713          	srai	a4,a4,0x10

00003df8 <.L722>:
    3df8:	02651903          	lh	s2,38(a0)
    3dfc:	11a00793          	li	a5,282
    3e00:	1127c663          	blt	a5,s2,3f0c <.L730>
    3e04:	0db00793          	li	a5,219
    3e08:	0ec7ca63          	blt	a5,a2,3efc <.L731>
    3e0c:	005c0c13          	addi	s8,s8,5
    3e10:	010c1c13          	slli	s8,s8,0x10
    3e14:	410c5c13          	srai	s8,s8,0x10
    3e18:	0580006f          	j	3e70 <.L728>

00003e1c <.L713>:
    3e1c:	00598993          	addi	s3,s3,5
    3e20:	01099993          	slli	s3,s3,0x10
    3e24:	4109d993          	srai	s3,s3,0x10
    3e28:	ec1ff06f          	j	3ce8 <.L708>

00003e2c <.L718>:
    3e2c:	ff7b0713          	addi	a4,s6,-9
    3e30:	01071713          	slli	a4,a4,0x10
    3e34:	41075713          	srai	a4,a4,0x10
    3e38:	06c0006f          	j	3ea4 <.L719>

00003e3c <.L717>:
    3e3c:	02700793          	li	a5,39
    3e40:	0457cc63          	blt	a5,t0,3e98 <.L720>
    3e44:	003b0713          	addi	a4,s6,3
    3e48:	01071713          	slli	a4,a4,0x10
    3e4c:	41075713          	srai	a4,a4,0x10
    3e50:	03900793          	li	a5,57
    3e54:	fad7c2e3          	blt	a5,a3,3df8 <.L722>

00003e58 <.L721>:
    3e58:	06200793          	li	a5,98
    3e5c:	00c12903          	lw	s2,12(sp)
    3e60:	0727ce63          	blt	a5,s2,3edc <.L727>
    3e64:	001c0c13          	addi	s8,s8,1
    3e68:	010c1c13          	slli	s8,s8,0x10
    3e6c:	410c5c13          	srai	s8,s8,0x10

00003e70 <.L728>:
    3e70:	01f00913          	li	s2,31
    3e74:	11494e63          	blt	s2,s4,3f90 <.L733>
    3e78:	02051903          	lh	s2,32(a0)
    3e7c:	0b205c63          	blez	s2,3f34 <.L1630>
    3e80:	00300793          	li	a5,3
    3e84:	0f27ce63          	blt	a5,s2,3f80 <.L739>
    3e88:	ffcf8f93          	addi	t6,t6,-4
    3e8c:	010f9f93          	slli	t6,t6,0x10
    3e90:	410fdf93          	srai	t6,t6,0x10
    3e94:	1140006f          	j	3fa8 <.L736>

00003e98 <.L720>:
    3e98:	ffdb0713          	addi	a4,s6,-3
    3e9c:	01071713          	slli	a4,a4,0x10
    3ea0:	41075713          	srai	a4,a4,0x10

00003ea4 <.L719>:
    3ea4:	03900793          	li	a5,57
    3ea8:	f4d7c8e3          	blt	a5,a3,3df8 <.L722>
    3eac:	03200793          	li	a5,50
    3eb0:	fa57d4e3          	bge	a5,t0,3e58 <.L721>
    3eb4:	ebb00793          	li	a5,-325
    3eb8:	02fada63          	bge	s5,a5,3eec <.L729>
    3ebc:	ffbc0c13          	addi	s8,s8,-5
    3ec0:	010c1c13          	slli	s8,s8,0x10
    3ec4:	410c5c13          	srai	s8,s8,0x10
    3ec8:	fa9ff06f          	j	3e70 <.L728>

00003ecc <.L725>:
    3ecc:	003b0713          	addi	a4,s6,3
    3ed0:	01071713          	slli	a4,a4,0x10
    3ed4:	41075713          	srai	a4,a4,0x10
    3ed8:	f21ff06f          	j	3df8 <.L722>

00003edc <.L727>:
    3edc:	ff7c0c13          	addi	s8,s8,-9
    3ee0:	010c1c13          	slli	s8,s8,0x10
    3ee4:	410c5c13          	srai	s8,s8,0x10
    3ee8:	f89ff06f          	j	3e70 <.L728>

00003eec <.L729>:
    3eec:	00dc0c13          	addi	s8,s8,13
    3ef0:	010c1c13          	slli	s8,s8,0x10
    3ef4:	410c5c13          	srai	s8,s8,0x10
    3ef8:	f79ff06f          	j	3e70 <.L728>

00003efc <.L731>:
    3efc:	ffdc0c13          	addi	s8,s8,-3
    3f00:	010c1c13          	slli	s8,s8,0x10
    3f04:	410c5c13          	srai	s8,s8,0x10
    3f08:	f69ff06f          	j	3e70 <.L728>

00003f0c <.L730>:
    3f0c:	01800793          	li	a5,24
    3f10:	01c7ca63          	blt	a5,t3,3f24 <.L732>
    3f14:	ff8c0c13          	addi	s8,s8,-8
    3f18:	010c1c13          	slli	s8,s8,0x10
    3f1c:	410c5c13          	srai	s8,s8,0x10
    3f20:	f51ff06f          	j	3e70 <.L728>

00003f24 <.L732>:
    3f24:	003c0c13          	addi	s8,s8,3
    3f28:	010c1c13          	slli	s8,s8,0x10
    3f2c:	410c5c13          	srai	s8,s8,0x10
    3f30:	f41ff06f          	j	3e70 <.L728>

00003f34 <.L1630>:
    3f34:	01900793          	li	a5,25
    3f38:	01c7ca63          	blt	a5,t3,3f4c <.L735>
    3f3c:	009f8f93          	addi	t6,t6,9
    3f40:	010f9f93          	slli	t6,t6,0x10
    3f44:	410fdf93          	srai	t6,t6,0x10
    3f48:	0600006f          	j	3fa8 <.L736>

00003f4c <.L735>:
    3f4c:	ffdf8f93          	addi	t6,t6,-3
    3f50:	010f9f93          	slli	t6,t6,0x10
    3f54:	410fdf93          	srai	t6,t6,0x10
    3f58:	03100793          	li	a5,49
    3f5c:	01e7c463          	blt	a5,t5,3f64 <.L738>
    3f60:	1fc0406f          	j	815c <.L737>

00003f64 <.L738>:
    3f64:	02a51903          	lh	s2,42(a0)
    3f68:	00b00793          	li	a5,11
    3f6c:	0f27c263          	blt	a5,s2,4050 <.L746>
    3f70:	00398793          	addi	a5,s3,3
    3f74:	01079793          	slli	a5,a5,0x10
    3f78:	4107d793          	srai	a5,a5,0x10
    3f7c:	0540006f          	j	3fd0 <.L743>

00003f80 <.L739>:
    3f80:	001f8f93          	addi	t6,t6,1
    3f84:	010f9f93          	slli	t6,t6,0x10
    3f88:	410fdf93          	srai	t6,t6,0x10
    3f8c:	01c0006f          	j	3fa8 <.L736>

00003f90 <.L733>:
    3f90:	02a51903          	lh	s2,42(a0)
    3f94:	00600793          	li	a5,6
    3f98:	0127d863          	bge	a5,s2,3fa8 <.L736>
    3f9c:	ff7f8f93          	addi	t6,t6,-9
    3fa0:	010f9f93          	slli	t6,t6,0x10
    3fa4:	410fdf93          	srai	t6,t6,0x10

00003fa8 <.L736>:
    3fa8:	03100913          	li	s2,49
    3fac:	07e94863          	blt	s2,t5,401c <.L740>
    3fb0:	1f500793          	li	a5,501
    3fb4:	00c7d463          	bge	a5,a2,3fbc <.L736+0x14>
    3fb8:	1b00406f          	j	8168 <.L741>
    3fbc:	ff900793          	li	a5,-7
    3fc0:	02fe5e63          	bge	t3,a5,3ffc <.L742>
    3fc4:	ffe98793          	addi	a5,s3,-2
    3fc8:	01079793          	slli	a5,a5,0x10
    3fcc:	4107d793          	srai	a5,a5,0x10

00003fd0 <.L743>:
    3fd0:	01251b03          	lh	s6,18(a0)
    3fd4:	0c100913          	li	s2,193
    3fd8:	13694c63          	blt	s2,s6,4110 <.L747>
    3fdc:	03800913          	li	s2,56
    3fe0:	08d94863          	blt	s2,a3,4070 <.L748>
    3fe4:	ff900913          	li	s2,-7
    3fe8:	07235c63          	bge	t1,s2,4060 <.L749>
    3fec:	00570713          	addi	a4,a4,5
    3ff0:	01071713          	slli	a4,a4,0x10
    3ff4:	41075713          	srai	a4,a4,0x10
    3ff8:	0840006f          	j	407c <.L750>

00003ffc <.L742>:
    3ffc:	ff598793          	addi	a5,s3,-11
    4000:	01079793          	slli	a5,a5,0x10
    4004:	4107d793          	srai	a5,a5,0x10
    4008:	fc9ff06f          	j	3fd0 <.L743>

0000400c <.L744>:
    400c:	00698793          	addi	a5,s3,6
    4010:	01079793          	slli	a5,a5,0x10
    4014:	4107d793          	srai	a5,a5,0x10
    4018:	fb9ff06f          	j	3fd0 <.L743>

0000401c <.L740>:
    401c:	01400793          	li	a5,20
    4020:	f5c7c2e3          	blt	a5,t3,3f64 <.L738>
    4024:	0c400793          	li	a5,196
    4028:	00c12903          	lw	s2,12(sp)
    402c:	0127ca63          	blt	a5,s2,4040 <.L745>
    4030:	ff998793          	addi	a5,s3,-7
    4034:	01079793          	slli	a5,a5,0x10
    4038:	4107d793          	srai	a5,a5,0x10
    403c:	f95ff06f          	j	3fd0 <.L743>

00004040 <.L745>:
    4040:	00398793          	addi	a5,s3,3
    4044:	01079793          	slli	a5,a5,0x10
    4048:	4107d793          	srai	a5,a5,0x10
    404c:	f85ff06f          	j	3fd0 <.L743>

00004050 <.L746>:
    4050:	ffc98793          	addi	a5,s3,-4
    4054:	01079793          	slli	a5,a5,0x10
    4058:	4107d793          	srai	a5,a5,0x10
    405c:	f75ff06f          	j	3fd0 <.L743>

00004060 <.L749>:
    4060:	ffb70713          	addi	a4,a4,-5
    4064:	01071713          	slli	a4,a4,0x10
    4068:	41075713          	srai	a4,a4,0x10
    406c:	0100006f          	j	407c <.L750>

00004070 <.L748>:
    4070:	ff770713          	addi	a4,a4,-9
    4074:	01071713          	slli	a4,a4,0x10
    4078:	41075713          	srai	a4,a4,0x10

0000407c <.L750>:
    407c:	02f00913          	li	s2,47
    4080:	15c94863          	blt	s2,t3,41d0 <.L754>
    4084:	03800913          	li	s2,56
    4088:	11e94c63          	blt	s2,t5,41a0 <.L755>
    408c:	08d00913          	li	s2,141
    4090:	0cb94e63          	blt	s2,a1,416c <.L756>
    4094:	004c0c13          	addi	s8,s8,4
    4098:	010c1c13          	slli	s8,s8,0x10
    409c:	410c5c13          	srai	s8,s8,0x10
    40a0:	ffe00913          	li	s2,-2
    40a4:	152e5063          	bge	t3,s2,41e4 <.L758>

000040a8 <.L757>:
    40a8:	de600913          	li	s2,-538
    40ac:	15245c63          	bge	s0,s2,4204 <.L765>
    40b0:	ffaf8f93          	addi	t6,t6,-6
    40b4:	010f9c93          	slli	s9,t6,0x10
    40b8:	410cdc93          	srai	s9,s9,0x10

000040bc <.L766>:
    40bc:	30000f93          	li	t6,768
    40c0:	1ddfc463          	blt	t6,t4,4288 <.L771>
    40c4:	ff800f93          	li	t6,-8
    40c8:	19f35c63          	bge	t1,t6,4260 <.L772>
    40cc:	1dc00f93          	li	t6,476
    40d0:	00c12903          	lw	s2,12(sp)
    40d4:	012fc863          	blt	t6,s2,40e4 <.L773>
    40d8:	ff978793          	addi	a5,a5,-7
    40dc:	01079793          	slli	a5,a5,0x10
    40e0:	4107d793          	srai	a5,a5,0x10

000040e4 <.L773>:
    40e4:	02a51f83          	lh	t6,42(a0)
    40e8:	04900913          	li	s2,73
    40ec:	21f94a63          	blt	s2,t6,4300 <.L777>
    40f0:	02000913          	li	s2,32
    40f4:	1e594863          	blt	s2,t0,42e4 <.L778>
    40f8:	16300913          	li	s2,355
    40fc:	1dd94c63          	blt	s2,t4,42d4 <.L779>
    4100:	fff70713          	addi	a4,a4,-1
    4104:	01071713          	slli	a4,a4,0x10
    4108:	41075713          	srai	a4,a4,0x10
    410c:	2200006f          	j	432c <.L780>

00004110 <.L747>:
    4110:	f6900913          	li	s2,-151
    4114:	03285663          	bge	a6,s2,4140 <.L751>
    4118:	11400913          	li	s2,276
    411c:	00b94a63          	blt	s2,a1,4130 <.L752>
    4120:	ffd70713          	addi	a4,a4,-3
    4124:	01071713          	slli	a4,a4,0x10
    4128:	41075713          	srai	a4,a4,0x10
    412c:	f51ff06f          	j	407c <.L750>

00004130 <.L752>:
    4130:	00370713          	addi	a4,a4,3
    4134:	01071713          	slli	a4,a4,0x10
    4138:	41075713          	srai	a4,a4,0x10
    413c:	f41ff06f          	j	407c <.L750>

00004140 <.L751>:
    4140:	02651983          	lh	s3,38(a0)
    4144:	02f00913          	li	s2,47
    4148:	01394a63          	blt	s2,s3,415c <.L753>
    414c:	ffa70713          	addi	a4,a4,-6
    4150:	01071713          	slli	a4,a4,0x10
    4154:	41075713          	srai	a4,a4,0x10
    4158:	f25ff06f          	j	407c <.L750>

0000415c <.L753>:
    415c:	00a70713          	addi	a4,a4,10
    4160:	01071713          	slli	a4,a4,0x10
    4164:	41075713          	srai	a4,a4,0x10
    4168:	f15ff06f          	j	407c <.L750>

0000416c <.L756>:
    416c:	ff9c0c13          	addi	s8,s8,-7
    4170:	010c1c13          	slli	s8,s8,0x10
    4174:	410c5c13          	srai	s8,s8,0x10

00004178 <.L759>:
    4178:	ffe00913          	li	s2,-2
    417c:	072e5463          	bge	t3,s2,41e4 <.L758>

00004180 <.L761>:
    4180:	0a400913          	li	s2,164
    4184:	f2b952e3          	bge	s2,a1,40a8 <.L757>
    4188:	0c100913          	li	s2,193
    418c:	09194463          	blt	s2,a7,4214 <.L767>
    4190:	005f8f93          	addi	t6,t6,5
    4194:	010f9c93          	slli	s9,t6,0x10
    4198:	410cdc93          	srai	s9,s9,0x10
    419c:	f21ff06f          	j	40bc <.L766>

000041a0 <.L755>:
    41a0:	03b00913          	li	s2,59
    41a4:	00d94e63          	blt	s2,a3,41c0 <.L760>
    41a8:	ff8c0c13          	addi	s8,s8,-8
    41ac:	010c1c13          	slli	s8,s8,0x10
    41b0:	410c5c13          	srai	s8,s8,0x10
    41b4:	ffe00913          	li	s2,-2
    41b8:	fd2e44e3          	blt	t3,s2,4180 <.L761>
    41bc:	0300006f          	j	41ec <.L762>

000041c0 <.L760>:
    41c0:	fffc0c13          	addi	s8,s8,-1
    41c4:	010c1c13          	slli	s8,s8,0x10
    41c8:	410c5c13          	srai	s8,s8,0x10
    41cc:	fadff06f          	j	4178 <.L759>

000041d0 <.L754>:
    41d0:	e1900913          	li	s2,-487
    41d4:	01244863          	blt	s0,s2,41e4 <.L758>
    41d8:	008c0c13          	addi	s8,s8,8
    41dc:	010c1c13          	slli	s8,s8,0x10
    41e0:	410c5c13          	srai	s8,s8,0x10

000041e4 <.L758>:
    41e4:	03c00913          	li	s2,60
    41e8:	04d94663          	blt	s2,a3,4234 <.L768>

000041ec <.L762>:
    41ec:	00300913          	li	s2,3
    41f0:	02b94a63          	blt	s2,a1,4224 <.L769>
    41f4:	012f8fb3          	add	t6,t6,s2
    41f8:	010f9c93          	slli	s9,t6,0x10
    41fc:	410cdc93          	srai	s9,s9,0x10
    4200:	ebdff06f          	j	40bc <.L766>

00004204 <.L765>:
    4204:	009f8f93          	addi	t6,t6,9
    4208:	010f9c93          	slli	s9,t6,0x10
    420c:	410cdc93          	srai	s9,s9,0x10
    4210:	eadff06f          	j	40bc <.L766>

00004214 <.L767>:
    4214:	ffaf8f93          	addi	t6,t6,-6
    4218:	010f9c93          	slli	s9,t6,0x10
    421c:	410cdc93          	srai	s9,s9,0x10
    4220:	e9dff06f          	j	40bc <.L766>

00004224 <.L769>:
    4224:	ffef8f93          	addi	t6,t6,-2
    4228:	010f9c93          	slli	s9,t6,0x10
    422c:	410cdc93          	srai	s9,s9,0x10
    4230:	e8dff06f          	j	40bc <.L766>

00004234 <.L768>:
    4234:	01c51983          	lh	s3,28(a0)
    4238:	01e00913          	li	s2,30
    423c:	01394a63          	blt	s2,s3,4250 <.L770>
    4240:	ff9f8f93          	addi	t6,t6,-7
    4244:	010f9c93          	slli	s9,t6,0x10
    4248:	410cdc93          	srai	s9,s9,0x10
    424c:	e71ff06f          	j	40bc <.L766>

00004250 <.L770>:
    4250:	006f8f93          	addi	t6,t6,6
    4254:	010f9c93          	slli	s9,t6,0x10
    4258:	410cdc93          	srai	s9,s9,0x10
    425c:	e61ff06f          	j	40bc <.L766>

00004260 <.L772>:
    4260:	ea900f93          	li	t6,-343
    4264:	01fada63          	bge	s5,t6,4278 <.L774>
    4268:	00778793          	addi	a5,a5,7
    426c:	01079793          	slli	a5,a5,0x10
    4270:	4107d793          	srai	a5,a5,0x10
    4274:	e71ff06f          	j	40e4 <.L773>

00004278 <.L774>:
    4278:	fff78793          	addi	a5,a5,-1
    427c:	01079793          	slli	a5,a5,0x10
    4280:	4107d793          	srai	a5,a5,0x10
    4284:	e61ff06f          	j	40e4 <.L773>

00004288 <.L771>:
    4288:	03d00f93          	li	t6,61
    428c:	03efc063          	blt	t6,t5,42ac <.L775>
    4290:	01c51903          	lh	s2,28(a0)
    4294:	fdf00f93          	li	t6,-33
    4298:	e5f946e3          	blt	s2,t6,40e4 <.L773>
    429c:	00b78793          	addi	a5,a5,11
    42a0:	01079793          	slli	a5,a5,0x10
    42a4:	4107d793          	srai	a5,a5,0x10
    42a8:	e3dff06f          	j	40e4 <.L773>

000042ac <.L775>:
    42ac:	ff300f93          	li	t6,-13
    42b0:	01f35a63          	bge	t1,t6,42c4 <.L776>
    42b4:	ff578793          	addi	a5,a5,-11
    42b8:	01079793          	slli	a5,a5,0x10
    42bc:	4107d793          	srai	a5,a5,0x10
    42c0:	e25ff06f          	j	40e4 <.L773>

000042c4 <.L776>:
    42c4:	00678793          	addi	a5,a5,6
    42c8:	01079793          	slli	a5,a5,0x10
    42cc:	4107d793          	srai	a5,a5,0x10
    42d0:	e15ff06f          	j	40e4 <.L773>

000042d4 <.L779>:
    42d4:	00470713          	addi	a4,a4,4
    42d8:	01071713          	slli	a4,a4,0x10
    42dc:	41075713          	srai	a4,a4,0x10
    42e0:	04c0006f          	j	432c <.L780>

000042e4 <.L778>:
    42e4:	02651983          	lh	s3,38(a0)
    42e8:	1a300913          	li	s2,419
    42ec:	05394063          	blt	s2,s3,432c <.L780>
    42f0:	ff770713          	addi	a4,a4,-9
    42f4:	01071713          	slli	a4,a4,0x10
    42f8:	41075713          	srai	a4,a4,0x10
    42fc:	0300006f          	j	432c <.L780>

00004300 <.L777>:
    4300:	08600913          	li	s2,134
    4304:	00594e63          	blt	s2,t0,4320 <.L781>
    4308:	01c51903          	lh	s2,28(a0)
    430c:	03205063          	blez	s2,432c <.L780>
    4310:	00970713          	addi	a4,a4,9
    4314:	01071713          	slli	a4,a4,0x10
    4318:	41075713          	srai	a4,a4,0x10
    431c:	0100006f          	j	432c <.L780>

00004320 <.L781>:
    4320:	ffa70713          	addi	a4,a4,-6
    4324:	01071713          	slli	a4,a4,0x10
    4328:	41075713          	srai	a4,a4,0x10

0000432c <.L780>:
    432c:	e4a00913          	li	s2,-438
    4330:	092ad263          	bge	s5,s2,43b4 <.L782>
    4334:	03d00913          	li	s2,61
    4338:	04d94a63          	blt	s2,a3,438c <.L783>
    433c:	bf300913          	li	s2,-1037
    4340:	03285e63          	bge	a6,s2,437c <.L784>
    4344:	005c0c13          	addi	s8,s8,5
    4348:	010c1c13          	slli	s8,s8,0x10
    434c:	410c5c13          	srai	s8,s8,0x10

00004350 <.L785>:
    4350:	02651903          	lh	s2,38(a0)
    4354:	01500993          	li	s3,21
    4358:	1329ce63          	blt	s3,s2,4494 <.L789>
    435c:	0ac00993          	li	s3,172
    4360:	0d19ca63          	blt	s3,a7,4434 <.L790>
    4364:	ffe00993          	li	s3,-2
    4368:	09335c63          	bge	t1,s3,4400 <.L791>
    436c:	009c8c93          	addi	s9,s9,9
    4370:	010c9c93          	slli	s9,s9,0x10
    4374:	410cdc93          	srai	s9,s9,0x10
    4378:	0c80006f          	j	4440 <.L792>

0000437c <.L784>:
    437c:	ff7c0c13          	addi	s8,s8,-9
    4380:	010c1c13          	slli	s8,s8,0x10
    4384:	410c5c13          	srai	s8,s8,0x10
    4388:	fc9ff06f          	j	4350 <.L785>

0000438c <.L783>:
    438c:	01100913          	li	s2,17
    4390:	01f94a63          	blt	s2,t6,43a4 <.L786>
    4394:	008c0c13          	addi	s8,s8,8
    4398:	010c1c13          	slli	s8,s8,0x10
    439c:	410c5c13          	srai	s8,s8,0x10
    43a0:	fb1ff06f          	j	4350 <.L785>

000043a4 <.L786>:
    43a4:	ffbc0c13          	addi	s8,s8,-5
    43a8:	010c1c13          	slli	s8,s8,0x10
    43ac:	410c5c13          	srai	s8,s8,0x10
    43b0:	fa1ff06f          	j	4350 <.L785>

000043b4 <.L782>:
    43b4:	02051983          	lh	s3,32(a0)
    43b8:	00300913          	li	s2,3
    43bc:	01394e63          	blt	s2,s3,43d8 <.L787>
    43c0:	f0e00913          	li	s2,-242
    43c4:	f92ad6e3          	bge	s5,s2,4350 <.L785>
    43c8:	ff6c0c13          	addi	s8,s8,-10
    43cc:	010c1c13          	slli	s8,s8,0x10
    43d0:	410c5c13          	srai	s8,s8,0x10
    43d4:	f7dff06f          	j	4350 <.L785>

000043d8 <.L787>:
    43d8:	03600913          	li	s2,54
    43dc:	00d94a63          	blt	s2,a3,43f0 <.L788>
    43e0:	ffac0c13          	addi	s8,s8,-6
    43e4:	010c1c13          	slli	s8,s8,0x10
    43e8:	410c5c13          	srai	s8,s8,0x10
    43ec:	f65ff06f          	j	4350 <.L785>

000043f0 <.L788>:
    43f0:	003c0c13          	addi	s8,s8,3
    43f4:	010c1c13          	slli	s8,s8,0x10
    43f8:	410c5c13          	srai	s8,s8,0x10
    43fc:	f55ff06f          	j	4350 <.L785>

00004400 <.L791>:
    4400:	fffc8c93          	addi	s9,s9,-1
    4404:	010c9c93          	slli	s9,s9,0x10
    4408:	410cdc93          	srai	s9,s9,0x10
    440c:	03300993          	li	s3,51
    4410:	0fe9d663          	bge	s3,t5,44fc <.L793>

00004414 <.L794>:
    4414:	01400993          	li	s3,20
    4418:	11c9ce63          	blt	s3,t3,4534 <.L801>
    441c:	01300993          	li	s3,19
    4420:	10c9c263          	blt	s3,a2,4524 <.L802>
    4424:	ffc78793          	addi	a5,a5,-4
    4428:	01079793          	slli	a5,a5,0x10
    442c:	4107d793          	srai	a5,a5,0x10
    4430:	0340006f          	j	4464 <.L799>

00004434 <.L790>:
    4434:	ffdc8c93          	addi	s9,s9,-3
    4438:	010c9c93          	slli	s9,s9,0x10
    443c:	410cdc93          	srai	s9,s9,0x10

00004440 <.L792>:
    4440:	03300993          	li	s3,51
    4444:	fde9c8e3          	blt	s3,t5,4414 <.L794>
    4448:	fe200993          	li	s3,-30
    444c:	0b335863          	bge	t1,s3,44fc <.L793>
    4450:	e3d00993          	li	s3,-451
    4454:	0933dc63          	bge	t2,s3,44ec <.L798>
    4458:	ffa78793          	addi	a5,a5,-6
    445c:	01079793          	slli	a5,a5,0x10
    4460:	4107d793          	srai	a5,a5,0x10

00004464 <.L799>:
    4464:	02051983          	lh	s3,32(a0)
    4468:	00100b93          	li	s7,1
    446c:	0f3bda63          	bge	s7,s3,4560 <.L1631>

00004470 <.L804>:
    4470:	01500b93          	li	s7,21
    4474:	1a5bc863          	blt	s7,t0,4624 <.L808>
    4478:	20f00b93          	li	s7,527
    447c:	00c12d03          	lw	s10,12(sp)
    4480:	19abca63          	blt	s7,s10,4614 <.L809>
    4484:	00170713          	addi	a4,a4,1
    4488:	01071713          	slli	a4,a4,0x10
    448c:	41075713          	srai	a4,a4,0x10
    4490:	0e40006f          	j	4574 <.L806>

00004494 <.L789>:
    4494:	0fd00993          	li	s3,253
    4498:	0329c663          	blt	s3,s2,44c4 <.L795>
    449c:	fa300993          	li	s3,-93
    44a0:	013ada63          	bge	s5,s3,44b4 <.L796>
    44a4:	ffdc8c93          	addi	s9,s9,-3
    44a8:	010c9c93          	slli	s9,s9,0x10
    44ac:	410cdc93          	srai	s9,s9,0x10
    44b0:	f91ff06f          	j	4440 <.L792>

000044b4 <.L796>:
    44b4:	006c8c93          	addi	s9,s9,6
    44b8:	010c9c93          	slli	s9,s9,0x10
    44bc:	410cdc93          	srai	s9,s9,0x10
    44c0:	f81ff06f          	j	4440 <.L792>

000044c4 <.L795>:
    44c4:	e4300993          	li	s3,-445
    44c8:	0133da63          	bge	t2,s3,44dc <.L797>
    44cc:	ff7c8c93          	addi	s9,s9,-9
    44d0:	010c9c93          	slli	s9,s9,0x10
    44d4:	410cdc93          	srai	s9,s9,0x10
    44d8:	f69ff06f          	j	4440 <.L792>

000044dc <.L797>:
    44dc:	003c8c93          	addi	s9,s9,3
    44e0:	010c9c93          	slli	s9,s9,0x10
    44e4:	410cdc93          	srai	s9,s9,0x10
    44e8:	f59ff06f          	j	4440 <.L792>

000044ec <.L798>:
    44ec:	00578793          	addi	a5,a5,5
    44f0:	01079793          	slli	a5,a5,0x10
    44f4:	4107d793          	srai	a5,a5,0x10
    44f8:	f6dff06f          	j	4464 <.L799>

000044fc <.L793>:
    44fc:	32100993          	li	s3,801
    4500:	00b9ca63          	blt	s3,a1,4514 <.L800>
    4504:	ff678793          	addi	a5,a5,-10
    4508:	01079793          	slli	a5,a5,0x10
    450c:	4107d793          	srai	a5,a5,0x10
    4510:	f55ff06f          	j	4464 <.L799>

00004514 <.L800>:
    4514:	fff78793          	addi	a5,a5,-1
    4518:	01079793          	slli	a5,a5,0x10
    451c:	4107d793          	srai	a5,a5,0x10
    4520:	f45ff06f          	j	4464 <.L799>

00004524 <.L802>:
    4524:	00378793          	addi	a5,a5,3
    4528:	01079793          	slli	a5,a5,0x10
    452c:	4107d793          	srai	a5,a5,0x10
    4530:	f35ff06f          	j	4464 <.L799>

00004534 <.L801>:
    4534:	02051983          	lh	s3,32(a0)
    4538:	00200b93          	li	s7,2
    453c:	013bca63          	blt	s7,s3,4550 <.L803>
    4540:	00478793          	addi	a5,a5,4
    4544:	01079793          	slli	a5,a5,0x10
    4548:	4107d793          	srai	a5,a5,0x10
    454c:	f19ff06f          	j	4464 <.L799>

00004550 <.L803>:
    4550:	ffc78793          	addi	a5,a5,-4
    4554:	01079793          	slli	a5,a5,0x10
    4558:	4107d793          	srai	a5,a5,0x10
    455c:	f15ff06f          	j	4470 <.L804>

00004560 <.L1631>:
    4560:	e4e00b93          	li	s7,-434
    4564:	09785463          	bge	a6,s7,45ec <.L805>
    4568:	00370713          	addi	a4,a4,3
    456c:	01071713          	slli	a4,a4,0x10
    4570:	41075713          	srai	a4,a4,0x10

00004574 <.L806>:
    4574:	03e00b93          	li	s7,62
    4578:	10dbc663          	blt	s7,a3,4684 <.L811>
    457c:	03800b93          	li	s7,56
    4580:	0debce63          	blt	s7,t5,465c <.L812>
    4584:	f5400b93          	li	s7,-172
    4588:	0d73d263          	bge	t2,s7,464c <.L813>
    458c:	005c0c13          	addi	s8,s8,5
    4590:	010c1c13          	slli	s8,s8,0x10
    4594:	410c5c13          	srai	s8,s8,0x10

00004598 <.L814>:
    4598:	01f00b93          	li	s7,31
    459c:	114bc663          	blt	s7,s4,46a8 <.L818>
    45a0:	03b00b93          	li	s7,59
    45a4:	2edbc063          	blt	s7,a3,4884 <.L819>
    45a8:	1ed00b93          	li	s7,493
    45ac:	2d6bc463          	blt	s7,s6,4874 <.L820>
    45b0:	ffec8c93          	addi	s9,s9,-2
    45b4:	010c9c93          	slli	s9,s9,0x10
    45b8:	010cdc93          	srli	s9,s9,0x10

000045bc <.L821>:
    45bc:	010c9c93          	slli	s9,s9,0x10
    45c0:	410cdc93          	srai	s9,s9,0x10
    45c4:	1b900b93          	li	s7,441
    45c8:	11dbd663          	bge	s7,t4,46d4 <.L1535>

000045cc <.L826>:
    45cc:	03200b93          	li	s7,50
    45d0:	365bc463          	blt	s7,t0,4938 <.L832>
    45d4:	ff200b93          	li	s7,-14
    45d8:	35735863          	bge	t1,s7,4928 <.L833>
    45dc:	ff778793          	addi	a5,a5,-9
    45e0:	01079793          	slli	a5,a5,0x10
    45e4:	4107d793          	srai	a5,a5,0x10
    45e8:	2d40006f          	j	48bc <.L831>

000045ec <.L805>:
    45ec:	0aa00b93          	li	s7,170
    45f0:	01dbca63          	blt	s7,t4,4604 <.L807>
    45f4:	ffe70713          	addi	a4,a4,-2
    45f8:	01071713          	slli	a4,a4,0x10
    45fc:	41075713          	srai	a4,a4,0x10
    4600:	f75ff06f          	j	4574 <.L806>

00004604 <.L807>:
    4604:	ff770713          	addi	a4,a4,-9
    4608:	01071713          	slli	a4,a4,0x10
    460c:	41075713          	srai	a4,a4,0x10
    4610:	f65ff06f          	j	4574 <.L806>

00004614 <.L809>:
    4614:	00a70713          	addi	a4,a4,10
    4618:	01071713          	slli	a4,a4,0x10
    461c:	41075713          	srai	a4,a4,0x10
    4620:	f55ff06f          	j	4574 <.L806>

00004624 <.L808>:
    4624:	01f00b93          	li	s7,31
    4628:	01fbca63          	blt	s7,t6,463c <.L810>
    462c:	ff970713          	addi	a4,a4,-7
    4630:	01071713          	slli	a4,a4,0x10
    4634:	41075713          	srai	a4,a4,0x10
    4638:	f3dff06f          	j	4574 <.L806>

0000463c <.L810>:
    463c:	00170713          	addi	a4,a4,1
    4640:	01071713          	slli	a4,a4,0x10
    4644:	41075713          	srai	a4,a4,0x10
    4648:	f2dff06f          	j	4574 <.L806>

0000464c <.L813>:
    464c:	ffbc0c13          	addi	s8,s8,-5
    4650:	010c1c13          	slli	s8,s8,0x10
    4654:	410c5c13          	srai	s8,s8,0x10
    4658:	f41ff06f          	j	4598 <.L814>

0000465c <.L812>:
    465c:	f0600b93          	li	s7,-250
    4660:	0174da63          	bge	s1,s7,4674 <.L815>
    4664:	ffac0c13          	addi	s8,s8,-6
    4668:	010c1c13          	slli	s8,s8,0x10
    466c:	410c5c13          	srai	s8,s8,0x10
    4670:	f29ff06f          	j	4598 <.L814>

00004674 <.L815>:
    4674:	001c0c13          	addi	s8,s8,1
    4678:	010c1c13          	slli	s8,s8,0x10
    467c:	410c5c13          	srai	s8,s8,0x10
    4680:	f19ff06f          	j	4598 <.L814>

00004684 <.L811>:
    4684:	fec00b93          	li	s7,-20
    4688:	1d735e63          	bge	t1,s7,4864 <.L816>
    468c:	ffdc0c13          	addi	s8,s8,-3
    4690:	010c1c13          	slli	s8,s8,0x10
    4694:	010c5c13          	srli	s8,s8,0x10

00004698 <.L817>:
    4698:	010c1c13          	slli	s8,s8,0x10
    469c:	410c5c13          	srai	s8,s8,0x10
    46a0:	01f00b93          	li	s7,31
    46a4:	1f4bd063          	bge	s7,s4,4884 <.L819>

000046a8 <.L818>:
    46a8:	00700b93          	li	s7,7
    46ac:	25fbc663          	blt	s7,t6,48f8 <.L824>
    46b0:	fffc8c93          	addi	s9,s9,-1
    46b4:	010c9c93          	slli	s9,s9,0x10
    46b8:	010cdc93          	srli	s9,s9,0x10

000046bc <.L825>:
    46bc:	010c9c93          	slli	s9,s9,0x10
    46c0:	410cdc93          	srai	s9,s9,0x10
    46c4:	1b900b93          	li	s7,441
    46c8:	f1dbc2e3          	blt	s7,t4,45cc <.L826>
    46cc:	03b00b93          	li	s7,59
    46d0:	1cdbcc63          	blt	s7,a3,48a8 <.L827>

000046d4 <.L1535>:
    46d4:	03200b93          	li	s7,50
    46d8:	23ebc863          	blt	s7,t5,4908 <.L828>
    46dc:	ff678793          	addi	a5,a5,-10
    46e0:	01079793          	slli	a5,a5,0x10
    46e4:	0107d793          	srli	a5,a5,0x10

000046e8 <.L829>:
    46e8:	01079793          	slli	a5,a5,0x10
    46ec:	4107d793          	srai	a5,a5,0x10

000046f0 <.L1534>:
    46f0:	00f00b93          	li	s7,15
    46f4:	2bcbc263          	blt	s7,t3,4998 <.L836>
    46f8:	f6300b93          	li	s7,-157
    46fc:	27785263          	bge	a6,s7,4960 <.L837>
    4700:	ffc70713          	addi	a4,a4,-4
    4704:	01071713          	slli	a4,a4,0x10
    4708:	41075713          	srai	a4,a4,0x10

0000470c <.L838>:
    470c:	00c51b83          	lh	s7,12(a0)
    4710:	0d800d13          	li	s10,216
    4714:	277d4263          	blt	s10,s7,4978 <.L840>
    4718:	cf000d13          	li	s10,-784
    471c:	2fa85663          	bge	a6,s10,4a08 <.L839>
    4720:	e1800d13          	li	s10,-488
    4724:	2da45a63          	bge	s0,s10,49f8 <.L845>
    4728:	fffc0c13          	addi	s8,s8,-1
    472c:	010c1c13          	slli	s8,s8,0x10
    4730:	410c5c13          	srai	s8,s8,0x10

00004734 <.L846>:
    4734:	00400d13          	li	s10,4
    4738:	33fd4063          	blt	s10,t6,4a58 <.L849>
    473c:	03a00d13          	li	s10,58
    4740:	31ed4463          	blt	s10,t5,4a48 <.L850>
    4744:	00cc8c93          	addi	s9,s9,12
    4748:	010c9c93          	slli	s9,s9,0x10
    474c:	410cdc93          	srai	s9,s9,0x10

00004750 <.L851>:
    4750:	03500d13          	li	s10,53
    4754:	36cd4863          	blt	s10,a2,4ac4 <.L854>
    4758:	01900d13          	li	s10,25
    475c:	34bd4863          	blt	s10,a1,4aac <.L855>
    4760:	00c00d13          	li	s10,12
    4764:	333d4c63          	blt	s10,s3,4a9c <.L856>
    4768:	00178793          	addi	a5,a5,1
    476c:	01079793          	slli	a5,a5,0x10
    4770:	4107d793          	srai	a5,a5,0x10

00004774 <.L857>:
    4774:	0c100d13          	li	s10,193
    4778:	3d6d4e63          	blt	s10,s6,4b54 <.L861>
    477c:	fae00d13          	li	s10,-82
    4780:	3ba85663          	bge	a6,s10,4b2c <.L862>
    4784:	ea900d13          	li	s10,-343
    4788:	39a45a63          	bge	s0,s10,4b1c <.L863>
    478c:	00270713          	addi	a4,a4,2
    4790:	01071713          	slli	a4,a4,0x10
    4794:	41075713          	srai	a4,a4,0x10

00004798 <.L864>:
    4798:	03600d13          	li	s10,54
    479c:	42dd4063          	blt	s10,a3,4bbc <.L869>
    47a0:	04c00d13          	li	s10,76
    47a4:	00c12d83          	lw	s11,12(sp)
    47a8:	41bd4263          	blt	s10,s11,4bac <.L870>
    47ac:	002c0c13          	addi	s8,s8,2
    47b0:	010c1c13          	slli	s8,s8,0x10
    47b4:	410c5c13          	srai	s8,s8,0x10

000047b8 <.L871>:
    47b8:	01500d13          	li	s10,21
    47bc:	532d4463          	blt	s10,s2,4ce4 <.L875>
    47c0:	07000d13          	li	s10,112
    47c4:	457d4863          	blt	s10,s7,4c14 <.L876>
    47c8:	008c8c93          	addi	s9,s9,8
    47cc:	010c9c93          	slli	s9,s9,0x10
    47d0:	410cdc93          	srai	s9,s9,0x10

000047d4 <.L877>:
    47d4:	08c00d13          	li	s10,140
    47d8:	571d4063          	blt	s10,a7,4d38 <.L884>

000047dc <.L879>:
    47dc:	00900d13          	li	s10,9
    47e0:	59fd4663          	blt	s10,t6,4d6c <.L885>
    47e4:	565d4c63          	blt	s10,t0,4d5c <.L886>
    47e8:	ffa78793          	addi	a5,a5,-6
    47ec:	01079793          	slli	a5,a5,0x10
    47f0:	0107d793          	srli	a5,a5,0x10

000047f4 <.L887>:
    47f4:	01079793          	slli	a5,a5,0x10
    47f8:	4107d793          	srai	a5,a5,0x10
    47fc:	03300d13          	li	s10,51
    4800:	44dd5a63          	bge	s10,a3,4c54 <.L1533>

00004804 <.L893>:
    4804:	04700d13          	li	s10,71
    4808:	5f2d4063          	blt	s10,s2,4de8 <.L897>
    480c:	2bd00d13          	li	s10,701
    4810:	5d6d4463          	blt	s10,s6,4dd8 <.L898>
    4814:	ff770713          	addi	a4,a4,-9
    4818:	01071713          	slli	a4,a4,0x10
    481c:	41075713          	srai	a4,a4,0x10

00004820 <.L899>:
    4820:	03c00d13          	li	s10,60
    4824:	42dd5e63          	bge	s10,a3,4c60 <.L1532>
    4828:	0d400d13          	li	s10,212
    482c:	60cd4e63          	blt	s10,a2,4e48 <.L906>
    4830:	0a100d13          	li	s10,161
    4834:	012d4863          	blt	s10,s2,4844 <.L907>
    4838:	008c0c13          	addi	s8,s8,8
    483c:	010c1c13          	slli	s8,s8,0x10
    4840:	410c5c13          	srai	s8,s8,0x10

00004844 <.L907>:
    4844:	ffe00d13          	li	s10,-2
    4848:	43ae4e63          	blt	t3,s10,4c84 <.L1530>

0000484c <.L909>:
    484c:	ec700d13          	li	s10,-313
    4850:	67a3d063          	bge	t2,s10,4eb0 <.L914>
    4854:	fffc8c93          	addi	s9,s9,-1
    4858:	010c9c93          	slli	s9,s9,0x10
    485c:	410cdc93          	srai	s9,s9,0x10
    4860:	4480006f          	j	4ca8 <.L911>

00004864 <.L816>:
    4864:	009c0c13          	addi	s8,s8,9
    4868:	010c1c13          	slli	s8,s8,0x10
    486c:	010c5c13          	srli	s8,s8,0x10
    4870:	e29ff06f          	j	4698 <.L817>

00004874 <.L820>:
    4874:	006c8c93          	addi	s9,s9,6
    4878:	010c9c93          	slli	s9,s9,0x10
    487c:	010cdc93          	srli	s9,s9,0x10
    4880:	d3dff06f          	j	45bc <.L821>

00004884 <.L819>:
    4884:	e2100b93          	li	s7,-479
    4888:	077ad063          	bge	s5,s7,48e8 <.L822>
    488c:	ff7c8c93          	addi	s9,s9,-9
    4890:	010c9c93          	slli	s9,s9,0x10
    4894:	010cdc93          	srli	s9,s9,0x10

00004898 <.L823>:
    4898:	010c9c93          	slli	s9,s9,0x10
    489c:	410cdc93          	srai	s9,s9,0x10
    48a0:	1b900b93          	li	s7,441
    48a4:	d3dbc4e3          	blt	s7,t4,45cc <.L826>

000048a8 <.L827>:
    48a8:	ffe00b93          	li	s7,-2
    48ac:	07735663          	bge	t1,s7,4918 <.L830>
    48b0:	ff878793          	addi	a5,a5,-8
    48b4:	01079793          	slli	a5,a5,0x10
    48b8:	4107d793          	srai	a5,a5,0x10

000048bc <.L831>:
    48bc:	03c00b93          	li	s7,60
    48c0:	e2dbd8e3          	bge	s7,a3,46f0 <.L1534>
    48c4:	daa00b93          	li	s7,-598
    48c8:	1174d463          	bge	s1,s7,49d0 <.L842>
    48cc:	3ce00b93          	li	s7,974
    48d0:	00c12d03          	lw	s10,12(sp)
    48d4:	0fabc663          	blt	s7,s10,49c0 <.L843>
    48d8:	00770713          	addi	a4,a4,7
    48dc:	01071713          	slli	a4,a4,0x10
    48e0:	41075713          	srai	a4,a4,0x10
    48e4:	e29ff06f          	j	470c <.L838>

000048e8 <.L822>:
    48e8:	004c8c93          	addi	s9,s9,4
    48ec:	010c9c93          	slli	s9,s9,0x10
    48f0:	010cdc93          	srli	s9,s9,0x10
    48f4:	fa5ff06f          	j	4898 <.L823>

000048f8 <.L824>:
    48f8:	ff7c8c93          	addi	s9,s9,-9
    48fc:	010c9c93          	slli	s9,s9,0x10
    4900:	010cdc93          	srli	s9,s9,0x10
    4904:	db9ff06f          	j	46bc <.L825>

00004908 <.L828>:
    4908:	00278793          	addi	a5,a5,2
    490c:	01079793          	slli	a5,a5,0x10
    4910:	0107d793          	srli	a5,a5,0x10
    4914:	dd5ff06f          	j	46e8 <.L829>

00004918 <.L830>:
    4918:	00278793          	addi	a5,a5,2
    491c:	01079793          	slli	a5,a5,0x10
    4920:	4107d793          	srai	a5,a5,0x10
    4924:	f99ff06f          	j	48bc <.L831>

00004928 <.L833>:
    4928:	00478793          	addi	a5,a5,4
    492c:	01079793          	slli	a5,a5,0x10
    4930:	4107d793          	srai	a5,a5,0x10
    4934:	f89ff06f          	j	48bc <.L831>

00004938 <.L832>:
    4938:	f1200b93          	li	s7,-238
    493c:	0173da63          	bge	t2,s7,4950 <.L834>
    4940:	00778793          	addi	a5,a5,7
    4944:	01079793          	slli	a5,a5,0x10
    4948:	4107d793          	srai	a5,a5,0x10
    494c:	f71ff06f          	j	48bc <.L831>

00004950 <.L834>:
    4950:	ff678793          	addi	a5,a5,-10
    4954:	01079793          	slli	a5,a5,0x10
    4958:	4107d793          	srai	a5,a5,0x10
    495c:	f61ff06f          	j	48bc <.L831>

00004960 <.L837>:
    4960:	00570713          	addi	a4,a4,5
    4964:	01071713          	slli	a4,a4,0x10
    4968:	41075713          	srai	a4,a4,0x10
    496c:	00c51b83          	lh	s7,12(a0)
    4970:	0d800d13          	li	s10,216
    4974:	097d5a63          	bge	s10,s7,4a08 <.L839>

00004978 <.L840>:
    4978:	38f00d13          	li	s10,911
    497c:	0b1d4a63          	blt	s10,a7,4a30 <.L847>
    4980:	1ca00d13          	li	s10,458
    4984:	09dd4e63          	blt	s10,t4,4a20 <.L848>
    4988:	007c0c13          	addi	s8,s8,7
    498c:	010c1c13          	slli	s8,s8,0x10
    4990:	410c5c13          	srai	s8,s8,0x10
    4994:	da1ff06f          	j	4734 <.L846>

00004998 <.L836>:
    4998:	ffc00b93          	li	s7,-4
    499c:	01735a63          	bge	t1,s7,49b0 <.L841>
    49a0:	00570713          	addi	a4,a4,5
    49a4:	01071713          	slli	a4,a4,0x10
    49a8:	41075713          	srai	a4,a4,0x10
    49ac:	d61ff06f          	j	470c <.L838>

000049b0 <.L841>:
    49b0:	ff870713          	addi	a4,a4,-8
    49b4:	01071713          	slli	a4,a4,0x10
    49b8:	41075713          	srai	a4,a4,0x10
    49bc:	d51ff06f          	j	470c <.L838>

000049c0 <.L843>:
    49c0:	ffd70713          	addi	a4,a4,-3
    49c4:	01071713          	slli	a4,a4,0x10
    49c8:	41075713          	srai	a4,a4,0x10
    49cc:	d41ff06f          	j	470c <.L838>

000049d0 <.L842>:
    49d0:	00b00b93          	li	s7,11
    49d4:	005bca63          	blt	s7,t0,49e8 <.L844>
    49d8:	00470713          	addi	a4,a4,4
    49dc:	01071713          	slli	a4,a4,0x10
    49e0:	41075713          	srai	a4,a4,0x10
    49e4:	d29ff06f          	j	470c <.L838>

000049e8 <.L844>:
    49e8:	ff970713          	addi	a4,a4,-7
    49ec:	01071713          	slli	a4,a4,0x10
    49f0:	41075713          	srai	a4,a4,0x10
    49f4:	d19ff06f          	j	470c <.L838>

000049f8 <.L845>:
    49f8:	008c0c13          	addi	s8,s8,8
    49fc:	010c1c13          	slli	s8,s8,0x10
    4a00:	410c5c13          	srai	s8,s8,0x10
    4a04:	d31ff06f          	j	4734 <.L846>

00004a08 <.L839>:
    4a08:	0cc00d13          	li	s10,204
    4a0c:	d31d54e3          	bge	s10,a7,4734 <.L846>
    4a10:	ff9c0c13          	addi	s8,s8,-7
    4a14:	010c1c13          	slli	s8,s8,0x10
    4a18:	410c5c13          	srai	s8,s8,0x10
    4a1c:	d19ff06f          	j	4734 <.L846>

00004a20 <.L848>:
    4a20:	ffcc0c13          	addi	s8,s8,-4
    4a24:	010c1c13          	slli	s8,s8,0x10
    4a28:	410c5c13          	srai	s8,s8,0x10
    4a2c:	d09ff06f          	j	4734 <.L846>

00004a30 <.L847>:
    4a30:	f0100d13          	li	s10,-255
    4a34:	d1aad0e3          	bge	s5,s10,4734 <.L846>
    4a38:	ff6c0c13          	addi	s8,s8,-10
    4a3c:	010c1c13          	slli	s8,s8,0x10
    4a40:	410c5c13          	srai	s8,s8,0x10
    4a44:	cf1ff06f          	j	4734 <.L846>

00004a48 <.L850>:
    4a48:	001c8c93          	addi	s9,s9,1
    4a4c:	010c9c93          	slli	s9,s9,0x10
    4a50:	410cdc93          	srai	s9,s9,0x10
    4a54:	cfdff06f          	j	4750 <.L851>

00004a58 <.L849>:
    4a58:	00e00d13          	li	s10,14
    4a5c:	025d4463          	blt	s10,t0,4a84 <.L852>
    4a60:	000bca63          	bltz	s7,4a74 <.L1632>
    4a64:	ffac8c93          	addi	s9,s9,-6
    4a68:	010c9c93          	slli	s9,s9,0x10
    4a6c:	410cdc93          	srai	s9,s9,0x10
    4a70:	ce1ff06f          	j	4750 <.L851>

00004a74 <.L1632>:
    4a74:	008c8c93          	addi	s9,s9,8
    4a78:	010c9c93          	slli	s9,s9,0x10
    4a7c:	410cdc93          	srai	s9,s9,0x10
    4a80:	cd1ff06f          	j	4750 <.L851>

00004a84 <.L852>:
    4a84:	0ac00d13          	li	s10,172
    4a88:	cddd44e3          	blt	s10,t4,4750 <.L851>
    4a8c:	007c8c93          	addi	s9,s9,7
    4a90:	010c9c93          	slli	s9,s9,0x10
    4a94:	410cdc93          	srai	s9,s9,0x10
    4a98:	cb9ff06f          	j	4750 <.L851>

00004a9c <.L856>:
    4a9c:	ff778793          	addi	a5,a5,-9
    4aa0:	01079793          	slli	a5,a5,0x10
    4aa4:	4107d793          	srai	a5,a5,0x10
    4aa8:	ccdff06f          	j	4774 <.L857>

00004aac <.L855>:
    4aac:	ffe00d13          	li	s10,-2
    4ab0:	cda352e3          	bge	t1,s10,4774 <.L857>
    4ab4:	ff778793          	addi	a5,a5,-9
    4ab8:	01079793          	slli	a5,a5,0x10
    4abc:	4107d793          	srai	a5,a5,0x10
    4ac0:	cb5ff06f          	j	4774 <.L857>

00004ac4 <.L854>:
    4ac4:	0e100d13          	li	s10,225
    4ac8:	02bd4663          	blt	s10,a1,4af4 <.L858>
    4acc:	03200d13          	li	s10,50
    4ad0:	01ed4a63          	blt	s10,t5,4ae4 <.L859>
    4ad4:	ff778793          	addi	a5,a5,-9
    4ad8:	01079793          	slli	a5,a5,0x10
    4adc:	4107d793          	srai	a5,a5,0x10
    4ae0:	c95ff06f          	j	4774 <.L857>

00004ae4 <.L859>:
    4ae4:	00478793          	addi	a5,a5,4
    4ae8:	01079793          	slli	a5,a5,0x10
    4aec:	4107d793          	srai	a5,a5,0x10
    4af0:	c85ff06f          	j	4774 <.L857>

00004af4 <.L858>:
    4af4:	22f00d13          	li	s10,559
    4af8:	01dd4a63          	blt	s10,t4,4b0c <.L860>
    4afc:	ffb78793          	addi	a5,a5,-5
    4b00:	01079793          	slli	a5,a5,0x10
    4b04:	4107d793          	srai	a5,a5,0x10
    4b08:	c6dff06f          	j	4774 <.L857>

00004b0c <.L860>:
    4b0c:	00478793          	addi	a5,a5,4
    4b10:	01079793          	slli	a5,a5,0x10
    4b14:	4107d793          	srai	a5,a5,0x10
    4b18:	c5dff06f          	j	4774 <.L857>

00004b1c <.L863>:
    4b1c:	ff770713          	addi	a4,a4,-9
    4b20:	01071713          	slli	a4,a4,0x10
    4b24:	41075713          	srai	a4,a4,0x10
    4b28:	c71ff06f          	j	4798 <.L864>

00004b2c <.L862>:
    4b2c:	fa800d13          	li	s10,-88
    4b30:	01a3da63          	bge	t2,s10,4b44 <.L865>
    4b34:	01670713          	addi	a4,a4,22
    4b38:	01071713          	slli	a4,a4,0x10
    4b3c:	41075713          	srai	a4,a4,0x10
    4b40:	c59ff06f          	j	4798 <.L864>

00004b44 <.L865>:
    4b44:	ffa70713          	addi	a4,a4,-6
    4b48:	01071713          	slli	a4,a4,0x10
    4b4c:	41075713          	srai	a4,a4,0x10
    4b50:	c49ff06f          	j	4798 <.L864>

00004b54 <.L861>:
    4b54:	f6900d13          	li	s10,-151
    4b58:	03a85663          	bge	a6,s10,4b84 <.L866>
    4b5c:	27a00d13          	li	s10,634
    4b60:	00bd4a63          	blt	s10,a1,4b74 <.L867>
    4b64:	fff70713          	addi	a4,a4,-1
    4b68:	01071713          	slli	a4,a4,0x10
    4b6c:	41075713          	srai	a4,a4,0x10
    4b70:	c29ff06f          	j	4798 <.L864>

00004b74 <.L867>:
    4b74:	00470713          	addi	a4,a4,4
    4b78:	01071713          	slli	a4,a4,0x10
    4b7c:	41075713          	srai	a4,a4,0x10
    4b80:	c19ff06f          	j	4798 <.L864>

00004b84 <.L866>:
    4b84:	04700d13          	li	s10,71
    4b88:	012d4a63          	blt	s10,s2,4b9c <.L868>
    4b8c:	ffc70713          	addi	a4,a4,-4
    4b90:	01071713          	slli	a4,a4,0x10
    4b94:	41075713          	srai	a4,a4,0x10
    4b98:	c01ff06f          	j	4798 <.L864>

00004b9c <.L868>:
    4b9c:	00970713          	addi	a4,a4,9
    4ba0:	01071713          	slli	a4,a4,0x10
    4ba4:	41075713          	srai	a4,a4,0x10
    4ba8:	bf1ff06f          	j	4798 <.L864>

00004bac <.L870>:
    4bac:	ff8c0c13          	addi	s8,s8,-8
    4bb0:	010c1c13          	slli	s8,s8,0x10
    4bb4:	410c5c13          	srai	s8,s8,0x10
    4bb8:	c01ff06f          	j	47b8 <.L871>

00004bbc <.L869>:
    4bbc:	e4a00d13          	li	s10,-438
    4bc0:	03aad663          	bge	s5,s10,4bec <.L872>
    4bc4:	03d00d13          	li	s10,61
    4bc8:	00dd4a63          	blt	s10,a3,4bdc <.L873>
    4bcc:	ff8c0c13          	addi	s8,s8,-8
    4bd0:	010c1c13          	slli	s8,s8,0x10
    4bd4:	410c5c13          	srai	s8,s8,0x10
    4bd8:	be1ff06f          	j	47b8 <.L871>

00004bdc <.L873>:
    4bdc:	003c0c13          	addi	s8,s8,3
    4be0:	010c1c13          	slli	s8,s8,0x10
    4be4:	410c5c13          	srai	s8,s8,0x10
    4be8:	bd1ff06f          	j	47b8 <.L871>

00004bec <.L872>:
    4bec:	02e00d13          	li	s10,46
    4bf0:	00cd4a63          	blt	s10,a2,4c04 <.L874>
    4bf4:	004c0c13          	addi	s8,s8,4
    4bf8:	010c1c13          	slli	s8,s8,0x10
    4bfc:	410c5c13          	srai	s8,s8,0x10
    4c00:	bb9ff06f          	j	47b8 <.L871>

00004c04 <.L874>:
    4c04:	fffc0c13          	addi	s8,s8,-1
    4c08:	010c1c13          	slli	s8,s8,0x10
    4c0c:	410c5c13          	srai	s8,s8,0x10
    4c10:	ba9ff06f          	j	47b8 <.L871>

00004c14 <.L876>:
    4c14:	00700d13          	li	s10,7
    4c18:	0b3d4e63          	blt	s10,s3,4cd4 <.L878>
    4c1c:	ffdc8c93          	addi	s9,s9,-3
    4c20:	010c9c93          	slli	s9,s9,0x10
    4c24:	410cdc93          	srai	s9,s9,0x10
    4c28:	08c00d13          	li	s10,140
    4c2c:	bb1d58e3          	bge	s10,a7,47dc <.L879>

00004c30 <.L880>:
    4c30:	01700d13          	li	s10,23
    4c34:	005d5863          	bge	s10,t0,4c44 <.L891>
    4c38:	00778793          	addi	a5,a5,7
    4c3c:	01079793          	slli	a5,a5,0x10
    4c40:	4107d793          	srai	a5,a5,0x10

00004c44 <.L891>:
    4c44:	03300d13          	li	s10,51
    4c48:	badd4ee3          	blt	s10,a3,4804 <.L893>
    4c4c:	00900d13          	li	s10,9
    4c50:	15fd4063          	blt	s10,t6,4d90 <.L894>

00004c54 <.L1533>:
    4c54:	ff870713          	addi	a4,a4,-8
    4c58:	01071713          	slli	a4,a4,0x10
    4c5c:	41075713          	srai	a4,a4,0x10

00004c60 <.L1532>:
    4c60:	f3900d13          	li	s10,-199
    4c64:	1ba45e63          	bge	s0,s10,4e20 <.L902>
    4c68:	02a00d13          	li	s10,42
    4c6c:	1bfd4263          	blt	s10,t6,4e10 <.L903>
    4c70:	ff8c0c13          	addi	s8,s8,-8
    4c74:	010c1c13          	slli	s8,s8,0x10
    4c78:	410c5c13          	srai	s8,s8,0x10

00004c7c <.L904>:
    4c7c:	ffe00d13          	li	s10,-2
    4c80:	21ae5463          	bge	t3,s10,4e88 <.L1633>

00004c84 <.L1530>:
    4c84:	0ce00d13          	li	s10,206
    4c88:	1ebd4463          	blt	s10,a1,4e70 <.L910>
    4c8c:	01c51d03          	lh	s10,28(a0)
    4c90:	000d0d93          	mv	s11,s10
    4c94:	03500d13          	li	s10,53
    4c98:	01bd4863          	blt	s10,s11,4ca8 <.L911>
    4c9c:	00bc8c93          	addi	s9,s9,11
    4ca0:	010c9c93          	slli	s9,s9,0x10
    4ca4:	410cdc93          	srai	s9,s9,0x10

00004ca8 <.L911>:
    4ca8:	03400d13          	li	s10,52
    4cac:	205d5a63          	bge	s10,t0,4ec0 <.L912>
    4cb0:	1db00d13          	li	s10,475
    4cb4:	00c12d83          	lw	s11,12(sp)
    4cb8:	2dbd4c63          	blt	s10,s11,4f90 <.L920>
    4cbc:	00800d13          	li	s10,8
    4cc0:	2dcd4063          	blt	s10,t3,4f80 <.L921>
    4cc4:	00578793          	addi	a5,a5,5
    4cc8:	01079793          	slli	a5,a5,0x10
    4ccc:	4107d793          	srai	a5,a5,0x10
    4cd0:	20c0006f          	j	4edc <.L918>

00004cd4 <.L878>:
    4cd4:	004c8c93          	addi	s9,s9,4
    4cd8:	010c9c93          	slli	s9,s9,0x10
    4cdc:	410cdc93          	srai	s9,s9,0x10
    4ce0:	af5ff06f          	j	47d4 <.L877>

00004ce4 <.L875>:
    4ce4:	11d00d13          	li	s10,285
    4ce8:	032d4663          	blt	s10,s2,4d14 <.L881>
    4cec:	03b00d13          	li	s10,59
    4cf0:	00dd4a63          	blt	s10,a3,4d04 <.L882>
    4cf4:	ffdc8c93          	addi	s9,s9,-3
    4cf8:	010c9c93          	slli	s9,s9,0x10
    4cfc:	410cdc93          	srai	s9,s9,0x10
    4d00:	ad5ff06f          	j	47d4 <.L877>

00004d04 <.L882>:
    4d04:	001c8c93          	addi	s9,s9,1
    4d08:	010c9c93          	slli	s9,s9,0x10
    4d0c:	410cdc93          	srai	s9,s9,0x10
    4d10:	ac5ff06f          	j	47d4 <.L877>

00004d14 <.L881>:
    4d14:	2ad00d13          	li	s10,685
    4d18:	011d4a63          	blt	s10,a7,4d2c <.L883>
    4d1c:	001c8c93          	addi	s9,s9,1
    4d20:	010c9c93          	slli	s9,s9,0x10
    4d24:	410cdc93          	srai	s9,s9,0x10
    4d28:	aadff06f          	j	47d4 <.L877>

00004d2c <.L883>:
    4d2c:	00cc8c93          	addi	s9,s9,12
    4d30:	010c9c93          	slli	s9,s9,0x10
    4d34:	410cdc93          	srai	s9,s9,0x10

00004d38 <.L884>:
    4d38:	00c00d13          	li	s10,12
    4d3c:	ef3d5ae3          	bge	s10,s3,4c30 <.L880>
    4d40:	1fa00d13          	li	s10,506
    4d44:	00c12d83          	lw	s11,12(sp)
    4d48:	07bd4863          	blt	s10,s11,4db8 <.L892>
    4d4c:	ff578793          	addi	a5,a5,-11
    4d50:	01079793          	slli	a5,a5,0x10
    4d54:	4107d793          	srai	a5,a5,0x10
    4d58:	eedff06f          	j	4c44 <.L891>

00004d5c <.L886>:
    4d5c:	00878793          	addi	a5,a5,8
    4d60:	01079793          	slli	a5,a5,0x10
    4d64:	0107d793          	srli	a5,a5,0x10
    4d68:	a8dff06f          	j	47f4 <.L887>

00004d6c <.L885>:
    4d6c:	ea700d13          	li	s10,-345
    4d70:	03a45c63          	bge	s0,s10,4da8 <.L888>
    4d74:	00178793          	addi	a5,a5,1
    4d78:	01079793          	slli	a5,a5,0x10
    4d7c:	0107d793          	srli	a5,a5,0x10

00004d80 <.L889>:
    4d80:	01079793          	slli	a5,a5,0x10
    4d84:	4107d793          	srai	a5,a5,0x10
    4d88:	03300d13          	li	s10,51
    4d8c:	a6dd4ce3          	blt	s10,a3,4804 <.L893>

00004d90 <.L894>:
    4d90:	00300d13          	li	s10,3
    4d94:	03cd4a63          	blt	s10,t3,4dc8 <.L896>
    4d98:	ffe70713          	addi	a4,a4,-2
    4d9c:	01071713          	slli	a4,a4,0x10
    4da0:	41075713          	srai	a4,a4,0x10
    4da4:	ebdff06f          	j	4c60 <.L1532>

00004da8 <.L888>:
    4da8:	ff878793          	addi	a5,a5,-8
    4dac:	01079793          	slli	a5,a5,0x10
    4db0:	0107d793          	srli	a5,a5,0x10
    4db4:	fcdff06f          	j	4d80 <.L889>

00004db8 <.L892>:
    4db8:	00278793          	addi	a5,a5,2
    4dbc:	01079793          	slli	a5,a5,0x10
    4dc0:	4107d793          	srai	a5,a5,0x10
    4dc4:	e81ff06f          	j	4c44 <.L891>

00004dc8 <.L896>:
    4dc8:	00770713          	addi	a4,a4,7
    4dcc:	01071713          	slli	a4,a4,0x10
    4dd0:	41075713          	srai	a4,a4,0x10
    4dd4:	e8dff06f          	j	4c60 <.L1532>

00004dd8 <.L898>:
    4dd8:	00770713          	addi	a4,a4,7
    4ddc:	01071713          	slli	a4,a4,0x10
    4de0:	41075713          	srai	a4,a4,0x10
    4de4:	a3dff06f          	j	4820 <.L899>

00004de8 <.L897>:
    4de8:	01700d13          	li	s10,23
    4dec:	005d4a63          	blt	s10,t0,4e00 <.L900>
    4df0:	00370713          	addi	a4,a4,3
    4df4:	01071713          	slli	a4,a4,0x10
    4df8:	41075713          	srai	a4,a4,0x10
    4dfc:	a25ff06f          	j	4820 <.L899>

00004e00 <.L900>:
    4e00:	ffe70713          	addi	a4,a4,-2
    4e04:	01071713          	slli	a4,a4,0x10
    4e08:	41075713          	srai	a4,a4,0x10
    4e0c:	a15ff06f          	j	4820 <.L899>

00004e10 <.L903>:
    4e10:	002c0c13          	addi	s8,s8,2
    4e14:	010c1c13          	slli	s8,s8,0x10
    4e18:	410c5c13          	srai	s8,s8,0x10
    4e1c:	e61ff06f          	j	4c7c <.L904>

00004e20 <.L902>:
    4e20:	01800d13          	li	s10,24
    4e24:	017d4a63          	blt	s10,s7,4e38 <.L905>
    4e28:	ff8c0c13          	addi	s8,s8,-8
    4e2c:	010c1c13          	slli	s8,s8,0x10
    4e30:	410c5c13          	srai	s8,s8,0x10
    4e34:	e49ff06f          	j	4c7c <.L904>

00004e38 <.L905>:
    4e38:	005c0c13          	addi	s8,s8,5
    4e3c:	010c1c13          	slli	s8,s8,0x10
    4e40:	410c5c13          	srai	s8,s8,0x10
    4e44:	e39ff06f          	j	4c7c <.L904>

00004e48 <.L906>:
    4e48:	01f00d13          	li	s10,31
    4e4c:	01cd4a63          	blt	s10,t3,4e60 <.L908>
    4e50:	ff7c0c13          	addi	s8,s8,-9
    4e54:	010c1c13          	slli	s8,s8,0x10
    4e58:	410c5c13          	srai	s8,s8,0x10
    4e5c:	9e9ff06f          	j	4844 <.L907>

00004e60 <.L908>:
    4e60:	006c0c13          	addi	s8,s8,6
    4e64:	010c1c13          	slli	s8,s8,0x10
    4e68:	410c5c13          	srai	s8,s8,0x10
    4e6c:	9e1ff06f          	j	484c <.L909>

00004e70 <.L910>:
    4e70:	02c00d13          	li	s10,44
    4e74:	045d5663          	bge	s10,t0,4ec0 <.L912>
    4e78:	ffac8c93          	addi	s9,s9,-6
    4e7c:	010c9c93          	slli	s9,s9,0x10
    4e80:	410cdc93          	srai	s9,s9,0x10
    4e84:	e25ff06f          	j	4ca8 <.L911>

00004e88 <.L1633>:
    4e88:	00300d13          	li	s10,3
    4e8c:	00bd4a63          	blt	s10,a1,4ea0 <.L913>
    4e90:	01ac8cb3          	add	s9,s9,s10
    4e94:	010c9c93          	slli	s9,s9,0x10
    4e98:	410cdc93          	srai	s9,s9,0x10
    4e9c:	e0dff06f          	j	4ca8 <.L911>

00004ea0 <.L913>:
    4ea0:	ffec8c93          	addi	s9,s9,-2
    4ea4:	010c9c93          	slli	s9,s9,0x10
    4ea8:	410cdc93          	srai	s9,s9,0x10
    4eac:	dfdff06f          	j	4ca8 <.L911>

00004eb0 <.L914>:
    4eb0:	008c8c93          	addi	s9,s9,8
    4eb4:	010c9c93          	slli	s9,s9,0x10
    4eb8:	410cdc93          	srai	s9,s9,0x10
    4ebc:	dedff06f          	j	4ca8 <.L911>

00004ec0 <.L912>:
    4ec0:	ff100d13          	li	s10,-15
    4ec4:	09a35a63          	bge	t1,s10,4f58 <.L916>
    4ec8:	00200d13          	li	s10,2
    4ecc:	073d4e63          	blt	s10,s3,4f48 <.L917>
    4ed0:	00678793          	addi	a5,a5,6
    4ed4:	01079793          	slli	a5,a5,0x10
    4ed8:	4107d793          	srai	a5,a5,0x10

00004edc <.L918>:
    4edc:	02a00d13          	li	s10,42
    4ee0:	12bd4463          	blt	s10,a1,5008 <.L923>
    4ee4:	fba00d13          	li	s10,-70
    4ee8:	11a85263          	bge	a6,s10,4fec <.L924>
    4eec:	25400d13          	li	s10,596
    4ef0:	00c12d83          	lw	s11,12(sp)
    4ef4:	0dbd4263          	blt	s10,s11,4fb8 <.L925>
    4ef8:	ffb70713          	addi	a4,a4,-5
    4efc:	01071713          	slli	a4,a4,0x10
    4f00:	41075713          	srai	a4,a4,0x10

00004f04 <.L926>:
    4f04:	03600d13          	li	s10,54
    4f08:	0cdd4263          	blt	s10,a3,4fcc <.L934>

00004f0c <.L931>:
    4f0c:	04c00d13          	li	s10,76
    4f10:	00c12d83          	lw	s11,12(sp)
    4f14:	17bd4863          	blt	s10,s11,5084 <.L935>
    4f18:	003c0c13          	addi	s8,s8,3
    4f1c:	010c1c13          	slli	s8,s8,0x10
    4f20:	410c5c13          	srai	s8,s8,0x10

00004f24 <.L936>:
    4f24:	fa300d13          	li	s10,-93
    4f28:	1baada63          	bge	s5,s10,50dc <.L939>
    4f2c:	fa100d13          	li	s10,-95
    4f30:	19aad263          	bge	s5,s10,50b4 <.L940>
    4f34:	1d304a63          	bgtz	s3,5108 <.L941>
    4f38:	006c8c93          	addi	s9,s9,6
    4f3c:	010c9c93          	slli	s9,s9,0x10
    4f40:	410cdc93          	srai	s9,s9,0x10
    4f44:	1c40006f          	j	5108 <.L941>

00004f48 <.L917>:
    4f48:	ff778793          	addi	a5,a5,-9
    4f4c:	01079793          	slli	a5,a5,0x10
    4f50:	4107d793          	srai	a5,a5,0x10
    4f54:	f89ff06f          	j	4edc <.L918>

00004f58 <.L916>:
    4f58:	e2c00d13          	li	s10,-468
    4f5c:	01aada63          	bge	s5,s10,4f70 <.L919>
    4f60:	00678793          	addi	a5,a5,6
    4f64:	01079793          	slli	a5,a5,0x10
    4f68:	4107d793          	srai	a5,a5,0x10
    4f6c:	f71ff06f          	j	4edc <.L918>

00004f70 <.L919>:
    4f70:	fff78793          	addi	a5,a5,-1
    4f74:	01079793          	slli	a5,a5,0x10
    4f78:	4107d793          	srai	a5,a5,0x10
    4f7c:	f61ff06f          	j	4edc <.L918>

00004f80 <.L921>:
    4f80:	ff478793          	addi	a5,a5,-12
    4f84:	01079793          	slli	a5,a5,0x10
    4f88:	4107d793          	srai	a5,a5,0x10
    4f8c:	f51ff06f          	j	4edc <.L918>

00004f90 <.L920>:
    4f90:	02500d13          	li	s10,37
    4f94:	013d4a63          	blt	s10,s3,4fa8 <.L922>
    4f98:	00978793          	addi	a5,a5,9
    4f9c:	01079793          	slli	a5,a5,0x10
    4fa0:	4107d793          	srai	a5,a5,0x10
    4fa4:	f39ff06f          	j	4edc <.L918>

00004fa8 <.L922>:
    4fa8:	ffc78793          	addi	a5,a5,-4
    4fac:	01079793          	slli	a5,a5,0x10
    4fb0:	4107d793          	srai	a5,a5,0x10
    4fb4:	f29ff06f          	j	4edc <.L918>

00004fb8 <.L925>:
    4fb8:	00570713          	addi	a4,a4,5
    4fbc:	01071713          	slli	a4,a4,0x10
    4fc0:	41075713          	srai	a4,a4,0x10

00004fc4 <.L927>:
    4fc4:	03600d13          	li	s10,54
    4fc8:	0add5e63          	bge	s10,a3,5084 <.L935>

00004fcc <.L934>:
    4fcc:	ff600d13          	li	s10,-10
    4fd0:	09a35e63          	bge	t1,s10,506c <.L933>

00004fd4 <.L932>:
    4fd4:	00c00d13          	li	s10,12
    4fd8:	0b3d4e63          	blt	s10,s3,5094 <.L937>
    4fdc:	ffac0c13          	addi	s8,s8,-6
    4fe0:	010c1c13          	slli	s8,s8,0x10
    4fe4:	410c5c13          	srai	s8,s8,0x10
    4fe8:	f3dff06f          	j	4f24 <.L936>

00004fec <.L924>:
    4fec:	07a00d13          	li	s10,122
    4ff0:	00c12d83          	lw	s11,12(sp)
    4ff4:	f1bd58e3          	bge	s10,s11,4f04 <.L926>
    4ff8:	00d70713          	addi	a4,a4,13
    4ffc:	01071713          	slli	a4,a4,0x10
    5000:	41075713          	srai	a4,a4,0x10
    5004:	fc1ff06f          	j	4fc4 <.L927>

00005008 <.L923>:
    5008:	02700d13          	li	s10,39
    500c:	02cd4663          	blt	s10,a2,5038 <.L928>
    5010:	00900d13          	li	s10,9
    5014:	017d4a63          	blt	s10,s7,5028 <.L929>
    5018:	00170713          	addi	a4,a4,1
    501c:	01071713          	slli	a4,a4,0x10
    5020:	41075713          	srai	a4,a4,0x10
    5024:	ee1ff06f          	j	4f04 <.L926>

00005028 <.L929>:
    5028:	00a70713          	addi	a4,a4,10
    502c:	01071713          	slli	a4,a4,0x10
    5030:	41075713          	srai	a4,a4,0x10
    5034:	ed1ff06f          	j	4f04 <.L926>

00005038 <.L928>:
    5038:	ff600d13          	li	s10,-10
    503c:	01a35e63          	bge	t1,s10,5058 <.L930>
    5040:	00170713          	addi	a4,a4,1
    5044:	01071713          	slli	a4,a4,0x10
    5048:	41075713          	srai	a4,a4,0x10
    504c:	03600d13          	li	s10,54
    5050:	f8dd42e3          	blt	s10,a3,4fd4 <.L932>
    5054:	eb9ff06f          	j	4f0c <.L931>

00005058 <.L930>:
    5058:	ffb70713          	addi	a4,a4,-5
    505c:	01071713          	slli	a4,a4,0x10
    5060:	41075713          	srai	a4,a4,0x10
    5064:	03600d13          	li	s10,54
    5068:	eadd52e3          	bge	s10,a3,4f0c <.L931>

0000506c <.L933>:
    506c:	eea00d13          	li	s10,-278
    5070:	03a45a63          	bge	s0,s10,50a4 <.L938>
    5074:	ffdc0c13          	addi	s8,s8,-3
    5078:	010c1c13          	slli	s8,s8,0x10
    507c:	410c5c13          	srai	s8,s8,0x10
    5080:	ea5ff06f          	j	4f24 <.L936>

00005084 <.L935>:
    5084:	ff8c0c13          	addi	s8,s8,-8
    5088:	010c1c13          	slli	s8,s8,0x10
    508c:	410c5c13          	srai	s8,s8,0x10
    5090:	e95ff06f          	j	4f24 <.L936>

00005094 <.L937>:
    5094:	002c0c13          	addi	s8,s8,2
    5098:	010c1c13          	slli	s8,s8,0x10
    509c:	410c5c13          	srai	s8,s8,0x10
    50a0:	e85ff06f          	j	4f24 <.L936>

000050a4 <.L938>:
    50a4:	006c0c13          	addi	s8,s8,6
    50a8:	010c1c13          	slli	s8,s8,0x10
    50ac:	410c5c13          	srai	s8,s8,0x10
    50b0:	e75ff06f          	j	4f24 <.L936>

000050b4 <.L940>:
    50b4:	fa100d13          	li	s10,-95
    50b8:	01aa9a63          	bne	s5,s10,50cc <.L942>
    50bc:	feac8c93          	addi	s9,s9,-22
    50c0:	010c9c93          	slli	s9,s9,0x10
    50c4:	410cdc93          	srai	s9,s9,0x10
    50c8:	0400006f          	j	5108 <.L941>

000050cc <.L942>:
    50cc:	ffdc8c93          	addi	s9,s9,-3
    50d0:	010c9c93          	slli	s9,s9,0x10
    50d4:	410cdc93          	srai	s9,s9,0x10
    50d8:	0300006f          	j	5108 <.L941>

000050dc <.L939>:
    50dc:	01f00d13          	li	s10,31
    50e0:	01cd4e63          	blt	s10,t3,50fc <.L943>
    50e4:	1a000d13          	li	s10,416
    50e8:	037d4063          	blt	s10,s7,5108 <.L941>
    50ec:	009c8c93          	addi	s9,s9,9
    50f0:	010c9c93          	slli	s9,s9,0x10
    50f4:	410cdc93          	srai	s9,s9,0x10
    50f8:	0100006f          	j	5108 <.L941>

000050fc <.L943>:
    50fc:	ffdc8c93          	addi	s9,s9,-3
    5100:	010c9c93          	slli	s9,s9,0x10
    5104:	410cdc93          	srai	s9,s9,0x10

00005108 <.L941>:
    5108:	03900d13          	li	s10,57
    510c:	0f1d4a63          	blt	s10,a7,5200 <.L944>
    5110:	00800d13          	li	s10,8
    5114:	0bfd4063          	blt	s10,t6,51b4 <.L945>
    5118:	00900d13          	li	s10,9
    511c:	025d4863          	blt	s10,t0,514c <.L946>
    5120:	ffb78793          	addi	a5,a5,-5
    5124:	01079793          	slli	a5,a5,0x10
    5128:	4107d793          	srai	a5,a5,0x10
    512c:	00100d13          	li	s10,1
    5130:	033d5863          	bge	s10,s3,5160 <.L947>

00005134 <.L948>:
    5134:	ff000d13          	li	s10,-16
    5138:	03a35a63          	bge	t1,s10,516c <.L955>
    513c:	00770713          	addi	a4,a4,7
    5140:	01071713          	slli	a4,a4,0x10
    5144:	41075713          	srai	a4,a4,0x10
    5148:	0240006f          	j	516c <.L955>

0000514c <.L946>:
    514c:	00778793          	addi	a5,a5,7
    5150:	01079793          	slli	a5,a5,0x10
    5154:	4107d793          	srai	a5,a5,0x10
    5158:	00100d13          	li	s10,1
    515c:	073d4a63          	blt	s10,s3,51d0 <.L949>

00005160 <.L947>:
    5160:	ff770713          	addi	a4,a4,-9
    5164:	01071713          	slli	a4,a4,0x10
    5168:	41075713          	srai	a4,a4,0x10

0000516c <.L955>:
    516c:	03c00d13          	li	s10,60
    5170:	16dd4a63          	blt	s10,a3,52e4 <.L961>

00005174 <.L957>:
    5174:	e4f00d13          	li	s10,-433
    5178:	15a4d263          	bge	s1,s10,52bc <.L962>
    517c:	c5a00d13          	li	s10,-934
    5180:	13a85663          	bge	a6,s10,52ac <.L963>
    5184:	003c0c13          	addi	s8,s8,3
    5188:	010c1c13          	slli	s8,s8,0x10
    518c:	410c5c13          	srai	s8,s8,0x10

00005190 <.L964>:
    5190:	01f00d13          	li	s10,31
    5194:	1d4d4663          	blt	s10,s4,5360 <.L968>
    5198:	03d00d13          	li	s10,61
    519c:	17ed4c63          	blt	s10,t5,5314 <.L969>
    51a0:	1d304a63          	bgtz	s3,5374 <.L970>
    51a4:	005c8c93          	addi	s9,s9,5
    51a8:	010c9c93          	slli	s9,s9,0x10
    51ac:	410cdc93          	srai	s9,s9,0x10
    51b0:	1c40006f          	j	5374 <.L970>

000051b4 <.L945>:
    51b4:	ff600d13          	li	s10,-10
    51b8:	03a65c63          	bge	a2,s10,51f0 <.L950>
    51bc:	00278793          	addi	a5,a5,2
    51c0:	01079793          	slli	a5,a5,0x10
    51c4:	4107d793          	srai	a5,a5,0x10

000051c8 <.L951>:
    51c8:	00100d13          	li	s10,1
    51cc:	093d5263          	bge	s10,s3,5250 <.L1634>

000051d0 <.L949>:
    51d0:	02000d13          	li	s10,32
    51d4:	f65d50e3          	bge	s10,t0,5134 <.L948>
    51d8:	34700d13          	li	s10,839
    51dc:	0cbd4063          	blt	s10,a1,529c <.L960>
    51e0:	ff970713          	addi	a4,a4,-7
    51e4:	01071713          	slli	a4,a4,0x10
    51e8:	41075713          	srai	a4,a4,0x10
    51ec:	f81ff06f          	j	516c <.L955>

000051f0 <.L950>:
    51f0:	ff778793          	addi	a5,a5,-9
    51f4:	01079793          	slli	a5,a5,0x10
    51f8:	4107d793          	srai	a5,a5,0x10
    51fc:	fcdff06f          	j	51c8 <.L951>

00005200 <.L944>:
    5200:	ff800d13          	li	s10,-8
    5204:	03a35a63          	bge	t1,s10,5238 <.L952>
    5208:	01c51d03          	lh	s10,28(a0)
    520c:	000d0d93          	mv	s11,s10
    5210:	01e00d13          	li	s10,30
    5214:	01bd4a63          	blt	s10,s11,5228 <.L953>
    5218:	00278793          	addi	a5,a5,2
    521c:	01079793          	slli	a5,a5,0x10
    5220:	4107d793          	srai	a5,a5,0x10
    5224:	fa5ff06f          	j	51c8 <.L951>

00005228 <.L953>:
    5228:	ffc78793          	addi	a5,a5,-4
    522c:	01079793          	slli	a5,a5,0x10
    5230:	4107d793          	srai	a5,a5,0x10
    5234:	f95ff06f          	j	51c8 <.L951>

00005238 <.L952>:
    5238:	ea900d13          	li	s10,-343
    523c:	f9aad6e3          	bge	s5,s10,51c8 <.L951>
    5240:	00778793          	addi	a5,a5,7
    5244:	01079793          	slli	a5,a5,0x10
    5248:	4107d793          	srai	a5,a5,0x10
    524c:	f7dff06f          	j	51c8 <.L951>

00005250 <.L1634>:
    5250:	01100d13          	li	s10,17
    5254:	f1fd56e3          	bge	s10,t6,5160 <.L947>
    5258:	02400d13          	li	s10,36
    525c:	02cd4863          	blt	s10,a2,528c <.L956>
    5260:	00470713          	addi	a4,a4,4
    5264:	01071713          	slli	a4,a4,0x10
    5268:	41075713          	srai	a4,a4,0x10
    526c:	03c00d13          	li	s10,60
    5270:	f0dd52e3          	bge	s10,a3,5174 <.L957>

00005274 <.L958>:
    5274:	0a100d13          	li	s10,161
    5278:	f12d4ce3          	blt	s10,s2,5190 <.L964>
    527c:	008c0c13          	addi	s8,s8,8
    5280:	010c1c13          	slli	s8,s8,0x10
    5284:	410c5c13          	srai	s8,s8,0x10
    5288:	f09ff06f          	j	5190 <.L964>

0000528c <.L956>:
    528c:	ff970713          	addi	a4,a4,-7
    5290:	01071713          	slli	a4,a4,0x10
    5294:	41075713          	srai	a4,a4,0x10
    5298:	ed5ff06f          	j	516c <.L955>

0000529c <.L960>:
    529c:	00370713          	addi	a4,a4,3
    52a0:	01071713          	slli	a4,a4,0x10
    52a4:	41075713          	srai	a4,a4,0x10
    52a8:	ec5ff06f          	j	516c <.L955>

000052ac <.L963>:
    52ac:	ff6c0c13          	addi	s8,s8,-10
    52b0:	010c1c13          	slli	s8,s8,0x10
    52b4:	410c5c13          	srai	s8,s8,0x10
    52b8:	ed9ff06f          	j	5190 <.L964>

000052bc <.L962>:
    52bc:	01700d13          	li	s10,23
    52c0:	005d4a63          	blt	s10,t0,52d4 <.L965>
    52c4:	ffbc0c13          	addi	s8,s8,-5
    52c8:	010c1c13          	slli	s8,s8,0x10
    52cc:	410c5c13          	srai	s8,s8,0x10
    52d0:	ec1ff06f          	j	5190 <.L964>

000052d4 <.L965>:
    52d4:	003c0c13          	addi	s8,s8,3
    52d8:	010c1c13          	slli	s8,s8,0x10
    52dc:	410c5c13          	srai	s8,s8,0x10
    52e0:	eb1ff06f          	j	5190 <.L964>

000052e4 <.L961>:
    52e4:	0dc00d13          	li	s10,220
    52e8:	f8cd56e3          	bge	s10,a2,5274 <.L958>
    52ec:	01f00d13          	li	s10,31
    52f0:	01cd4a63          	blt	s10,t3,5304 <.L967>
    52f4:	ff8c0c13          	addi	s8,s8,-8
    52f8:	010c1c13          	slli	s8,s8,0x10
    52fc:	410c5c13          	srai	s8,s8,0x10
    5300:	e91ff06f          	j	5190 <.L964>

00005304 <.L967>:
    5304:	006c0c13          	addi	s8,s8,6
    5308:	010c1c13          	slli	s8,s8,0x10
    530c:	410c5c13          	srai	s8,s8,0x10
    5310:	e81ff06f          	j	5190 <.L964>

00005314 <.L969>:
    5314:	07100d13          	li	s10,113
    5318:	037d4c63          	blt	s10,s7,5350 <.L971>
    531c:	00cc8c93          	addi	s9,s9,12
    5320:	010c9c93          	slli	s9,s9,0x10
    5324:	010cdc93          	srli	s9,s9,0x10

00005328 <.L972>:
    5328:	010c9c93          	slli	s9,s9,0x10
    532c:	410cdc93          	srai	s9,s9,0x10

00005330 <.L974>:
    5330:	03b00d13          	li	s10,59
    5334:	0edd4e63          	blt	s10,a3,5430 <.L979>
    5338:	0a500d13          	li	s10,165
    533c:	052d4e63          	blt	s10,s2,5398 <.L977>
    5340:	00578793          	addi	a5,a5,5
    5344:	01079793          	slli	a5,a5,0x10
    5348:	4107d793          	srai	a5,a5,0x10
    534c:	04c0006f          	j	5398 <.L977>

00005350 <.L971>:
    5350:	ffec8c93          	addi	s9,s9,-2
    5354:	010c9c93          	slli	s9,s9,0x10
    5358:	010cdc93          	srli	s9,s9,0x10
    535c:	fcdff06f          	j	5328 <.L972>

00005360 <.L968>:
    5360:	00700d13          	li	s10,7
    5364:	09fd4263          	blt	s10,t6,53e8 <.L973>
    5368:	fffc8c93          	addi	s9,s9,-1
    536c:	010c9c93          	slli	s9,s9,0x10
    5370:	410cdc93          	srai	s9,s9,0x10

00005374 <.L970>:
    5374:	03300d13          	li	s10,51
    5378:	fbed4ce3          	blt	s10,t5,5330 <.L974>
    537c:	1c600d13          	li	s10,454
    5380:	08cd4463          	blt	s10,a2,5408 <.L975>
    5384:	03200d13          	li	s10,50
    5388:	07ed4863          	blt	s10,t5,53f8 <.L976>
    538c:	ff778793          	addi	a5,a5,-9
    5390:	01079793          	slli	a5,a5,0x10
    5394:	4107d793          	srai	a5,a5,0x10

00005398 <.L977>:
    5398:	f9800d13          	li	s10,-104
    539c:	0fa3d263          	bge	t2,s10,5480 <.L981>
    53a0:	0c700d13          	li	s10,199
    53a4:	00c12d83          	lw	s11,12(sp)
    53a8:	0bbd4863          	blt	s10,s11,5458 <.L982>
    53ac:	ea900d13          	li	s10,-343
    53b0:	01a44863          	blt	s0,s10,53c0 <.L983>
    53b4:	ff770713          	addi	a4,a4,-9
    53b8:	01071713          	slli	a4,a4,0x10
    53bc:	41075713          	srai	a4,a4,0x10

000053c0 <.L983>:
    53c0:	d2a00d13          	li	s10,-726
    53c4:	1da85863          	bge	a6,s10,5594 <.L988>
    53c8:	25d00d13          	li	s10,605
    53cc:	116d4663          	blt	s10,s6,54d8 <.L989>
    53d0:	e2e00d13          	li	s10,-466
    53d4:	11aac863          	blt	s5,s10,54e4 <.L990>
    53d8:	008c0c13          	addi	s8,s8,8
    53dc:	010c1c13          	slli	s8,s8,0x10
    53e0:	410c5c13          	srai	s8,s8,0x10
    53e4:	1000006f          	j	54e4 <.L990>

000053e8 <.L973>:
    53e8:	ff8c8c93          	addi	s9,s9,-8
    53ec:	010c9c93          	slli	s9,s9,0x10
    53f0:	410cdc93          	srai	s9,s9,0x10
    53f4:	f81ff06f          	j	5374 <.L970>

000053f8 <.L976>:
    53f8:	fff78793          	addi	a5,a5,-1
    53fc:	01079793          	slli	a5,a5,0x10
    5400:	4107d793          	srai	a5,a5,0x10
    5404:	f95ff06f          	j	5398 <.L977>

00005408 <.L975>:
    5408:	0ea00d13          	li	s10,234
    540c:	011d4a63          	blt	s10,a7,5420 <.L978>
    5410:	ff978793          	addi	a5,a5,-7
    5414:	01079793          	slli	a5,a5,0x10
    5418:	4107d793          	srai	a5,a5,0x10
    541c:	f7dff06f          	j	5398 <.L977>

00005420 <.L978>:
    5420:	00478793          	addi	a5,a5,4
    5424:	01079793          	slli	a5,a5,0x10
    5428:	4107d793          	srai	a5,a5,0x10
    542c:	f6dff06f          	j	5398 <.L977>

00005430 <.L979>:
    5430:	17900d13          	li	s10,377
    5434:	016d4a63          	blt	s10,s6,5448 <.L980>
    5438:	ff878793          	addi	a5,a5,-8
    543c:	01079793          	slli	a5,a5,0x10
    5440:	4107d793          	srai	a5,a5,0x10
    5444:	f55ff06f          	j	5398 <.L977>

00005448 <.L980>:
    5448:	00178793          	addi	a5,a5,1
    544c:	01079793          	slli	a5,a5,0x10
    5450:	4107d793          	srai	a5,a5,0x10
    5454:	f45ff06f          	j	5398 <.L977>

00005458 <.L982>:
    5458:	00e00d13          	li	s10,14
    545c:	01cd4a63          	blt	s10,t3,5470 <.L984>
    5460:	ffe70713          	addi	a4,a4,-2
    5464:	01071713          	slli	a4,a4,0x10
    5468:	41075713          	srai	a4,a4,0x10
    546c:	f55ff06f          	j	53c0 <.L983>

00005470 <.L984>:
    5470:	00270713          	addi	a4,a4,2
    5474:	01071713          	slli	a4,a4,0x10
    5478:	41075713          	srai	a4,a4,0x10
    547c:	f45ff06f          	j	53c0 <.L983>

00005480 <.L981>:
    5480:	f6d00d13          	li	s10,-147
    5484:	03a4d663          	bge	s1,s10,54b0 <.L985>
    5488:	0c700d13          	li	s10,199
    548c:	01dd4a63          	blt	s10,t4,54a0 <.L986>
    5490:	01770713          	addi	a4,a4,23
    5494:	01071713          	slli	a4,a4,0x10
    5498:	41075713          	srai	a4,a4,0x10
    549c:	f25ff06f          	j	53c0 <.L983>

000054a0 <.L986>:
    54a0:	00570713          	addi	a4,a4,5
    54a4:	01071713          	slli	a4,a4,0x10
    54a8:	41075713          	srai	a4,a4,0x10
    54ac:	f15ff06f          	j	53c0 <.L983>

000054b0 <.L985>:
    54b0:	fa700d13          	li	s10,-89
    54b4:	01a3da63          	bge	t2,s10,54c8 <.L987>
    54b8:	00370713          	addi	a4,a4,3
    54bc:	01071713          	slli	a4,a4,0x10
    54c0:	41075713          	srai	a4,a4,0x10
    54c4:	efdff06f          	j	53c0 <.L983>

000054c8 <.L987>:
    54c8:	ffa70713          	addi	a4,a4,-6
    54cc:	01071713          	slli	a4,a4,0x10
    54d0:	41075713          	srai	a4,a4,0x10
    54d4:	eedff06f          	j	53c0 <.L983>

000054d8 <.L989>:
    54d8:	fffc0c13          	addi	s8,s8,-1
    54dc:	010c1c13          	slli	s8,s8,0x10
    54e0:	410c5c13          	srai	s8,s8,0x10

000054e4 <.L990>:
    54e4:	00400d13          	li	s10,4
    54e8:	13fd4063          	blt	s10,t6,5608 <.L993>
    54ec:	03800d13          	li	s10,56
    54f0:	0fed4863          	blt	s10,t5,55e0 <.L994>
    54f4:	00bc8c93          	addi	s9,s9,11
    54f8:	010c9c93          	slli	s9,s9,0x10
    54fc:	410cdc93          	srai	s9,s9,0x10

00005500 <.L995>:
    5500:	f8b00d13          	li	s10,-117
    5504:	1ba85663          	bge	a6,s10,56b0 <.L1001>

00005508 <.L1528>:
    5508:	00c00d13          	li	s10,12
    550c:	173d4e63          	blt	s10,s3,5688 <.L1002>
    5510:	02700d13          	li	s10,39
    5514:	005d4463          	blt	s10,t0,551c <.L1528+0x14>
    5518:	3cd0206f          	j	80e4 <.L1003>
    551c:	00778793          	addi	a5,a5,7
    5520:	01079793          	slli	a5,a5,0x10
    5524:	4107d793          	srai	a5,a5,0x10
    5528:	04900d13          	li	s10,73
    552c:	13fd5263          	bge	s10,t6,5650 <.L1004>

00005530 <.L1005>:
    5530:	08600d13          	li	s10,134
    5534:	005d4463          	blt	s10,t0,553c <.L1005+0xc>
    5538:	3b90206f          	j	80f0 <.L1527>
    553c:	ffb70713          	addi	a4,a4,-5
    5540:	01071713          	slli	a4,a4,0x10
    5544:	41075713          	srai	a4,a4,0x10

00005548 <.L1010>:
    5548:	0a000d13          	li	s10,160
    554c:	276d4663          	blt	s10,s6,57b8 <.L1012>
    5550:	09b00d13          	li	s10,155
    5554:	236d4e63          	blt	s10,s6,5790 <.L1013>
    5558:	0a300d13          	li	s10,163
    555c:	197d4a63          	blt	s10,s7,56f0 <.L1014>
    5560:	ffcc0c13          	addi	s8,s8,-4
    5564:	010c1c13          	slli	s8,s8,0x10
    5568:	410c5c13          	srai	s8,s8,0x10
    556c:	39000d13          	li	s10,912
    5570:	291d5863          	bge	s10,a7,5800 <.L1015>

00005574 <.L1016>:
    5574:	14e00d13          	li	s10,334
    5578:	2cbd4c63          	blt	s10,a1,5850 <.L1027>
    557c:	00900d13          	li	s10,9
    5580:	2d4d4063          	blt	s10,s4,5840 <.L1028>
    5584:	003c8c93          	addi	s9,s9,3
    5588:	010c9c93          	slli	s9,s9,0x10
    558c:	410cdc93          	srai	s9,s9,0x10
    5590:	2cc0006f          	j	585c <.L1030>

00005594 <.L988>:
    5594:	02c00d13          	li	s10,44
    5598:	01fd4e63          	blt	s10,t6,55b4 <.L991>
    559c:	02b00d13          	li	s10,43
    55a0:	f5fd52e3          	bge	s10,t6,54e4 <.L990>
    55a4:	00cc0c13          	addi	s8,s8,12
    55a8:	010c1c13          	slli	s8,s8,0x10
    55ac:	410c5c13          	srai	s8,s8,0x10
    55b0:	0100006f          	j	55c0 <.L992>

000055b4 <.L991>:
    55b4:	ff6c0c13          	addi	s8,s8,-10
    55b8:	010c1c13          	slli	s8,s8,0x10
    55bc:	410c5c13          	srai	s8,s8,0x10

000055c0 <.L992>:
    55c0:	ff800d13          	li	s10,-8
    55c4:	0ba34263          	blt	t1,s10,5668 <.L998>

000055c8 <.L997>:
    55c8:	f5c00d13          	li	s10,-164
    55cc:	0ba3d663          	bge	t2,s10,5678 <.L1000>
    55d0:	ffbc8c93          	addi	s9,s9,-5
    55d4:	010c9c93          	slli	s9,s9,0x10
    55d8:	410cdc93          	srai	s9,s9,0x10
    55dc:	f25ff06f          	j	5500 <.L995>

000055e0 <.L994>:
    55e0:	fe400d13          	li	s10,-28
    55e4:	01a65a63          	bge	a2,s10,55f8 <.L996>
    55e8:	006c8c93          	addi	s9,s9,6
    55ec:	010c9c93          	slli	s9,s9,0x10
    55f0:	410cdc93          	srai	s9,s9,0x10
    55f4:	f0dff06f          	j	5500 <.L995>

000055f8 <.L996>:
    55f8:	ffec8c93          	addi	s9,s9,-2
    55fc:	010c9c93          	slli	s9,s9,0x10
    5600:	410cdc93          	srai	s9,s9,0x10
    5604:	efdff06f          	j	5500 <.L995>

00005608 <.L993>:
    5608:	ff800d13          	li	s10,-8
    560c:	fba35ee3          	bge	t1,s10,55c8 <.L997>
    5610:	01f00d13          	li	s10,31
    5614:	05fd4a63          	blt	s10,t6,5668 <.L998>
    5618:	004c8c93          	addi	s9,s9,4
    561c:	010c9c93          	slli	s9,s9,0x10
    5620:	010cdc93          	srli	s9,s9,0x10

00005624 <.L999>:
    5624:	010c9c93          	slli	s9,s9,0x10
    5628:	410cdc93          	srai	s9,s9,0x10
    562c:	f8b00d13          	li	s10,-117
    5630:	eda84ce3          	blt	a6,s10,5508 <.L1528>

00005634 <.L1529>:
    5634:	ff878793          	addi	a5,a5,-8
    5638:	01079793          	slli	a5,a5,0x10
    563c:	4107d793          	srai	a5,a5,0x10

00005640 <.L1007>:
    5640:	04900d13          	li	s10,73
    5644:	effd46e3          	blt	s10,t6,5530 <.L1005>
    5648:	02700d13          	li	s10,39
    564c:	065d5e63          	bge	s10,t0,56c8 <.L1526>

00005650 <.L1004>:
    5650:	34900d13          	li	s10,841
    5654:	eebd4ae3          	blt	s10,a1,5548 <.L1010>
    5658:	ff770713          	addi	a4,a4,-9
    565c:	01071713          	slli	a4,a4,0x10
    5660:	41075713          	srai	a4,a4,0x10
    5664:	ee5ff06f          	j	5548 <.L1010>

00005668 <.L998>:
    5668:	ffec8c93          	addi	s9,s9,-2
    566c:	010c9c93          	slli	s9,s9,0x10
    5670:	010cdc93          	srli	s9,s9,0x10
    5674:	fb1ff06f          	j	5624 <.L999>

00005678 <.L1000>:
    5678:	002c8c93          	addi	s9,s9,2
    567c:	010c9c93          	slli	s9,s9,0x10
    5680:	410cdc93          	srai	s9,s9,0x10
    5684:	e7dff06f          	j	5500 <.L995>

00005688 <.L1002>:
    5688:	23200d13          	li	s10,562
    568c:	01dd4a63          	blt	s10,t4,56a0 <.L1006>
    5690:	ff778793          	addi	a5,a5,-9
    5694:	01079793          	slli	a5,a5,0x10
    5698:	4107d793          	srai	a5,a5,0x10
    569c:	fa5ff06f          	j	5640 <.L1007>

000056a0 <.L1006>:
    56a0:	00278793          	addi	a5,a5,2
    56a4:	01079793          	slli	a5,a5,0x10
    56a8:	4107d793          	srai	a5,a5,0x10
    56ac:	f95ff06f          	j	5640 <.L1007>

000056b0 <.L1001>:
    56b0:	ffe00d13          	li	s10,-2
    56b4:	f9a340e3          	blt	t1,s10,5634 <.L1529>
    56b8:	ffe78793          	addi	a5,a5,-2
    56bc:	01079793          	slli	a5,a5,0x10
    56c0:	4107d793          	srai	a5,a5,0x10
    56c4:	f7dff06f          	j	5640 <.L1007>

000056c8 <.L1526>:
    56c8:	15500d13          	li	s10,341
    56cc:	01dd4a63          	blt	s10,t4,56e0 <.L1009>
    56d0:	ffe70713          	addi	a4,a4,-2
    56d4:	01071713          	slli	a4,a4,0x10
    56d8:	41075713          	srai	a4,a4,0x10
    56dc:	e6dff06f          	j	5548 <.L1010>

000056e0 <.L1009>:
    56e0:	00370713          	addi	a4,a4,3
    56e4:	01071713          	slli	a4,a4,0x10
    56e8:	41075713          	srai	a4,a4,0x10
    56ec:	e5dff06f          	j	5548 <.L1010>

000056f0 <.L1014>:
    56f0:	005c0c13          	addi	s8,s8,5
    56f4:	010c1c13          	slli	s8,s8,0x10
    56f8:	410c5c13          	srai	s8,s8,0x10

000056fc <.L1017>:
    56fc:	39000d13          	li	s10,912
    5700:	e71d4ae3          	blt	s10,a7,5574 <.L1016>
    5704:	0ba00d13          	li	s10,186
    5708:	0f7d5c63          	bge	s10,s7,5800 <.L1015>
    570c:	11305e63          	blez	s3,5828 <.L1635>
    5710:	ffac8c93          	addi	s9,s9,-6
    5714:	010c9c93          	slli	s9,s9,0x10
    5718:	410cdc93          	srai	s9,s9,0x10

0000571c <.L1023>:
    571c:	12e00d13          	li	s10,302
    5720:	131d4e63          	blt	s10,a7,585c <.L1030>

00005724 <.L1025>:
    5724:	02a00d13          	li	s10,42
    5728:	16bd4263          	blt	s10,a1,588c <.L1031>
    572c:	04b00d13          	li	s10,75
    5730:	14cd4663          	blt	s10,a2,587c <.L1032>
    5734:	fff78793          	addi	a5,a5,-1
    5738:	01079793          	slli	a5,a5,0x10
    573c:	4107d793          	srai	a5,a5,0x10

00005740 <.L1033>:
    5740:	f9800d13          	li	s10,-104
    5744:	1ba3d863          	bge	t2,s10,58f4 <.L1039>
    5748:	0c700d13          	li	s10,199
    574c:	00c12d83          	lw	s11,12(sp)
    5750:	1dbd4263          	blt	s10,s11,5914 <.L1040>
    5754:	ea900d13          	li	s10,-343
    5758:	01a44863          	blt	s0,s10,5768 <.L1041>
    575c:	ff770713          	addi	a4,a4,-9
    5760:	01071713          	slli	a4,a4,0x10
    5764:	41075713          	srai	a4,a4,0x10

00005768 <.L1041>:
    5768:	01800d13          	li	s10,24
    576c:	29cd4463          	blt	s10,t3,59f4 <.L1048>

00005770 <.L1525>:
    5770:	11a00d13          	li	s10,282
    5774:	212d5863          	bge	s10,s2,5984 <.L1046>
    5778:	ccd00d13          	li	s10,-819
    577c:	27a85463          	bge	a6,s10,59e4 <.L1052>
    5780:	004c0c13          	addi	s8,s8,4
    5784:	010c1c13          	slli	s8,s8,0x10
    5788:	410c5c13          	srai	s8,s8,0x10
    578c:	2100006f          	j	599c <.L1051>

00005790 <.L1013>:
    5790:	f4200d13          	li	s10,-190
    5794:	01aada63          	bge	s5,s10,57a8 <.L1018>
    5798:	014c0c13          	addi	s8,s8,20
    579c:	010c1c13          	slli	s8,s8,0x10
    57a0:	410c5c13          	srai	s8,s8,0x10
    57a4:	f59ff06f          	j	56fc <.L1017>

000057a8 <.L1018>:
    57a8:	001c0c13          	addi	s8,s8,1
    57ac:	010c1c13          	slli	s8,s8,0x10
    57b0:	410c5c13          	srai	s8,s8,0x10
    57b4:	f49ff06f          	j	56fc <.L1017>

000057b8 <.L1012>:
    57b8:	eb800d13          	li	s10,-328
    57bc:	01a3de63          	bge	t2,s10,57d8 <.L1019>
    57c0:	eb100d13          	li	s10,-335
    57c4:	f3a3cce3          	blt	t2,s10,56fc <.L1017>
    57c8:	009c0c13          	addi	s8,s8,9
    57cc:	010c1c13          	slli	s8,s8,0x10
    57d0:	410c5c13          	srai	s8,s8,0x10
    57d4:	f29ff06f          	j	56fc <.L1017>

000057d8 <.L1019>:
    57d8:	02500d13          	li	s10,37
    57dc:	01ed4a63          	blt	s10,t5,57f0 <.L1020>
    57e0:	00ac0c13          	addi	s8,s8,10
    57e4:	010c1c13          	slli	s8,s8,0x10
    57e8:	410c5c13          	srai	s8,s8,0x10
    57ec:	f11ff06f          	j	56fc <.L1017>

000057f0 <.L1020>:
    57f0:	ffbc0c13          	addi	s8,s8,-5
    57f4:	010c1c13          	slli	s8,s8,0x10
    57f8:	410c5c13          	srai	s8,s8,0x10
    57fc:	f01ff06f          	j	56fc <.L1017>

00005800 <.L1015>:
    5800:	03800d13          	li	s10,56
    5804:	00dd4a63          	blt	s10,a3,5818 <.L1022>
    5808:	ffec8c93          	addi	s9,s9,-2
    580c:	010c9c93          	slli	s9,s9,0x10
    5810:	410cdc93          	srai	s9,s9,0x10
    5814:	f09ff06f          	j	571c <.L1023>

00005818 <.L1022>:
    5818:	002c8c93          	addi	s9,s9,2
    581c:	010c9c93          	slli	s9,s9,0x10
    5820:	410cdc93          	srai	s9,s9,0x10
    5824:	ef9ff06f          	j	571c <.L1023>

00005828 <.L1635>:
    5828:	004c8c93          	addi	s9,s9,4
    582c:	010c9c93          	slli	s9,s9,0x10
    5830:	410cdc93          	srai	s9,s9,0x10
    5834:	12e00d13          	li	s10,302
    5838:	ef1d56e3          	bge	s10,a7,5724 <.L1025>
    583c:	0280006f          	j	5864 <.L1026>

00005840 <.L1028>:
    5840:	012c8c93          	addi	s9,s9,18
    5844:	010c9c93          	slli	s9,s9,0x10
    5848:	410cdc93          	srai	s9,s9,0x10
    584c:	0100006f          	j	585c <.L1030>

00005850 <.L1027>:
    5850:	ffbc8c93          	addi	s9,s9,-5
    5854:	010c9c93          	slli	s9,s9,0x10
    5858:	410cdc93          	srai	s9,s9,0x10

0000585c <.L1030>:
    585c:	00c00d13          	li	s10,12
    5860:	073d4263          	blt	s10,s3,58c4 <.L1035>

00005864 <.L1026>:
    5864:	19500d13          	li	s10,405
    5868:	057d4663          	blt	s10,s7,58b4 <.L1036>
    586c:	00678793          	addi	a5,a5,6
    5870:	01079793          	slli	a5,a5,0x10
    5874:	4107d793          	srai	a5,a5,0x10
    5878:	ec9ff06f          	j	5740 <.L1033>

0000587c <.L1032>:
    587c:	00778793          	addi	a5,a5,7
    5880:	01079793          	slli	a5,a5,0x10
    5884:	4107d793          	srai	a5,a5,0x10
    5888:	eb9ff06f          	j	5740 <.L1033>

0000588c <.L1031>:
    588c:	00300d13          	li	s10,3
    5890:	01cd4a63          	blt	s10,t3,58a4 <.L1034>
    5894:	01a787b3          	add	a5,a5,s10
    5898:	01079793          	slli	a5,a5,0x10
    589c:	4107d793          	srai	a5,a5,0x10
    58a0:	ea1ff06f          	j	5740 <.L1033>

000058a4 <.L1034>:
    58a4:	ffb78793          	addi	a5,a5,-5
    58a8:	01079793          	slli	a5,a5,0x10
    58ac:	4107d793          	srai	a5,a5,0x10
    58b0:	e91ff06f          	j	5740 <.L1033>

000058b4 <.L1036>:
    58b4:	ffc78793          	addi	a5,a5,-4
    58b8:	01079793          	slli	a5,a5,0x10
    58bc:	4107d793          	srai	a5,a5,0x10
    58c0:	e81ff06f          	j	5740 <.L1033>

000058c4 <.L1035>:
    58c4:	1dc00d13          	li	s10,476
    58c8:	00c12d83          	lw	s11,12(sp)
    58cc:	01bd4a63          	blt	s10,s11,58e0 <.L1037>
    58d0:	ff378793          	addi	a5,a5,-13
    58d4:	01079793          	slli	a5,a5,0x10
    58d8:	4107d793          	srai	a5,a5,0x10
    58dc:	e65ff06f          	j	5740 <.L1033>

000058e0 <.L1037>:
    58e0:	00178793          	addi	a5,a5,1
    58e4:	01079793          	slli	a5,a5,0x10
    58e8:	4107d793          	srai	a5,a5,0x10
    58ec:	f9800d13          	li	s10,-104
    58f0:	03a3ce63          	blt	t2,s10,592c <.L1038>

000058f4 <.L1039>:
    58f4:	f6d00d13          	li	s10,-147
    58f8:	07a4d863          	bge	s1,s10,5968 <.L1042>
    58fc:	f4700d13          	li	s10,-185
    5900:	03a4de63          	bge	s1,s10,593c <.L1043>
    5904:	00570713          	addi	a4,a4,5
    5908:	01071713          	slli	a4,a4,0x10
    590c:	41075713          	srai	a4,a4,0x10
    5910:	e59ff06f          	j	5768 <.L1041>

00005914 <.L1040>:
    5914:	0aa00d13          	li	s10,170
    5918:	011d4a63          	blt	s10,a7,592c <.L1038>
    591c:	00270713          	addi	a4,a4,2
    5920:	01071713          	slli	a4,a4,0x10
    5924:	41075713          	srai	a4,a4,0x10
    5928:	e41ff06f          	j	5768 <.L1041>

0000592c <.L1038>:
    592c:	fff70713          	addi	a4,a4,-1
    5930:	01071713          	slli	a4,a4,0x10
    5934:	41075713          	srai	a4,a4,0x10
    5938:	e31ff06f          	j	5768 <.L1041>

0000593c <.L1043>:
    593c:	01670713          	addi	a4,a4,22
    5940:	01071713          	slli	a4,a4,0x10
    5944:	41075713          	srai	a4,a4,0x10

00005948 <.L1044>:
    5948:	01800d13          	li	s10,24
    594c:	e3cd52e3          	bge	s10,t3,5770 <.L1525>

00005950 <.L1047>:
    5950:	02600d13          	li	s10,38
    5954:	051d5463          	bge	s10,a7,599c <.L1051>
    5958:	00bc0c13          	addi	s8,s8,11
    595c:	010c1c13          	slli	s8,s8,0x10
    5960:	410c5c13          	srai	s8,s8,0x10
    5964:	0380006f          	j	599c <.L1051>

00005968 <.L1042>:
    5968:	02600d13          	li	s10,38
    596c:	052d4c63          	blt	s10,s2,59c4 <.L1045>
    5970:	00370713          	addi	a4,a4,3
    5974:	01071713          	slli	a4,a4,0x10
    5978:	41075713          	srai	a4,a4,0x10
    597c:	01800d13          	li	s10,24
    5980:	fdcd48e3          	blt	s10,t3,5950 <.L1047>

00005984 <.L1046>:
    5984:	12700d13          	li	s10,295
    5988:	00c12d83          	lw	s11,12(sp)
    598c:	05bd4463          	blt	s10,s11,59d4 <.L1050>
    5990:	003c0c13          	addi	s8,s8,3
    5994:	010c1c13          	slli	s8,s8,0x10
    5998:	410c5c13          	srai	s8,s8,0x10

0000599c <.L1051>:
    599c:	0a900d13          	li	s10,169
    59a0:	0ddd4263          	blt	s10,t4,5a64 <.L1054>
    59a4:	01c00d13          	li	s10,28
    59a8:	08dd4a63          	blt	s10,a3,5a3c <.L1055>
    59ac:	07300d13          	li	s10,115
    59b0:	07dd4e63          	blt	s10,t4,5a2c <.L1056>
    59b4:	006c8c93          	addi	s9,s9,6
    59b8:	010c9c93          	slli	s9,s9,0x10
    59bc:	410cdc93          	srai	s9,s9,0x10
    59c0:	0b80006f          	j	5a78 <.L1057>

000059c4 <.L1045>:
    59c4:	ffa70713          	addi	a4,a4,-6
    59c8:	01071713          	slli	a4,a4,0x10
    59cc:	41075713          	srai	a4,a4,0x10
    59d0:	f79ff06f          	j	5948 <.L1044>

000059d4 <.L1050>:
    59d4:	ffcc0c13          	addi	s8,s8,-4
    59d8:	010c1c13          	slli	s8,s8,0x10
    59dc:	410c5c13          	srai	s8,s8,0x10
    59e0:	fbdff06f          	j	599c <.L1051>

000059e4 <.L1052>:
    59e4:	ff6c0c13          	addi	s8,s8,-10
    59e8:	010c1c13          	slli	s8,s8,0x10
    59ec:	410c5c13          	srai	s8,s8,0x10
    59f0:	fadff06f          	j	599c <.L1051>

000059f4 <.L1048>:
    59f4:	eee00d13          	li	s10,-274
    59f8:	f5a4dce3          	bge	s1,s10,5950 <.L1047>
    59fc:	01c51d03          	lh	s10,28(a0)
    5a00:	000d0d93          	mv	s11,s10
    5a04:	02300d13          	li	s10,35
    5a08:	01bd4a63          	blt	s10,s11,5a1c <.L1053>
    5a0c:	005c0c13          	addi	s8,s8,5
    5a10:	010c1c13          	slli	s8,s8,0x10
    5a14:	410c5c13          	srai	s8,s8,0x10
    5a18:	f85ff06f          	j	599c <.L1051>

00005a1c <.L1053>:
    5a1c:	ffac0c13          	addi	s8,s8,-6
    5a20:	010c1c13          	slli	s8,s8,0x10
    5a24:	410c5c13          	srai	s8,s8,0x10
    5a28:	f75ff06f          	j	599c <.L1051>

00005a2c <.L1056>:
    5a2c:	fefc8c93          	addi	s9,s9,-17
    5a30:	010c9c93          	slli	s9,s9,0x10
    5a34:	410cdc93          	srai	s9,s9,0x10
    5a38:	0400006f          	j	5a78 <.L1057>

00005a3c <.L1055>:
    5a3c:	05500d13          	li	s10,85
    5a40:	016d4a63          	blt	s10,s6,5a54 <.L1058>
    5a44:	ffec8c93          	addi	s9,s9,-2
    5a48:	010c9c93          	slli	s9,s9,0x10
    5a4c:	410cdc93          	srai	s9,s9,0x10
    5a50:	0280006f          	j	5a78 <.L1057>

00005a54 <.L1058>:
    5a54:	007c8c93          	addi	s9,s9,7
    5a58:	010c9c93          	slli	s9,s9,0x10
    5a5c:	410cdc93          	srai	s9,s9,0x10
    5a60:	0180006f          	j	5a78 <.L1057>

00005a64 <.L1054>:
    5a64:	01700d13          	li	s10,23
    5a68:	065d4463          	blt	s10,t0,5ad0 <.L1059>
    5a6c:	fffc8c93          	addi	s9,s9,-1
    5a70:	010c9c93          	slli	s9,s9,0x10
    5a74:	410cdc93          	srai	s9,s9,0x10

00005a78 <.L1057>:
    5a78:	03300d13          	li	s10,51
    5a7c:	0bed4463          	blt	s10,t5,5b24 <.L1061>
    5a80:	00001d37          	lui	s10,0x1
    5a84:	cbbd0d13          	addi	s10,s10,-837 # cbb <.L1561+0xb>
    5a88:	06cd4863          	blt	s10,a2,5af8 <.L1062>
    5a8c:	dba00d13          	li	s10,-582
    5a90:	01a84863          	blt	a6,s10,5aa0 <.L1063>
    5a94:	ff978793          	addi	a5,a5,-7
    5a98:	01079793          	slli	a5,a5,0x10
    5a9c:	4107d793          	srai	a5,a5,0x10

00005aa0 <.L1063>:
    5aa0:	10b00d13          	li	s10,267
    5aa4:	0abd5663          	bge	s10,a1,5b50 <.L1068>

00005aa8 <.L1070>:
    5aa8:	e8500d13          	li	s10,-379
    5aac:	15a4d063          	bge	s1,s10,5bec <.L1075>
    5ab0:	01c51d03          	lh	s10,28(a0)
    5ab4:	000d0d93          	mv	s11,s10
    5ab8:	00300d13          	li	s10,3
    5abc:	13bd4063          	blt	s10,s11,5bdc <.L1076>
    5ac0:	ffc70713          	addi	a4,a4,-4
    5ac4:	01071713          	slli	a4,a4,0x10
    5ac8:	41075713          	srai	a4,a4,0x10
    5acc:	0a00006f          	j	5b6c <.L1073>

00005ad0 <.L1059>:
    5ad0:	00d00d13          	li	s10,13
    5ad4:	014d4a63          	blt	s10,s4,5ae8 <.L1060>
    5ad8:	003c8c93          	addi	s9,s9,3
    5adc:	010c9c93          	slli	s9,s9,0x10
    5ae0:	410cdc93          	srai	s9,s9,0x10
    5ae4:	f95ff06f          	j	5a78 <.L1057>

00005ae8 <.L1060>:
    5ae8:	ffdc8c93          	addi	s9,s9,-3
    5aec:	010c9c93          	slli	s9,s9,0x10
    5af0:	410cdc93          	srai	s9,s9,0x10
    5af4:	f85ff06f          	j	5a78 <.L1057>

00005af8 <.L1062>:
    5af8:	00578793          	addi	a5,a5,5
    5afc:	01079793          	slli	a5,a5,0x10
    5b00:	4107d793          	srai	a5,a5,0x10

00005b04 <.L1064>:
    5b04:	10b00d13          	li	s10,267
    5b08:	fabd40e3          	blt	s10,a1,5aa8 <.L1070>

00005b0c <.L1071>:
    5b0c:	02800d13          	li	s10,40
    5b10:	0b1d4e63          	blt	s10,a7,5bcc <.L1074>
    5b14:	00570713          	addi	a4,a4,5
    5b18:	01071713          	slli	a4,a4,0x10
    5b1c:	41075713          	srai	a4,a4,0x10
    5b20:	04c0006f          	j	5b6c <.L1073>

00005b24 <.L1061>:
    5b24:	06f00d13          	li	s10,111
    5b28:	06bd4663          	blt	s10,a1,5b94 <.L1065>
    5b2c:	01b00d13          	li	s10,27
    5b30:	00cd4a63          	blt	s10,a2,5b44 <.L1066>
    5b34:	fff78793          	addi	a5,a5,-1
    5b38:	01079793          	slli	a5,a5,0x10
    5b3c:	4107d793          	srai	a5,a5,0x10
    5b40:	0180006f          	j	5b58 <.L1067>

00005b44 <.L1066>:
    5b44:	00478793          	addi	a5,a5,4
    5b48:	01079793          	slli	a5,a5,0x10
    5b4c:	4107d793          	srai	a5,a5,0x10

00005b50 <.L1068>:
    5b50:	06a00d13          	li	s10,106
    5b54:	facd4ce3          	blt	s10,a2,5b0c <.L1071>

00005b58 <.L1067>:
    5b58:	02a00d13          	li	s10,42
    5b5c:	06bd4063          	blt	s10,a1,5bbc <.L1072>
    5b60:	ffe70713          	addi	a4,a4,-2
    5b64:	01071713          	slli	a4,a4,0x10
    5b68:	41075713          	srai	a4,a4,0x10

00005b6c <.L1073>:
    5b6c:	02700d13          	li	s10,39
    5b70:	0f2d4463          	blt	s10,s2,5c58 <.L1078>
    5b74:	03d00d13          	li	s10,61
    5b78:	0add4663          	blt	s10,a3,5c24 <.L1079>
    5b7c:	02000d13          	li	s10,32
    5b80:	09cd4a63          	blt	s10,t3,5c14 <.L1080>
    5b84:	ff7c0c13          	addi	s8,s8,-9
    5b88:	010c1c13          	slli	s8,s8,0x10
    5b8c:	410c5c13          	srai	s8,s8,0x10
    5b90:	0a00006f          	j	5c30 <.L1081>

00005b94 <.L1065>:
    5b94:	4b400d13          	li	s10,1204
    5b98:	00cd4a63          	blt	s10,a2,5bac <.L1069>
    5b9c:	ffd78793          	addi	a5,a5,-3
    5ba0:	01079793          	slli	a5,a5,0x10
    5ba4:	4107d793          	srai	a5,a5,0x10
    5ba8:	ef9ff06f          	j	5aa0 <.L1063>

00005bac <.L1069>:
    5bac:	00378793          	addi	a5,a5,3
    5bb0:	01079793          	slli	a5,a5,0x10
    5bb4:	4107d793          	srai	a5,a5,0x10
    5bb8:	f4dff06f          	j	5b04 <.L1064>

00005bbc <.L1072>:
    5bbc:	00470713          	addi	a4,a4,4
    5bc0:	01071713          	slli	a4,a4,0x10
    5bc4:	41075713          	srai	a4,a4,0x10
    5bc8:	fa5ff06f          	j	5b6c <.L1073>

00005bcc <.L1074>:
    5bcc:	ff770713          	addi	a4,a4,-9
    5bd0:	01071713          	slli	a4,a4,0x10
    5bd4:	41075713          	srai	a4,a4,0x10
    5bd8:	f95ff06f          	j	5b6c <.L1073>

00005bdc <.L1076>:
    5bdc:	00670713          	addi	a4,a4,6
    5be0:	01071713          	slli	a4,a4,0x10
    5be4:	41075713          	srai	a4,a4,0x10
    5be8:	f85ff06f          	j	5b6c <.L1073>

00005bec <.L1075>:
    5bec:	18c00d13          	li	s10,396
    5bf0:	00cd4a63          	blt	s10,a2,5c04 <.L1077>
    5bf4:	00170713          	addi	a4,a4,1
    5bf8:	01071713          	slli	a4,a4,0x10
    5bfc:	41075713          	srai	a4,a4,0x10
    5c00:	f6dff06f          	j	5b6c <.L1073>

00005c04 <.L1077>:
    5c04:	ff670713          	addi	a4,a4,-10
    5c08:	01071713          	slli	a4,a4,0x10
    5c0c:	41075713          	srai	a4,a4,0x10
    5c10:	f5dff06f          	j	5b6c <.L1073>

00005c14 <.L1080>:
    5c14:	fffc0c13          	addi	s8,s8,-1
    5c18:	010c1c13          	slli	s8,s8,0x10
    5c1c:	410c5c13          	srai	s8,s8,0x10
    5c20:	0100006f          	j	5c30 <.L1081>

00005c24 <.L1079>:
    5c24:	003c0c13          	addi	s8,s8,3
    5c28:	010c1c13          	slli	s8,s8,0x10
    5c2c:	410c5c13          	srai	s8,s8,0x10

00005c30 <.L1081>:
    5c30:	01f00d13          	li	s10,31
    5c34:	1d4d4a63          	blt	s10,s4,5e08 <.L1084>
    5c38:	03d00d13          	li	s10,61
    5c3c:	07ed4263          	blt	s10,t5,5ca0 <.L1085>
    5c40:	f7800d13          	li	s10,-136
    5c44:	1da44c63          	blt	s0,s10,5e1c <.L1086>
    5c48:	004c8c93          	addi	s9,s9,4
    5c4c:	010c9c93          	slli	s9,s9,0x10
    5c50:	410cdc93          	srai	s9,s9,0x10
    5c54:	1c80006f          	j	5e1c <.L1086>

00005c58 <.L1078>:
    5c58:	05800d13          	li	s10,88
    5c5c:	036d4663          	blt	s10,s6,5c88 <.L1082>
    5c60:	f9500d13          	li	s10,-107
    5c64:	01a3da63          	bge	t2,s10,5c78 <.L1083>
    5c68:	010c0c13          	addi	s8,s8,16
    5c6c:	010c1c13          	slli	s8,s8,0x10
    5c70:	410c5c13          	srai	s8,s8,0x10
    5c74:	fbdff06f          	j	5c30 <.L1081>

00005c78 <.L1083>:
    5c78:	fffc0c13          	addi	s8,s8,-1
    5c7c:	010c1c13          	slli	s8,s8,0x10
    5c80:	410c5c13          	srai	s8,s8,0x10
    5c84:	fadff06f          	j	5c30 <.L1081>

00005c88 <.L1082>:
    5c88:	03600d13          	li	s10,54
    5c8c:	fadd42e3          	blt	s10,a3,5c30 <.L1081>
    5c90:	ff8c0c13          	addi	s8,s8,-8
    5c94:	010c1c13          	slli	s8,s8,0x10
    5c98:	410c5c13          	srai	s8,s8,0x10
    5c9c:	f95ff06f          	j	5c30 <.L1081>

00005ca0 <.L1085>:
    5ca0:	e0d00d13          	li	s10,-499
    5ca4:	13a4dc63          	bge	s1,s10,5ddc <.L1087>
    5ca8:	ffbc8c93          	addi	s9,s9,-5
    5cac:	010c9c93          	slli	s9,s9,0x10
    5cb0:	410cdc93          	srai	s9,s9,0x10
    5cb4:	e2c00d13          	li	s10,-468
    5cb8:	17aac663          	blt	s5,s10,5e24 <.L1088>

00005cbc <.L1089>:
    5cbc:	fff00d13          	li	s10,-1
    5cc0:	21a34063          	blt	t1,s10,5ec0 <.L1636>
    5cc4:	00478793          	addi	a5,a5,4
    5cc8:	01079793          	slli	a5,a5,0x10
    5ccc:	4107d793          	srai	a5,a5,0x10

00005cd0 <.L1097>:
    5cd0:	03c00d13          	li	s10,60
    5cd4:	22dd4a63          	blt	s10,a3,5f08 <.L1099>

00005cd8 <.L1523>:
    5cd8:	00f00d13          	li	s10,15
    5cdc:	21cd4263          	blt	s10,t3,5ee0 <.L1100>
    5ce0:	f6300d13          	li	s10,-157
    5ce4:	1fa85663          	bge	a6,s10,5ed0 <.L1101>
    5ce8:	ffc70713          	addi	a4,a4,-4
    5cec:	01071713          	slli	a4,a4,0x10
    5cf0:	41075713          	srai	a4,a4,0x10

00005cf4 <.L1102>:
    5cf4:	00300d13          	li	s10,3
    5cf8:	2d3d4463          	blt	s10,s3,5fc0 <.L1107>
    5cfc:	0c100d13          	li	s10,193
    5d00:	2b7d4263          	blt	s10,s7,5fa4 <.L1108>

00005d04 <.L1577>:
    5d04:	02f00d13          	li	s10,47
    5d08:	29ed4663          	blt	s10,t5,5f94 <.L1109>
    5d0c:	004c0c13          	addi	s8,s8,4
    5d10:	010c1c13          	slli	s8,s8,0x10
    5d14:	410c5c13          	srai	s8,s8,0x10
    5d18:	00400d13          	li	s10,4
    5d1c:	2dfd5a63          	bge	s10,t6,5ff0 <.L1110>

00005d20 <.L1111>:
    5d20:	00e00d13          	li	s10,14
    5d24:	325d4263          	blt	s10,t0,6048 <.L1120>
    5d28:	f9c00d13          	li	s10,-100
    5d2c:	31a3d663          	bge	t2,s10,6038 <.L1121>
    5d30:	ffac8c93          	addi	s9,s9,-6
    5d34:	010c9c93          	slli	s9,s9,0x10
    5d38:	010cdc93          	srli	s9,s9,0x10

00005d3c <.L1122>:
    5d3c:	010c9c93          	slli	s9,s9,0x10
    5d40:	410cdc93          	srai	s9,s9,0x10
    5d44:	01d00d13          	li	s10,29
    5d48:	43fd5863          	bge	s10,t6,6178 <.L1521>

00005d4c <.L1124>:
    5d4c:	3b500d13          	li	s10,949
    5d50:	46cd4263          	blt	s10,a2,61b4 <.L1130>
    5d54:	ff778793          	addi	a5,a5,-9
    5d58:	01079793          	slli	a5,a5,0x10
    5d5c:	0107d793          	srli	a5,a5,0x10

00005d60 <.L1131>:
    5d60:	01079793          	slli	a5,a5,0x10
    5d64:	4107d793          	srai	a5,a5,0x10
    5d68:	00100d13          	li	s10,1
    5d6c:	433d5463          	bge	s10,s3,6194 <.L1135>

00005d70 <.L1129>:
    5d70:	02000d13          	li	s10,32
    5d74:	2a5d4663          	blt	s10,t0,6020 <.L1139>

00005d78 <.L1127>:
    5d78:	ff000d13          	li	s10,-16
    5d7c:	43a35663          	bge	t1,s10,61a8 <.L1138>
    5d80:	00770713          	addi	a4,a4,7
    5d84:	01071713          	slli	a4,a4,0x10
    5d88:	41075713          	srai	a4,a4,0x10

00005d8c <.L1140>:
    5d8c:	0da00d13          	li	s10,218
    5d90:	497d4263          	blt	s10,s7,6214 <.L1144>
    5d94:	ff9c0c13          	addi	s8,s8,-7
    5d98:	010c1c13          	slli	s8,s8,0x10
    5d9c:	410c5c13          	srai	s8,s8,0x10

00005da0 <.L1145>:
    5da0:	e4300d13          	li	s10,-445
    5da4:	33a3d263          	bge	t2,s10,60c8 <.L1149>
    5da8:	0d400d13          	li	s10,212
    5dac:	4b2d5863          	bge	s10,s2,625c <.L1637>
    5db0:	ff8c8c93          	addi	s9,s9,-8
    5db4:	010c9c93          	slli	s9,s9,0x10
    5db8:	410cdc93          	srai	s9,s9,0x10

00005dbc <.L1155>:
    5dbc:	03b00d13          	li	s10,59
    5dc0:	32dd5663          	bge	s10,a3,60ec <.L1153>

00005dc4 <.L1575>:
    5dc4:	f0100d13          	li	s10,-255
    5dc8:	55a4dc63          	bge	s1,s10,6320 <.L1166>
    5dcc:	00378793          	addi	a5,a5,3
    5dd0:	01079793          	slli	a5,a5,0x10
    5dd4:	4107d793          	srai	a5,a5,0x10
    5dd8:	3380006f          	j	6110 <.L1163>

00005ddc <.L1087>:
    5ddc:	009c8c93          	addi	s9,s9,9
    5de0:	010c9c93          	slli	s9,s9,0x10
    5de4:	410cdc93          	srai	s9,s9,0x10
    5de8:	e2c00d13          	li	s10,-468
    5dec:	edaad8e3          	bge	s5,s10,5cbc <.L1089>

00005df0 <.L1090>:
    5df0:	16900d13          	li	s10,361
    5df4:	09dd4663          	blt	s10,t4,5e80 <.L1095>
    5df8:	fff78793          	addi	a5,a5,-1
    5dfc:	01079793          	slli	a5,a5,0x10
    5e00:	4107d793          	srai	a5,a5,0x10
    5e04:	03c0006f          	j	5e40 <.L1094>

00005e08 <.L1084>:
    5e08:	e1800d13          	li	s10,-488
    5e0c:	05a45a63          	bge	s0,s10,5e60 <.L1091>
    5e10:	ffec8c93          	addi	s9,s9,-2
    5e14:	010c9c93          	slli	s9,s9,0x10
    5e18:	410cdc93          	srai	s9,s9,0x10

00005e1c <.L1086>:
    5e1c:	e2c00d13          	li	s10,-468
    5e20:	07aad863          	bge	s5,s10,5e90 <.L1092>

00005e24 <.L1088>:
    5e24:	e0200d13          	li	s10,-510
    5e28:	fda4d4e3          	bge	s1,s10,5df0 <.L1090>
    5e2c:	fef00d13          	li	s10,-17
    5e30:	05a35063          	bge	t1,s10,5e70 <.L1093>
    5e34:	ffa78793          	addi	a5,a5,-6
    5e38:	01079793          	slli	a5,a5,0x10
    5e3c:	4107d793          	srai	a5,a5,0x10

00005e40 <.L1094>:
    5e40:	03c00d13          	li	s10,60
    5e44:	e8dd5ae3          	bge	s10,a3,5cd8 <.L1523>

00005e48 <.L1524>:
    5e48:	ec100d13          	li	s10,-319
    5e4c:	13a3dc63          	bge	t2,s10,5f84 <.L1105>
    5e50:	ffe70713          	addi	a4,a4,-2
    5e54:	01071713          	slli	a4,a4,0x10
    5e58:	41075713          	srai	a4,a4,0x10
    5e5c:	e99ff06f          	j	5cf4 <.L1102>

00005e60 <.L1091>:
    5e60:	ff8c8c93          	addi	s9,s9,-8
    5e64:	010c9c93          	slli	s9,s9,0x10
    5e68:	410cdc93          	srai	s9,s9,0x10
    5e6c:	fb1ff06f          	j	5e1c <.L1086>

00005e70 <.L1093>:
    5e70:	00278793          	addi	a5,a5,2
    5e74:	01079793          	slli	a5,a5,0x10
    5e78:	4107d793          	srai	a5,a5,0x10
    5e7c:	fc5ff06f          	j	5e40 <.L1094>

00005e80 <.L1095>:
    5e80:	00a78793          	addi	a5,a5,10
    5e84:	01079793          	slli	a5,a5,0x10
    5e88:	4107d793          	srai	a5,a5,0x10
    5e8c:	fb5ff06f          	j	5e40 <.L1094>

00005e90 <.L1092>:
    5e90:	03c00d13          	li	s10,60
    5e94:	e3ed44e3          	blt	s10,t5,5cbc <.L1089>
    5e98:	00900d13          	li	s10,9
    5e9c:	013d4a63          	blt	s10,s3,5eb0 <.L1096>
    5ea0:	00178793          	addi	a5,a5,1
    5ea4:	01079793          	slli	a5,a5,0x10
    5ea8:	4107d793          	srai	a5,a5,0x10
    5eac:	e25ff06f          	j	5cd0 <.L1097>

00005eb0 <.L1096>:
    5eb0:	ffb78793          	addi	a5,a5,-5
    5eb4:	01079793          	slli	a5,a5,0x10
    5eb8:	4107d793          	srai	a5,a5,0x10
    5ebc:	e15ff06f          	j	5cd0 <.L1097>

00005ec0 <.L1636>:
    5ec0:	ff778793          	addi	a5,a5,-9
    5ec4:	01079793          	slli	a5,a5,0x10
    5ec8:	4107d793          	srai	a5,a5,0x10
    5ecc:	e05ff06f          	j	5cd0 <.L1097>

00005ed0 <.L1101>:
    5ed0:	00470713          	addi	a4,a4,4
    5ed4:	01071713          	slli	a4,a4,0x10
    5ed8:	41075713          	srai	a4,a4,0x10
    5edc:	e19ff06f          	j	5cf4 <.L1102>

00005ee0 <.L1100>:
    5ee0:	ffb00d13          	li	s10,-5
    5ee4:	01a35a63          	bge	t1,s10,5ef8 <.L1103>
    5ee8:	00570713          	addi	a4,a4,5
    5eec:	01071713          	slli	a4,a4,0x10
    5ef0:	41075713          	srai	a4,a4,0x10
    5ef4:	e01ff06f          	j	5cf4 <.L1102>

00005ef8 <.L1103>:
    5ef8:	ff970713          	addi	a4,a4,-7
    5efc:	01071713          	slli	a4,a4,0x10
    5f00:	41075713          	srai	a4,a4,0x10
    5f04:	df1ff06f          	j	5cf4 <.L1102>

00005f08 <.L1099>:
    5f08:	e6500d13          	li	s10,-411
    5f0c:	f3aacee3          	blt	s5,s10,5e48 <.L1524>
    5f10:	00e00d13          	li	s10,14
    5f14:	005d5863          	bge	s10,t0,5f24 <.L1106>
    5f18:	ff870713          	addi	a4,a4,-8
    5f1c:	01071713          	slli	a4,a4,0x10
    5f20:	41075713          	srai	a4,a4,0x10

00005f24 <.L1106>:
    5f24:	00300d13          	li	s10,3
    5f28:	013d4463          	blt	s10,s3,5f30 <.L1114>
    5f2c:	2140206f          	j	8140 <.L1522>

00005f30 <.L1114>:
    5f30:	0a0a4863          	bltz	s4,5fe0 <.L1638>
    5f34:	003c0c13          	addi	s8,s8,3
    5f38:	010c1c13          	slli	s8,s8,0x10
    5f3c:	410c5c13          	srai	s8,s8,0x10

00005f40 <.L1112>:
    5f40:	00400d13          	li	s10,4
    5f44:	ddfd4ee3          	blt	s10,t6,5d20 <.L1111>
    5f48:	03800d13          	li	s10,56
    5f4c:	0bed5263          	bge	s10,t5,5ff0 <.L1110>
    5f50:	003c8c93          	addi	s9,s9,3
    5f54:	010c9c93          	slli	s9,s9,0x10
    5f58:	410cdc93          	srai	s9,s9,0x10
    5f5c:	02e00d13          	li	s10,46
    5f60:	105d5663          	bge	s10,t0,606c <.L1117>

00005f64 <.L1119>:
    5f64:	03900d13          	li	s10,57
    5f68:	09ed5e63          	bge	s10,t5,6004 <.L1118>
    5f6c:	03d00d13          	li	s10,61
    5f70:	0add4463          	blt	s10,a3,6018 <.L1134>
    5f74:	00978793          	addi	a5,a5,9
    5f78:	01079793          	slli	a5,a5,0x10
    5f7c:	4107d793          	srai	a5,a5,0x10
    5f80:	0980006f          	j	6018 <.L1134>

00005f84 <.L1105>:
    5f84:	00670713          	addi	a4,a4,6
    5f88:	01071713          	slli	a4,a4,0x10
    5f8c:	41075713          	srai	a4,a4,0x10
    5f90:	d65ff06f          	j	5cf4 <.L1102>

00005f94 <.L1109>:
    5f94:	ff9c0c13          	addi	s8,s8,-7
    5f98:	010c1c13          	slli	s8,s8,0x10
    5f9c:	410c5c13          	srai	s8,s8,0x10
    5fa0:	fa1ff06f          	j	5f40 <.L1112>

00005fa4 <.L1108>:
    5fa4:	03c00d13          	li	s10,60
    5fa8:	00dd5463          	bge	s10,a3,5fb0 <.L1108+0xc>
    5fac:	1a00206f          	j	814c <.L1113>
    5fb0:	ffdc0c13          	addi	s8,s8,-3
    5fb4:	010c1c13          	slli	s8,s8,0x10
    5fb8:	410c5c13          	srai	s8,s8,0x10
    5fbc:	f85ff06f          	j	5f40 <.L1112>

00005fc0 <.L1107>:
    5fc0:	e4a00d13          	li	s10,-438
    5fc4:	f7aad6e3          	bge	s5,s10,5f30 <.L1114>
    5fc8:	de700d13          	li	s10,-537
    5fcc:	f7a84ae3          	blt	a6,s10,5f40 <.L1112>
    5fd0:	ff8c0c13          	addi	s8,s8,-8
    5fd4:	010c1c13          	slli	s8,s8,0x10
    5fd8:	410c5c13          	srai	s8,s8,0x10
    5fdc:	f65ff06f          	j	5f40 <.L1112>

00005fe0 <.L1638>:
    5fe0:	ffcc0c13          	addi	s8,s8,-4
    5fe4:	010c1c13          	slli	s8,s8,0x10
    5fe8:	410c5c13          	srai	s8,s8,0x10
    5fec:	f55ff06f          	j	5f40 <.L1112>

00005ff0 <.L1110>:
    5ff0:	00ac8c93          	addi	s9,s9,10
    5ff4:	010c9c93          	slli	s9,s9,0x10
    5ff8:	410cdc93          	srai	s9,s9,0x10
    5ffc:	02e00d13          	li	s10,46
    6000:	065d5663          	bge	s10,t0,606c <.L1117>

00006004 <.L1118>:
    6004:	00e00d13          	li	s10,14
    6008:	1bcd4e63          	blt	s10,t3,61c4 <.L1133>
    600c:	00478793          	addi	a5,a5,4
    6010:	01079793          	slli	a5,a5,0x10
    6014:	4107d793          	srai	a5,a5,0x10

00006018 <.L1134>:
    6018:	00100d13          	li	s10,1
    601c:	073d5663          	bge	s10,s3,6088 <.L1128>

00006020 <.L1139>:
    6020:	04900d13          	li	s10,73
    6024:	1dfd4063          	blt	s10,t6,61e4 <.L1141>
    6028:	ffb70713          	addi	a4,a4,-5
    602c:	01071713          	slli	a4,a4,0x10
    6030:	41075713          	srai	a4,a4,0x10
    6034:	0680006f          	j	609c <.L1136>

00006038 <.L1121>:
    6038:	005c8c93          	addi	s9,s9,5
    603c:	010c9c93          	slli	s9,s9,0x10
    6040:	010cdc93          	srli	s9,s9,0x10
    6044:	cf9ff06f          	j	5d3c <.L1122>

00006048 <.L1120>:
    6048:	ffc00d13          	li	s10,-4
    604c:	01a34863          	blt	t1,s10,605c <.L1123>
    6050:	006c8c93          	addi	s9,s9,6
    6054:	010c9c93          	slli	s9,s9,0x10
    6058:	410cdc93          	srai	s9,s9,0x10

0000605c <.L1123>:
    605c:	02e00d13          	li	s10,46
    6060:	f05d42e3          	blt	s10,t0,5f64 <.L1119>
    6064:	01d00d13          	li	s10,29
    6068:	cffd42e3          	blt	s10,t6,5d4c <.L1124>

0000606c <.L1117>:
    606c:	01200d13          	li	s10,18
    6070:	105d5463          	bge	s10,t0,6178 <.L1521>
    6074:	00278793          	addi	a5,a5,2
    6078:	01079793          	slli	a5,a5,0x10
    607c:	4107d793          	srai	a5,a5,0x10
    6080:	00100d13          	li	s10,1
    6084:	cf3d46e3          	blt	s10,s3,5d70 <.L1129>

00006088 <.L1128>:
    6088:	01100d13          	li	s10,17
    608c:	15fd4463          	blt	s10,t6,61d4 <.L1137>

00006090 <.L1576>:
    6090:	ff870713          	addi	a4,a4,-8
    6094:	01071713          	slli	a4,a4,0x10
    6098:	41075713          	srai	a4,a4,0x10

0000609c <.L1136>:
    609c:	ff600d13          	li	s10,-10
    60a0:	15a34a63          	blt	t1,s10,61f4 <.L1639>

000060a4 <.L1142>:
    60a4:	ff600d13          	li	s10,-10
    60a8:	19a31663          	bne	t1,s10,6234 <.L1146>
    60ac:	07400d13          	li	s10,116
    60b0:	172d4a63          	blt	s10,s2,6224 <.L1147>
    60b4:	ffdc0c13          	addi	s8,s8,-3
    60b8:	010c1c13          	slli	s8,s8,0x10
    60bc:	410c5c13          	srai	s8,s8,0x10
    60c0:	e4300d13          	li	s10,-445
    60c4:	1ba3c863          	blt	t2,s10,6274 <.L1148>

000060c8 <.L1149>:
    60c8:	03b00d13          	li	s10,59
    60cc:	1cdd4863          	blt	s10,a3,629c <.L1156>
    60d0:	d6700d13          	li	s10,-665
    60d4:	1ba4dc63          	bge	s1,s10,628c <.L1157>
    60d8:	00fc8c93          	addi	s9,s9,15
    60dc:	010c9c93          	slli	s9,s9,0x10
    60e0:	010cdc93          	srli	s9,s9,0x10

000060e4 <.L1158>:
    60e4:	010c9c93          	slli	s9,s9,0x10
    60e8:	410cdc93          	srai	s9,s9,0x10

000060ec <.L1153>:
    60ec:	03500d13          	li	s10,53
    60f0:	20cd4463          	blt	s10,a2,62f8 <.L1161>
    60f4:	01c51d03          	lh	s10,28(a0)
    60f8:	000d0d93          	mv	s11,s10
    60fc:	03500d13          	li	s10,53
    6100:	1fbd4463          	blt	s10,s11,62e8 <.L1162>
    6104:	00178793          	addi	a5,a5,1
    6108:	01079793          	slli	a5,a5,0x10
    610c:	4107d793          	srai	a5,a5,0x10

00006110 <.L1163>:
    6110:	02200d13          	li	s10,34
    6114:	25fd4a63          	blt	s10,t6,6368 <.L1168>
    6118:	01700d13          	li	s10,23
    611c:	225d4263          	blt	s10,t0,6340 <.L1169>
    6120:	1dc00d13          	li	s10,476
    6124:	01dd5863          	bge	s10,t4,6134 <.L1170>
    6128:	00870713          	addi	a4,a4,8
    612c:	01071713          	slli	a4,a4,0x10
    6130:	41075713          	srai	a4,a4,0x10

00006134 <.L1170>:
    6134:	02600d13          	li	s10,38
    6138:	30bd4a63          	blt	s10,a1,644c <.L1173>
    613c:	00f00d13          	li	s10,15
    6140:	28bd4663          	blt	s10,a1,63cc <.L1174>
    6144:	08c00d13          	li	s10,140
    6148:	252d4c63          	blt	s10,s2,63a0 <.L1175>
    614c:	003c0c13          	addi	s8,s8,3
    6150:	010c1c13          	slli	s8,s8,0x10
    6154:	410c5c13          	srai	s8,s8,0x10
    6158:	01500d13          	li	s10,21
    615c:	292d5663          	bge	s10,s2,63e8 <.L1176>

00006160 <.L1177>:
    6160:	ff700d13          	li	s10,-9
    6164:	29a34663          	blt	t1,s10,63f0 <.L1185>
    6168:	ffcc8c93          	addi	s9,s9,-4
    616c:	010c9c93          	slli	s9,s9,0x10
    6170:	410cdc93          	srai	s9,s9,0x10
    6174:	27c0006f          	j	63f0 <.L1185>

00006178 <.L1521>:
    6178:	ffe78793          	addi	a5,a5,-2
    617c:	01079793          	slli	a5,a5,0x10
    6180:	4107d793          	srai	a5,a5,0x10
    6184:	00100d13          	li	s10,1
    6188:	bf3d48e3          	blt	s10,s3,5d78 <.L1127>
    618c:	01100d13          	li	s10,17
    6190:	f1fd50e3          	bge	s10,t6,6090 <.L1576>

00006194 <.L1135>:
    6194:	01000d13          	li	s10,16
    6198:	025d4e63          	blt	s10,t0,61d4 <.L1137>
    619c:	00470713          	addi	a4,a4,4
    61a0:	01071713          	slli	a4,a4,0x10
    61a4:	41075713          	srai	a4,a4,0x10

000061a8 <.L1138>:
    61a8:	ff600d13          	li	s10,-10
    61ac:	efa35ce3          	bge	t1,s10,60a4 <.L1142>
    61b0:	bddff06f          	j	5d8c <.L1140>

000061b4 <.L1130>:
    61b4:	fff78793          	addi	a5,a5,-1
    61b8:	01079793          	slli	a5,a5,0x10
    61bc:	0107d793          	srli	a5,a5,0x10
    61c0:	ba1ff06f          	j	5d60 <.L1131>

000061c4 <.L1133>:
    61c4:	ff678793          	addi	a5,a5,-10
    61c8:	01079793          	slli	a5,a5,0x10
    61cc:	4107d793          	srai	a5,a5,0x10
    61d0:	e49ff06f          	j	6018 <.L1134>

000061d4 <.L1137>:
    61d4:	ffa70713          	addi	a4,a4,-6
    61d8:	01071713          	slli	a4,a4,0x10
    61dc:	41075713          	srai	a4,a4,0x10
    61e0:	ebdff06f          	j	609c <.L1136>

000061e4 <.L1141>:
    61e4:	00570713          	addi	a4,a4,5
    61e8:	01071713          	slli	a4,a4,0x10
    61ec:	41075713          	srai	a4,a4,0x10
    61f0:	eadff06f          	j	609c <.L1136>

000061f4 <.L1639>:
    61f4:	03200d13          	li	s10,50
    61f8:	b85d5ae3          	bge	s10,t0,5d8c <.L1140>
    61fc:	03300d13          	li	s10,51
    6200:	ba5d40e3          	blt	s10,t0,5da0 <.L1145>
    6204:	00bc0c13          	addi	s8,s8,11
    6208:	010c1c13          	slli	s8,s8,0x10
    620c:	410c5c13          	srai	s8,s8,0x10
    6210:	b91ff06f          	j	5da0 <.L1145>

00006214 <.L1144>:
    6214:	003c0c13          	addi	s8,s8,3
    6218:	010c1c13          	slli	s8,s8,0x10
    621c:	410c5c13          	srai	s8,s8,0x10
    6220:	b81ff06f          	j	5da0 <.L1145>

00006224 <.L1147>:
    6224:	00fc0c13          	addi	s8,s8,15
    6228:	010c1c13          	slli	s8,s8,0x10
    622c:	410c5c13          	srai	s8,s8,0x10
    6230:	b71ff06f          	j	5da0 <.L1145>

00006234 <.L1146>:
    6234:	f2700d13          	li	s10,-217
    6238:	01aada63          	bge	s5,s10,624c <.L1150>
    623c:	ffdc0c13          	addi	s8,s8,-3
    6240:	010c1c13          	slli	s8,s8,0x10
    6244:	410c5c13          	srai	s8,s8,0x10
    6248:	b59ff06f          	j	5da0 <.L1145>

0000624c <.L1150>:
    624c:	004c0c13          	addi	s8,s8,4
    6250:	010c1c13          	slli	s8,s8,0x10
    6254:	410c5c13          	srai	s8,s8,0x10
    6258:	b49ff06f          	j	5da0 <.L1145>

0000625c <.L1637>:
    625c:	0d100d13          	li	s10,209
    6260:	012d5a63          	bge	s10,s2,6274 <.L1148>
    6264:	008c8c93          	addi	s9,s9,8
    6268:	010c9c93          	slli	s9,s9,0x10
    626c:	410cdc93          	srai	s9,s9,0x10
    6270:	b4dff06f          	j	5dbc <.L1155>

00006274 <.L1148>:
    6274:	ffbc8c93          	addi	s9,s9,-5
    6278:	010c9c93          	slli	s9,s9,0x10
    627c:	410cdc93          	srai	s9,s9,0x10
    6280:	03b00d13          	li	s10,59
    6284:	e6dd54e3          	bge	s10,a3,60ec <.L1153>
    6288:	0300006f          	j	62b8 <.L1154>

0000628c <.L1157>:
    628c:	fffc8c93          	addi	s9,s9,-1
    6290:	010c9c93          	slli	s9,s9,0x10
    6294:	010cdc93          	srli	s9,s9,0x10
    6298:	e4dff06f          	j	60e4 <.L1158>

0000629c <.L1156>:
    629c:	25b00d13          	li	s10,603
    62a0:	02cd4c63          	blt	s10,a2,62d8 <.L1159>
    62a4:	001c8c93          	addi	s9,s9,1
    62a8:	010c9c93          	slli	s9,s9,0x10
    62ac:	010cdc93          	srli	s9,s9,0x10

000062b0 <.L1160>:
    62b0:	010c9c93          	slli	s9,s9,0x10
    62b4:	410cdc93          	srai	s9,s9,0x10

000062b8 <.L1154>:
    62b8:	ec100d13          	li	s10,-319
    62bc:	b1a3c4e3          	blt	t2,s10,5dc4 <.L1575>
    62c0:	07500d13          	li	s10,117
    62c4:	06bd4663          	blt	s10,a1,6330 <.L1167>
    62c8:	fff78793          	addi	a5,a5,-1
    62cc:	01079793          	slli	a5,a5,0x10
    62d0:	4107d793          	srai	a5,a5,0x10
    62d4:	e3dff06f          	j	6110 <.L1163>

000062d8 <.L1159>:
    62d8:	00cc8c93          	addi	s9,s9,12
    62dc:	010c9c93          	slli	s9,s9,0x10
    62e0:	010cdc93          	srli	s9,s9,0x10
    62e4:	fcdff06f          	j	62b0 <.L1160>

000062e8 <.L1162>:
    62e8:	ffa78793          	addi	a5,a5,-6
    62ec:	01079793          	slli	a5,a5,0x10
    62f0:	4107d793          	srai	a5,a5,0x10
    62f4:	e1dff06f          	j	6110 <.L1163>

000062f8 <.L1161>:
    62f8:	1a200d13          	li	s10,418
    62fc:	012d4a63          	blt	s10,s2,6310 <.L1164>
    6300:	00578793          	addi	a5,a5,5
    6304:	01079793          	slli	a5,a5,0x10
    6308:	4107d793          	srai	a5,a5,0x10
    630c:	e05ff06f          	j	6110 <.L1163>

00006310 <.L1164>:
    6310:	ffc78793          	addi	a5,a5,-4
    6314:	01079793          	slli	a5,a5,0x10
    6318:	4107d793          	srai	a5,a5,0x10
    631c:	df5ff06f          	j	6110 <.L1163>

00006320 <.L1166>:
    6320:	ff778793          	addi	a5,a5,-9
    6324:	01079793          	slli	a5,a5,0x10
    6328:	4107d793          	srai	a5,a5,0x10
    632c:	de5ff06f          	j	6110 <.L1163>

00006330 <.L1167>:
    6330:	ff578793          	addi	a5,a5,-11
    6334:	01079793          	slli	a5,a5,0x10
    6338:	4107d793          	srai	a5,a5,0x10
    633c:	dd5ff06f          	j	6110 <.L1163>

00006340 <.L1169>:
    6340:	f6e00d13          	li	s10,-146
    6344:	01a85a63          	bge	a6,s10,6358 <.L1171>
    6348:	ff870713          	addi	a4,a4,-8
    634c:	01071713          	slli	a4,a4,0x10
    6350:	41075713          	srai	a4,a4,0x10
    6354:	de1ff06f          	j	6134 <.L1170>

00006358 <.L1171>:
    6358:	00570713          	addi	a4,a4,5
    635c:	01071713          	slli	a4,a4,0x10
    6360:	41075713          	srai	a4,a4,0x10
    6364:	dd1ff06f          	j	6134 <.L1170>

00006368 <.L1168>:
    6368:	e6b00d13          	li	s10,-405
    636c:	01aade63          	bge	s5,s10,6388 <.L1172>
    6370:	03300d13          	li	s10,51
    6374:	dc5d40e3          	blt	s10,t0,6134 <.L1170>
    6378:	00970713          	addi	a4,a4,9
    637c:	01071713          	slli	a4,a4,0x10
    6380:	41075713          	srai	a4,a4,0x10
    6384:	db1ff06f          	j	6134 <.L1170>

00006388 <.L1172>:
    6388:	e9800d13          	li	s10,-360
    638c:	dba854e3          	bge	a6,s10,6134 <.L1170>
    6390:	ff870713          	addi	a4,a4,-8
    6394:	01071713          	slli	a4,a4,0x10
    6398:	41075713          	srai	a4,a4,0x10
    639c:	d99ff06f          	j	6134 <.L1170>

000063a0 <.L1175>:
    63a0:	ffac0c13          	addi	s8,s8,-6
    63a4:	010c1c13          	slli	s8,s8,0x10
    63a8:	410c5c13          	srai	s8,s8,0x10

000063ac <.L1178>:
    63ac:	0fd00d13          	li	s10,253
    63b0:	db2d58e3          	bge	s10,s2,6160 <.L1177>
    63b4:	0d000d13          	li	s10,208
    63b8:	036d4c63          	blt	s10,s6,63f0 <.L1185>
    63bc:	006c8c93          	addi	s9,s9,6
    63c0:	010c9c93          	slli	s9,s9,0x10
    63c4:	410cdc93          	srai	s9,s9,0x10
    63c8:	0280006f          	j	63f0 <.L1185>

000063cc <.L1174>:
    63cc:	f6900d13          	li	s10,-151
    63d0:	07a3d663          	bge	t2,s10,643c <.L1179>
    63d4:	009c0c13          	addi	s8,s8,9
    63d8:	010c1c13          	slli	s8,s8,0x10
    63dc:	410c5c13          	srai	s8,s8,0x10

000063e0 <.L1180>:
    63e0:	01500d13          	li	s10,21
    63e4:	fd2d44e3          	blt	s10,s2,63ac <.L1178>

000063e8 <.L1176>:
    63e8:	07000d13          	li	s10,112
    63ec:	097d5263          	bge	s10,s7,6470 <.L1183>

000063f0 <.L1185>:
    63f0:	0f000d13          	li	s10,240
    63f4:	0f1d4663          	blt	s10,a7,64e0 <.L1187>
    63f8:	00200d13          	li	s10,2
    63fc:	0d3d4663          	blt	s10,s3,64c8 <.L1188>
    6400:	03500d13          	li	s10,53
    6404:	0add4a63          	blt	s10,a3,64b8 <.L1189>
    6408:	00778793          	addi	a5,a5,7
    640c:	01079793          	slli	a5,a5,0x10
    6410:	4107d793          	srai	a5,a5,0x10

00006414 <.L1190>:
    6414:	f9800d13          	li	s10,-104
    6418:	15a3d663          	bge	t2,s10,6564 <.L1194>
    641c:	f6600d13          	li	s10,-154
    6420:	11a3de63          	bge	t2,s10,653c <.L1195>
    6424:	0c600d13          	li	s10,198
    6428:	176d4c63          	blt	s10,s6,65a0 <.L1196>
    642c:	ffb70713          	addi	a4,a4,-5
    6430:	01071713          	slli	a4,a4,0x10
    6434:	41075713          	srai	a4,a4,0x10
    6438:	1680006f          	j	65a0 <.L1196>

0000643c <.L1179>:
    643c:	ffdc0c13          	addi	s8,s8,-3
    6440:	010c1c13          	slli	s8,s8,0x10
    6444:	410c5c13          	srai	s8,s8,0x10
    6448:	f99ff06f          	j	63e0 <.L1180>

0000644c <.L1173>:
    644c:	01d00d13          	li	s10,29
    6450:	054d4063          	blt	s10,s4,6490 <.L1181>
    6454:	ff500d13          	li	s10,-11
    6458:	03abd463          	bge	s7,s10,6480 <.L1182>
    645c:	004c0c13          	addi	s8,s8,4
    6460:	010c1c13          	slli	s8,s8,0x10
    6464:	410c5c13          	srai	s8,s8,0x10
    6468:	01500d13          	li	s10,21
    646c:	f52d40e3          	blt	s10,s2,63ac <.L1178>

00006470 <.L1183>:
    6470:	008c8c93          	addi	s9,s9,8
    6474:	010c9c93          	slli	s9,s9,0x10
    6478:	410cdc93          	srai	s9,s9,0x10
    647c:	f75ff06f          	j	63f0 <.L1185>

00006480 <.L1182>:
    6480:	ffbc0c13          	addi	s8,s8,-5
    6484:	010c1c13          	slli	s8,s8,0x10
    6488:	410c5c13          	srai	s8,s8,0x10
    648c:	f55ff06f          	j	63e0 <.L1180>

00006490 <.L1181>:
    6490:	00400d13          	li	s10,4
    6494:	013d4a63          	blt	s10,s3,64a8 <.L1184>
    6498:	ffdc0c13          	addi	s8,s8,-3
    649c:	010c1c13          	slli	s8,s8,0x10
    64a0:	410c5c13          	srai	s8,s8,0x10
    64a4:	f3dff06f          	j	63e0 <.L1180>

000064a8 <.L1184>:
    64a8:	009c0c13          	addi	s8,s8,9
    64ac:	010c1c13          	slli	s8,s8,0x10
    64b0:	410c5c13          	srai	s8,s8,0x10
    64b4:	f2dff06f          	j	63e0 <.L1180>

000064b8 <.L1189>:
    64b8:	ffc78793          	addi	a5,a5,-4
    64bc:	01079793          	slli	a5,a5,0x10
    64c0:	4107d793          	srai	a5,a5,0x10
    64c4:	f51ff06f          	j	6414 <.L1190>

000064c8 <.L1188>:
    64c8:	12800d13          	li	s10,296
    64cc:	f56d44e3          	blt	s10,s6,6414 <.L1190>
    64d0:	ff978793          	addi	a5,a5,-7
    64d4:	01079793          	slli	a5,a5,0x10
    64d8:	4107d793          	srai	a5,a5,0x10
    64dc:	f39ff06f          	j	6414 <.L1190>

000064e0 <.L1187>:
    64e0:	00c00d13          	li	s10,12
    64e4:	033d4663          	blt	s10,s3,6510 <.L1191>
    64e8:	03300d13          	li	s10,51
    64ec:	01ed4a63          	blt	s10,t5,6500 <.L1192>
    64f0:	ffa78793          	addi	a5,a5,-6
    64f4:	01079793          	slli	a5,a5,0x10
    64f8:	4107d793          	srai	a5,a5,0x10
    64fc:	f19ff06f          	j	6414 <.L1190>

00006500 <.L1192>:
    6500:	00478793          	addi	a5,a5,4
    6504:	01079793          	slli	a5,a5,0x10
    6508:	4107d793          	srai	a5,a5,0x10
    650c:	f09ff06f          	j	6414 <.L1190>

00006510 <.L1191>:
    6510:	1fa00d13          	li	s10,506
    6514:	00c12d83          	lw	s11,12(sp)
    6518:	01bd4a63          	blt	s10,s11,652c <.L1193>
    651c:	ff678793          	addi	a5,a5,-10
    6520:	01079793          	slli	a5,a5,0x10
    6524:	4107d793          	srai	a5,a5,0x10
    6528:	eedff06f          	j	6414 <.L1190>

0000652c <.L1193>:
    652c:	00178793          	addi	a5,a5,1
    6530:	01079793          	slli	a5,a5,0x10
    6534:	4107d793          	srai	a5,a5,0x10
    6538:	eddff06f          	j	6414 <.L1190>

0000653c <.L1195>:
    653c:	01a00d13          	li	s10,26
    6540:	014d4a63          	blt	s10,s4,6554 <.L1197>
    6544:	ff870713          	addi	a4,a4,-8
    6548:	01071713          	slli	a4,a4,0x10
    654c:	41075713          	srai	a4,a4,0x10
    6550:	0500006f          	j	65a0 <.L1196>

00006554 <.L1197>:
    6554:	00270713          	addi	a4,a4,2
    6558:	01071713          	slli	a4,a4,0x10
    655c:	41075713          	srai	a4,a4,0x10
    6560:	0400006f          	j	65a0 <.L1196>

00006564 <.L1194>:
    6564:	faf00d13          	li	s10,-81
    6568:	03a3d663          	bge	t2,s10,6594 <.L1198>
    656c:	03200d13          	li	s10,50
    6570:	01ed4a63          	blt	s10,t5,6584 <.L1199>
    6574:	01170713          	addi	a4,a4,17
    6578:	01071713          	slli	a4,a4,0x10
    657c:	41075713          	srai	a4,a4,0x10
    6580:	0200006f          	j	65a0 <.L1196>

00006584 <.L1199>:
    6584:	00170713          	addi	a4,a4,1
    6588:	01071713          	slli	a4,a4,0x10
    658c:	41075713          	srai	a4,a4,0x10
    6590:	0100006f          	j	65a0 <.L1196>

00006594 <.L1198>:
    6594:	ffb70713          	addi	a4,a4,-5
    6598:	01071713          	slli	a4,a4,0x10
    659c:	41075713          	srai	a4,a4,0x10

000065a0 <.L1196>:
    65a0:	02700d13          	li	s10,39
    65a4:	0b2d4263          	blt	s10,s2,6648 <.L1200>
    65a8:	0e400d13          	li	s10,228
    65ac:	031d4663          	blt	s10,a7,65d8 <.L1201>
    65b0:	01b00d13          	li	s10,27
    65b4:	01cd4a63          	blt	s10,t3,65c8 <.L1202>
    65b8:	ff8c0c13          	addi	s8,s8,-8
    65bc:	010c1c13          	slli	s8,s8,0x10
    65c0:	410c5c13          	srai	s8,s8,0x10
    65c4:	0200006f          	j	65e4 <.L1203>

000065c8 <.L1202>:
    65c8:	ffec0c13          	addi	s8,s8,-2
    65cc:	010c1c13          	slli	s8,s8,0x10
    65d0:	410c5c13          	srai	s8,s8,0x10
    65d4:	0100006f          	j	65e4 <.L1203>

000065d8 <.L1201>:
    65d8:	002c0c13          	addi	s8,s8,2
    65dc:	010c1c13          	slli	s8,s8,0x10
    65e0:	410c5c13          	srai	s8,s8,0x10

000065e4 <.L1203>:
    65e4:	00400d13          	li	s10,4
    65e8:	0dfd4c63          	blt	s10,t6,66c0 <.L1206>
    65ec:	03a00d13          	li	s10,58
    65f0:	0bed4063          	blt	s10,t5,6690 <.L1207>
    65f4:	009c8c93          	addi	s9,s9,9
    65f8:	010c9c93          	slli	s9,s9,0x10
    65fc:	410cdc93          	srai	s9,s9,0x10
    6600:	02e00d13          	li	s10,46
    6604:	0e5d4063          	blt	s10,t0,66e4 <.L1209>

00006608 <.L1208>:
    6608:	01200d13          	li	s10,18
    660c:	205d4463          	blt	s10,t0,6814 <.L1217>
    6610:	ffe78793          	addi	a5,a5,-2
    6614:	01079793          	slli	a5,a5,0x10
    6618:	4107d793          	srai	a5,a5,0x10

0000661c <.L1218>:
    661c:	01500d13          	li	s10,21
    6620:	0fcd5063          	bge	s10,t3,6700 <.L1221>
    6624:	03b00d13          	li	s10,59
    6628:	00dd5463          	bge	s10,a3,6630 <.L1218+0x14>
    662c:	29d0106f          	j	80c8 <.L1227>
    6630:	ffb00d13          	li	s10,-5
    6634:	23a35463          	bge	t1,s10,685c <.L1228>
    6638:	00870713          	addi	a4,a4,8
    663c:	01071713          	slli	a4,a4,0x10
    6640:	41075713          	srai	a4,a4,0x10
    6644:	0d80006f          	j	671c <.L1225>

00006648 <.L1200>:
    6648:	03000d13          	li	s10,48
    664c:	032d4663          	blt	s10,s2,6678 <.L1204>
    6650:	0b800d13          	li	s10,184
    6654:	016d4a63          	blt	s10,s6,6668 <.L1205>
    6658:	00dc0c13          	addi	s8,s8,13
    665c:	010c1c13          	slli	s8,s8,0x10
    6660:	410c5c13          	srai	s8,s8,0x10
    6664:	f81ff06f          	j	65e4 <.L1203>

00006668 <.L1205>:
    6668:	fffc0c13          	addi	s8,s8,-1
    666c:	010c1c13          	slli	s8,s8,0x10
    6670:	410c5c13          	srai	s8,s8,0x10
    6674:	f71ff06f          	j	65e4 <.L1203>

00006678 <.L1204>:
    6678:	00200d13          	li	s10,2
    667c:	f7cd44e3          	blt	s10,t3,65e4 <.L1203>
    6680:	ffbc0c13          	addi	s8,s8,-5
    6684:	010c1c13          	slli	s8,s8,0x10
    6688:	410c5c13          	srai	s8,s8,0x10
    668c:	f59ff06f          	j	65e4 <.L1203>

00006690 <.L1207>:
    6690:	001c8c93          	addi	s9,s9,1
    6694:	010c9c93          	slli	s9,s9,0x10
    6698:	410cdc93          	srai	s9,s9,0x10
    669c:	02e00d13          	li	s10,46
    66a0:	f65d54e3          	bge	s10,t0,6608 <.L1208>

000066a4 <.L1210>:
    66a4:	03d00d13          	li	s10,61
    66a8:	00dd5463          	bge	s10,a3,66b0 <.L1210+0xc>
    66ac:	2110106f          	j	80bc <.L1222>
    66b0:	00978793          	addi	a5,a5,9
    66b4:	01079793          	slli	a5,a5,0x10
    66b8:	4107d793          	srai	a5,a5,0x10
    66bc:	f61ff06f          	j	661c <.L1218>

000066c0 <.L1206>:
    66c0:	ff800d13          	li	s10,-8
    66c4:	11a35463          	bge	t1,s10,67cc <.L1211>
    66c8:	01f00d13          	li	s10,31
    66cc:	0dfd4e63          	blt	s10,t6,67a8 <.L1212>
    66d0:	003c8c93          	addi	s9,s9,3
    66d4:	010c9c93          	slli	s9,s9,0x10
    66d8:	410cdc93          	srai	s9,s9,0x10

000066dc <.L1213>:
    66dc:	02e00d13          	li	s10,46
    66e0:	105d5a63          	bge	s10,t0,67f4 <.L1640>

000066e4 <.L1209>:
    66e4:	03900d13          	li	s10,57
    66e8:	fbed4ee3          	blt	s10,t5,66a4 <.L1210>
    66ec:	00d00d13          	li	s10,13
    66f0:	13cd4a63          	blt	s10,t3,6824 <.L1220>
    66f4:	00378793          	addi	a5,a5,3
    66f8:	01079793          	slli	a5,a5,0x10
    66fc:	4107d793          	srai	a5,a5,0x10

00006700 <.L1221>:
    6700:	19800d13          	li	s10,408
    6704:	136d4863          	blt	s10,s6,6834 <.L1224>
    6708:	18700d13          	li	s10,391
    670c:	016d5863          	bge	s10,s6,671c <.L1225>
    6710:	00770713          	addi	a4,a4,7
    6714:	01071713          	slli	a4,a4,0x10
    6718:	41075713          	srai	a4,a4,0x10

0000671c <.L1225>:
    671c:	00300d13          	li	s10,3
    6720:	1d3d4463          	blt	s10,s3,68e8 <.L1230>
    6724:	01300d13          	li	s10,19
    6728:	165d4263          	blt	s10,t0,688c <.L1231>
    672c:	02e00d13          	li	s10,46
    6730:	157d4663          	blt	s10,s7,687c <.L1232>
    6734:	ff9c0c13          	addi	s8,s8,-7
    6738:	010c1c13          	slli	s8,s8,0x10
    673c:	010c5c13          	srli	s8,s8,0x10

00006740 <.L1233>:
    6740:	010c1c13          	slli	s8,s8,0x10
    6744:	410c5c13          	srai	s8,s8,0x10
    6748:	0a900d13          	li	s10,169
    674c:	15dd5a63          	bge	s10,t4,68a0 <.L1519>

00006750 <.L1520>:
    6750:	fffc8c93          	addi	s9,s9,-1
    6754:	010c9c93          	slli	s9,s9,0x10
    6758:	410cdc93          	srai	s9,s9,0x10

0000675c <.L1242>:
    675c:	03300d13          	li	s10,51
    6760:	27ed4e63          	blt	s10,t5,69dc <.L1245>

00006764 <.L1517>:
    6764:	1c600d13          	li	s10,454
    6768:	24cd4663          	blt	s10,a2,69b4 <.L1246>
    676c:	03200d13          	li	s10,50
    6770:	23ed4a63          	blt	s10,t5,69a4 <.L1247>
    6774:	ff878793          	addi	a5,a5,-8
    6778:	01079793          	slli	a5,a5,0x10
    677c:	4107d793          	srai	a5,a5,0x10

00006780 <.L1248>:
    6780:	00100d13          	li	s10,1
    6784:	273d5c63          	bge	s10,s3,69fc <.L1641>
    6788:	02700d13          	li	s10,39
    678c:	2f1d4463          	blt	s10,a7,6a74 <.L1256>
    6790:	ff800d13          	li	s10,-8
    6794:	2da35863          	bge	t1,s10,6a64 <.L1257>
    6798:	ffc70713          	addi	a4,a4,-4
    679c:	01071713          	slli	a4,a4,0x10
    67a0:	41075713          	srai	a4,a4,0x10
    67a4:	2840006f          	j	6a28 <.L1255>

000067a8 <.L1212>:
    67a8:	ffec8c93          	addi	s9,s9,-2
    67ac:	010c9c93          	slli	s9,s9,0x10
    67b0:	410cdc93          	srai	s9,s9,0x10
    67b4:	02e00d13          	li	s10,46
    67b8:	f25d46e3          	blt	s10,t0,66e4 <.L1209>

000067bc <.L1214>:
    67bc:	ff978793          	addi	a5,a5,-7
    67c0:	01079793          	slli	a5,a5,0x10
    67c4:	4107d793          	srai	a5,a5,0x10
    67c8:	e55ff06f          	j	661c <.L1218>

000067cc <.L1211>:
    67cc:	f5c00d13          	li	s10,-164
    67d0:	01a3da63          	bge	t2,s10,67e4 <.L1215>
    67d4:	ffcc8c93          	addi	s9,s9,-4
    67d8:	010c9c93          	slli	s9,s9,0x10
    67dc:	410cdc93          	srai	s9,s9,0x10
    67e0:	efdff06f          	j	66dc <.L1213>

000067e4 <.L1215>:
    67e4:	001c8c93          	addi	s9,s9,1
    67e8:	010c9c93          	slli	s9,s9,0x10
    67ec:	410cdc93          	srai	s9,s9,0x10
    67f0:	eedff06f          	j	66dc <.L1213>

000067f4 <.L1640>:
    67f4:	01700d13          	li	s10,23
    67f8:	e1fd58e3          	bge	s10,t6,6608 <.L1208>
    67fc:	ffa00d13          	li	s10,-6
    6800:	fba34ee3          	blt	t1,s10,67bc <.L1214>
    6804:	00578793          	addi	a5,a5,5
    6808:	01079793          	slli	a5,a5,0x10
    680c:	4107d793          	srai	a5,a5,0x10
    6810:	e0dff06f          	j	661c <.L1218>

00006814 <.L1217>:
    6814:	00378793          	addi	a5,a5,3
    6818:	01079793          	slli	a5,a5,0x10
    681c:	4107d793          	srai	a5,a5,0x10
    6820:	dfdff06f          	j	661c <.L1218>

00006824 <.L1220>:
    6824:	ff878793          	addi	a5,a5,-8
    6828:	01079793          	slli	a5,a5,0x10
    682c:	4107d793          	srai	a5,a5,0x10
    6830:	dedff06f          	j	661c <.L1218>

00006834 <.L1224>:
    6834:	27600d13          	li	s10,630
    6838:	016d4a63          	blt	s10,s6,684c <.L1226>
    683c:	ff970713          	addi	a4,a4,-7
    6840:	01071713          	slli	a4,a4,0x10
    6844:	41075713          	srai	a4,a4,0x10
    6848:	ed5ff06f          	j	671c <.L1225>

0000684c <.L1226>:
    684c:	00270713          	addi	a4,a4,2
    6850:	01071713          	slli	a4,a4,0x10
    6854:	41075713          	srai	a4,a4,0x10
    6858:	ec5ff06f          	j	671c <.L1225>

0000685c <.L1228>:
    685c:	ffa70713          	addi	a4,a4,-6
    6860:	01071713          	slli	a4,a4,0x10
    6864:	41075713          	srai	a4,a4,0x10
    6868:	eb5ff06f          	j	671c <.L1225>

0000686c <.L1229>:
    686c:	00370713          	addi	a4,a4,3
    6870:	01071713          	slli	a4,a4,0x10
    6874:	41075713          	srai	a4,a4,0x10
    6878:	ea5ff06f          	j	671c <.L1225>

0000687c <.L1232>:
    687c:	002c0c13          	addi	s8,s8,2
    6880:	010c1c13          	slli	s8,s8,0x10
    6884:	010c5c13          	srli	s8,s8,0x10
    6888:	eb9ff06f          	j	6740 <.L1233>

0000688c <.L1231>:
    688c:	ff8c0c13          	addi	s8,s8,-8
    6890:	010c1c13          	slli	s8,s8,0x10
    6894:	410c5c13          	srai	s8,s8,0x10

00006898 <.L1234>:
    6898:	0a900d13          	li	s10,169
    689c:	0ddd4863          	blt	s10,t4,696c <.L1237>

000068a0 <.L1519>:
    68a0:	01c00d13          	li	s10,28
    68a4:	08dd4e63          	blt	s10,a3,6940 <.L1238>
    68a8:	06700d13          	li	s10,103
    68ac:	00c12d83          	lw	s11,12(sp)
    68b0:	09bd4063          	blt	s10,s11,6930 <.L1239>
    68b4:	005c8c93          	addi	s9,s9,5
    68b8:	010c9c93          	slli	s9,s9,0x10
    68bc:	010cdc93          	srli	s9,s9,0x10

000068c0 <.L1240>:
    68c0:	010c9c93          	slli	s9,s9,0x10
    68c4:	410cdc93          	srai	s9,s9,0x10
    68c8:	03300d13          	li	s10,51
    68cc:	e9ed5ce3          	bge	s10,t5,6764 <.L1517>

000068d0 <.L1518>:
    68d0:	08000d13          	li	s10,128
    68d4:	eacd56e3          	bge	s10,a2,6780 <.L1248>
    68d8:	00578793          	addi	a5,a5,5
    68dc:	01079793          	slli	a5,a5,0x10
    68e0:	4107d793          	srai	a5,a5,0x10
    68e4:	e9dff06f          	j	6780 <.L1248>

000068e8 <.L1230>:
    68e8:	e4a00d13          	li	s10,-438
    68ec:	01aade63          	bge	s5,s10,6908 <.L1235>
    68f0:	de700d13          	li	s10,-537
    68f4:	fba842e3          	blt	a6,s10,6898 <.L1234>
    68f8:	ff8c0c13          	addi	s8,s8,-8
    68fc:	010c1c13          	slli	s8,s8,0x10
    6900:	410c5c13          	srai	s8,s8,0x10
    6904:	f95ff06f          	j	6898 <.L1234>

00006908 <.L1235>:
    6908:	16c00d13          	li	s10,364
    690c:	00bd4a63          	blt	s10,a1,6920 <.L1236>
    6910:	003c0c13          	addi	s8,s8,3
    6914:	010c1c13          	slli	s8,s8,0x10
    6918:	410c5c13          	srai	s8,s8,0x10
    691c:	f7dff06f          	j	6898 <.L1234>

00006920 <.L1236>:
    6920:	ffdc0c13          	addi	s8,s8,-3
    6924:	010c1c13          	slli	s8,s8,0x10
    6928:	410c5c13          	srai	s8,s8,0x10
    692c:	f6dff06f          	j	6898 <.L1234>

00006930 <.L1239>:
    6930:	ff3c8c93          	addi	s9,s9,-13
    6934:	010c9c93          	slli	s9,s9,0x10
    6938:	010cdc93          	srli	s9,s9,0x10
    693c:	f85ff06f          	j	68c0 <.L1240>

00006940 <.L1238>:
    6940:	04c00d13          	li	s10,76
    6944:	00c12d83          	lw	s11,12(sp)
    6948:	01bd4a63          	blt	s10,s11,695c <.L1241>
    694c:	ffec8c93          	addi	s9,s9,-2
    6950:	010c9c93          	slli	s9,s9,0x10
    6954:	410cdc93          	srai	s9,s9,0x10
    6958:	e05ff06f          	j	675c <.L1242>

0000695c <.L1241>:
    695c:	007c8c93          	addi	s9,s9,7
    6960:	010c9c93          	slli	s9,s9,0x10
    6964:	410cdc93          	srai	s9,s9,0x10
    6968:	df5ff06f          	j	675c <.L1242>

0000696c <.L1237>:
    696c:	01700d13          	li	s10,23
    6970:	de5d50e3          	bge	s10,t0,6750 <.L1520>
    6974:	01c51d03          	lh	s10,28(a0)
    6978:	000d0d93          	mv	s11,s10
    697c:	02500d13          	li	s10,37
    6980:	01bd4a63          	blt	s10,s11,6994 <.L1244>
    6984:	fffc8c93          	addi	s9,s9,-1
    6988:	010c9c93          	slli	s9,s9,0x10
    698c:	410cdc93          	srai	s9,s9,0x10
    6990:	dcdff06f          	j	675c <.L1242>

00006994 <.L1244>:
    6994:	004c8c93          	addi	s9,s9,4
    6998:	010c9c93          	slli	s9,s9,0x10
    699c:	410cdc93          	srai	s9,s9,0x10
    69a0:	dbdff06f          	j	675c <.L1242>

000069a4 <.L1247>:
    69a4:	fff78793          	addi	a5,a5,-1
    69a8:	01079793          	slli	a5,a5,0x10
    69ac:	4107d793          	srai	a5,a5,0x10
    69b0:	dd1ff06f          	j	6780 <.L1248>

000069b4 <.L1246>:
    69b4:	ddc00d13          	li	s10,-548
    69b8:	01a45a63          	bge	s0,s10,69cc <.L1249>
    69bc:	ffb78793          	addi	a5,a5,-5
    69c0:	01079793          	slli	a5,a5,0x10
    69c4:	4107d793          	srai	a5,a5,0x10
    69c8:	db9ff06f          	j	6780 <.L1248>

000069cc <.L1249>:
    69cc:	00478793          	addi	a5,a5,4
    69d0:	01079793          	slli	a5,a5,0x10
    69d4:	4107d793          	srai	a5,a5,0x10
    69d8:	da9ff06f          	j	6780 <.L1248>

000069dc <.L1245>:
    69dc:	03b00d13          	li	s10,59
    69e0:	eedd58e3          	bge	s10,a3,68d0 <.L1518>
    69e4:	17900d13          	li	s10,377
    69e8:	d96d4ce3          	blt	s10,s6,6780 <.L1248>
    69ec:	ff978793          	addi	a5,a5,-7
    69f0:	01079793          	slli	a5,a5,0x10
    69f4:	4107d793          	srai	a5,a5,0x10
    69f8:	d89ff06f          	j	6780 <.L1248>

000069fc <.L1641>:
    69fc:	01100d13          	li	s10,17
    6a00:	01fd4e63          	blt	s10,t6,6a1c <.L1252>
    6a04:	ff870713          	addi	a4,a4,-8
    6a08:	01071713          	slli	a4,a4,0x10
    6a0c:	41075713          	srai	a4,a4,0x10
    6a10:	c0000d13          	li	s10,-1024
    6a14:	01a84e63          	blt	a6,s10,6a30 <.L1253>
    6a18:	0a80006f          	j	6ac0 <.L1254>

00006a1c <.L1252>:
    6a1c:	fff70713          	addi	a4,a4,-1
    6a20:	01071713          	slli	a4,a4,0x10
    6a24:	41075713          	srai	a4,a4,0x10

00006a28 <.L1255>:
    6a28:	c0000d13          	li	s10,-1024
    6a2c:	07a85063          	bge	a6,s10,6a8c <.L1258>

00006a30 <.L1253>:
    6a30:	007c0c13          	addi	s8,s8,7
    6a34:	010c1c13          	slli	s8,s8,0x10
    6a38:	410c5c13          	srai	s8,s8,0x10

00006a3c <.L1259>:
    6a3c:	01f00d13          	li	s10,31
    6a40:	094d4463          	blt	s10,s4,6ac8 <.L1262>
    6a44:	04600d13          	li	s10,70
    6a48:	0dfd5463          	bge	s10,t6,6b10 <.L1642>
    6a4c:	03b00d13          	li	s10,59
    6a50:	091d5263          	bge	s10,a7,6ad4 <.L1264>
    6a54:	ff9c8c93          	addi	s9,s9,-7
    6a58:	010c9c93          	slli	s9,s9,0x10
    6a5c:	410cdc93          	srai	s9,s9,0x10
    6a60:	0740006f          	j	6ad4 <.L1264>

00006a64 <.L1257>:
    6a64:	00970713          	addi	a4,a4,9
    6a68:	01071713          	slli	a4,a4,0x10
    6a6c:	41075713          	srai	a4,a4,0x10
    6a70:	fb9ff06f          	j	6a28 <.L1255>

00006a74 <.L1256>:
    6a74:	eea00d13          	li	s10,-278
    6a78:	fba448e3          	blt	s0,s10,6a28 <.L1255>
    6a7c:	ff870713          	addi	a4,a4,-8
    6a80:	01071713          	slli	a4,a4,0x10
    6a84:	41075713          	srai	a4,a4,0x10
    6a88:	fa1ff06f          	j	6a28 <.L1255>

00006a8c <.L1258>:
    6a8c:	02c00d13          	li	s10,44
    6a90:	01fd5e63          	bge	s10,t6,6aac <.L1643>
    6a94:	e0800d13          	li	s10,-504
    6a98:	07a3d463          	bge	t2,s10,6b00 <.L1261>
    6a9c:	002c0c13          	addi	s8,s8,2
    6aa0:	010c1c13          	slli	s8,s8,0x10
    6aa4:	410c5c13          	srai	s8,s8,0x10
    6aa8:	f95ff06f          	j	6a3c <.L1259>

00006aac <.L1643>:
    6aac:	02b00d13          	li	s10,43
    6ab0:	01fd5863          	bge	s10,t6,6ac0 <.L1254>
    6ab4:	009c0c13          	addi	s8,s8,9
    6ab8:	010c1c13          	slli	s8,s8,0x10
    6abc:	410c5c13          	srai	s8,s8,0x10

00006ac0 <.L1254>:
    6ac0:	01f00d13          	li	s10,31
    6ac4:	014d5863          	bge	s10,s4,6ad4 <.L1264>

00006ac8 <.L1262>:
    6ac8:	ff9c8c93          	addi	s9,s9,-7
    6acc:	010c9c93          	slli	s9,s9,0x10
    6ad0:	410cdc93          	srai	s9,s9,0x10

00006ad4 <.L1264>:
    6ad4:	f8b00d13          	li	s10,-117
    6ad8:	07a85c63          	bge	a6,s10,6b50 <.L1265>
    6adc:	ff900d13          	li	s10,-7
    6ae0:	05a35c63          	bge	t1,s10,6b38 <.L1266>
    6ae4:	1d800d13          	li	s10,472
    6ae8:	00c12d83          	lw	s11,12(sp)
    6aec:	03bd4e63          	blt	s10,s11,6b28 <.L1267>
    6af0:	ffd78793          	addi	a5,a5,-3
    6af4:	01079793          	slli	a5,a5,0x10
    6af8:	4107d793          	srai	a5,a5,0x10
    6afc:	0680006f          	j	6b64 <.L1268>

00006b00 <.L1261>:
    6b00:	ff6c0c13          	addi	s8,s8,-10
    6b04:	010c1c13          	slli	s8,s8,0x10
    6b08:	410c5c13          	srai	s8,s8,0x10
    6b0c:	f31ff06f          	j	6a3c <.L1259>

00006b10 <.L1642>:
    6b10:	03300d13          	li	s10,51
    6b14:	fdfd50e3          	bge	s10,t6,6ad4 <.L1264>
    6b18:	006c8c93          	addi	s9,s9,6
    6b1c:	010c9c93          	slli	s9,s9,0x10
    6b20:	410cdc93          	srai	s9,s9,0x10
    6b24:	fb1ff06f          	j	6ad4 <.L1264>

00006b28 <.L1267>:
    6b28:	00178793          	addi	a5,a5,1
    6b2c:	01079793          	slli	a5,a5,0x10
    6b30:	4107d793          	srai	a5,a5,0x10
    6b34:	0300006f          	j	6b64 <.L1268>

00006b38 <.L1266>:
    6b38:	ea700d13          	li	s10,-345
    6b3c:	03aad463          	bge	s5,s10,6b64 <.L1268>
    6b40:	00778793          	addi	a5,a5,7
    6b44:	01079793          	slli	a5,a5,0x10
    6b48:	4107d793          	srai	a5,a5,0x10
    6b4c:	0180006f          	j	6b64 <.L1268>

00006b50 <.L1265>:
    6b50:	00100d13          	li	s10,1
    6b54:	093d5463          	bge	s10,s3,6bdc <.L1644>
    6b58:	ff978793          	addi	a5,a5,-7
    6b5c:	01079793          	slli	a5,a5,0x10
    6b60:	4107d793          	srai	a5,a5,0x10

00006b64 <.L1268>:
    6b64:	fdb00d13          	li	s10,-37
    6b68:	09a65a63          	bge	a2,s10,6bfc <.L1270>
    6b6c:	01200d13          	li	s10,18
    6b70:	07cd4e63          	blt	s10,t3,6bec <.L1271>
    6b74:	ff870713          	addi	a4,a4,-8
    6b78:	01071713          	slli	a4,a4,0x10
    6b7c:	41075713          	srai	a4,a4,0x10

00006b80 <.L1272>:
    6b80:	05800d13          	li	s10,88
    6b84:	0f6d4463          	blt	s10,s6,6c6c <.L1275>
    6b88:	f5300d13          	li	s10,-173
    6b8c:	0ba3dc63          	bge	t2,s10,6c44 <.L1276>
    6b90:	010c0c13          	addi	s8,s8,16
    6b94:	010c1c13          	slli	s8,s8,0x10
    6b98:	410c5c13          	srai	s8,s8,0x10

00006b9c <.L1277>:
    6b9c:	07300d13          	li	s10,115
    6ba0:	197d4463          	blt	s10,s7,6d28 <.L1281>
    6ba4:	00c00d13          	li	s10,12
    6ba8:	11fd4263          	blt	s10,t6,6cac <.L1282>
    6bac:	114d4a63          	blt	s10,s4,6cc0 <.L1283>
    6bb0:	009c8c93          	addi	s9,s9,9
    6bb4:	010c9c93          	slli	s9,s9,0x10
    6bb8:	410cdc93          	srai	s9,s9,0x10
    6bbc:	02b00d13          	li	s10,43
    6bc0:	11cd4463          	blt	s10,t3,6cc8 <.L1285>

00006bc4 <.L1284>:
    6bc4:	d7400d13          	li	s10,-652
    6bc8:	1da4d863          	bge	s1,s10,6d98 <.L1290>
    6bcc:	ff978793          	addi	a5,a5,-7
    6bd0:	01079793          	slli	a5,a5,0x10
    6bd4:	4107d793          	srai	a5,a5,0x10
    6bd8:	1c00006f          	j	6d98 <.L1290>

00006bdc <.L1644>:
    6bdc:	ffe78793          	addi	a5,a5,-2
    6be0:	01079793          	slli	a5,a5,0x10
    6be4:	4107d793          	srai	a5,a5,0x10
    6be8:	f7dff06f          	j	6b64 <.L1268>

00006bec <.L1271>:
    6bec:	fff70713          	addi	a4,a4,-1
    6bf0:	01071713          	slli	a4,a4,0x10
    6bf4:	41075713          	srai	a4,a4,0x10
    6bf8:	f89ff06f          	j	6b80 <.L1272>

00006bfc <.L1270>:
    6bfc:	02700d13          	li	s10,39
    6c00:	00cd4e63          	blt	s10,a2,6c1c <.L1273>
    6c04:	03c00d13          	li	s10,60
    6c08:	f6bd5ce3          	bge	s10,a1,6b80 <.L1272>
    6c0c:	00770713          	addi	a4,a4,7
    6c10:	01071713          	slli	a4,a4,0x10
    6c14:	41075713          	srai	a4,a4,0x10
    6c18:	f69ff06f          	j	6b80 <.L1272>

00006c1c <.L1273>:
    6c1c:	0fe00d13          	li	s10,254
    6c20:	00bd4a63          	blt	s10,a1,6c34 <.L1274>
    6c24:	ffc70713          	addi	a4,a4,-4
    6c28:	01071713          	slli	a4,a4,0x10
    6c2c:	41075713          	srai	a4,a4,0x10
    6c30:	f51ff06f          	j	6b80 <.L1272>

00006c34 <.L1274>:
    6c34:	00170713          	addi	a4,a4,1
    6c38:	01071713          	slli	a4,a4,0x10
    6c3c:	41075713          	srai	a4,a4,0x10
    6c40:	f41ff06f          	j	6b80 <.L1272>

00006c44 <.L1276>:
    6c44:	ff900d13          	li	s10,-7
    6c48:	01a65a63          	bge	a2,s10,6c5c <.L1278>
    6c4c:	003c0c13          	addi	s8,s8,3
    6c50:	010c1c13          	slli	s8,s8,0x10
    6c54:	410c5c13          	srai	s8,s8,0x10
    6c58:	f45ff06f          	j	6b9c <.L1277>

00006c5c <.L1278>:
    6c5c:	ffbc0c13          	addi	s8,s8,-5
    6c60:	010c1c13          	slli	s8,s8,0x10
    6c64:	410c5c13          	srai	s8,s8,0x10
    6c68:	f35ff06f          	j	6b9c <.L1277>

00006c6c <.L1275>:
    6c6c:	03600d13          	li	s10,54
    6c70:	00dd4a63          	blt	s10,a3,6c84 <.L1279>
    6c74:	ff8c0c13          	addi	s8,s8,-8
    6c78:	010c1c13          	slli	s8,s8,0x10
    6c7c:	410c5c13          	srai	s8,s8,0x10
    6c80:	f1dff06f          	j	6b9c <.L1277>

00006c84 <.L1279>:
    6c84:	1a500d13          	li	s10,421
    6c88:	012d4a63          	blt	s10,s2,6c9c <.L1280>
    6c8c:	001c0c13          	addi	s8,s8,1
    6c90:	010c1c13          	slli	s8,s8,0x10
    6c94:	410c5c13          	srai	s8,s8,0x10
    6c98:	f05ff06f          	j	6b9c <.L1277>

00006c9c <.L1280>:
    6c9c:	ffbc0c13          	addi	s8,s8,-5
    6ca0:	010c1c13          	slli	s8,s8,0x10
    6ca4:	410c5c13          	srai	s8,s8,0x10
    6ca8:	ef5ff06f          	j	6b9c <.L1277>

00006cac <.L1282>:
    6cac:	03c00d13          	li	s10,60
    6cb0:	01ed5863          	bge	s10,t5,6cc0 <.L1283>
    6cb4:	006c8c93          	addi	s9,s9,6
    6cb8:	010c9c93          	slli	s9,s9,0x10
    6cbc:	410cdc93          	srai	s9,s9,0x10

00006cc0 <.L1283>:
    6cc0:	02b00d13          	li	s10,43
    6cc4:	09cd5063          	bge	s10,t3,6d44 <.L1574>

00006cc8 <.L1285>:
    6cc8:	01400d13          	li	s10,20
    6ccc:	0c5d4063          	blt	s10,t0,6d8c <.L1291>
    6cd0:	ff978793          	addi	a5,a5,-7
    6cd4:	01079793          	slli	a5,a5,0x10
    6cd8:	4107d793          	srai	a5,a5,0x10
    6cdc:	00100d13          	li	s10,1
    6ce0:	0f3d5063          	bge	s10,s3,6dc0 <.L1292>

00006ce4 <.L1293>:
    6ce4:	0ff00d13          	li	s10,255
    6ce8:	136d4263          	blt	s10,s6,6e0c <.L1298>
    6cec:	ffe70713          	addi	a4,a4,-2
    6cf0:	01071713          	slli	a4,a4,0x10
    6cf4:	01075713          	srli	a4,a4,0x10

00006cf8 <.L1299>:
    6cf8:	01071713          	slli	a4,a4,0x10
    6cfc:	41075713          	srai	a4,a4,0x10
    6d00:	ff600d13          	li	s10,-10
    6d04:	13a34463          	blt	t1,s10,6e2c <.L1516>

00006d08 <.L1301>:
    6d08:	ff600d13          	li	s10,-10
    6d0c:	17a31e63          	bne	t1,s10,6e88 <.L1305>
    6d10:	11b00d13          	li	s10,283
    6d14:	17dd4263          	blt	s10,t4,6e78 <.L1306>
    6d18:	00cc0c13          	addi	s8,s8,12
    6d1c:	010c1c13          	slli	s8,s8,0x10
    6d20:	410c5c13          	srai	s8,s8,0x10
    6d24:	11c0006f          	j	6e40 <.L1303>

00006d28 <.L1281>:
    6d28:	00600d13          	li	s10,6
    6d2c:	03cd4c63          	blt	s10,t3,6d64 <.L1286>
    6d30:	ffe00d13          	li	s10,-2
    6d34:	01ae4863          	blt	t3,s10,6d44 <.L1574>
    6d38:	ff7c8c93          	addi	s9,s9,-9
    6d3c:	010c9c93          	slli	s9,s9,0x10
    6d40:	410cdc93          	srai	s9,s9,0x10

00006d44 <.L1574>:
    6d44:	01e00d13          	li	s10,30
    6d48:	e74d5ee3          	bge	s10,s4,6bc4 <.L1284>
    6d4c:	efa00d13          	li	s10,-262
    6d50:	05a3d463          	bge	t2,s10,6d98 <.L1290>
    6d54:	00978793          	addi	a5,a5,9
    6d58:	01079793          	slli	a5,a5,0x10
    6d5c:	4107d793          	srai	a5,a5,0x10
    6d60:	0380006f          	j	6d98 <.L1290>

00006d64 <.L1286>:
    6d64:	00a00d13          	li	s10,10
    6d68:	01cd4a63          	blt	s10,t3,6d7c <.L1288>
    6d6c:	007c8c93          	addi	s9,s9,7
    6d70:	010c9c93          	slli	s9,s9,0x10
    6d74:	410cdc93          	srai	s9,s9,0x10
    6d78:	fcdff06f          	j	6d44 <.L1574>

00006d7c <.L1288>:
    6d7c:	fffc8c93          	addi	s9,s9,-1
    6d80:	010c9c93          	slli	s9,s9,0x10
    6d84:	410cdc93          	srai	s9,s9,0x10
    6d88:	f39ff06f          	j	6cc0 <.L1283>

00006d8c <.L1291>:
    6d8c:	fff78793          	addi	a5,a5,-1
    6d90:	01079793          	slli	a5,a5,0x10
    6d94:	4107d793          	srai	a5,a5,0x10

00006d98 <.L1290>:
    6d98:	00100d13          	li	s10,1
    6d9c:	033d5263          	bge	s10,s3,6dc0 <.L1292>
    6da0:	01f00d13          	li	s10,31
    6da4:	f45d50e3          	bge	s10,t0,6ce4 <.L1293>
    6da8:	11500d13          	li	s10,277
    6dac:	06bd4863          	blt	s10,a1,6e1c <.L1300>
    6db0:	ff870713          	addi	a4,a4,-8
    6db4:	01071713          	slli	a4,a4,0x10
    6db8:	41075713          	srai	a4,a4,0x10
    6dbc:	0180006f          	j	6dd4 <.L1296>

00006dc0 <.L1292>:
    6dc0:	02100d13          	li	s10,33
    6dc4:	02cd4c63          	blt	s10,a2,6dfc <.L1295>
    6dc8:	fff70713          	addi	a4,a4,-1
    6dcc:	01071713          	slli	a4,a4,0x10
    6dd0:	41075713          	srai	a4,a4,0x10

00006dd4 <.L1296>:
    6dd4:	ff600d13          	li	s10,-10
    6dd8:	f3a358e3          	bge	t1,s10,6d08 <.L1301>
    6ddc:	02800d13          	li	s10,40
    6de0:	045d5663          	bge	s10,t0,6e2c <.L1516>
    6de4:	03900d13          	li	s10,57
    6de8:	09ed4063          	blt	s10,t5,6e68 <.L1304>
    6dec:	004c0c13          	addi	s8,s8,4
    6df0:	010c1c13          	slli	s8,s8,0x10
    6df4:	410c5c13          	srai	s8,s8,0x10
    6df8:	0480006f          	j	6e40 <.L1303>

00006dfc <.L1295>:
    6dfc:	ff870713          	addi	a4,a4,-8
    6e00:	01071713          	slli	a4,a4,0x10
    6e04:	41075713          	srai	a4,a4,0x10
    6e08:	fcdff06f          	j	6dd4 <.L1296>

00006e0c <.L1298>:
    6e0c:	00370713          	addi	a4,a4,3
    6e10:	01071713          	slli	a4,a4,0x10
    6e14:	01075713          	srli	a4,a4,0x10
    6e18:	ee1ff06f          	j	6cf8 <.L1299>

00006e1c <.L1300>:
    6e1c:	00170713          	addi	a4,a4,1
    6e20:	01071713          	slli	a4,a4,0x10
    6e24:	41075713          	srai	a4,a4,0x10
    6e28:	fadff06f          	j	6dd4 <.L1296>

00006e2c <.L1516>:
    6e2c:	03c00d13          	li	s10,60
    6e30:	01ed4863          	blt	s10,t5,6e40 <.L1303>
    6e34:	ff8c0c13          	addi	s8,s8,-8
    6e38:	010c1c13          	slli	s8,s8,0x10
    6e3c:	410c5c13          	srai	s8,s8,0x10

00006e40 <.L1303>:
    6e40:	39000d13          	li	s10,912
    6e44:	091d4a63          	blt	s10,a7,6ed8 <.L1308>
    6e48:	0ba00d13          	li	s10,186
    6e4c:	077d4263          	blt	s10,s7,6eb0 <.L1309>
    6e50:	0b700d13          	li	s10,183
    6e54:	097d5c63          	bge	s10,s7,6eec <.L1310>
    6e58:	008c8c93          	addi	s9,s9,8
    6e5c:	010c9c93          	slli	s9,s9,0x10
    6e60:	410cdc93          	srai	s9,s9,0x10
    6e64:	0880006f          	j	6eec <.L1310>

00006e68 <.L1304>:
    6e68:	ffbc0c13          	addi	s8,s8,-5
    6e6c:	010c1c13          	slli	s8,s8,0x10
    6e70:	410c5c13          	srai	s8,s8,0x10
    6e74:	fcdff06f          	j	6e40 <.L1303>

00006e78 <.L1306>:
    6e78:	fffc0c13          	addi	s8,s8,-1
    6e7c:	010c1c13          	slli	s8,s8,0x10
    6e80:	410c5c13          	srai	s8,s8,0x10
    6e84:	fbdff06f          	j	6e40 <.L1303>

00006e88 <.L1305>:
    6e88:	01400d13          	li	s10,20
    6e8c:	014d4a63          	blt	s10,s4,6ea0 <.L1307>
    6e90:	fffc0c13          	addi	s8,s8,-1
    6e94:	010c1c13          	slli	s8,s8,0x10
    6e98:	410c5c13          	srai	s8,s8,0x10
    6e9c:	fa5ff06f          	j	6e40 <.L1303>

00006ea0 <.L1307>:
    6ea0:	004c0c13          	addi	s8,s8,4
    6ea4:	010c1c13          	slli	s8,s8,0x10
    6ea8:	410c5c13          	srai	s8,s8,0x10
    6eac:	f95ff06f          	j	6e40 <.L1303>

00006eb0 <.L1309>:
    6eb0:	fd600d13          	li	s10,-42
    6eb4:	01a65a63          	bge	a2,s10,6ec8 <.L1311>
    6eb8:	005c8c93          	addi	s9,s9,5
    6ebc:	010c9c93          	slli	s9,s9,0x10
    6ec0:	410cdc93          	srai	s9,s9,0x10
    6ec4:	0280006f          	j	6eec <.L1310>

00006ec8 <.L1311>:
    6ec8:	ffbc8c93          	addi	s9,s9,-5
    6ecc:	010c9c93          	slli	s9,s9,0x10
    6ed0:	410cdc93          	srai	s9,s9,0x10
    6ed4:	0180006f          	j	6eec <.L1310>

00006ed8 <.L1308>:
    6ed8:	01c00d13          	li	s10,28
    6edc:	08cd4063          	blt	s10,a2,6f5c <.L1312>
    6ee0:	00bc8c93          	addi	s9,s9,11
    6ee4:	010c9c93          	slli	s9,s9,0x10
    6ee8:	410cdc93          	srai	s9,s9,0x10

00006eec <.L1310>:
    6eec:	e2400d13          	li	s10,-476
    6ef0:	0faada63          	bge	s5,s10,6fe4 <.L1314>
    6ef4:	e0200d13          	li	s10,-510
    6ef8:	09a4de63          	bge	s1,s10,6f94 <.L1315>
    6efc:	ff400d13          	li	s10,-12
    6f00:	09a35263          	bge	t1,s10,6f84 <.L1316>
    6f04:	ffb78793          	addi	a5,a5,-5
    6f08:	01079793          	slli	a5,a5,0x10
    6f0c:	4107d793          	srai	a5,a5,0x10

00006f10 <.L1317>:
    6f10:	03c00d13          	li	s10,60
    6f14:	00dd5463          	bge	s10,a3,6f1c <.L1573>
    6f18:	1600106f          	j	8078 <.L1323>

00006f1c <.L1573>:
    6f1c:	42200d13          	li	s10,1058
    6f20:	112d5863          	bge	s10,s2,7030 <.L1515>
    6f24:	e2300d13          	li	s10,-477
    6f28:	21a3de63          	bge	t2,s10,7144 <.L1327>
    6f2c:	00670713          	addi	a4,a4,6
    6f30:	01071713          	slli	a4,a4,0x10
    6f34:	41075713          	srai	a4,a4,0x10
    6f38:	05800d13          	li	s10,88
    6f3c:	216d5c63          	bge	s10,s6,7154 <.L1328>

00006f40 <.L1329>:
    6f40:	03600d13          	li	s10,54
    6f44:	00dd5463          	bge	s10,a3,6f4c <.L1329+0xc>
    6f48:	15c0106f          	j	80a4 <.L1333>
    6f4c:	ff9c0c13          	addi	s8,s8,-7
    6f50:	010c1c13          	slli	s8,s8,0x10
    6f54:	410c5c13          	srai	s8,s8,0x10
    6f58:	0fc0006f          	j	7054 <.L1332>

00006f5c <.L1312>:
    6f5c:	04100d13          	li	s10,65
    6f60:	00bd4a63          	blt	s10,a1,6f74 <.L1313>
    6f64:	006c8c93          	addi	s9,s9,6
    6f68:	010c9c93          	slli	s9,s9,0x10
    6f6c:	410cdc93          	srai	s9,s9,0x10
    6f70:	f7dff06f          	j	6eec <.L1310>

00006f74 <.L1313>:
    6f74:	ffec8c93          	addi	s9,s9,-2
    6f78:	010c9c93          	slli	s9,s9,0x10
    6f7c:	410cdc93          	srai	s9,s9,0x10
    6f80:	f6dff06f          	j	6eec <.L1310>

00006f84 <.L1316>:
    6f84:	00378793          	addi	a5,a5,3
    6f88:	01079793          	slli	a5,a5,0x10
    6f8c:	4107d793          	srai	a5,a5,0x10
    6f90:	f81ff06f          	j	6f10 <.L1317>

00006f94 <.L1315>:
    6f94:	01400d13          	li	s10,20
    6f98:	03cd4e63          	blt	s10,t3,6fd4 <.L1318>
    6f9c:	00a78793          	addi	a5,a5,10
    6fa0:	01079793          	slli	a5,a5,0x10
    6fa4:	0107d793          	srli	a5,a5,0x10

00006fa8 <.L1319>:
    6fa8:	01079793          	slli	a5,a5,0x10
    6fac:	4107d793          	srai	a5,a5,0x10
    6fb0:	03c00d13          	li	s10,60
    6fb4:	f6dd54e3          	bge	s10,a3,6f1c <.L1573>

00006fb8 <.L1330>:
    6fb8:	f0000d13          	li	s10,-256
    6fbc:	01a84463          	blt	a6,s10,6fc4 <.L1330+0xc>
    6fc0:	0d80106f          	j	8098 <.L1331>
    6fc4:	ffa70713          	addi	a4,a4,-6
    6fc8:	01071713          	slli	a4,a4,0x10
    6fcc:	41075713          	srai	a4,a4,0x10
    6fd0:	0c80106f          	j	8098 <.L1331>

00006fd4 <.L1318>:
    6fd4:	00378793          	addi	a5,a5,3
    6fd8:	01079793          	slli	a5,a5,0x10
    6fdc:	0107d793          	srli	a5,a5,0x10
    6fe0:	fc9ff06f          	j	6fa8 <.L1319>

00006fe4 <.L1314>:
    6fe4:	03c00d13          	li	s10,60
    6fe8:	03ed4663          	blt	s10,t5,7014 <.L1320>
    6fec:	00900d13          	li	s10,9
    6ff0:	013d4a63          	blt	s10,s3,7004 <.L1321>
    6ff4:	00178793          	addi	a5,a5,1
    6ff8:	01079793          	slli	a5,a5,0x10
    6ffc:	4107d793          	srai	a5,a5,0x10
    7000:	f11ff06f          	j	6f10 <.L1317>

00007004 <.L1321>:
    7004:	ffc78793          	addi	a5,a5,-4
    7008:	01079793          	slli	a5,a5,0x10
    700c:	4107d793          	srai	a5,a5,0x10
    7010:	f01ff06f          	j	6f10 <.L1317>

00007014 <.L1320>:
    7014:	0b100d13          	li	s10,177
    7018:	012d4463          	blt	s10,s2,7020 <.L1320+0xc>
    701c:	0500106f          	j	806c <.L1322>
    7020:	ff778793          	addi	a5,a5,-9
    7024:	01079793          	slli	a5,a5,0x10
    7028:	4107d793          	srai	a5,a5,0x10
    702c:	ee5ff06f          	j	6f10 <.L1317>

00007030 <.L1515>:
    7030:	07100d13          	li	s10,113
    7034:	112d4063          	blt	s10,s2,7134 <.L1325>
    7038:	fff70713          	addi	a4,a4,-1
    703c:	01071713          	slli	a4,a4,0x10
    7040:	41075713          	srai	a4,a4,0x10

00007044 <.L1326>:
    7044:	05800d13          	li	s10,88
    7048:	ef6d4ce3          	blt	s10,s6,6f40 <.L1329>

0000704c <.L1514>:
    704c:	f5300d13          	li	s10,-173
    7050:	11a3c263          	blt	t2,s10,7154 <.L1328>

00007054 <.L1332>:
    7054:	01500d13          	li	s10,21
    7058:	132d4863          	blt	s10,s2,7188 <.L1336>
    705c:	07000d13          	li	s10,112
    7060:	017d4863          	blt	s10,s7,7070 <.L1337>
    7064:	007c8c93          	addi	s9,s9,7
    7068:	010c9c93          	slli	s9,s9,0x10
    706c:	410cdc93          	srai	s9,s9,0x10

00007070 <.L1337>:
    7070:	02e00d13          	li	s10,46
    7074:	165d4663          	blt	s10,t0,71e0 <.L1340>
    7078:	01d00d13          	li	s10,29
    707c:	15fd4663          	blt	s10,t6,71c8 <.L1341>
    7080:	ffe00d13          	li	s10,-2
    7084:	01ae5863          	bge	t3,s10,7094 <.L1342>
    7088:	ff978793          	addi	a5,a5,-7
    708c:	01079793          	slli	a5,a5,0x10
    7090:	4107d793          	srai	a5,a5,0x10

00007094 <.L1342>:
    7094:	25b00d13          	li	s10,603
    7098:	1ccd4463          	blt	s10,a2,7260 <.L1343>
    709c:	0fe00d13          	li	s10,254
    70a0:	18bd4c63          	blt	s10,a1,7238 <.L1346>
    70a4:	f5600d13          	li	s10,-170
    70a8:	19a45063          	bge	s0,s10,7228 <.L1347>
    70ac:	fff70713          	addi	a4,a4,-1
    70b0:	01071713          	slli	a4,a4,0x10
    70b4:	41075713          	srai	a4,a4,0x10

000070b8 <.L1348>:
    70b8:	02700d13          	li	s10,39
    70bc:	1f2d4e63          	blt	s10,s2,72b8 <.L1352>
    70c0:	03d00d13          	li	s10,61
    70c4:	1edd4263          	blt	s10,a3,72a8 <.L1353>
    70c8:	ff9c0c13          	addi	s8,s8,-7
    70cc:	010c1d13          	slli	s10,s8,0x10
    70d0:	410d5d13          	srai	s10,s10,0x10

000070d4 <.L1354>:
    70d4:	00400c13          	li	s8,4
    70d8:	25fc4463          	blt	s8,t6,7320 <.L1358>
    70dc:	03800c13          	li	s8,56
    70e0:	23ec4863          	blt	s8,t5,7310 <.L1359>
    70e4:	008c8c93          	addi	s9,s9,8
    70e8:	010c9c93          	slli	s9,s9,0x10
    70ec:	410cdc93          	srai	s9,s9,0x10

000070f0 <.L1360>:
    70f0:	0f000c13          	li	s8,240
    70f4:	2d1c4863          	blt	s8,a7,73c4 <.L1363>
    70f8:	00200c13          	li	s8,2
    70fc:	2b3c4463          	blt	s8,s3,73a4 <.L1364>
    7100:	03500c13          	li	s8,53
    7104:	26dc4663          	blt	s8,a3,7370 <.L1365>
    7108:	00678793          	addi	a5,a5,6
    710c:	01079793          	slli	a5,a5,0x10
    7110:	4107d793          	srai	a5,a5,0x10
    7114:	01500c13          	li	s8,21
    7118:	27cc5663          	bge	s8,t3,7384 <.L1366>

0000711c <.L1367>:
    711c:	00b00c13          	li	s8,11
    7120:	39fc4063          	blt	s8,t6,74a0 <.L1379>
    7124:	ffc70713          	addi	a4,a4,-4
    7128:	01071c13          	slli	s8,a4,0x10
    712c:	410c5c13          	srai	s8,s8,0x10
    7130:	32c0006f          	j	745c <.L1376>

00007134 <.L1325>:
    7134:	00370713          	addi	a4,a4,3
    7138:	01071713          	slli	a4,a4,0x10
    713c:	41075713          	srai	a4,a4,0x10
    7140:	f05ff06f          	j	7044 <.L1326>

00007144 <.L1327>:
    7144:	ff770713          	addi	a4,a4,-9
    7148:	01071713          	slli	a4,a4,0x10
    714c:	41075713          	srai	a4,a4,0x10
    7150:	ef5ff06f          	j	7044 <.L1326>

00007154 <.L1328>:
    7154:	00ec0c13          	addi	s8,s8,14
    7158:	010c1c13          	slli	s8,s8,0x10
    715c:	410c5c13          	srai	s8,s8,0x10
    7160:	ef5ff06f          	j	7054 <.L1332>

00007164 <.L1334>:
    7164:	ffcc0c13          	addi	s8,s8,-4
    7168:	010c1c13          	slli	s8,s8,0x10
    716c:	410c5c13          	srai	s8,s8,0x10

00007170 <.L1335>:
    7170:	e7b00d13          	li	s10,-389
    7174:	05a85263          	bge	a6,s10,71b8 <.L1339>
    7178:	ffac8c93          	addi	s9,s9,-6
    717c:	010c9c93          	slli	s9,s9,0x10
    7180:	410cdc93          	srai	s9,s9,0x10
    7184:	eedff06f          	j	7070 <.L1337>

00007188 <.L1336>:
    7188:	16200d13          	li	s10,354
    718c:	ff2d42e3          	blt	s10,s2,7170 <.L1335>
    7190:	03b00d13          	li	s10,59
    7194:	00dd4a63          	blt	s10,a3,71a8 <.L1338>
    7198:	ffec8c93          	addi	s9,s9,-2
    719c:	010c9c93          	slli	s9,s9,0x10
    71a0:	410cdc93          	srai	s9,s9,0x10
    71a4:	ecdff06f          	j	7070 <.L1337>

000071a8 <.L1338>:
    71a8:	001c8c93          	addi	s9,s9,1
    71ac:	010c9c93          	slli	s9,s9,0x10
    71b0:	410cdc93          	srai	s9,s9,0x10
    71b4:	ebdff06f          	j	7070 <.L1337>

000071b8 <.L1339>:
    71b8:	004c8c93          	addi	s9,s9,4
    71bc:	010c9c93          	slli	s9,s9,0x10
    71c0:	410cdc93          	srai	s9,s9,0x10
    71c4:	eadff06f          	j	7070 <.L1337>

000071c8 <.L1341>:
    71c8:	3b500d13          	li	s10,949
    71cc:	08cd4a63          	blt	s10,a2,7260 <.L1343>
    71d0:	ff878793          	addi	a5,a5,-8
    71d4:	01079793          	slli	a5,a5,0x10
    71d8:	4107d793          	srai	a5,a5,0x10
    71dc:	eb9ff06f          	j	7094 <.L1342>

000071e0 <.L1340>:
    71e0:	03900d13          	li	s10,57
    71e4:	03ed4663          	blt	s10,t5,7210 <.L1344>
    71e8:	00e00d13          	li	s10,14
    71ec:	01cd4a63          	blt	s10,t3,7200 <.L1345>
    71f0:	00478793          	addi	a5,a5,4
    71f4:	01079793          	slli	a5,a5,0x10
    71f8:	4107d793          	srai	a5,a5,0x10
    71fc:	e99ff06f          	j	7094 <.L1342>

00007200 <.L1345>:
    7200:	ff978793          	addi	a5,a5,-7
    7204:	01079793          	slli	a5,a5,0x10
    7208:	4107d793          	srai	a5,a5,0x10
    720c:	e89ff06f          	j	7094 <.L1342>

00007210 <.L1344>:
    7210:	03d00d13          	li	s10,61
    7214:	e8dd40e3          	blt	s10,a3,7094 <.L1342>
    7218:	00878793          	addi	a5,a5,8
    721c:	01079793          	slli	a5,a5,0x10
    7220:	4107d793          	srai	a5,a5,0x10
    7224:	e71ff06f          	j	7094 <.L1342>

00007228 <.L1347>:
    7228:	00670713          	addi	a4,a4,6
    722c:	01071713          	slli	a4,a4,0x10
    7230:	41075713          	srai	a4,a4,0x10
    7234:	e85ff06f          	j	70b8 <.L1348>

00007238 <.L1346>:
    7238:	ef800d13          	li	s10,-264
    723c:	01a45a63          	bge	s0,s10,7250 <.L1349>
    7240:	00670713          	addi	a4,a4,6
    7244:	01071713          	slli	a4,a4,0x10
    7248:	41075713          	srai	a4,a4,0x10
    724c:	e6dff06f          	j	70b8 <.L1348>

00007250 <.L1349>:
    7250:	ff970713          	addi	a4,a4,-7
    7254:	01071713          	slli	a4,a4,0x10
    7258:	41075713          	srai	a4,a4,0x10
    725c:	e5dff06f          	j	70b8 <.L1348>

00007260 <.L1343>:
    7260:	fe900d13          	li	s10,-23
    7264:	03a35663          	bge	t1,s10,7290 <.L1350>
    7268:	dde00d13          	li	s10,-546
    726c:	01a45a63          	bge	s0,s10,7280 <.L1351>
    7270:	00570713          	addi	a4,a4,5
    7274:	01071713          	slli	a4,a4,0x10
    7278:	41075713          	srai	a4,a4,0x10
    727c:	e3dff06f          	j	70b8 <.L1348>

00007280 <.L1351>:
    7280:	ffb70713          	addi	a4,a4,-5
    7284:	01071713          	slli	a4,a4,0x10
    7288:	41075713          	srai	a4,a4,0x10
    728c:	e2dff06f          	j	70b8 <.L1348>

00007290 <.L1350>:
    7290:	e7600d13          	li	s10,-394
    7294:	e3a842e3          	blt	a6,s10,70b8 <.L1348>
    7298:	ff770713          	addi	a4,a4,-9
    729c:	01071713          	slli	a4,a4,0x10
    72a0:	41075713          	srai	a4,a4,0x10
    72a4:	e15ff06f          	j	70b8 <.L1348>

000072a8 <.L1353>:
    72a8:	001c0c13          	addi	s8,s8,1
    72ac:	010c1d13          	slli	s10,s8,0x10
    72b0:	410d5d13          	srai	s10,s10,0x10
    72b4:	e21ff06f          	j	70d4 <.L1354>

000072b8 <.L1352>:
    72b8:	03000d13          	li	s10,48
    72bc:	032d4663          	blt	s10,s2,72e8 <.L1355>
    72c0:	0b800d13          	li	s10,184
    72c4:	016d4a63          	blt	s10,s6,72d8 <.L1356>
    72c8:	00bc0c13          	addi	s8,s8,11
    72cc:	010c1d13          	slli	s10,s8,0x10
    72d0:	410d5d13          	srai	s10,s10,0x10
    72d4:	e01ff06f          	j	70d4 <.L1354>

000072d8 <.L1356>:
    72d8:	ffec0c13          	addi	s8,s8,-2
    72dc:	010c1d13          	slli	s10,s8,0x10
    72e0:	410d5d13          	srai	s10,s10,0x10
    72e4:	df1ff06f          	j	70d4 <.L1354>

000072e8 <.L1355>:
    72e8:	01600d13          	li	s10,22
    72ec:	01cd4a63          	blt	s10,t3,7300 <.L1357>
    72f0:	fffc0c13          	addi	s8,s8,-1
    72f4:	010c1d13          	slli	s10,s8,0x10
    72f8:	410d5d13          	srai	s10,s10,0x10
    72fc:	dd9ff06f          	j	70d4 <.L1354>

00007300 <.L1357>:
    7300:	002c0c13          	addi	s8,s8,2
    7304:	010c1d13          	slli	s10,s8,0x10
    7308:	410d5d13          	srai	s10,s10,0x10
    730c:	dc9ff06f          	j	70d4 <.L1354>

00007310 <.L1359>:
    7310:	002c8c93          	addi	s9,s9,2
    7314:	010c9c93          	slli	s9,s9,0x10
    7318:	410cdc93          	srai	s9,s9,0x10
    731c:	dd5ff06f          	j	70f0 <.L1360>

00007320 <.L1358>:
    7320:	00e00c13          	li	s8,14
    7324:	025c4663          	blt	s8,t0,7350 <.L1361>
    7328:	f9c00c13          	li	s8,-100
    732c:	0183da63          	bge	t2,s8,7340 <.L1362>
    7330:	ffbc8c93          	addi	s9,s9,-5
    7334:	010c9c93          	slli	s9,s9,0x10
    7338:	410cdc93          	srai	s9,s9,0x10
    733c:	db5ff06f          	j	70f0 <.L1360>

00007340 <.L1362>:
    7340:	005c8c93          	addi	s9,s9,5
    7344:	010c9c93          	slli	s9,s9,0x10
    7348:	410cdc93          	srai	s9,s9,0x10
    734c:	da5ff06f          	j	70f0 <.L1360>

00007350 <.L1361>:
    7350:	01c51c03          	lh	s8,28(a0)
    7354:	000c0d93          	mv	s11,s8
    7358:	03400c13          	li	s8,52
    735c:	d9bc5ae3          	bge	s8,s11,70f0 <.L1360>
    7360:	005c8c93          	addi	s9,s9,5
    7364:	010c9c93          	slli	s9,s9,0x10
    7368:	410cdc93          	srai	s9,s9,0x10
    736c:	d85ff06f          	j	70f0 <.L1360>

00007370 <.L1365>:
    7370:	ffd78793          	addi	a5,a5,-3
    7374:	01079793          	slli	a5,a5,0x10
    7378:	4107d793          	srai	a5,a5,0x10

0000737c <.L1368>:
    737c:	01500c13          	li	s8,21
    7380:	07cc4863          	blt	s8,t3,73f0 <.L1373>

00007384 <.L1366>:
    7384:	f6a00c13          	li	s8,-150
    7388:	0d884063          	blt	a6,s8,7448 <.L1572>
    738c:	f5b00c13          	li	s8,-165
    7390:	118ad063          	bge	s5,s8,7490 <.L1377>
    7394:	00470713          	addi	a4,a4,4
    7398:	01071c13          	slli	s8,a4,0x10
    739c:	410c5c13          	srai	s8,s8,0x10
    73a0:	0bc0006f          	j	745c <.L1376>

000073a4 <.L1364>:
    73a4:	01c51c03          	lh	s8,28(a0)
    73a8:	000c0d93          	mv	s11,s8
    73ac:	02d00c13          	li	s8,45
    73b0:	fdbc56e3          	bge	s8,s11,737c <.L1368>
    73b4:	ffa78793          	addi	a5,a5,-6
    73b8:	01079793          	slli	a5,a5,0x10
    73bc:	4107d793          	srai	a5,a5,0x10
    73c0:	fbdff06f          	j	737c <.L1368>

000073c4 <.L1363>:
    73c4:	f5200c13          	li	s8,-174
    73c8:	05885c63          	bge	a6,s8,7420 <.L1369>
    73cc:	03700c13          	li	s8,55
    73d0:	05ec4063          	blt	s8,t5,7410 <.L1370>
    73d4:	ffe78793          	addi	a5,a5,-2
    73d8:	01079793          	slli	a5,a5,0x10
    73dc:	0107d793          	srli	a5,a5,0x10

000073e0 <.L1371>:
    73e0:	01079793          	slli	a5,a5,0x10
    73e4:	4107d793          	srai	a5,a5,0x10
    73e8:	01500c13          	li	s8,21
    73ec:	05cc5e63          	bge	s8,t3,7448 <.L1572>

000073f0 <.L1373>:
    73f0:	03800c13          	li	s8,56
    73f4:	d2dc54e3          	bge	s8,a3,711c <.L1367>
    73f8:	15500c13          	li	s8,341
    73fc:	0bdc4a63          	blt	s8,t4,74b0 <.L1380>
    7400:	ff970713          	addi	a4,a4,-7
    7404:	01071c13          	slli	s8,a4,0x10
    7408:	410c5c13          	srai	s8,s8,0x10
    740c:	0500006f          	j	745c <.L1376>

00007410 <.L1370>:
    7410:	00478793          	addi	a5,a5,4
    7414:	01079793          	slli	a5,a5,0x10
    7418:	0107d793          	srli	a5,a5,0x10
    741c:	fc5ff06f          	j	73e0 <.L1371>

00007420 <.L1369>:
    7420:	21200c13          	li	s8,530
    7424:	011c4a63          	blt	s8,a7,7438 <.L1372>
    7428:	ff878793          	addi	a5,a5,-8
    742c:	01079793          	slli	a5,a5,0x10
    7430:	4107d793          	srai	a5,a5,0x10
    7434:	f49ff06f          	j	737c <.L1368>

00007438 <.L1372>:
    7438:	00378793          	addi	a5,a5,3
    743c:	01079793          	slli	a5,a5,0x10
    7440:	4107d793          	srai	a5,a5,0x10
    7444:	f39ff06f          	j	737c <.L1368>

00007448 <.L1572>:
    7448:	02200c13          	li	s8,34
    744c:	03fc4a63          	blt	s8,t6,7480 <.L1375>
    7450:	ffb70713          	addi	a4,a4,-5
    7454:	01071c13          	slli	s8,a4,0x10
    7458:	410c5c13          	srai	s8,s8,0x10

0000745c <.L1376>:
    745c:	07305263          	blez	s3,74c0 <.L1645>
    7460:	ff600713          	li	a4,-10
    7464:	0ae35e63          	bge	t1,a4,7520 <.L1383>
    7468:	02900713          	li	a4,41
    746c:	0a574263          	blt	a4,t0,7510 <.L1384>
    7470:	ffbd0713          	addi	a4,s10,-5
    7474:	01071d13          	slli	s10,a4,0x10
    7478:	410d5d13          	srai	s10,s10,0x10
    747c:	0500006f          	j	74cc <.L1382>

00007480 <.L1375>:
    7480:	00170713          	addi	a4,a4,1
    7484:	01071c13          	slli	s8,a4,0x10
    7488:	410c5c13          	srai	s8,s8,0x10
    748c:	fd1ff06f          	j	745c <.L1376>

00007490 <.L1377>:
    7490:	ffc70713          	addi	a4,a4,-4
    7494:	01071c13          	slli	s8,a4,0x10
    7498:	410c5c13          	srai	s8,s8,0x10
    749c:	fc1ff06f          	j	745c <.L1376>

000074a0 <.L1379>:
    74a0:	00970713          	addi	a4,a4,9
    74a4:	01071c13          	slli	s8,a4,0x10
    74a8:	410c5c13          	srai	s8,s8,0x10
    74ac:	fb1ff06f          	j	745c <.L1376>

000074b0 <.L1380>:
    74b0:	00170713          	addi	a4,a4,1
    74b4:	01071c13          	slli	s8,a4,0x10
    74b8:	410c5c13          	srai	s8,s8,0x10
    74bc:	fa1ff06f          	j	745c <.L1376>

000074c0 <.L1645>:
    74c0:	ffad0713          	addi	a4,s10,-6
    74c4:	01071d13          	slli	s10,a4,0x10
    74c8:	410d5d13          	srai	s10,s10,0x10

000074cc <.L1382>:
    74cc:	0a900713          	li	a4,169
    74d0:	0bd74863          	blt	a4,t4,7580 <.L1386>
    74d4:	01c00713          	li	a4,28
    74d8:	08d74063          	blt	a4,a3,7558 <.L1387>
    74dc:	07300713          	li	a4,115
    74e0:	07d74463          	blt	a4,t4,7548 <.L1388>
    74e4:	005c8c93          	addi	s9,s9,5
    74e8:	010c9c93          	slli	s9,s9,0x10
    74ec:	410cdc93          	srai	s9,s9,0x10

000074f0 <.L1389>:
    74f0:	08300713          	li	a4,131
    74f4:	0b674863          	blt	a4,s6,75a4 <.L1394>
    74f8:	01900713          	li	a4,25
    74fc:	0f475a63          	bge	a4,s4,75f0 <.L1393>
    7500:	fff78793          	addi	a5,a5,-1
    7504:	01079793          	slli	a5,a5,0x10
    7508:	4107d793          	srai	a5,a5,0x10
    750c:	0f00006f          	j	75fc <.L1396>

00007510 <.L1384>:
    7510:	001d0713          	addi	a4,s10,1
    7514:	01071d13          	slli	s10,a4,0x10
    7518:	410d5d13          	srai	s10,s10,0x10
    751c:	fb1ff06f          	j	74cc <.L1382>

00007520 <.L1383>:
    7520:	ed600713          	li	a4,-298
    7524:	00eada63          	bge	s5,a4,7538 <.L1385>
    7528:	ffdd0713          	addi	a4,s10,-3
    752c:	01071d13          	slli	s10,a4,0x10
    7530:	410d5d13          	srai	s10,s10,0x10
    7534:	f99ff06f          	j	74cc <.L1382>

00007538 <.L1385>:
    7538:	004d0713          	addi	a4,s10,4
    753c:	01071d13          	slli	s10,a4,0x10
    7540:	410d5d13          	srai	s10,s10,0x10
    7544:	f89ff06f          	j	74cc <.L1382>

00007548 <.L1388>:
    7548:	ff6c8c93          	addi	s9,s9,-10
    754c:	010c9c93          	slli	s9,s9,0x10
    7550:	410cdc93          	srai	s9,s9,0x10
    7554:	f9dff06f          	j	74f0 <.L1389>

00007558 <.L1387>:
    7558:	0ca00713          	li	a4,202
    755c:	00c74a63          	blt	a4,a2,7570 <.L1390>
    7560:	006c8c93          	addi	s9,s9,6
    7564:	010c9c93          	slli	s9,s9,0x10
    7568:	410cdc93          	srai	s9,s9,0x10
    756c:	f85ff06f          	j	74f0 <.L1389>

00007570 <.L1390>:
    7570:	ffdc8c93          	addi	s9,s9,-3
    7574:	010c9c93          	slli	s9,s9,0x10
    7578:	410cdc93          	srai	s9,s9,0x10
    757c:	f75ff06f          	j	74f0 <.L1389>

00007580 <.L1386>:
    7580:	eba00713          	li	a4,-326
    7584:	04e85863          	bge	a6,a4,75d4 <.L1391>
    7588:	01400713          	li	a4,20
    758c:	03474c63          	blt	a4,s4,75c4 <.L1392>
    7590:	003c8c93          	addi	s9,s9,3
    7594:	010c9c93          	slli	s9,s9,0x10
    7598:	410cdc93          	srai	s9,s9,0x10
    759c:	08300713          	li	a4,131
    75a0:	05675863          	bge	a4,s6,75f0 <.L1393>

000075a4 <.L1394>:
    75a4:	ff900713          	li	a4,-7
    75a8:	0ce35c63          	bge	t1,a4,7680 <.L1397>
    75ac:	09000713          	li	a4,144
    75b0:	05775663          	bge	a4,s7,75fc <.L1396>
    75b4:	ffc78793          	addi	a5,a5,-4
    75b8:	01079793          	slli	a5,a5,0x10
    75bc:	4107d793          	srai	a5,a5,0x10
    75c0:	03c0006f          	j	75fc <.L1396>

000075c4 <.L1392>:
    75c4:	ffac8c93          	addi	s9,s9,-6
    75c8:	010c9c93          	slli	s9,s9,0x10
    75cc:	410cdc93          	srai	s9,s9,0x10
    75d0:	f21ff06f          	j	74f0 <.L1389>

000075d4 <.L1391>:
    75d4:	11500713          	li	a4,277
    75d8:	00c12d83          	lw	s11,12(sp)
    75dc:	f1b75ae3          	bge	a4,s11,74f0 <.L1389>
    75e0:	ffdc8c93          	addi	s9,s9,-3
    75e4:	010c9c93          	slli	s9,s9,0x10
    75e8:	410cdc93          	srai	s9,s9,0x10
    75ec:	f05ff06f          	j	74f0 <.L1389>

000075f0 <.L1393>:
    75f0:	ff978793          	addi	a5,a5,-7
    75f4:	01079793          	slli	a5,a5,0x10
    75f8:	4107d793          	srai	a5,a5,0x10

000075fc <.L1396>:
    75fc:	02700713          	li	a4,39
    7600:	0b174263          	blt	a4,a7,76a4 <.L1400>
    7604:	ff800713          	li	a4,-8
    7608:	0ce35e63          	bge	t1,a4,76e4 <.L1401>
    760c:	06c00713          	li	a4,108
    7610:	0cb74263          	blt	a4,a1,76d4 <.L1402>
    7614:	ff9c0c13          	addi	s8,s8,-7
    7618:	010c1c13          	slli	s8,s8,0x10
    761c:	410c5c13          	srai	s8,s8,0x10

00007620 <.L1403>:
    7620:	c5700713          	li	a4,-937
    7624:	12e85063          	bge	a6,a4,7744 <.L1408>
    7628:	006d0713          	addi	a4,s10,6
    762c:	01071d13          	slli	s10,a4,0x10
    7630:	410d5d13          	srai	s10,s10,0x10

00007634 <.L1409>:
    7634:	01e00713          	li	a4,30
    7638:	13474863          	blt	a4,s4,7768 <.L1412>
    763c:	03d00713          	li	a4,61
    7640:	1fe75063          	bge	a4,t5,7820 <.L1411>
    7644:	07100713          	li	a4,113
    7648:	1f774663          	blt	a4,s7,7834 <.L1415>
    764c:	009c8c93          	addi	s9,s9,9
    7650:	010c9c93          	slli	s9,s9,0x10
    7654:	010cdc93          	srli	s9,s9,0x10

00007658 <.L1416>:
    7658:	010c9c93          	slli	s9,s9,0x10
    765c:	410cdc93          	srai	s9,s9,0x10
    7660:	02e00713          	li	a4,46
    7664:	12575063          	bge	a4,t0,7784 <.L1513>

00007668 <.L1422>:
    7668:	02b00713          	li	a4,43
    766c:	25f74a63          	blt	a4,t6,78c0 <.L1424>
    7670:	00878793          	addi	a5,a5,8
    7674:	01079793          	slli	a5,a5,0x10
    7678:	4107d793          	srai	a5,a5,0x10
    767c:	1240006f          	j	77a0 <.L1419>

00007680 <.L1397>:
    7680:	ffe00713          	li	a4,-2
    7684:	04ee5063          	bge	t3,a4,76c4 <.L1398>
    7688:	ffa78793          	addi	a5,a5,-6
    768c:	01079793          	slli	a5,a5,0x10
    7690:	0107d793          	srli	a5,a5,0x10

00007694 <.L1399>:
    7694:	01079793          	slli	a5,a5,0x10
    7698:	4107d793          	srai	a5,a5,0x10
    769c:	02700713          	li	a4,39
    76a0:	05175263          	bge	a4,a7,76e4 <.L1401>

000076a4 <.L1400>:
    76a4:	ecb00713          	li	a4,-309
    76a8:	06e4da63          	bge	s1,a4,771c <.L1405>
    76ac:	ff900713          	li	a4,-7
    76b0:	04e35e63          	bge	t1,a4,770c <.L1406>
    76b4:	001c0c13          	addi	s8,s8,1
    76b8:	010c1c13          	slli	s8,s8,0x10
    76bc:	410c5c13          	srai	s8,s8,0x10
    76c0:	f61ff06f          	j	7620 <.L1403>

000076c4 <.L1398>:
    76c4:	00478793          	addi	a5,a5,4
    76c8:	01079793          	slli	a5,a5,0x10
    76cc:	0107d793          	srli	a5,a5,0x10
    76d0:	fc5ff06f          	j	7694 <.L1399>

000076d4 <.L1402>:
    76d4:	002c0c13          	addi	s8,s8,2
    76d8:	010c1c13          	slli	s8,s8,0x10
    76dc:	410c5c13          	srai	s8,s8,0x10
    76e0:	f41ff06f          	j	7620 <.L1403>

000076e4 <.L1401>:
    76e4:	0c100713          	li	a4,193
    76e8:	01674a63          	blt	a4,s6,76fc <.L1404>
    76ec:	ffec0c13          	addi	s8,s8,-2
    76f0:	010c1c13          	slli	s8,s8,0x10
    76f4:	410c5c13          	srai	s8,s8,0x10
    76f8:	f29ff06f          	j	7620 <.L1403>

000076fc <.L1404>:
    76fc:	00dc0c13          	addi	s8,s8,13
    7700:	010c1c13          	slli	s8,s8,0x10
    7704:	410c5c13          	srai	s8,s8,0x10
    7708:	f19ff06f          	j	7620 <.L1403>

0000770c <.L1406>:
    770c:	ffbc0c13          	addi	s8,s8,-5
    7710:	010c1c13          	slli	s8,s8,0x10
    7714:	410c5c13          	srai	s8,s8,0x10
    7718:	f09ff06f          	j	7620 <.L1403>

0000771c <.L1405>:
    771c:	00900713          	li	a4,9
    7720:	00574a63          	blt	a4,t0,7734 <.L1407>
    7724:	005c0c13          	addi	s8,s8,5
    7728:	010c1c13          	slli	s8,s8,0x10
    772c:	410c5c13          	srai	s8,s8,0x10
    7730:	ef1ff06f          	j	7620 <.L1403>

00007734 <.L1407>:
    7734:	ff8c0c13          	addi	s8,s8,-8
    7738:	010c1c13          	slli	s8,s8,0x10
    773c:	410c5c13          	srai	s8,s8,0x10
    7740:	ee1ff06f          	j	7620 <.L1403>

00007744 <.L1408>:
    7744:	02c00713          	li	a4,44
    7748:	0df74063          	blt	a4,t6,7808 <.L1410>
    774c:	03100713          	li	a4,49
    7750:	efe742e3          	blt	a4,t5,7634 <.L1409>
    7754:	006d0713          	addi	a4,s10,6
    7758:	01071d13          	slli	s10,a4,0x10
    775c:	410d5d13          	srai	s10,s10,0x10
    7760:	01e00713          	li	a4,30
    7764:	0b475e63          	bge	a4,s4,7820 <.L1411>

00007768 <.L1412>:
    7768:	0a400713          	li	a4,164
    776c:	01d75863          	bge	a4,t4,777c <.L1414>
    7770:	ff9c8c93          	addi	s9,s9,-7
    7774:	010c9c93          	slli	s9,s9,0x10
    7778:	410cdc93          	srai	s9,s9,0x10

0000777c <.L1414>:
    777c:	02e00713          	li	a4,46
    7780:	10574863          	blt	a4,t0,7890 <.L1417>

00007784 <.L1513>:
    7784:	ff200713          	li	a4,-14
    7788:	0ae35e63          	bge	t1,a4,7844 <.L1418>
    778c:	ea400713          	li	a4,-348
    7790:	00e4d863          	bge	s1,a4,77a0 <.L1419>
    7794:	ff778793          	addi	a5,a5,-9
    7798:	01079793          	slli	a5,a5,0x10
    779c:	4107d793          	srai	a5,a5,0x10

000077a0 <.L1419>:
    77a0:	25b00713          	li	a4,603
    77a4:	16c74863          	blt	a4,a2,7914 <.L1425>

000077a8 <.L1571>:
    77a8:	ec500713          	li	a4,-315
    77ac:	12e85a63          	bge	a6,a4,78e0 <.L1426>
    77b0:	22200713          	li	a4,546
    77b4:	11274e63          	blt	a4,s2,78d0 <.L1427>
    77b8:	ffbc0c13          	addi	s8,s8,-5
    77bc:	010c1c13          	slli	s8,s8,0x10
    77c0:	410c5c13          	srai	s8,s8,0x10

000077c4 <.L1428>:
    77c4:	02600713          	li	a4,38
    77c8:	12b74663          	blt	a4,a1,78f4 <.L1429>
    77cc:	01300713          	li	a4,19
    77d0:	18b74a63          	blt	a4,a1,7964 <.L1433>
    77d4:	08400713          	li	a4,132
    77d8:	17274e63          	blt	a4,s2,7954 <.L1434>
    77dc:	003d0713          	addi	a4,s10,3
    77e0:	01071d13          	slli	s10,a4,0x10
    77e4:	410d5d13          	srai	s10,s10,0x10

000077e8 <.L1435>:
    77e8:	00400713          	li	a4,4
    77ec:	19f74a63          	blt	a4,t6,7980 <.L1438>
    77f0:	06a00713          	li	a4,106
    77f4:	1f775463          	bge	a4,s7,79dc <.L1437>
    77f8:	001c8c93          	addi	s9,s9,1
    77fc:	010c9c93          	slli	s9,s9,0x10
    7800:	410cdc93          	srai	s9,s9,0x10
    7804:	1e40006f          	j	79e8 <.L1442>

00007808 <.L1410>:
    7808:	e1500713          	li	a4,-491
    780c:	e2e3c4e3          	blt	t2,a4,7634 <.L1409>
    7810:	ff7d0713          	addi	a4,s10,-9
    7814:	01071d13          	slli	s10,a4,0x10
    7818:	410d5d13          	srai	s10,s10,0x10
    781c:	e19ff06f          	j	7634 <.L1409>

00007820 <.L1411>:
    7820:	f5304ee3          	bgtz	s3,777c <.L1414>
    7824:	004c8c93          	addi	s9,s9,4
    7828:	010c9c93          	slli	s9,s9,0x10
    782c:	410cdc93          	srai	s9,s9,0x10
    7830:	f4dff06f          	j	777c <.L1414>

00007834 <.L1415>:
    7834:	ffec8c93          	addi	s9,s9,-2
    7838:	010c9c93          	slli	s9,s9,0x10
    783c:	010cdc93          	srli	s9,s9,0x10
    7840:	e19ff06f          	j	7658 <.L1416>

00007844 <.L1418>:
    7844:	e2c00713          	li	a4,-468
    7848:	02eadc63          	bge	s5,a4,7880 <.L1420>
    784c:	00478793          	addi	a5,a5,4
    7850:	01079793          	slli	a5,a5,0x10
    7854:	0107d793          	srli	a5,a5,0x10

00007858 <.L1421>:
    7858:	01079793          	slli	a5,a5,0x10
    785c:	4107d793          	srai	a5,a5,0x10
    7860:	25b00713          	li	a4,603
    7864:	f4c752e3          	bge	a4,a2,77a8 <.L1571>

00007868 <.L1430>:
    7868:	e9800713          	li	a4,-360
    786c:	0ce85c63          	bge	a6,a4,7944 <.L1432>
    7870:	fffc0c13          	addi	s8,s8,-1
    7874:	010c1c13          	slli	s8,s8,0x10
    7878:	410c5c13          	srai	s8,s8,0x10
    787c:	f49ff06f          	j	77c4 <.L1428>

00007880 <.L1420>:
    7880:	fff78793          	addi	a5,a5,-1
    7884:	01079793          	slli	a5,a5,0x10
    7888:	0107d793          	srli	a5,a5,0x10
    788c:	fcdff06f          	j	7858 <.L1421>

00007890 <.L1417>:
    7890:	03900713          	li	a4,57
    7894:	dde74ae3          	blt	a4,t5,7668 <.L1422>
    7898:	00e00713          	li	a4,14
    789c:	01c74a63          	blt	a4,t3,78b0 <.L1423>
    78a0:	00478793          	addi	a5,a5,4
    78a4:	01079793          	slli	a5,a5,0x10
    78a8:	4107d793          	srai	a5,a5,0x10
    78ac:	ef5ff06f          	j	77a0 <.L1419>

000078b0 <.L1423>:
    78b0:	ff978793          	addi	a5,a5,-7
    78b4:	01079793          	slli	a5,a5,0x10
    78b8:	4107d793          	srai	a5,a5,0x10
    78bc:	ee5ff06f          	j	77a0 <.L1419>

000078c0 <.L1424>:
    78c0:	00178793          	addi	a5,a5,1
    78c4:	01079793          	slli	a5,a5,0x10
    78c8:	4107d793          	srai	a5,a5,0x10
    78cc:	ed5ff06f          	j	77a0 <.L1419>

000078d0 <.L1427>:
    78d0:	002c0c13          	addi	s8,s8,2
    78d4:	010c1c13          	slli	s8,s8,0x10
    78d8:	410c5c13          	srai	s8,s8,0x10
    78dc:	ee9ff06f          	j	77c4 <.L1428>

000078e0 <.L1426>:
    78e0:	0a000713          	li	a4,160
    78e4:	eeb750e3          	bge	a4,a1,77c4 <.L1428>
    78e8:	005c0c13          	addi	s8,s8,5
    78ec:	010c1c13          	slli	s8,s8,0x10
    78f0:	410c5c13          	srai	s8,s8,0x10

000078f4 <.L1429>:
    78f4:	00300713          	li	a4,3
    78f8:	0b374c63          	blt	a4,s3,79b0 <.L1439>
    78fc:	03d00713          	li	a4,61
    7900:	eed744e3          	blt	a4,a3,77e8 <.L1435>
    7904:	ff8d0713          	addi	a4,s10,-8
    7908:	01071d13          	slli	s10,a4,0x10
    790c:	410d5d13          	srai	s10,s10,0x10
    7910:	ed9ff06f          	j	77e8 <.L1435>

00007914 <.L1425>:
    7914:	fe900713          	li	a4,-23
    7918:	f4e358e3          	bge	t1,a4,7868 <.L1430>
    791c:	dde00713          	li	a4,-546
    7920:	00e45a63          	bge	s0,a4,7934 <.L1431>
    7924:	005c0c13          	addi	s8,s8,5
    7928:	010c1c13          	slli	s8,s8,0x10
    792c:	410c5c13          	srai	s8,s8,0x10
    7930:	e95ff06f          	j	77c4 <.L1428>

00007934 <.L1431>:
    7934:	ffcc0c13          	addi	s8,s8,-4
    7938:	010c1c13          	slli	s8,s8,0x10
    793c:	410c5c13          	srai	s8,s8,0x10
    7940:	e85ff06f          	j	77c4 <.L1428>

00007944 <.L1432>:
    7944:	ff7c0c13          	addi	s8,s8,-9
    7948:	010c1c13          	slli	s8,s8,0x10
    794c:	410c5c13          	srai	s8,s8,0x10
    7950:	e75ff06f          	j	77c4 <.L1428>

00007954 <.L1434>:
    7954:	ffcd0713          	addi	a4,s10,-4
    7958:	01071d13          	slli	s10,a4,0x10
    795c:	410d5d13          	srai	s10,s10,0x10
    7960:	e89ff06f          	j	77e8 <.L1435>

00007964 <.L1433>:
    7964:	ff800713          	li	a4,-8
    7968:	02ebdc63          	bge	s7,a4,79a0 <.L1436>
    796c:	ffcd0713          	addi	a4,s10,-4
    7970:	01071d13          	slli	s10,a4,0x10
    7974:	410d5d13          	srai	s10,s10,0x10
    7978:	00400713          	li	a4,4
    797c:	07f75063          	bge	a4,t6,79dc <.L1437>

00007980 <.L1438>:
    7980:	ff800713          	li	a4,-8
    7984:	0ee35663          	bge	t1,a4,7a70 <.L1443>
    7988:	01f00713          	li	a4,31
    798c:	0df74a63          	blt	a4,t6,7a60 <.L1444>
    7990:	002c8c93          	addi	s9,s9,2
    7994:	010c9c93          	slli	s9,s9,0x10
    7998:	410cdc93          	srai	s9,s9,0x10
    799c:	04c0006f          	j	79e8 <.L1442>

000079a0 <.L1436>:
    79a0:	009d0713          	addi	a4,s10,9
    79a4:	01071d13          	slli	s10,a4,0x10
    79a8:	410d5d13          	srai	s10,s10,0x10
    79ac:	e3dff06f          	j	77e8 <.L1435>

000079b0 <.L1439>:
    79b0:	01c51d83          	lh	s11,28(a0)
    79b4:	02a00713          	li	a4,42
    79b8:	01b74a63          	blt	a4,s11,79cc <.L1440>
    79bc:	ffcd0713          	addi	a4,s10,-4
    79c0:	01071d13          	slli	s10,a4,0x10
    79c4:	410d5d13          	srai	s10,s10,0x10
    79c8:	e21ff06f          	j	77e8 <.L1435>

000079cc <.L1440>:
    79cc:	004d0713          	addi	a4,s10,4
    79d0:	01071d13          	slli	s10,a4,0x10
    79d4:	410d5d13          	srai	s10,s10,0x10
    79d8:	e11ff06f          	j	77e8 <.L1435>

000079dc <.L1437>:
    79dc:	008c8c93          	addi	s9,s9,8
    79e0:	010c9c93          	slli	s9,s9,0x10
    79e4:	410cdc93          	srai	s9,s9,0x10

000079e8 <.L1442>:
    79e8:	03b00713          	li	a4,59
    79ec:	10d74063          	blt	a4,a3,7aec <.L1446>
    79f0:	33f00713          	li	a4,831
    79f4:	0ac74a63          	blt	a4,a2,7aa8 <.L1447>
    79f8:	01400713          	li	a4,20
    79fc:	09f74e63          	blt	a4,t6,7a98 <.L1448>
    7a00:	00178793          	addi	a5,a5,1
    7a04:	01079793          	slli	a5,a5,0x10
    7a08:	4107d793          	srai	a5,a5,0x10

00007a0c <.L1449>:
    7a0c:	fdb00713          	li	a4,-37
    7a10:	12e65a63          	bge	a2,a4,7b44 <.L1454>
    7a14:	00a00713          	li	a4,10
    7a18:	11474e63          	blt	a4,s4,7b34 <.L1455>
    7a1c:	ff8c0c13          	addi	s8,s8,-8
    7a20:	010c1c13          	slli	s8,s8,0x10
    7a24:	410c5c13          	srai	s8,s8,0x10

00007a28 <.L1456>:
    7a28:	03100713          	li	a4,49
    7a2c:	12d74c63          	blt	a4,a3,7b64 <.L1458>
    7a30:	ffad0713          	addi	a4,s10,-6
    7a34:	01071713          	slli	a4,a4,0x10
    7a38:	41075713          	srai	a4,a4,0x10

00007a3c <.L1459>:
    7a3c:	0a900593          	li	a1,169
    7a40:	27d5c263          	blt	a1,t4,7ca4 <.L1463>
    7a44:	1609cc63          	bltz	s3,7bbc <.L1646>
    7a48:	02d00593          	li	a1,45
    7a4c:	25e5c463          	blt	a1,t5,7c94 <.L1466>
    7a50:	ffec8c93          	addi	s9,s9,-2
    7a54:	010c9c93          	slli	s9,s9,0x10
    7a58:	410cdc93          	srai	s9,s9,0x10
    7a5c:	16c0006f          	j	7bc8 <.L1465>

00007a60 <.L1444>:
    7a60:	fffc8c93          	addi	s9,s9,-1
    7a64:	010c9c93          	slli	s9,s9,0x10
    7a68:	410cdc93          	srai	s9,s9,0x10
    7a6c:	f7dff06f          	j	79e8 <.L1442>

00007a70 <.L1443>:
    7a70:	0b300713          	li	a4,179
    7a74:	01274a63          	blt	a4,s2,7a88 <.L1445>
    7a78:	ffcc8c93          	addi	s9,s9,-4
    7a7c:	010c9c93          	slli	s9,s9,0x10
    7a80:	410cdc93          	srai	s9,s9,0x10
    7a84:	f65ff06f          	j	79e8 <.L1442>

00007a88 <.L1445>:
    7a88:	001c8c93          	addi	s9,s9,1
    7a8c:	010c9c93          	slli	s9,s9,0x10
    7a90:	410cdc93          	srai	s9,s9,0x10
    7a94:	f55ff06f          	j	79e8 <.L1442>

00007a98 <.L1448>:
    7a98:	ffc78793          	addi	a5,a5,-4
    7a9c:	01079793          	slli	a5,a5,0x10
    7aa0:	4107d793          	srai	a5,a5,0x10
    7aa4:	f69ff06f          	j	7a0c <.L1449>

00007aa8 <.L1447>:
    7aa8:	ddf00713          	li	a4,-545
    7aac:	02e45863          	bge	s0,a4,7adc <.L1450>
    7ab0:	fff78793          	addi	a5,a5,-1
    7ab4:	01079793          	slli	a5,a5,0x10
    7ab8:	0107d793          	srli	a5,a5,0x10

00007abc <.L1451>:
    7abc:	01079793          	slli	a5,a5,0x10
    7ac0:	4107d793          	srai	a5,a5,0x10

00007ac4 <.L1457>:
    7ac4:	08600713          	li	a4,134
    7ac8:	f6b740e3          	blt	a4,a1,7a28 <.L1456>
    7acc:	ffcc0c13          	addi	s8,s8,-4
    7ad0:	010c1c13          	slli	s8,s8,0x10
    7ad4:	410c5c13          	srai	s8,s8,0x10
    7ad8:	f51ff06f          	j	7a28 <.L1456>

00007adc <.L1450>:
    7adc:	00778793          	addi	a5,a5,7
    7ae0:	01079793          	slli	a5,a5,0x10
    7ae4:	0107d793          	srli	a5,a5,0x10
    7ae8:	fd5ff06f          	j	7abc <.L1451>

00007aec <.L1446>:
    7aec:	ec100713          	li	a4,-319
    7af0:	02e3d663          	bge	t2,a4,7b1c <.L1452>
    7af4:	ef600713          	li	a4,-266
    7af8:	00e4da63          	bge	s1,a4,7b0c <.L1453>
    7afc:	00278793          	addi	a5,a5,2
    7b00:	01079793          	slli	a5,a5,0x10
    7b04:	4107d793          	srai	a5,a5,0x10
    7b08:	f05ff06f          	j	7a0c <.L1449>

00007b0c <.L1453>:
    7b0c:	ff978793          	addi	a5,a5,-7
    7b10:	01079793          	slli	a5,a5,0x10
    7b14:	4107d793          	srai	a5,a5,0x10
    7b18:	ef5ff06f          	j	7a0c <.L1449>

00007b1c <.L1452>:
    7b1c:	06f00713          	li	a4,111
    7b20:	eeb756e3          	bge	a4,a1,7a0c <.L1449>
    7b24:	ff778793          	addi	a5,a5,-9
    7b28:	01079793          	slli	a5,a5,0x10
    7b2c:	4107d793          	srai	a5,a5,0x10
    7b30:	eddff06f          	j	7a0c <.L1449>

00007b34 <.L1455>:
    7b34:	ffec0c13          	addi	s8,s8,-2
    7b38:	010c1c13          	slli	s8,s8,0x10
    7b3c:	410c5c13          	srai	s8,s8,0x10
    7b40:	ee9ff06f          	j	7a28 <.L1456>

00007b44 <.L1454>:
    7b44:	02600713          	li	a4,38
    7b48:	f6c74ee3          	blt	a4,a2,7ac4 <.L1457>
    7b4c:	03c00713          	li	a4,60
    7b50:	ecb75ce3          	bge	a4,a1,7a28 <.L1456>
    7b54:	006c0c13          	addi	s8,s8,6
    7b58:	010c1c13          	slli	s8,s8,0x10
    7b5c:	410c5c13          	srai	s8,s8,0x10
    7b60:	ec9ff06f          	j	7a28 <.L1456>

00007b64 <.L1458>:
    7b64:	05800713          	li	a4,88
    7b68:	03674663          	blt	a4,s6,7b94 <.L1460>
    7b6c:	f5300713          	li	a4,-173
    7b70:	00e3da63          	bge	t2,a4,7b84 <.L1461>
    7b74:	00cd0713          	addi	a4,s10,12
    7b78:	01071713          	slli	a4,a4,0x10
    7b7c:	41075713          	srai	a4,a4,0x10
    7b80:	ebdff06f          	j	7a3c <.L1459>

00007b84 <.L1461>:
    7b84:	001d0713          	addi	a4,s10,1
    7b88:	01071713          	slli	a4,a4,0x10
    7b8c:	41075713          	srai	a4,a4,0x10
    7b90:	eadff06f          	j	7a3c <.L1459>

00007b94 <.L1460>:
    7b94:	03c00713          	li	a4,60
    7b98:	00d74a63          	blt	a4,a3,7bac <.L1462>
    7b9c:	fffd0713          	addi	a4,s10,-1
    7ba0:	01071713          	slli	a4,a4,0x10
    7ba4:	41075713          	srai	a4,a4,0x10
    7ba8:	e95ff06f          	j	7a3c <.L1459>

00007bac <.L1462>:
    7bac:	001d0713          	addi	a4,s10,1
    7bb0:	01071713          	slli	a4,a4,0x10
    7bb4:	41075713          	srai	a4,a4,0x10
    7bb8:	e85ff06f          	j	7a3c <.L1459>

00007bbc <.L1646>:
    7bbc:	ffac8c93          	addi	s9,s9,-6
    7bc0:	010c9c93          	slli	s9,s9,0x10
    7bc4:	410cdc93          	srai	s9,s9,0x10

00007bc8 <.L1465>:
    7bc8:	ef600593          	li	a1,-266
    7bcc:	16b4d263          	bge	s1,a1,7d30 <.L1469>
    7bd0:	ff800593          	li	a1,-8
    7bd4:	12b35463          	bge	t1,a1,7cfc <.L1470>
    7bd8:	01c51503          	lh	a0,28(a0)
    7bdc:	01e00593          	li	a1,30
    7be0:	10a5c663          	blt	a1,a0,7cec <.L1471>
    7be4:	00278793          	addi	a5,a5,2
    7be8:	01079793          	slli	a5,a5,0x10
    7bec:	4107d793          	srai	a5,a5,0x10

00007bf0 <.L1472>:
    7bf0:	25b00593          	li	a1,603
    7bf4:	18c5c863          	blt	a1,a2,7d84 <.L1477>

00007bf8 <.L1570>:
    7bf8:	00e00593          	li	a1,14
    7bfc:	1bc5cc63          	blt	a1,t3,7db4 <.L1478>
    7c00:	f6300593          	li	a1,-157
    7c04:	1ab85063          	bge	a6,a1,7da4 <.L1479>
    7c08:	ffcc0c13          	addi	s8,s8,-4
    7c0c:	010c1c13          	slli	s8,s8,0x10
    7c10:	410c5c13          	srai	s8,s8,0x10

00007c14 <.L1480>:
    7c14:	02800593          	li	a1,40
    7c18:	1b25cc63          	blt	a1,s2,7dd0 <.L1483>
    7c1c:	03c00593          	li	a1,60
    7c20:	20d5d063          	bge	a1,a3,7e20 <.L1482>

00007c24 <.L1487>:
    7c24:	f7a00593          	li	a1,-134
    7c28:	24b45c63          	bge	s0,a1,7e80 <.L1490>
    7c2c:	f4000593          	li	a1,-192
    7c30:	22b45463          	bge	s0,a1,7e58 <.L1491>
    7c34:	efb00593          	li	a1,-261
    7c38:	00b44863          	blt	s0,a1,7c48 <.L1492>
    7c3c:	004c8c93          	addi	s9,s9,4
    7c40:	010c9c93          	slli	s9,s9,0x10
    7c44:	410cdc93          	srai	s9,s9,0x10

00007c48 <.L1492>:
    7c48:	03300593          	li	a1,51
    7c4c:	2de5c263          	blt	a1,t5,7f10 <.L1497>
    7c50:	11700593          	li	a1,279
    7c54:	28c5ca63          	blt	a1,a2,7ee8 <.L1498>
    7c58:	ffe00613          	li	a2,-2
    7c5c:	26ce5e63          	bge	t3,a2,7ed8 <.L1499>
    7c60:	fff78793          	addi	a5,a5,-1
    7c64:	01079613          	slli	a2,a5,0x10
    7c68:	41065613          	srai	a2,a2,0x10

00007c6c <.L1500>:
    7c6c:	f5b00593          	li	a1,-165
    7c70:	38bade63          	bge	s5,a1,800c <.L1505>
    7c74:	f5600793          	li	a5,-170
    7c78:	30f45063          	bge	s0,a5,7f78 <.L1506>
    7c7c:	03a00793          	li	a5,58
    7c80:	2fe7c463          	blt	a5,t5,7f68 <.L1507>
    7c84:	ffec0793          	addi	a5,s8,-2
    7c88:	01079793          	slli	a5,a5,0x10
    7c8c:	4107d793          	srai	a5,a5,0x10
    7c90:	2f40006f          	j	7f84 <.L1508>

00007c94 <.L1466>:
    7c94:	005c8c93          	addi	s9,s9,5
    7c98:	010c9c93          	slli	s9,s9,0x10
    7c9c:	410cdc93          	srai	s9,s9,0x10
    7ca0:	f29ff06f          	j	7bc8 <.L1465>

00007ca4 <.L1463>:
    7ca4:	0ba00593          	li	a1,186
    7ca8:	0175ce63          	blt	a1,s7,7cc4 <.L1467>
    7cac:	0ac00593          	li	a1,172
    7cb0:	f175dce3          	bge	a1,s7,7bc8 <.L1465>
    7cb4:	007c8c93          	addi	s9,s9,7
    7cb8:	010c9c93          	slli	s9,s9,0x10
    7cbc:	410cdc93          	srai	s9,s9,0x10
    7cc0:	f09ff06f          	j	7bc8 <.L1465>

00007cc4 <.L1467>:
    7cc4:	17300593          	li	a1,371
    7cc8:	0125ca63          	blt	a1,s2,7cdc <.L1468>
    7ccc:	ffbc8c93          	addi	s9,s9,-5
    7cd0:	010c9c93          	slli	s9,s9,0x10
    7cd4:	410cdc93          	srai	s9,s9,0x10
    7cd8:	ef1ff06f          	j	7bc8 <.L1465>

00007cdc <.L1468>:
    7cdc:	002c8c93          	addi	s9,s9,2
    7ce0:	010c9c93          	slli	s9,s9,0x10
    7ce4:	410cdc93          	srai	s9,s9,0x10
    7ce8:	ee1ff06f          	j	7bc8 <.L1465>

00007cec <.L1471>:
    7cec:	ffd78793          	addi	a5,a5,-3
    7cf0:	01079793          	slli	a5,a5,0x10
    7cf4:	4107d793          	srai	a5,a5,0x10
    7cf8:	ef9ff06f          	j	7bf0 <.L1472>

00007cfc <.L1470>:
    7cfc:	01100593          	li	a1,17
    7d00:	0055d863          	bge	a1,t0,7d10 <.L1473>
    7d04:	00878793          	addi	a5,a5,8
    7d08:	01079793          	slli	a5,a5,0x10
    7d0c:	4107d793          	srai	a5,a5,0x10

00007d10 <.L1473>:
    7d10:	25b00593          	li	a1,603
    7d14:	eec5d2e3          	bge	a1,a2,7bf8 <.L1570>

00007d18 <.L1484>:
    7d18:	eb700593          	li	a1,-329
    7d1c:	0eb85a63          	bge	a6,a1,7e10 <.L1486>
    7d20:	fffc0c13          	addi	s8,s8,-1
    7d24:	010c1c13          	slli	s8,s8,0x10
    7d28:	410c5c13          	srai	s8,s8,0x10
    7d2c:	ee9ff06f          	j	7c14 <.L1480>

00007d30 <.L1469>:
    7d30:	00c00593          	li	a1,12
    7d34:	03f5c663          	blt	a1,t6,7d60 <.L1474>
    7d38:	00b00593          	li	a1,11
    7d3c:	0055ca63          	blt	a1,t0,7d50 <.L1475>
    7d40:	ffb78793          	addi	a5,a5,-5
    7d44:	01079793          	slli	a5,a5,0x10
    7d48:	4107d793          	srai	a5,a5,0x10
    7d4c:	ea5ff06f          	j	7bf0 <.L1472>

00007d50 <.L1475>:
    7d50:	00578793          	addi	a5,a5,5
    7d54:	01079793          	slli	a5,a5,0x10
    7d58:	4107d793          	srai	a5,a5,0x10
    7d5c:	e95ff06f          	j	7bf0 <.L1472>

00007d60 <.L1474>:
    7d60:	3fb00593          	li	a1,1019
    7d64:	00c5ca63          	blt	a1,a2,7d78 <.L1476>
    7d68:	ff878793          	addi	a5,a5,-8
    7d6c:	01079793          	slli	a5,a5,0x10
    7d70:	4107d793          	srai	a5,a5,0x10
    7d74:	e7dff06f          	j	7bf0 <.L1472>

00007d78 <.L1476>:
    7d78:	00278793          	addi	a5,a5,2
    7d7c:	01079793          	slli	a5,a5,0x10
    7d80:	4107d793          	srai	a5,a5,0x10

00007d84 <.L1477>:
    7d84:	fe900593          	li	a1,-23
    7d88:	f8b358e3          	bge	t1,a1,7d18 <.L1484>
    7d8c:	dde00593          	li	a1,-546
    7d90:	06b45863          	bge	s0,a1,7e00 <.L1485>
    7d94:	004c0c13          	addi	s8,s8,4
    7d98:	010c1c13          	slli	s8,s8,0x10
    7d9c:	410c5c13          	srai	s8,s8,0x10
    7da0:	e75ff06f          	j	7c14 <.L1480>

00007da4 <.L1479>:
    7da4:	003c0c13          	addi	s8,s8,3
    7da8:	010c1c13          	slli	s8,s8,0x10
    7dac:	410c5c13          	srai	s8,s8,0x10
    7db0:	e65ff06f          	j	7c14 <.L1480>

00007db4 <.L1478>:
    7db4:	03b00593          	li	a1,59
    7db8:	02d5cc63          	blt	a1,a3,7df0 <.L1481>
    7dbc:	004c0c13          	addi	s8,s8,4
    7dc0:	010c1c13          	slli	s8,s8,0x10
    7dc4:	410c5c13          	srai	s8,s8,0x10
    7dc8:	02800593          	li	a1,40
    7dcc:	0525da63          	bge	a1,s2,7e20 <.L1482>

00007dd0 <.L1483>:
    7dd0:	06b00593          	li	a1,107
    7dd4:	0765c663          	blt	a1,s6,7e40 <.L1488>
    7dd8:	f9500593          	li	a1,-107
    7ddc:	04b3da63          	bge	t2,a1,7e30 <.L1489>
    7de0:	00970713          	addi	a4,a4,9
    7de4:	01071713          	slli	a4,a4,0x10
    7de8:	41075713          	srai	a4,a4,0x10
    7dec:	e39ff06f          	j	7c24 <.L1487>

00007df0 <.L1481>:
    7df0:	fffc0c13          	addi	s8,s8,-1
    7df4:	010c1c13          	slli	s8,s8,0x10
    7df8:	410c5c13          	srai	s8,s8,0x10
    7dfc:	e19ff06f          	j	7c14 <.L1480>

00007e00 <.L1485>:
    7e00:	ffcc0c13          	addi	s8,s8,-4
    7e04:	010c1c13          	slli	s8,s8,0x10
    7e08:	410c5c13          	srai	s8,s8,0x10
    7e0c:	e09ff06f          	j	7c14 <.L1480>

00007e10 <.L1486>:
    7e10:	ff8c0c13          	addi	s8,s8,-8
    7e14:	010c1c13          	slli	s8,s8,0x10
    7e18:	410c5c13          	srai	s8,s8,0x10
    7e1c:	df9ff06f          	j	7c14 <.L1480>

00007e20 <.L1482>:
    7e20:	ff970713          	addi	a4,a4,-7
    7e24:	01071713          	slli	a4,a4,0x10
    7e28:	41075713          	srai	a4,a4,0x10
    7e2c:	df9ff06f          	j	7c24 <.L1487>

00007e30 <.L1489>:
    7e30:	ffe70713          	addi	a4,a4,-2
    7e34:	01071713          	slli	a4,a4,0x10
    7e38:	41075713          	srai	a4,a4,0x10
    7e3c:	de9ff06f          	j	7c24 <.L1487>

00007e40 <.L1488>:
    7e40:	ffc00593          	li	a1,-4
    7e44:	deb340e3          	blt	t1,a1,7c24 <.L1487>
    7e48:	ff970713          	addi	a4,a4,-7
    7e4c:	01071713          	slli	a4,a4,0x10
    7e50:	41075713          	srai	a4,a4,0x10
    7e54:	dd1ff06f          	j	7c24 <.L1487>

00007e58 <.L1491>:
    7e58:	ff700593          	li	a1,-9
    7e5c:	00b35a63          	bge	t1,a1,7e70 <.L1493>
    7e60:	007c8c93          	addi	s9,s9,7
    7e64:	010c9c93          	slli	s9,s9,0x10
    7e68:	410cdc93          	srai	s9,s9,0x10
    7e6c:	dddff06f          	j	7c48 <.L1492>

00007e70 <.L1493>:
    7e70:	ff9c8c93          	addi	s9,s9,-7
    7e74:	010c9c93          	slli	s9,s9,0x10
    7e78:	410cdc93          	srai	s9,s9,0x10
    7e7c:	dcdff06f          	j	7c48 <.L1492>

00007e80 <.L1490>:
    7e80:	00b00593          	li	a1,11
    7e84:	0345c663          	blt	a1,s4,7eb0 <.L1494>
    7e88:	19f00593          	li	a1,415
    7e8c:	0175ca63          	blt	a1,s7,7ea0 <.L1495>
    7e90:	008c8c93          	addi	s9,s9,8
    7e94:	010c9c93          	slli	s9,s9,0x10
    7e98:	410cdc93          	srai	s9,s9,0x10
    7e9c:	dadff06f          	j	7c48 <.L1492>

00007ea0 <.L1495>:
    7ea0:	fffc8c93          	addi	s9,s9,-1
    7ea4:	010c9c93          	slli	s9,s9,0x10
    7ea8:	410cdc93          	srai	s9,s9,0x10
    7eac:	d9dff06f          	j	7c48 <.L1492>

00007eb0 <.L1494>:
    7eb0:	f8d00593          	li	a1,-115
    7eb4:	00b4da63          	bge	s1,a1,7ec8 <.L1496>
    7eb8:	004c8c93          	addi	s9,s9,4
    7ebc:	010c9c93          	slli	s9,s9,0x10
    7ec0:	410cdc93          	srai	s9,s9,0x10
    7ec4:	d85ff06f          	j	7c48 <.L1492>

00007ec8 <.L1496>:
    7ec8:	ff9c8c93          	addi	s9,s9,-7
    7ecc:	010c9c93          	slli	s9,s9,0x10
    7ed0:	410cdc93          	srai	s9,s9,0x10
    7ed4:	d75ff06f          	j	7c48 <.L1492>

00007ed8 <.L1499>:
    7ed8:	ff978793          	addi	a5,a5,-7
    7edc:	01079613          	slli	a2,a5,0x10
    7ee0:	41065613          	srai	a2,a2,0x10
    7ee4:	d89ff06f          	j	7c6c <.L1500>

00007ee8 <.L1498>:
    7ee8:	0ff00613          	li	a2,255
    7eec:	01164a63          	blt	a2,a7,7f00 <.L1501>
    7ef0:	ffd78793          	addi	a5,a5,-3
    7ef4:	01079613          	slli	a2,a5,0x10
    7ef8:	41065613          	srai	a2,a2,0x10
    7efc:	d71ff06f          	j	7c6c <.L1500>

00007f00 <.L1501>:
    7f00:	00378793          	addi	a5,a5,3
    7f04:	01079613          	slli	a2,a5,0x10
    7f08:	41065613          	srai	a2,a2,0x10
    7f0c:	d61ff06f          	j	7c6c <.L1500>

00007f10 <.L1497>:
    7f10:	02b00593          	li	a1,43
    7f14:	03c5c663          	blt	a1,t3,7f40 <.L1502>
    7f18:	00c00613          	li	a2,12
    7f1c:	01364a63          	blt	a2,s3,7f30 <.L1503>
    7f20:	00178793          	addi	a5,a5,1
    7f24:	01079613          	slli	a2,a5,0x10
    7f28:	41065613          	srai	a2,a2,0x10
    7f2c:	d41ff06f          	j	7c6c <.L1500>

00007f30 <.L1503>:
    7f30:	ffe78793          	addi	a5,a5,-2
    7f34:	01079613          	slli	a2,a5,0x10
    7f38:	41065613          	srai	a2,a2,0x10
    7f3c:	d31ff06f          	j	7c6c <.L1500>

00007f40 <.L1502>:
    7f40:	1fa00593          	li	a1,506
    7f44:	00c5ca63          	blt	a1,a2,7f58 <.L1504>
    7f48:	ffa78793          	addi	a5,a5,-6
    7f4c:	01079613          	slli	a2,a5,0x10
    7f50:	41065613          	srai	a2,a2,0x10
    7f54:	d19ff06f          	j	7c6c <.L1500>

00007f58 <.L1504>:
    7f58:	fff78793          	addi	a5,a5,-1
    7f5c:	01079613          	slli	a2,a5,0x10
    7f60:	41065613          	srai	a2,a2,0x10
    7f64:	d09ff06f          	j	7c6c <.L1500>

00007f68 <.L1507>:
    7f68:	002c0793          	addi	a5,s8,2
    7f6c:	01079793          	slli	a5,a5,0x10
    7f70:	4107d793          	srai	a5,a5,0x10
    7f74:	0100006f          	j	7f84 <.L1508>

00007f78 <.L1506>:
    7f78:	00fc0793          	addi	a5,s8,15
    7f7c:	01079793          	slli	a5,a5,0x10
    7f80:	4107d793          	srai	a5,a5,0x10

00007f84 <.L1508>:
    7f84:	c0000693          	li	a3,-1024
    7f88:	0ad85663          	bge	a6,a3,8034 <.L1510>
    7f8c:	00670713          	addi	a4,a4,6
    7f90:	01071713          	slli	a4,a4,0x10
    7f94:	41075713          	srai	a4,a4,0x10

00007f98 <.L1511>:
    7f98:	020c8c93          	addi	s9,s9,32
    7f9c:	01911c23          	sh	s9,24(sp)
    7fa0:	02060693          	addi	a3,a2,32
    7fa4:	00d11d23          	sh	a3,26(sp)
    7fa8:	02078793          	addi	a5,a5,32
    7fac:	00f11e23          	sh	a5,28(sp)
    7fb0:	02070713          	addi	a4,a4,32
    7fb4:	00e11f23          	sh	a4,30(sp)
    7fb8:	00400593          	li	a1,4
    7fbc:	01810513          	addi	a0,sp,24
    7fc0:	00000097          	auipc	ra,0x0
    7fc4:	000080e7          	jalr	ra # 7fc0 <.L1511+0x28>
    7fc8:	01051513          	slli	a0,a0,0x10
    7fcc:	41055513          	srai	a0,a0,0x10
    7fd0:	05c12083          	lw	ra,92(sp)
    7fd4:	05812403          	lw	s0,88(sp)
    7fd8:	05412483          	lw	s1,84(sp)
    7fdc:	05012903          	lw	s2,80(sp)
    7fe0:	04c12983          	lw	s3,76(sp)
    7fe4:	04812a03          	lw	s4,72(sp)
    7fe8:	04412a83          	lw	s5,68(sp)
    7fec:	04012b03          	lw	s6,64(sp)
    7ff0:	03c12b83          	lw	s7,60(sp)
    7ff4:	03812c03          	lw	s8,56(sp)
    7ff8:	03412c83          	lw	s9,52(sp)
    7ffc:	03012d03          	lw	s10,48(sp)
    8000:	02c12d83          	lw	s11,44(sp)
    8004:	06010113          	addi	sp,sp,96
    8008:	00008067          	ret

0000800c <.L1505>:
    800c:	01600793          	li	a5,22
    8010:	00d7ca63          	blt	a5,a3,8024 <.L1509>
    8014:	001c0793          	addi	a5,s8,1
    8018:	01079793          	slli	a5,a5,0x10
    801c:	4107d793          	srai	a5,a5,0x10
    8020:	f65ff06f          	j	7f84 <.L1508>

00008024 <.L1509>:
    8024:	ff9c0793          	addi	a5,s8,-7
    8028:	01079793          	slli	a5,a5,0x10
    802c:	4107d793          	srai	a5,a5,0x10
    8030:	f55ff06f          	j	7f84 <.L1508>

00008034 <.L1510>:
    8034:	02c00693          	li	a3,44
    8038:	01f6ce63          	blt	a3,t6,8054 <.L1512>
    803c:	02b00693          	li	a3,43
    8040:	f5f6dce3          	bge	a3,t6,7f98 <.L1511>
    8044:	00870713          	addi	a4,a4,8
    8048:	01071713          	slli	a4,a4,0x10
    804c:	41075713          	srai	a4,a4,0x10
    8050:	f49ff06f          	j	7f98 <.L1511>

00008054 <.L1512>:
    8054:	e1500693          	li	a3,-491
    8058:	f4d3c0e3          	blt	t2,a3,7f98 <.L1511>
    805c:	ff770713          	addi	a4,a4,-9
    8060:	01071713          	slli	a4,a4,0x10
    8064:	41075713          	srai	a4,a4,0x10
    8068:	f31ff06f          	j	7f98 <.L1511>

0000806c <.L1322>:
    806c:	03c00d13          	li	s10,60
    8070:	00dd4463          	blt	s10,a3,8078 <.L1323>
    8074:	fbdfe06f          	j	7030 <.L1515>

00008078 <.L1323>:
    8078:	daa00d13          	li	s10,-598
    807c:	01a4c463          	blt	s1,s10,8084 <.L1323+0xc>
    8080:	f39fe06f          	j	6fb8 <.L1330>
    8084:	ff300d13          	li	s10,-13
    8088:	01a35863          	bge	t1,s10,8098 <.L1331>
    808c:	00670713          	addi	a4,a4,6
    8090:	01071713          	slli	a4,a4,0x10
    8094:	41075713          	srai	a4,a4,0x10

00008098 <.L1331>:
    8098:	05800d13          	li	s10,88
    809c:	016d4463          	blt	s10,s6,80a4 <.L1333>
    80a0:	fadfe06f          	j	704c <.L1514>

000080a4 <.L1333>:
    80a4:	1a500d13          	li	s10,421
    80a8:	8b2d4e63          	blt	s10,s2,7164 <.L1334>
    80ac:	001c0c13          	addi	s8,s8,1
    80b0:	010c1c13          	slli	s8,s8,0x10
    80b4:	410c5c13          	srai	s8,s8,0x10
    80b8:	f9dfe06f          	j	7054 <.L1332>

000080bc <.L1222>:
    80bc:	01500d13          	li	s10,21
    80c0:	01cd4463          	blt	s10,t3,80c8 <.L1227>
    80c4:	e3cfe06f          	j	6700 <.L1221>

000080c8 <.L1227>:
    80c8:	1df00d13          	li	s10,479
    80cc:	01dd5463          	bge	s10,t4,80d4 <.L1227+0xc>
    80d0:	f9cfe06f          	j	686c <.L1229>
    80d4:	ffa70713          	addi	a4,a4,-6
    80d8:	01071713          	slli	a4,a4,0x10
    80dc:	41075713          	srai	a4,a4,0x10
    80e0:	e3cfe06f          	j	671c <.L1225>

000080e4 <.L1003>:
    80e4:	04900d13          	li	s10,73
    80e8:	01fd4463          	blt	s10,t6,80f0 <.L1527>
    80ec:	ddcfd06f          	j	56c8 <.L1526>

000080f0 <.L1527>:
    80f0:	01c51d03          	lh	s10,28(a0)
    80f4:	01a04463          	bgtz	s10,80fc <.L1527+0xc>
    80f8:	c50fd06f          	j	5548 <.L1010>
    80fc:	00970713          	addi	a4,a4,9
    8100:	01071713          	slli	a4,a4,0x10
    8104:	41075713          	srai	a4,a4,0x10
    8108:	c40fd06f          	j	5548 <.L1010>

0000810c <.L476>:
    810c:	07200793          	li	a5,114
    8110:	00c7c463          	blt	a5,a2,8118 <.L477>
    8114:	921fa06f          	j	2a34 <.L1550>

00008118 <.L477>:
    8118:	2aa00793          	li	a5,682
    811c:	00b7c463          	blt	a5,a1,8124 <.L477+0xc>
    8120:	881fa06f          	j	29a0 <.L1549>
    8124:	4be00793          	li	a5,1214
    8128:	00c7d463          	bge	a5,a2,8130 <.L477+0x18>
    812c:	949fa06f          	j	2a74 <.L485>
    8130:	ff728293          	addi	t0,t0,-9
    8134:	01029293          	slli	t0,t0,0x10
    8138:	4102d293          	srai	t0,t0,0x10
    813c:	87dfa06f          	j	29b8 <.L484>

00008140 <.L1522>:
    8140:	0c100d13          	li	s10,193
    8144:	017d4463          	blt	s10,s7,814c <.L1113>
    8148:	bbdfd06f          	j	5d04 <.L1577>

0000814c <.L1113>:
    814c:	007c0c13          	addi	s8,s8,7
    8150:	010c1c13          	slli	s8,s8,0x10
    8154:	410c5c13          	srai	s8,s8,0x10
    8158:	de9fd06f          	j	5f40 <.L1112>

0000815c <.L737>:
    815c:	1f500793          	li	a5,501
    8160:	00c7c463          	blt	a5,a2,8168 <.L741>
    8164:	e99fb06f          	j	3ffc <.L742>

00008168 <.L741>:
    8168:	ddc00793          	li	a5,-548
    816c:	00f44463          	blt	s0,a5,8174 <.L741+0xc>
    8170:	e9dfb06f          	j	400c <.L744>
    8174:	ffa98793          	addi	a5,s3,-6
    8178:	01079793          	slli	a5,a5,0x10
    817c:	4107d793          	srai	a5,a5,0x10
    8180:	e51fb06f          	j	3fd0 <.L743>

00008184 <.L1619>:
    8184:	3fa00e13          	li	t3,1018
    8188:	00ce4463          	blt	t3,a2,8190 <.L1581>
    818c:	e81f906f          	j	200c <.L1553>

00008190 <.L1581>:
    8190:	ff770713          	addi	a4,a4,-9
    8194:	01071713          	slli	a4,a4,0x10
    8198:	41075713          	srai	a4,a4,0x10
    819c:	cd5f906f          	j	1e70 <.L364>

000081a0 <.L1615>:
    81a0:	01e51703          	lh	a4,30(a0)
    81a4:	d2500793          	li	a5,-731
    81a8:	00f75463          	bge	a4,a5,81b0 <.L203>
    81ac:	e61f806f          	j	100c <.L1583>

000081b0 <.L203>:
    81b0:	ff6f0f13          	addi	t5,t5,-10
    81b4:	010f1f13          	slli	t5,t5,0x10
    81b8:	410f5f13          	srai	t5,t5,0x10
    81bc:	e65f806f          	j	1020 <.L202>

000081c0 <.L1613>:
    81c0:	05700593          	li	a1,87
    81c4:	0115c463          	blt	a1,a7,81cc <.L70>
    81c8:	c90f806f          	j	658 <.L71>

000081cc <.L70>:
    81cc:	02800593          	li	a1,40
    81d0:	00d5d463          	bge	a1,a3,81d8 <.L70+0xc>
    81d4:	c94f806f          	j	668 <.L72>
    81d8:	00580813          	addi	a6,a6,5
    81dc:	01081813          	slli	a6,a6,0x10
    81e0:	41085813          	srai	a6,a6,0x10
    81e4:	9c4f806f          	j	3a8 <.L68>

000081e8 <.L1590>:
    81e8:	ff600793          	li	a5,-10

000081ec <.L22>:
    81ec:	01651683          	lh	a3,22(a0)
    81f0:	ea700713          	li	a4,-345
    81f4:	ff700313          	li	t1,-9
    81f8:	00e6cc63          	blt	a3,a4,8210 <.L29>

000081fc <.L28>:
    81fc:	01451683          	lh	a3,20(a0)
    8200:	ef500713          	li	a4,-267
    8204:	ff400313          	li	t1,-12
    8208:	00e6d463          	bge	a3,a4,8210 <.L29>
    820c:	ff900313          	li	t1,-7

00008210 <.L29>:
    8210:	00051683          	lh	a3,0(a0)
    8214:	03e00713          	li	a4,62
    8218:	00d75463          	bge	a4,a3,8220 <.L1568>
    821c:	860f806f          	j	27c <.L30>

00008220 <.L1568>:
    8220:	01e51583          	lh	a1,30(a0)
    8224:	d8200713          	li	a4,-638
    8228:	00e5c463          	blt	a1,a4,8230 <.L1568+0x10>
    822c:	834f806f          	j	260 <.L31>
    8230:	02251703          	lh	a4,34(a0)
    8234:	27300593          	li	a1,627
    8238:	00e5a733          	slt	a4,a1,a4
    823c:	40e00733          	neg	a4,a4
    8240:	fd577713          	andi	a4,a4,-43
    8244:	02470713          	addi	a4,a4,36

00008248 <.L32>:
    8248:	05700593          	li	a1,87
    824c:	0115d463          	bge	a1,a7,8254 <.L32+0xc>
    8250:	868f806f          	j	2b8 <.L33>
    8254:	00851e03          	lh	t3,8(a0)
    8258:	02200593          	li	a1,34
    825c:	01c5d463          	bge	a1,t3,8264 <.L32+0x1c>
    8260:	830f806f          	j	290 <.L34>
    8264:	00c51e03          	lh	t3,12(a0)
    8268:	0b400593          	li	a1,180
    826c:	01c5d463          	bge	a1,t3,8274 <.L32+0x2c>
    8270:	894f806f          	j	304 <.L35>
    8274:	01480813          	addi	a6,a6,20
    8278:	01081813          	slli	a6,a6,0x10
    827c:	41085813          	srai	a6,a6,0x10
    8280:	884f806f          	j	304 <.L35>
