
model_m2cgen_editado.o:     formato de ficheiro elf32-littleriscv


Desmontagem da secção .text:

00000000 <argmax>:
       0:	00100793          	li	a5,1
       4:	02b7dc63          	bge	a5,a1,3c <.L5>
       8:	00051803          	lh	a6,0(a0)
       c:	00250713          	addi	a4,a0,2
      10:	00000513          	li	a0,0

00000014 <.L4>:
      14:	00071683          	lh	a3,0(a4)
      18:	00178613          	addi	a2,a5,1
      1c:	00270713          	addi	a4,a4,2
      20:	00d85663          	bge	a6,a3,2c <.L3>
      24:	00068813          	mv	a6,a3
      28:	00078513          	mv	a0,a5

0000002c <.L3>:
      2c:	01061793          	slli	a5,a2,0x10
      30:	4107d793          	srai	a5,a5,0x10
      34:	feb790e3          	bne	a5,a1,14 <.L4>
      38:	00008067          	ret

0000003c <.L5>:
      3c:	00000513          	li	a0,0
      40:	00008067          	ret

00000044 <score>:
      44:	00451f03          	lh	t5,4(a0)
      48:	ce010113          	addi	sp,sp,-800
      4c:	30812e23          	sw	s0,796(sp)
      50:	30912c23          	sw	s1,792(sp)
      54:	31212a23          	sw	s2,788(sp)
      58:	31312823          	sw	s3,784(sp)
      5c:	31412623          	sw	s4,780(sp)
      60:	31512423          	sw	s5,776(sp)
      64:	31612223          	sw	s6,772(sp)
      68:	31712023          	sw	s7,768(sp)
      6c:	2f812e23          	sw	s8,764(sp)
      70:	2f912c23          	sw	s9,760(sp)
      74:	2fa12a23          	sw	s10,756(sp)
      78:	2fb12823          	sw	s11,752(sp)
      7c:	04600793          	li	a5,70
      80:	4be7d863          	bge	a5,t5,530 <.L10>
      84:	02251983          	lh	s3,34(a0)
      88:	0d900793          	li	a5,217
      8c:	5f37d663          	bge	a5,s3,678 <.L11>
      90:	01a51403          	lh	s0,26(a0)
      94:	f2900793          	li	a5,-215
      98:	5ef45e63          	bge	s0,a5,694 <.L2713>
      9c:	00e51383          	lh	t2,14(a0)
      a0:	ff500793          	li	a5,-11
      a4:	26f12623          	sw	a5,620(sp)

000000a8 <.L12>:
      a8:	05700793          	li	a5,87
      ac:	01e7c463          	blt	a5,t5,b4 <.L12+0xc>
      b0:	4d41206f          	j	12584 <.L6072>
      b4:	01051b03          	lh	s6,16(a0)
      b8:	0ac00793          	li	a5,172
      bc:	0167c463          	blt	a5,s6,c4 <.L12+0x1c>
      c0:	6d80106f          	j	1798 <.L17>
      c4:	00851583          	lh	a1,8(a0)
      c8:	0d900793          	li	a5,217
      cc:	0005d463          	bgez	a1,d4 <.L12+0x2c>
      d0:	72c0406f          	j	47fc <.L18>
      d4:	0137d463          	bge	a5,s3,dc <.L12+0x34>
      d8:	7c00406f          	j	4898 <.L2716>
      dc:	02451a03          	lh	s4,36(a0)
      e0:	01651483          	lh	s1,22(a0)
      e4:	00c51f83          	lh	t6,12(a0)
      e8:	ff600793          	li	a5,-10
      ec:	2af12a23          	sw	a5,692(sp)

000000f0 <.L20>:
      f0:	01a00793          	li	a5,26
      f4:	00b7d463          	bge	a5,a1,fc <.L21>
      f8:	28c0406f          	j	4384 <.L6073>

000000fc <.L21>:
      fc:	0da00793          	li	a5,218
     100:	01f7c463          	blt	a5,t6,108 <.L21+0xc>
     104:	2c80206f          	j	23cc <.L2726>
     108:	11800793          	li	a5,280
     10c:	01f7c463          	blt	a5,t6,114 <.L21+0x18>
     110:	0101d06f          	j	1d120 <.L2727>
     114:	fff00793          	li	a5,-1
     118:	1af12423          	sw	a5,424(sp)

0000011c <.L36>:
     11c:	00651a83          	lh	s5,6(a0)
     120:	02651283          	lh	t0,38(a0)
     124:	00a51603          	lh	a2,10(a0)
     128:	1a012223          	sw	zero,420(sp)
     12c:	20012023          	sw	zero,512(sp)

00000130 <.L35>:
     130:	efb00793          	li	a5,-261
     134:	4af4de63          	bge	s1,a5,5f0 <.L5509>

00000138 <.L6077>:
     138:	00051783          	lh	a5,0(a0)

0000013c <.L53>:
     13c:	08700713          	li	a4,135
     140:	01e74463          	blt	a4,t5,148 <.L53+0xc>
     144:	1880406f          	j	42cc <.L58>
     148:	01251903          	lh	s2,18(a0)
     14c:	00d00693          	li	a3,13
     150:	09a92713          	slti	a4,s2,154
     154:	fff70713          	addi	a4,a4,-1
     158:	00774713          	xori	a4,a4,7
     15c:	2ae12023          	sw	a4,672(sp)
     160:	0146d463          	bge	a3,s4,168 <.L53+0x2c>
     164:	0b50106f          	j	1a18 <.L59>
     168:	00300693          	li	a3,3
     16c:	0f400713          	li	a4,244
     170:	20d12223          	sw	a3,516(sp)
     174:	01e75663          	bge	a4,t5,180 <.L63>
     178:	ffa00713          	li	a4,-6
     17c:	20e12223          	sw	a4,516(sp)

00000180 <.L63>:
     180:	0a900713          	li	a4,169
     184:	01375463          	bge	a4,s3,18c <.L64>
     188:	5400106f          	j	16c8 <.L51>

0000018c <.L64>:
     18c:	01d00713          	li	a4,29
     190:	58b74463          	blt	a4,a1,718 <.L2711>
     194:	11800713          	li	a4,280
     198:	01f74463          	blt	a4,t6,1a0 <.L64+0x14>
     19c:	1dc0206f          	j	2378 <.L2712>
     1a0:	f5c00713          	li	a4,-164
     1a4:	00e45463          	bge	s0,a4,1ac <.L64+0x20>
     1a8:	0250406f          	j	49cc <.L2673>
     1ac:	03200713          	li	a4,50
     1b0:	00774463          	blt	a4,t2,1b8 <.L64+0x2c>
     1b4:	5680506f          	j	571c <.L5428>
     1b8:	fff00713          	li	a4,-1
     1bc:	2ce12e23          	sw	a4,732(sp)
     1c0:	ffe00713          	li	a4,-2
     1c4:	2ce12c23          	sw	a4,728(sp)
     1c8:	ff800b93          	li	s7,-8

000001cc <.L75>:
     1cc:	01d00713          	li	a4,29
     1d0:	7ab744e3          	blt	a4,a1,1178 <.L2672>
     1d4:	11800713          	li	a4,280
     1d8:	01f75463          	bge	a4,t6,1e0 <.L75+0x14>
     1dc:	7d50306f          	j	41b0 <.L86>
     1e0:	00900713          	li	a4,9
     1e4:	0ae12623          	sw	a4,172(sp)

000001e8 <.L82>:
     1e8:	5a05d463          	bgez	a1,790 <.L6074>

000001ec <.L87>:
     1ec:	18f00713          	li	a4,399
     1f0:	00c74463          	blt	a4,a2,1f8 <.L87+0xc>
     1f4:	2350106f          	j	1c28 <.L102>
     1f8:	0dd00713          	li	a4,221
     1fc:	01e74463          	blt	a4,t5,204 <.L87+0x18>
     200:	20d0106f          	j	1c0c <.L103>
     204:	0a900713          	li	a4,169
     208:	01374463          	blt	a4,s3,210 <.L87+0x24>
     20c:	7c90306f          	j	41d4 <.L99>
     210:	02a51803          	lh	a6,42(a0)
     214:	ff800713          	li	a4,-8
     218:	28e12423          	sw	a4,648(sp)

0000021c <.L90>:
     21c:	10700713          	li	a4,263
     220:	00574463          	blt	a4,t0,228 <.L90+0xc>
     224:	6400106f          	j	1864 <.L105>
     228:	00400693          	li	a3,4
     22c:	e4300713          	li	a4,-445
     230:	16d12423          	sw	a3,360(sp)
     234:	00e45663          	bge	s0,a4,240 <.L106>
     238:	ff600713          	li	a4,-10
     23c:	16e12423          	sw	a4,360(sp)

00000240 <.L106>:
     240:	01e00713          	li	a4,30
     244:	01474463          	blt	a4,s4,24c <.L106+0xc>
     248:	62c0106f          	j	1874 <.L108>
     24c:	0005c463          	bltz	a1,254 <.L106+0x14>
     250:	4ec0406f          	j	473c <.L2778>
     254:	0cd00713          	li	a4,205
     258:	00c74463          	blt	a4,a2,260 <.L106+0x20>
     25c:	5380406f          	j	4794 <.L2779>
     260:	0def2713          	slti	a4,t5,222
     264:	fff70713          	addi	a4,a4,-1
     268:	00774713          	xori	a4,a4,7
     26c:	01451883          	lh	a7,20(a0)
     270:	24e12423          	sw	a4,584(sp)
     274:	ff700713          	li	a4,-9
     278:	2ce12623          	sw	a4,716(sp)

0000027c <.L112>:
     27c:	10700713          	li	a4,263
     280:	00574463          	blt	a4,t0,288 <.L112+0xc>
     284:	5580406f          	j	47dc <.L134>
     288:	e4342713          	slti	a4,s0,-445
     28c:	40e00733          	neg	a4,a4
     290:	ff477713          	andi	a4,a4,-12
     294:	00370713          	addi	a4,a4,3
     298:	24e12023          	sw	a4,576(sp)

0000029c <.L135>:
     29c:	ffe00713          	li	a4,-2
     2a0:	00e5c463          	blt	a1,a4,2a8 <.L135+0xc>
     2a4:	7791c06f          	j	1d21c <.L6075>
     2a8:	0a400713          	li	a4,164
     2ac:	00c74463          	blt	a4,a2,2b4 <.L135+0x18>
     2b0:	4440106f          	j	16f4 <.L142>
     2b4:	0dd00713          	li	a4,221
     2b8:	01e74463          	blt	a4,t5,2c0 <.L135+0x24>
     2bc:	7310106f          	j	21ec <.L143>
     2c0:	01f00713          	li	a4,31
     2c4:	01475463          	bge	a4,s4,2cc <.L135+0x30>
     2c8:	6a40406f          	j	496c <.L2804>
     2cc:	02051e83          	lh	t4,32(a0)
     2d0:	ff900713          	li	a4,-7
     2d4:	26e12c23          	sw	a4,632(sp)
     2d8:	51d05463          	blez	t4,7e0 <.L5713>

000002dc <.L2809>:
     2dc:	01851683          	lh	a3,24(a0)
     2e0:	02851e03          	lh	t3,40(a0)

000002e4 <.L145>:
     2e4:	ffc00313          	li	t1,-4
     2e8:	00300713          	li	a4,3
     2ec:	1c612023          	sw	t1,448(sp)
     2f0:	01d75663          	bge	a4,t4,2fc <.L146>
     2f4:	00100713          	li	a4,1
     2f8:	1ce12023          	sw	a4,448(sp)

000002fc <.L146>:
     2fc:	0a900713          	li	a4,169
     300:	4f375c63          	bge	a4,s3,7f8 <.L151>

00000304 <.L6089>:
     304:	01f00713          	li	a4,31
     308:	00ea1463          	bne	s4,a4,310 <.L6089+0xc>
     30c:	6c90106f          	j	21d4 <.L2816>
     310:	03c00713          	li	a4,60
     314:	00f72733          	slt	a4,a4,a5
     318:	40e00733          	neg	a4,a4
     31c:	00677713          	andi	a4,a4,6
     320:	fff70713          	addi	a4,a4,-1
     324:	1ae12c23          	sw	a4,440(sp)

00000328 <.L150>:
     328:	ec600713          	li	a4,-314
     32c:	4ee44663          	blt	s0,a4,818 <.L154>

00000330 <.L6090>:
     330:	01e51303          	lh	t1,30(a0)
     334:	ebf00713          	li	a4,-321
     338:	00e35463          	bge	t1,a4,340 <.L6090+0x10>
     33c:	11c0106f          	j	1458 <.L155>
     340:	fff00c13          	li	s8,-1
     344:	03b00713          	li	a4,59
     348:	1f812223          	sw	s8,484(sp)
     34c:	00f75663          	bge	a4,a5,358 <.L156>
     350:	00400713          	li	a4,4
     354:	1ee12223          	sw	a4,484(sp)

00000358 <.L156>:
     358:	00c00713          	li	a4,12
     35c:	4f475663          	bge	a4,s4,848 <.L161>

00000360 <.L6091>:
     360:	01c51c03          	lh	s8,28(a0)
     364:	03500713          	li	a4,53
     368:	01874463          	blt	a4,s8,370 <.L6091+0x10>
     36c:	2400106f          	j	15ac <.L162>
     370:	13100713          	li	a4,305
     374:	01672733          	slt	a4,a4,s6
     378:	40e00733          	neg	a4,a4
     37c:	ff177713          	andi	a4,a4,-15
     380:	00870713          	addi	a4,a4,8
     384:	28e12623          	sw	a4,652(sp)

00000388 <.L163>:
     388:	fa300713          	li	a4,-93
     38c:	00e8d463          	bge	a7,a4,394 <.L163+0xc>
     390:	1c00106f          	j	1550 <.L175>
     394:	00251703          	lh	a4,2(a0)

00000398 <.L173>:
     398:	11c00c13          	li	s8,284
     39c:	01fc4463          	blt	s8,t6,3a4 <.L173+0xc>
     3a0:	0c50106f          	j	1c64 <.L176>
     3a4:	02300c13          	li	s8,35
     3a8:	00cc2c33          	slt	s8,s8,a2
     3ac:	41800c33          	neg	s8,s8
     3b0:	00ec7c13          	andi	s8,s8,14
     3b4:	ff8c0c13          	addi	s8,s8,-8
     3b8:	23812823          	sw	s8,560(sp)

000003bc <.L178>:
     3bc:	01f00c13          	li	s8,31
     3c0:	4d4c5c63          	bge	s8,s4,898 <.L169>
     3c4:	00600c13          	li	s8,6
     3c8:	06012a23          	sw	zero,116(sp)
     3cc:	010c5663          	bge	s8,a6,3d8 <.L179>
     3d0:	ff700c13          	li	s8,-9
     3d4:	07812a23          	sw	s8,116(sp)

000003d8 <.L179>:
     3d8:	ffe00c13          	li	s8,-2
     3dc:	4f85d063          	bge	a1,s8,8bc <.L181>

000003e0 <.L182>:
     3e0:	0a400c13          	li	s8,164
     3e4:	00cc4463          	blt	s8,a2,3ec <.L182+0xc>
     3e8:	4c80106f          	j	18b0 <.L185>
     3ec:	0c100c13          	li	s8,193
     3f0:	01ec4463          	blt	s8,t5,3f8 <.L182+0x18>
     3f4:	7350306f          	j	4328 <.L2839>
     3f8:	01500c13          	li	s8,21
     3fc:	745c4c63          	blt	s8,t0,b54 <.L2840>
     400:	ffa00c13          	li	s8,-6
     404:	1d812623          	sw	s8,460(sp)
     408:	ffd00c13          	li	s8,-3
     40c:	11812223          	sw	s8,260(sp)

00000410 <.L187>:
     410:	01f00c13          	li	s8,31
     414:	4f4c4c63          	blt	s8,s4,90c <.L190>

00000418 <.L194>:
     418:	03b00c13          	li	s8,59
     41c:	76fc50e3          	bge	s8,a5,137c <.L191>
     420:	e218ac13          	slti	s8,a7,-479
     424:	41800c33          	neg	s8,s8
     428:	ff3c7c13          	andi	s8,s8,-13
     42c:	004c0c13          	addi	s8,s8,4
     430:	19812a23          	sw	s8,404(sp)

00000434 <.L195>:
     434:	00400c13          	li	s8,4
     438:	4f0c4663          	blt	s8,a6,924 <.L192>

0000043c <.L196>:
     43c:	00c00c93          	li	s9,12
     440:	03a00c13          	li	s8,58
     444:	05912a23          	sw	s9,84(sp)
     448:	007c5663          	bge	s8,t2,454 <.L198>
     44c:	00100c13          	li	s8,1
     450:	05812a23          	sw	s8,84(sp)

00000454 <.L198>:
     454:	01500c13          	li	s8,21
     458:	4e5c4863          	blt	s8,t0,948 <.L193>

0000045c <.L200>:
     45c:	00800c93          	li	s9,8
     460:	07000c13          	li	s8,112
     464:	03912c23          	sw	s9,56(sp)
     468:	01fc5e63          	bge	s8,t6,484 <.L202>
     46c:	00400c93          	li	s9,4
     470:	00700c13          	li	s8,7
     474:	03912c23          	sw	s9,56(sp)
     478:	01dc4663          	blt	s8,t4,484 <.L202>

0000047c <.L203>:
     47c:	ffd00c13          	li	s8,-3
     480:	03812c23          	sw	s8,56(sp)

00000484 <.L202>:
     484:	ffe00c13          	li	s8,-2
     488:	4f85c463          	blt	a1,s8,970 <.L204>

0000048c <.L6092>:
     48c:	03c00c93          	li	s9,60
     490:	00fcc463          	blt	s9,a5,498 <.L6092+0xc>
     494:	3b80106f          	j	184c <.L205>
     498:	00800c93          	li	s9,8
     49c:	ec700c13          	li	s8,-313
     4a0:	11912e23          	sw	s9,284(sp)
     4a4:	01845663          	bge	s0,s8,4b0 <.L207>
     4a8:	fff00c13          	li	s8,-1
     4ac:	11812e23          	sw	s8,284(sp)

000004b0 <.L207>:
     4b0:	fa300c13          	li	s8,-93
     4b4:	4f88c063          	blt	a7,s8,994 <.L212>
     4b8:	ffd00c93          	li	s9,-3
     4bc:	01f00c13          	li	s8,31
     4c0:	15912423          	sw	s9,328(sp)
     4c4:	00bc4463          	blt	s8,a1,4cc <.L213>
     4c8:	29c0106f          	j	1764 <.L211>

000004cc <.L213>:
     4cc:	01f00c13          	li	s8,31
     4d0:	4f4c5663          	bge	s8,s4,9bc <.L215>

000004d4 <.L6093>:
     4d4:	00700c13          	li	s8,7
     4d8:	450c4ae3          	blt	s8,a6,112c <.L2868>
     4dc:	00400c13          	li	s8,4
     4e0:	010c4463          	blt	s8,a6,4e8 <.L6093+0x14>
     4e4:	6310106f          	j	2314 <.L2869>
     4e8:	ff800c93          	li	s9,-8
     4ec:	6996c863          	blt	a3,s9,b7c <.L218>
     4f0:	f5c00c13          	li	s8,-164
     4f4:	01845463          	bge	s0,s8,4fc <.L6093+0x28>
     4f8:	2600506f          	j	5758 <.L6076>
     4fc:	39000c13          	li	s8,912
     500:	01ec4463          	blt	s8,t5,508 <.L6093+0x34>
     504:	6001306f          	j	13b04 <.L2872>
     508:	14e00c13          	li	s8,334
     50c:	00cc5463          	bge	s8,a2,514 <.L6093+0x40>
     510:	3201706f          	j	17830 <.L2873>
     514:	fff00c13          	li	s8,-1
     518:	27812423          	sw	s8,616(sp)
     51c:	00200c13          	li	s8,2
     520:	15812a23          	sw	s8,340(sp)
     524:	01200c13          	li	s8,18
     528:	27812e23          	sw	s8,636(sp)
     52c:	6800006f          	j	bac <.L221>

00000530 <.L10>:
     530:	02451a03          	lh	s4,36(a0)
     534:	01900793          	li	a5,25
     538:	0f47d463          	bge	a5,s4,620 <.L14>
     53c:	01f00793          	li	a5,31
     540:	1747ca63          	blt	a5,s4,6b4 <.L15>
     544:	00900793          	li	a5,9

00000548 <.L5696>:
     548:	02251983          	lh	s3,34(a0)
     54c:	01a51403          	lh	s0,26(a0)
     550:	00e51383          	lh	t2,14(a0)
     554:	01651483          	lh	s1,22(a0)
     558:	26f12623          	sw	a5,620(sp)

0000055c <.L16>:
     55c:	00851583          	lh	a1,8(a0)
     560:	02200793          	li	a5,34
     564:	0eb7d463          	bge	a5,a1,64c <.L23>

00000568 <.L6081>:
     568:	00651a83          	lh	s5,6(a0)
     56c:	fba00793          	li	a5,-70
     570:	00fad463          	bge	s5,a5,578 <.L6081+0x10>
     574:	5d10106f          	j	2344 <.L24>
     578:	0d900793          	li	a5,217
     57c:	0137d463          	bge	a5,s3,584 <.L6081+0x1c>
     580:	1ad0406f          	j	4f2c <.L2719>
     584:	01051b03          	lh	s6,16(a0)
     588:	00c51f83          	lh	t6,12(a0)
     58c:	00100793          	li	a5,1
     590:	2af12a23          	sw	a5,692(sp)

00000594 <.L2679>:
     594:	02651283          	lh	t0,38(a0)
     598:	ff700713          	li	a4,-9
     59c:	fe800793          	li	a5,-24
     5a0:	1ae12223          	sw	a4,420(sp)
     5a4:	00f2d663          	bge	t0,a5,5b0 <.L33>
     5a8:	01100793          	li	a5,17
     5ac:	1af12223          	sw	a5,420(sp)

000005b0 <.L33>:
     5b0:	01c51c03          	lh	s8,28(a0)
     5b4:	03500793          	li	a5,53
     5b8:	00a51603          	lh	a2,10(a0)
     5bc:	0187ac33          	slt	s8,a5,s8
     5c0:	004c1793          	slli	a5,s8,0x4
     5c4:	00078713          	mv	a4,a5
     5c8:	ff770713          	addi	a4,a4,-9
     5cc:	1ae12423          	sw	a4,424(sp)
     5d0:	ff800713          	li	a4,-8
     5d4:	0fd00793          	li	a5,253
     5d8:	20e12023          	sw	a4,512(sp)
     5dc:	b4c7dae3          	bge	a5,a2,130 <.L35>
     5e0:	00800793          	li	a5,8
     5e4:	20f12023          	sw	a5,512(sp)
     5e8:	efb00793          	li	a5,-261
     5ec:	b4f4c6e3          	blt	s1,a5,138 <.L6077>

000005f0 <.L5509>:
     5f0:	01f00793          	li	a5,31
     5f4:	0147c463          	blt	a5,s4,5fc <.L5509+0xc>
     5f8:	4190106f          	j	2210 <.L6078>
     5fc:	0a900793          	li	a5,169
     600:	0137d463          	bge	a5,s3,608 <.L5509+0x18>
     604:	2301d06f          	j	1d834 <.L6079>
     608:	ff600793          	li	a5,-10
     60c:	20f12223          	sw	a5,516(sp)
     610:	2af12023          	sw	a5,672(sp)
     614:	01251903          	lh	s2,18(a0)
     618:	00051783          	lh	a5,0(a0)
     61c:	b71ff06f          	j	18c <.L64>

00000620 <.L14>:
     620:	01651483          	lh	s1,22(a0)
     624:	efc00793          	li	a5,-260
     628:	08f4ca63          	blt	s1,a5,6bc <.L6080>
     62c:	00851583          	lh	a1,8(a0)
     630:	02400793          	li	a5,36
     634:	26f12623          	sw	a5,620(sp)
     638:	02200793          	li	a5,34
     63c:	02251983          	lh	s3,34(a0)
     640:	01a51403          	lh	s0,26(a0)
     644:	00e51383          	lh	t2,14(a0)
     648:	f2b7c0e3          	blt	a5,a1,568 <.L6081>

0000064c <.L23>:
     64c:	00c51f83          	lh	t6,12(a0)
     650:	0b400793          	li	a5,180
     654:	01f7d463          	bge	a5,t6,65c <.L23+0x10>
     658:	55d0106f          	j	23b4 <.L27>
     65c:	0d900793          	li	a5,217
     660:	0137d463          	bge	a5,s3,668 <.L23+0x1c>
     664:	5610306f          	j	43c4 <.L2720>
     668:	01400793          	li	a5,20
     66c:	01051b03          	lh	s6,16(a0)
     670:	2af12a23          	sw	a5,692(sp)
     674:	a7dff06f          	j	f0 <.L20>

00000678 <.L11>:
     678:	00e51383          	lh	t2,14(a0)
     67c:	03c00793          	li	a5,60
     680:	0277d263          	bge	a5,t2,6a4 <.L6082>
     684:	ff500793          	li	a5,-11
     688:	01a51403          	lh	s0,26(a0)
     68c:	26f12623          	sw	a5,620(sp)
     690:	a19ff06f          	j	a8 <.L12>

00000694 <.L2713>:
     694:	ffc00793          	li	a5,-4
     698:	00e51383          	lh	t2,14(a0)
     69c:	26f12623          	sw	a5,620(sp)
     6a0:	a09ff06f          	j	a8 <.L12>

000006a4 <.L6082>:
     6a4:	01c00793          	li	a5,28
     6a8:	01a51403          	lh	s0,26(a0)
     6ac:	26f12623          	sw	a5,620(sp)
     6b0:	9f9ff06f          	j	a8 <.L12>

000006b4 <.L15>:
     6b4:	ff500793          	li	a5,-11
     6b8:	e91ff06f          	j	548 <.L5696>

000006bc <.L6080>:
     6bc:	01300793          	li	a5,19
     6c0:	02251983          	lh	s3,34(a0)
     6c4:	01a51403          	lh	s0,26(a0)
     6c8:	00e51383          	lh	t2,14(a0)
     6cc:	26f12623          	sw	a5,620(sp)
     6d0:	e8dff06f          	j	55c <.L16>

000006d4 <.L6138>:
     6d4:	01900713          	li	a4,25
     6d8:	01475463          	bge	a4,s4,6e0 <.L6138+0xc>
     6dc:	1a11106f          	j	1207c <.L6083>
     6e0:	0be00713          	li	a4,190
     6e4:	01f75463          	bge	a4,t6,6ec <.L6138+0x18>
     6e8:	7840f06f          	j	fe6c <.L6084>
     6ec:	0a900713          	li	a4,169
     6f0:	01375463          	bge	a4,s3,6f8 <.L6138+0x24>
     6f4:	4d00106f          	j	1bc4 <.L6085>
     6f8:	01d00713          	li	a4,29
     6fc:	00b74463          	blt	a4,a1,704 <.L6138+0x30>
     700:	4650106f          	j	2364 <.L6086>
     704:	00a00713          	li	a4,10
     708:	01251903          	lh	s2,18(a0)
     70c:	20e12223          	sw	a4,516(sp)
     710:	00b00713          	li	a4,11
     714:	2ae12023          	sw	a4,672(sp)

00000718 <.L2711>:
     718:	01c51c03          	lh	s8,28(a0)
     71c:	03800713          	li	a4,56
     720:	01874463          	blt	a4,s8,728 <.L2711+0x10>
     724:	40d0106f          	j	2330 <.L2753>
     728:	00600713          	li	a4,6
     72c:	2ce12e23          	sw	a4,732(sp)
     730:	00400713          	li	a4,4
     734:	2ce12c23          	sw	a4,728(sp)

00000738 <.L69>:
     738:	f5c00713          	li	a4,-164
     73c:	20e44ce3          	blt	s0,a4,1154 <.L76>
     740:	0bb00713          	li	a4,187
     744:	01f75463          	bge	a4,t6,74c <.L69+0x14>
     748:	5040106f          	j	1c4c <.L6087>
     74c:	18500b93          	li	s7,389
     750:	012babb3          	slt	s7,s7,s2
     754:	41700bb3          	neg	s7,s7
     758:	ff2bfb93          	andi	s7,s7,-14
     75c:	009b8b93          	addi	s7,s7,9

00000760 <.L78>:
     760:	0a900713          	li	a4,169
     764:	a73754e3          	bge	a4,s3,1cc <.L75>

00000768 <.L2671>:
     768:	ff600693          	li	a3,-10
     76c:	01e00713          	li	a4,30
     770:	0ad12623          	sw	a3,172(sp)
     774:	a7474ae3          	blt	a4,s4,1e8 <.L82>
     778:	ea94a713          	slti	a4,s1,-343
     77c:	40e00733          	neg	a4,a4
     780:	ffa77713          	andi	a4,a4,-6
     784:	00270713          	addi	a4,a4,2
     788:	0ae12623          	sw	a4,172(sp)
     78c:	a605c0e3          	bltz	a1,1ec <.L87>

00000790 <.L6074>:
     790:	000fd463          	bgez	t6,798 <.L6074+0x8>
     794:	1150106f          	j	20a8 <.L88>
     798:	02200713          	li	a4,34
     79c:	00b74463          	blt	a4,a1,7a4 <.L6074+0x14>
     7a0:	1e40406f          	j	4984 <.L89>
     7a4:	0a900713          	li	a4,169
     7a8:	01374463          	blt	a4,s3,7b0 <.L6074+0x20>
     7ac:	4381806f          	j	18be4 <.L6088>
     7b0:	ff700713          	li	a4,-9
     7b4:	02a51803          	lh	a6,42(a0)
     7b8:	28e12423          	sw	a4,648(sp)
     7bc:	a61ff06f          	j	21c <.L90>

000007c0 <.L147>:
     7c0:	01f00713          	li	a4,31
     7c4:	02051e83          	lh	t4,32(a0)
     7c8:	01475463          	bge	a4,s4,7d0 <.L147+0x10>
     7cc:	0210406f          	j	4fec <.L2810>
     7d0:	01d05463          	blez	t4,7d8 <.L147+0x18>
     7d4:	3310406f          	j	5304 <.L2811>
     7d8:	00700713          	li	a4,7
     7dc:	26e12c23          	sw	a4,632(sp)

000007e0 <.L5713>:
     7e0:	00a00713          	li	a4,10
     7e4:	1ce12023          	sw	a4,448(sp)
     7e8:	0a900713          	li	a4,169
     7ec:	01851683          	lh	a3,24(a0)
     7f0:	02851e03          	lh	t3,40(a0)
     7f4:	b13748e3          	blt	a4,s3,304 <.L6089>

000007f8 <.L151>:
     7f8:	fff00713          	li	a4,-1
     7fc:	00eed463          	bge	t4,a4,804 <.L151+0xc>
     800:	3180106f          	j	1b18 <.L153>
     804:	09ffa713          	slti	a4,t6,159
     808:	00371713          	slli	a4,a4,0x3
     80c:	1ae12c23          	sw	a4,440(sp)
     810:	ec600713          	li	a4,-314
     814:	b0e45ee3          	bge	s0,a4,330 <.L6090>

00000818 <.L154>:
     818:	01c51c03          	lh	s8,28(a0)
     81c:	02600713          	li	a4,38
     820:	01874463          	blt	a4,s8,828 <.L154+0x10>
     824:	0a40106f          	j	18c8 <.L158>
     828:	0b900713          	li	a4,185
     82c:	01f75463          	bge	a4,t6,834 <.L154+0x1c>
     830:	2dd0306f          	j	430c <.L2821>
     834:	00600713          	li	a4,6
     838:	1ee12223          	sw	a4,484(sp)
     83c:	00c00713          	li	a4,12
     840:	01e51303          	lh	t1,30(a0)
     844:	b1474ee3          	blt	a4,s4,360 <.L6091>

00000848 <.L161>:
     848:	1b000713          	li	a4,432
     84c:	6d275ae3          	bge	a4,s2,1720 <.L165>
     850:	01c51c03          	lh	s8,28(a0)
     854:	01900713          	li	a4,25
     858:	01875463          	bge	a4,s8,860 <.L161+0x18>
     85c:	3310306f          	j	438c <.L5524>
     860:	00251703          	lh	a4,2(a0)

00000864 <.L166>:
     864:	fa300c13          	li	s8,-93
     868:	0188d463          	bge	a7,s8,870 <.L166+0xc>
     86c:	2790106f          	j	22e4 <.L171>
     870:	11c00c13          	li	s8,284
     874:	01fc4463          	blt	s8,t6,87c <.L166+0x18>
     878:	3980406f          	j	4c10 <.L172>
     87c:	02300c13          	li	s8,35
     880:	00cc4463          	blt	s8,a2,888 <.L166+0x24>
     884:	6b10406f          	j	5734 <.L2825>
     888:	00600c13          	li	s8,6
     88c:	23812823          	sw	s8,560(sp)
     890:	fff00c13          	li	s8,-1
     894:	29812623          	sw	s8,652(sp)

00000898 <.L169>:
     898:	4fd058e3          	blez	t4,1588 <.L180>

0000089c <.L6120>:
     89c:	ffc00c93          	li	s9,-4
     8a0:	00300c13          	li	s8,3
     8a4:	07912a23          	sw	s9,116(sp)
     8a8:	b3dc58e3          	bge	s8,t4,3d8 <.L179>
     8ac:	00100c13          	li	s8,1
     8b0:	07812a23          	sw	s8,116(sp)
     8b4:	ffe00c13          	li	s8,-2
     8b8:	b385c4e3          	blt	a1,s8,3e0 <.L182>

000008bc <.L181>:
     8bc:	03c00c13          	li	s8,60
     8c0:	46fc5ce3          	bge	s8,a5,1538 <.L183>
     8c4:	01c51c03          	lh	s8,28(a0)
     8c8:	01fc2c13          	slti	s8,s8,31
     8cc:	fffc0c13          	addi	s8,s8,-1
     8d0:	ff9c4c13          	xori	s8,s8,-7
     8d4:	1d812623          	sw	s8,460(sp)

000008d8 <.L184>:
     8d8:	01500c13          	li	s8,21
     8dc:	285c4063          	blt	s8,t0,b5c <.L186>
     8e0:	ffd00c93          	li	s9,-3
     8e4:	0ac00c13          	li	s8,172
     8e8:	11912223          	sw	s9,260(sp)
     8ec:	b3ec42e3          	blt	s8,t5,410 <.L187>
     8f0:	ffe6ac13          	slti	s8,a3,-2
     8f4:	41800c33          	neg	s8,s8
     8f8:	00ac7c13          	andi	s8,s8,10
     8fc:	fffc0c13          	addi	s8,s8,-1
     900:	11812223          	sw	s8,260(sp)
     904:	01f00c13          	li	s8,31
     908:	b14c58e3          	bge	s8,s4,418 <.L194>

0000090c <.L190>:
     90c:	00700c13          	li	s8,7
     910:	550c44e3          	blt	s8,a6,1658 <.L2850>
     914:	fff00c13          	li	s8,-1
     918:	19812a23          	sw	s8,404(sp)
     91c:	00400c13          	li	s8,4
     920:	b10c5ee3          	bge	s8,a6,43c <.L196>

00000924 <.L192>:
     924:	00e00c13          	li	s8,14
     928:	55cc50e3          	bge	s8,t3,1668 <.L197>

0000092c <.L6124>:
     92c:	00700c93          	li	s9,7
     930:	0ac00c13          	li	s8,172
     934:	05912a23          	sw	s9,84(sp)
     938:	b13c5ee3          	bge	s8,s3,454 <.L198>
     93c:	04012a23          	sw	zero,84(sp)
     940:	01500c13          	li	s8,21
     944:	b05c5ce3          	bge	s8,t0,45c <.L200>

00000948 <.L193>:
     948:	11d00c13          	li	s8,285
     94c:	7c5c5ee3          	bge	s8,t0,1928 <.L201>
     950:	2ad00c13          	li	s8,685
     954:	01ec2c33          	slt	s8,s8,t5
     958:	41800c33          	neg	s8,s8
     95c:	00bc7c13          	andi	s8,s8,11
     960:	001c0c13          	addi	s8,s8,1
     964:	03812c23          	sw	s8,56(sp)
     968:	ffe00c13          	li	s8,-2
     96c:	b385d0e3          	bge	a1,s8,48c <.L6092>

00000970 <.L204>:
     970:	0ce00c13          	li	s8,206
     974:	78cc58e3          	bge	s8,a2,1904 <.L208>
     978:	02c00c13          	li	s8,44
     97c:	5dcc5ee3          	bge	s8,t3,1758 <.L210>
     980:	fa300c13          	li	s8,-93
     984:	0188c463          	blt	a7,s8,98c <.L204+0x1c>
     988:	5980406f          	j	4f20 <.L2862>
     98c:	ffa00c13          	li	s8,-6
     990:	11812e23          	sw	s8,284(sp)

00000994 <.L212>:
     994:	fa100c13          	li	s8,-95
     998:	5f88c4e3          	blt	a7,s8,1780 <.L214>
     99c:	ffd00c93          	li	s9,-3
     9a0:	fa200c13          	li	s8,-94
     9a4:	15912423          	sw	s9,328(sp)
     9a8:	b38882e3          	beq	a7,s8,4cc <.L213>
     9ac:	fea00c13          	li	s8,-22
     9b0:	15812423          	sw	s8,328(sp)
     9b4:	01f00c13          	li	s8,31
     9b8:	b14c4ee3          	blt	s8,s4,4d4 <.L6093>

000009bc <.L215>:
     9bc:	03d00c13          	li	s8,61
     9c0:	667c50e3          	bge	s8,t2,1820 <.L222>
     9c4:	07100c13          	li	s8,113
     9c8:	01fc2c33          	slt	s8,s8,t6
     9cc:	41800c33          	neg	s8,s8
     9d0:	ff2c7c13          	andi	s8,s8,-14
     9d4:	000c0c93          	mv	s9,s8
     9d8:	00cc8c93          	addi	s9,s9,12
     9dc:	00400c13          	li	s8,4
     9e0:	27912423          	sw	s9,616(sp)
     9e4:	750c4863          	blt	s8,a6,1134 <.L216>

000009e8 <.L2665>:
     9e8:	ffe00c93          	li	s9,-2
     9ec:	fe400c13          	li	s8,-28
     9f0:	15912a23          	sw	s9,340(sp)
     9f4:	01875663          	bge	a4,s8,a00 <.L227>
     9f8:	00600c13          	li	s8,6
     9fc:	15812a23          	sw	s8,340(sp)

00000a00 <.L227>:
     a00:	39000c13          	li	s8,912
     a04:	19ec5663          	bge	s8,t5,b90 <.L220>
     a08:	14e00c13          	li	s8,334
     a0c:	76cc4ae3          	blt	s8,a2,1980 <.L2881>
     a10:	00900c13          	li	s8,9
     a14:	014c5463          	bge	s8,s4,a1c <.L227+0x1c>
     a18:	4b10306f          	j	46c8 <.L2882>
     a1c:	0a900c13          	li	s8,169
     a20:	013c4463          	blt	s8,s3,a28 <.L227+0x28>
     a24:	2400406f          	j	4c64 <.L228>
     a28:	01700c13          	li	s8,23
     a2c:	01cc4463          	blt	s8,t3,a34 <.L227+0x34>
     a30:	55d0406f          	j	578c <.L6094>
     a34:	00300c13          	li	s8,3
     a38:	13812623          	sw	s8,300(sp)
     a3c:	27812e23          	sw	s8,636(sp)

00000a40 <.L229>:
     a40:	03d00c13          	li	s8,61
     a44:	6e7c5ee3          	bge	s8,t2,1940 <.L238>
     a48:	00900c93          	li	s9,9
     a4c:	e0d00c13          	li	s8,-499
     a50:	19912023          	sw	s9,384(sp)
     a54:	018ad663          	bge	s5,s8,a60 <.L240>
     a58:	ffb00c13          	li	s8,-5
     a5c:	19812023          	sw	s8,384(sp)

00000a60 <.L240>:
     a60:	00400c13          	li	s8,4
     a64:	630c4063          	blt	s8,a6,1084 <.L2662>

00000a68 <.L5714>:
     a68:	00300c13          	li	s8,3
     a6c:	1b812a23          	sw	s8,436(sp)
     a70:	e4300c13          	li	s8,-445
     a74:	19844e63          	blt	s0,s8,c10 <.L245>

00000a78 <.L244>:
     a78:	03b00c13          	li	s8,59
     a7c:	3afc5ae3          	bge	s8,a5,1630 <.L246>
     a80:	25b00c13          	li	s8,603
     a84:	00ec2c33          	slt	s8,s8,a4
     a88:	41800c33          	neg	s8,s8
     a8c:	00bc7c13          	andi	s8,s8,11
     a90:	001c0c13          	addi	s8,s8,1
     a94:	27812223          	sw	s8,612(sp)

00000a98 <.L248>:
     a98:	01500c13          	li	s8,21
     a9c:	185c5e63          	bge	s8,t0,c38 <.L251>
     aa0:	0fd00c13          	li	s8,253
     aa4:	325c56e3          	bge	s8,t0,15d0 <.L250>

00000aa8 <.L6121>:
     aa8:	0d000c13          	li	s8,208
     aac:	012c2c33          	slt	s8,s8,s2
     ab0:	41800c33          	neg	s8,s8
     ab4:	ffac7c13          	andi	s8,s8,-6
     ab8:	006c0c13          	addi	s8,s8,6
     abc:	25812c23          	sw	s8,600(sp)
     ac0:	00400c13          	li	s8,4
     ac4:	190c4463          	blt	s8,a6,c4c <.L6095>

00000ac8 <.L254>:
     ac8:	03a00c13          	li	s8,58
     acc:	307c4ce3          	blt	s8,t2,15e4 <.L263>
     ad0:	0a900c13          	li	s8,169
     ad4:	013c4463          	blt	s8,s3,adc <.L254+0x14>
     ad8:	7e80106f          	j	22c0 <.L2905>
     adc:	01700c13          	li	s8,23
     ae0:	6dcc5ce3          	bge	s8,t3,19b8 <.L264>
     ae4:	01c51c03          	lh	s8,28(a0)
     ae8:	02500c93          	li	s9,37
     aec:	018cc463          	blt	s9,s8,af4 <.L254+0x2c>
     af0:	1e50406f          	j	54d4 <.L265>
     af4:	01f00c13          	li	s8,31
     af8:	014c5463          	bge	s8,s4,b00 <.L254+0x38>
     afc:	5a11306f          	j	1489c <.L2906>
     b00:	00400c13          	li	s8,4
     b04:	0b812023          	sw	s8,160(sp)
     b08:	00900c13          	li	s8,9
     b0c:	23812023          	sw	s8,544(sp)

00000b10 <.L262>:
     b10:	07300c13          	li	s8,115
     b14:	01fc5463          	bge	s8,t6,b1c <.L262+0xc>
     b18:	7a40406f          	j	52bc <.L6096>
     b1c:	00c00c13          	li	s8,12
     b20:	010c5463          	bge	s8,a6,b28 <.L296>
     b24:	3241d06f          	j	1de48 <.L6097>

00000b28 <.L296>:
     b28:	00c00c13          	li	s8,12
     b2c:	014c5463          	bge	s8,s4,b34 <.L296+0xc>
     b30:	3101d06f          	j	1de40 <.L6098>
     b34:	39000c13          	li	s8,912
     b38:	01ec5463          	bge	s8,t5,b40 <.L296+0x18>
     b3c:	20c0d06f          	j	dd48 <.L2935>
     b40:	00900c13          	li	s8,9
     b44:	2d812023          	sw	s8,704(sp)
     b48:	24012e23          	sw	zero,604(sp)
     b4c:	0e012c23          	sw	zero,248(sp)
     b50:	3940006f          	j	ee4 <.L279>

00000b54 <.L2840>:
     b54:	ffa00c13          	li	s8,-6
     b58:	1d812623          	sw	s8,460(sp)

00000b5c <.L186>:
     b5c:	0fd00c13          	li	s8,253
     b60:	7e5c5a63          	bge	s8,t0,1354 <.L189>
     b64:	e4342c13          	slti	s8,s0,-445
     b68:	41800c33          	neg	s8,s8
     b6c:	ff4c7c13          	andi	s8,s8,-12
     b70:	003c0c13          	addi	s8,s8,3
     b74:	11812223          	sw	s8,260(sp)
     b78:	899ff06f          	j	410 <.L187>

00000b7c <.L218>:
     b7c:	39000c93          	li	s9,912
     b80:	5fecc4e3          	blt	s9,t5,1968 <.L6099>
     b84:	15812a23          	sw	s8,340(sp)
     b88:	fff00c13          	li	s8,-1
     b8c:	27812423          	sw	s8,616(sp)

00000b90 <.L220>:
     b90:	0ba00c13          	li	s8,186
     b94:	19fc58e3          	bge	s8,t6,1524 <.L231>
     b98:	001eac13          	slti	s8,t4,1
     b9c:	41800c33          	neg	s8,s8
     ba0:	00ac7c13          	andi	s8,s8,10
     ba4:	ffac0c13          	addi	s8,s8,-6
     ba8:	27812e23          	sw	s8,636(sp)

00000bac <.L221>:
     bac:	0a900c13          	li	s8,169
     bb0:	553c4c63          	blt	s8,s3,1108 <.L2663>
     bb4:	01c00c13          	li	s8,28
     bb8:	5efc42e3          	blt	s8,a5,199c <.L2664>
     bbc:	00600c93          	li	s9,6
     bc0:	07300c13          	li	s8,115
     bc4:	13912623          	sw	s9,300(sp)
     bc8:	013c5663          	bge	s8,s3,bd4 <.L234>
     bcc:	fef00c13          	li	s8,-17
     bd0:	13812623          	sw	s8,300(sp)

00000bd4 <.L234>:
     bd4:	01f00c13          	li	s8,31
     bd8:	e74c54e3          	bge	s8,s4,a40 <.L229>
     bdc:	e184ac13          	slti	s8,s1,-488
     be0:	41800c33          	neg	s8,s8
     be4:	006c7c13          	andi	s8,s8,6
     be8:	ff8c0c13          	addi	s8,s8,-8
     bec:	19812023          	sw	s8,384(sp)

00000bf0 <.L237>:
     bf0:	00400c13          	li	s8,4
     bf4:	490c4863          	blt	s8,a6,1084 <.L2662>
     bf8:	00a00c93          	li	s9,10
     bfc:	03800c13          	li	s8,56
     c00:	1b912a23          	sw	s9,436(sp)
     c04:	e67c42e3          	blt	s8,t2,a68 <.L5714>

00000c08 <.L243>:
     c08:	e4300c13          	li	s8,-445
     c0c:	e78456e3          	bge	s0,s8,a78 <.L244>

00000c10 <.L245>:
     c10:	0d400c13          	li	s8,212
     c14:	1a5c46e3          	blt	s8,t0,15c0 <.L2895>
     c18:	0d100c13          	li	s8,209
     c1c:	005c5463          	bge	s8,t0,c24 <.L245+0x14>
     c20:	6940106f          	j	22b4 <.L2896>
     c24:	01500c13          	li	s8,21
     c28:	005c5463          	bge	s8,t0,c30 <.L245+0x20>
     c2c:	0700406f          	j	4c9c <.L2897>
     c30:	ffb00c13          	li	s8,-5
     c34:	27812223          	sw	s8,612(sp)

00000c38 <.L251>:
     c38:	071fac13          	slti	s8,t6,113
     c3c:	003c1c13          	slli	s8,s8,0x3
     c40:	25812c23          	sw	s8,600(sp)

00000c44 <.L252>:
     c44:	00400c13          	li	s8,4
     c48:	e90c50e3          	bge	s8,a6,ac8 <.L254>

00000c4c <.L6095>:
     c4c:	ff800c13          	li	s8,-8
     c50:	3986c4e3          	blt	a3,s8,17d8 <.L255>
     c54:	00100c93          	li	s9,1
     c58:	f5c00c13          	li	s8,-164
     c5c:	23912023          	sw	s9,544(sp)
     c60:	01845663          	bge	s0,s8,c6c <.L257>
     c64:	ffc00c13          	li	s8,-4
     c68:	23812023          	sw	s8,544(sp)

00000c6c <.L257>:
     c6c:	0a900c13          	li	s8,169
     c70:	1f3c5a63          	bge	s8,s3,e64 <.L258>
     c74:	fff00c93          	li	s9,-1
     c78:	01700c13          	li	s8,23
     c7c:	0b912023          	sw	s9,160(sp)
     c80:	03cc5063          	bge	s8,t3,ca0 <.L270>

00000c84 <.L268>:
     c84:	01c51c03          	lh	s8,28(a0)
     c88:	fff00d13          	li	s10,-1
     c8c:	02500c93          	li	s9,37
     c90:	0ba12023          	sw	s10,160(sp)
     c94:	018cd663          	bge	s9,s8,ca0 <.L270>
     c98:	00400c13          	li	s8,4
     c9c:	0b812023          	sw	s8,160(sp)

00000ca0 <.L270>:
     ca0:	01f00c13          	li	s8,31
     ca4:	1f4c4463          	blt	s8,s4,e8c <.L261>

00000ca8 <.L272>:
     ca8:	04600c13          	li	s8,70
     cac:	6f0c5ae3          	bge	s8,a6,1ba0 <.L269>
     cb0:	03b00c13          	li	s8,59
     cb4:	01ec5463          	bge	s8,t5,cbc <.L272+0x14>
     cb8:	63c0306f          	j	42f4 <.L276>
     cbc:	07300c13          	li	s8,115
     cc0:	01fc5463          	bge	s8,t6,cc8 <.L272+0x20>
     cc4:	6ad0306f          	j	4b70 <.L277>
     cc8:	03c00c13          	li	s8,60
     ccc:	007c4463          	blt	s8,t2,cd4 <.L272+0x2c>
     cd0:	2790406f          	j	5748 <.L6100>
     cd4:	00600c13          	li	s8,6
     cd8:	2d812023          	sw	s8,704(sp)
     cdc:	24012e23          	sw	zero,604(sp)

00000ce0 <.L5715>:
     ce0:	0e012c23          	sw	zero,248(sp)

00000ce4 <.L6130>:
     ce4:	01500c13          	li	s8,21
     ce8:	205c5263          	bge	s8,t0,eec <.L304>

00000cec <.L288>:
     cec:	16200c13          	li	s8,354
     cf0:	025c50e3          	bge	s8,t0,1510 <.L305>
     cf4:	e7b32c13          	slti	s8,t1,-389
     cf8:	41800c33          	neg	s8,s8
     cfc:	ff6c7c13          	andi	s8,s8,-10
     d00:	004c0c13          	addi	s8,s8,4
     d04:	2b812823          	sw	s8,688(sp)
     d08:	00400c13          	li	s8,4
     d0c:	1f0c4c63          	blt	s8,a6,f04 <.L6101>

00000d10 <.L306>:
     d10:	00800c93          	li	s9,8
     d14:	03800c13          	li	s8,56
     d18:	09912223          	sw	s9,132(sp)
     d1c:	207c5463          	bge	s8,t2,f24 <.L308>
     d20:	00200c13          	li	s8,2
     d24:	09812223          	sw	s8,132(sp)
     d28:	0a900c13          	li	s8,169
     d2c:	213c4063          	blt	s8,s3,f2c <.L6102>

00000d30 <.L309>:
     d30:	01c00c13          	li	s8,28
     d34:	74fc5063          	bge	s8,a5,1474 <.L323>
     d38:	0ca00c13          	li	s8,202
     d3c:	00ec2c33          	slt	s8,s8,a4
     d40:	41800c33          	neg	s8,s8
     d44:	ff7c7c13          	andi	s8,s8,-9
     d48:	006c0c13          	addi	s8,s8,6
     d4c:	29812823          	sw	s8,656(sp)

00000d50 <.L324>:
     d50:	01e00c13          	li	s8,30
     d54:	5f4c42e3          	blt	s8,s4,1b38 <.L6103>
     d58:	03d00c13          	li	s8,61
     d5c:	467c5c63          	bge	s8,t2,11d4 <.L338>
     d60:	07100c13          	li	s8,113
     d64:	35fc5e63          	bge	s8,t6,10c0 <.L339>
     d68:	00400c13          	li	s8,4
     d6c:	010c5463          	bge	s8,a6,d74 <.L324+0x24>
     d70:	0801306f          	j	13df0 <.L2984>
     d74:	00100c13          	li	s8,1
     d78:	1d812223          	sw	s8,452(sp)
     d7c:	ffe00c13          	li	s8,-2
     d80:	29812a23          	sw	s8,660(sp)

00000d84 <.L328>:
     d84:	ffa00c13          	li	s8,-6
     d88:	03812223          	sw	s8,36(sp)
     d8c:	000ece63          	bltz	t4,da8 <.L348>
     d90:	ffe00c93          	li	s9,-2
     d94:	02d00c13          	li	s8,45
     d98:	03912223          	sw	s9,36(sp)
     d9c:	007c5663          	bge	s8,t2,da8 <.L348>
     da0:	00500c13          	li	s8,5
     da4:	03812223          	sw	s8,36(sp)

00000da8 <.L348>:
     da8:	f7a00c13          	li	s8,-134
     dac:	4784ce63          	blt	s1,s8,1228 <.L349>
     db0:	00b00c13          	li	s8,11
     db4:	214c4463          	blt	s8,s4,fbc <.L350>
     db8:	00800c93          	li	s9,8
     dbc:	19f00c13          	li	s8,415
     dc0:	11912a23          	sw	s9,276(sp)
     dc4:	21fc5863          	bge	s8,t6,fd4 <.L351>
     dc8:	fff00c13          	li	s8,-1
     dcc:	11812a23          	sw	s8,276(sp)
     dd0:	2df00c13          	li	s8,735
     dd4:	20ec5463          	bge	s8,a4,fdc <.L355>

00000dd8 <.L2661>:
     dd8:	7e700c13          	li	s8,2023
     ddc:	62cc5063          	bge	s8,a2,13fc <.L356>
     de0:	06a00c13          	li	s8,106
     de4:	01cc2c33          	slt	s8,s8,t3
     de8:	41800c33          	neg	s8,s8
     dec:	026c7c13          	andi	s8,s8,38
     df0:	000c0c93          	mv	s9,s8
     df4:	ff4c8c93          	addi	s9,s9,-12
     df8:	6ca00c13          	li	s8,1738
     dfc:	15912823          	sw	s9,336(sp)
     e00:	00ec4463          	blt	s8,a4,e08 <.L2661+0x30>
     e04:	4980106f          	j	229c <.L374>
     e08:	00001c37          	lui	s8,0x1
     e0c:	01100c93          	li	s9,17
     e10:	9f8c0c13          	addi	s8,s8,-1544 # 9f8 <.L2665+0x10>
     e14:	29912c23          	sw	s9,664(sp)
     e18:	00ec4463          	blt	s8,a4,e20 <.L2709>
     e1c:	5410e06f          	j	fb5c <.L6104>

00000e20 <.L2709>:
     e20:	03d00c13          	li	s8,61
     e24:	00fc4463          	blt	s8,a5,e2c <.L2709+0xc>
     e28:	0b80406f          	j	4ee0 <.L387>
     e2c:	21a00c13          	li	s8,538
     e30:	013c4463          	blt	s8,s3,e38 <.L2709+0x18>
     e34:	7400406f          	j	5574 <.L6105>
     e38:	35d00c13          	li	s8,861
     e3c:	013c4463          	blt	s8,s3,e44 <.L2709+0x24>
     e40:	1e51406f          	j	15824 <.L6106>
     e44:	00300c13          	li	s8,3
     e48:	1d812423          	sw	s8,456(sp)
     e4c:	00e00c13          	li	s8,14
     e50:	1e012823          	sw	zero,496(sp)
     e54:	15812623          	sw	s8,332(sp)
     e58:	64d0006f          	j	1ca4 <.L389>

00000e5c <.L2908>:
     e5c:	00100c13          	li	s8,1
     e60:	23812023          	sw	s8,544(sp)

00000e64 <.L258>:
     e64:	01c00c13          	li	s8,28
     e68:	28fc50e3          	bge	s8,a5,18e8 <.L271>
     e6c:	ffe00c93          	li	s9,-2
     e70:	04c00c13          	li	s8,76
     e74:	0b912023          	sw	s9,160(sp)
     e78:	e36c54e3          	bge	s8,s6,ca0 <.L270>
     e7c:	00700c13          	li	s8,7
     e80:	0b812023          	sw	s8,160(sp)
     e84:	01f00c13          	li	s8,31
     e88:	e34c50e3          	bge	s8,s4,ca8 <.L272>

00000e8c <.L261>:
     e8c:	07300c13          	li	s8,115
     e90:	3bfc4a63          	blt	s8,t6,1244 <.L2920>
     e94:	ff900c93          	li	s9,-7
     e98:	00c00c13          	li	s8,12
     e9c:	25912e23          	sw	s9,604(sp)
     ea0:	350c54e3          	bge	s8,a6,19e8 <.L275>

00000ea4 <.L274>:
     ea4:	03c00c13          	li	s8,60
     ea8:	347c50e3          	bge	s8,t2,19e8 <.L275>
     eac:	00600c93          	li	s9,6
     eb0:	39000c13          	li	s8,912
     eb4:	2d912023          	sw	s9,704(sp)
     eb8:	e3ec54e3          	bge	s8,t5,ce0 <.L5715>

00000ebc <.L298>:
     ebc:	00b00c93          	li	s9,11
     ec0:	01c00c13          	li	s8,28
     ec4:	0f912c23          	sw	s9,248(sp)
     ec8:	00ec5e63          	bge	s8,a4,ee4 <.L279>

00000ecc <.L300>:
     ecc:	00600c93          	li	s9,6
     ed0:	04100c13          	li	s8,65
     ed4:	0f912c23          	sw	s9,248(sp)
     ed8:	00cc5663          	bge	s8,a2,ee4 <.L279>
     edc:	ffe00c13          	li	s8,-2
     ee0:	0f812c23          	sw	s8,248(sp)

00000ee4 <.L279>:
     ee4:	01500c13          	li	s8,21
     ee8:	e05c42e3          	blt	s8,t0,cec <.L288>

00000eec <.L304>:
     eec:	00700c93          	li	s9,7
     ef0:	07000c13          	li	s8,112
     ef4:	2b912823          	sw	s9,688(sp)
     ef8:	3bfc4063          	blt	s8,t6,1298 <.L289>

00000efc <.L290>:
     efc:	00400c13          	li	s8,4
     f00:	e10c58e3          	bge	s8,a6,d10 <.L306>

00000f04 <.L6101>:
     f04:	00e00c13          	li	s8,14
     f08:	71cc5663          	bge	s8,t3,1614 <.L307>
     f0c:	01c51c03          	lh	s8,28(a0)
     f10:	03400c93          	li	s9,52
     f14:	018cacb3          	slt	s9,s9,s8
     f18:	41900cb3          	neg	s9,s9
     f1c:	005cfc13          	andi	s8,s9,5
     f20:	09812223          	sw	s8,132(sp)

00000f24 <.L308>:
     f24:	0a900c13          	li	s8,169
     f28:	e13c54e3          	bge	s8,s3,d30 <.L309>

00000f2c <.L6102>:
     f2c:	eba00c13          	li	s8,-326
     f30:	59834a63          	blt	t1,s8,14c4 <.L310>
     f34:	11500c13          	li	s8,277
     f38:	016c5463          	bge	s8,s6,f40 <.L6102+0x14>
     f3c:	3500306f          	j	428c <.L311>
     f40:	01e00c13          	li	s8,30
     f44:	014c4463          	blt	s8,s4,f4c <.L6102+0x20>
     f48:	7090306f          	j	4e50 <.L312>
     f4c:	00400c13          	li	s8,4
     f50:	010c4463          	blt	s8,a6,f58 <.L6102+0x2c>
     f54:	55c0406f          	j	54b0 <.L313>
     f58:	ff800c13          	li	s8,-8
     f5c:	0186d463          	bge	a3,s8,f64 <.L6102+0x38>
     f60:	6b11206f          	j	13e10 <.L2951>
     f64:	0b300c13          	li	s8,179
     f68:	005c5463          	bge	s8,t0,f70 <.L6102+0x44>
     f6c:	3691606f          	j	17ad4 <.L2952>
     f70:	ff900c13          	li	s8,-7
     f74:	29812a23          	sw	s8,660(sp)
     f78:	28012823          	sw	zero,656(sp)

00000f7c <.L316>:
     f7c:	ffc00c93          	li	s9,-4
     f80:	1d912223          	sw	s9,452(sp)
     f84:	ffb00c93          	li	s9,-5
     f88:	0ba00c13          	li	s8,186
     f8c:	03912223          	sw	s9,36(sp)
     f90:	e1fc4ce3          	blt	s8,t6,da8 <.L348>

00000f94 <.L344>:
     f94:	0ac00c13          	li	s8,172
     f98:	27fc5663          	bge	s8,t6,1204 <.L318>
     f9c:	f7a00c13          	li	s8,-134
     fa0:	0184d463          	bge	s1,s8,fa8 <.L344+0x14>
     fa4:	1390306f          	j	48dc <.L2998>
     fa8:	00b00c13          	li	s8,11
     fac:	014c4463          	blt	s8,s4,fb4 <.L344+0x20>
     fb0:	6940406f          	j	5644 <.L6107>
     fb4:	00700c13          	li	s8,7
     fb8:	03812223          	sw	s8,36(sp)

00000fbc <.L350>:
     fbc:	ff900c93          	li	s9,-7
     fc0:	f8d00c13          	li	s8,-115
     fc4:	11912a23          	sw	s9,276(sp)
     fc8:	018ad663          	bge	s5,s8,fd4 <.L351>
     fcc:	00400c13          	li	s8,4
     fd0:	11812a23          	sw	s8,276(sp)

00000fd4 <.L351>:
     fd4:	2df00c13          	li	s8,735
     fd8:	e0ec40e3          	blt	s8,a4,dd8 <.L2661>

00000fdc <.L355>:
     fdc:	ffd00c13          	li	s8,-3
     fe0:	3d86c663          	blt	a3,s8,13ac <.L360>
     fe4:	f4700c93          	li	s9,-185
     fe8:	2b9adc63          	bge	s5,s9,12a0 <.L361>
     fec:	1b500c93          	li	s9,437
     ff0:	00ecc463          	blt	s9,a4,ff8 <.L355+0x1c>
     ff4:	32d0306f          	j	4b20 <.L370>
     ff8:	40a00c13          	li	s8,1034
     ffc:	00cc4463          	blt	s8,a2,1004 <.L355+0x28>
    1000:	5680406f          	j	5568 <.L6108>
    1004:	01f00c93          	li	s9,31
    1008:	1de00c13          	li	s8,478
    100c:	15912823          	sw	s9,336(sp)
    1010:	00ec5463          	bge	s8,a4,1018 <.L355+0x3c>
    1014:	2880106f          	j	229c <.L374>
    1018:	f1900c13          	li	s8,-231
    101c:	018ac463          	blt	s5,s8,1024 <.L355+0x48>
    1020:	39d1706f          	j	18bbc <.L5485>
    1024:	ff600c13          	li	s8,-10
    1028:	29812c23          	sw	s8,664(sp)
    102c:	01200c13          	li	s8,18
    1030:	15812623          	sw	s8,332(sp)

00001034 <.L393>:
    1034:	03d00c13          	li	s8,61
    1038:	00fc4463          	blt	s8,a5,1040 <.L393+0xc>
    103c:	5b01406f          	j	155ec <.L403>
    1040:	21a00c13          	li	s8,538
    1044:	013c5463          	bge	s8,s3,104c <.L393+0x18>
    1048:	1981706f          	j	181e0 <.L404>
    104c:	ff500c13          	li	s8,-11
    1050:	1f812823          	sw	s8,496(sp)

00001054 <.L405>:
    1054:	ff700c93          	li	s9,-9
    1058:	00400c13          	li	s8,4
    105c:	1d912423          	sw	s9,456(sp)
    1060:	01dc5463          	bge	s8,t4,1068 <.L405+0x14>
    1064:	4f00106f          	j	2554 <.L427>
    1068:	ffc00c93          	li	s9,-4
    106c:	09700c13          	li	s8,151
    1070:	11912423          	sw	s9,264(sp)
    1074:	45ec5ce3          	bge	s8,t5,1ccc <.L419>
    1078:	00900c13          	li	s8,9
    107c:	11812423          	sw	s8,264(sp)
    1080:	44d0006f          	j	1ccc <.L419>

00001084 <.L2662>:
    1084:	00e00c13          	li	s8,14
    1088:	0dcc56e3          	bge	s8,t3,1954 <.L242>
    108c:	ffc6ac13          	slti	s8,a3,-4
    1090:	41800c33          	neg	s8,s8
    1094:	ffac7c13          	andi	s8,s8,-6
    1098:	006c0c13          	addi	s8,s8,6
    109c:	1b812a23          	sw	s8,436(sp)
    10a0:	b69ff06f          	j	c08 <.L243>

000010a4 <.L6119>:
    10a4:	03d00c13          	li	s8,61
    10a8:	127c5263          	bge	s8,t2,11cc <.L2981>
    10ac:	07100c13          	li	s8,113
    10b0:	01fc5463          	bge	s8,t6,10b8 <.L6119+0x14>
    10b4:	5a40406f          	j	5658 <.L6109>
    10b8:	00300c13          	li	s8,3
    10bc:	29812823          	sw	s8,656(sp)

000010c0 <.L339>:
    10c0:	00400c13          	li	s8,4
    10c4:	010c4463          	blt	s8,a6,10cc <.L339+0xc>
    10c8:	0790306f          	j	4940 <.L341>
    10cc:	ff800c13          	li	s8,-8
    10d0:	0186d463          	bge	a3,s8,10d8 <.L339+0x18>
    10d4:	5340406f          	j	5608 <.L342>
    10d8:	0b300c13          	li	s8,179
    10dc:	005c5463          	bge	s8,t0,10e4 <.L339+0x24>
    10e0:	4011306f          	j	14ce0 <.L343>
    10e4:	ffc00c93          	li	s9,-4
    10e8:	1d912223          	sw	s9,452(sp)
    10ec:	00900c93          	li	s9,9
    10f0:	0a900c13          	li	s8,169
    10f4:	29912a23          	sw	s9,660(sp)
    10f8:	e93c4ee3          	blt	s8,s3,f94 <.L344>
    10fc:	c89ff06f          	j	d84 <.L328>

00001100 <.L5421>:
    1100:	00200c13          	li	s8,2
    1104:	27812e23          	sw	s8,636(sp)

00001108 <.L2663>:
    1108:	01700c13          	li	s8,23
    110c:	13cc52e3          	bge	s8,t3,1a30 <.L2885>
    1110:	ffd00c93          	li	s9,-3
    1114:	00d00c13          	li	s8,13
    1118:	13912623          	sw	s9,300(sp)
    111c:	ab4c4ce3          	blt	s8,s4,bd4 <.L234>
    1120:	00300c13          	li	s8,3
    1124:	13812623          	sw	s8,300(sp)
    1128:	919ff06f          	j	a40 <.L229>

0000112c <.L2868>:
    112c:	ff800c13          	li	s8,-8
    1130:	27812423          	sw	s8,616(sp)

00001134 <.L216>:
    1134:	ff800c13          	li	s8,-8
    1138:	2386cee3          	blt	a3,s8,1b74 <.L226>
    113c:	f5c42c13          	slti	s8,s0,-164
    1140:	41800c33          	neg	s8,s8
    1144:	ff9c7c13          	andi	s8,s8,-7
    1148:	002c0c13          	addi	s8,s8,2
    114c:	15812a23          	sw	s8,340(sp)
    1150:	8b1ff06f          	j	a00 <.L227>

00001154 <.L76>:
    1154:	02200713          	li	a4,34
    1158:	00b74463          	blt	a4,a1,1160 <.L76+0xc>
    115c:	1700106f          	j	22cc <.L79>
    1160:	ffffcb93          	not	s7,t6
    1164:	41fbdb93          	srai	s7,s7,0x1f
    1168:	ff3bfb93          	andi	s7,s7,-13
    116c:	0a900713          	li	a4,169
    1170:	003b8b93          	addi	s7,s7,3
    1174:	df374a63          	blt	a4,s3,768 <.L2671>

00001178 <.L2672>:
    1178:	01451883          	lh	a7,20(a0)
    117c:	00400693          	li	a3,4
    1180:	fb100713          	li	a4,-79
    1184:	0ad12623          	sw	a3,172(sp)
    1188:	00e8d663          	bge	a7,a4,1194 <.L85>
    118c:	ff800713          	li	a4,-8
    1190:	0ae12623          	sw	a4,172(sp)

00001194 <.L85>:
    1194:	000fd463          	bgez	t6,119c <.L85+0x8>
    1198:	3800306f          	j	4518 <.L2667>
    119c:	02200713          	li	a4,34
    11a0:	00b74463          	blt	a4,a1,11a8 <.L2668>
    11a4:	6bd0306f          	j	5060 <.L104>

000011a8 <.L2668>:
    11a8:	02051e83          	lh	t4,32(a0)
    11ac:	00400713          	li	a4,4
    11b0:	01d74463          	blt	a4,t4,11b8 <.L2668+0x10>
    11b4:	1100406f          	j	52c4 <.L6110>
    11b8:	16e12423          	sw	a4,360(sp)
    11bc:	ff700713          	li	a4,-9
    11c0:	02a51803          	lh	a6,42(a0)
    11c4:	28e12423          	sw	a4,648(sp)
    11c8:	7350006f          	j	20fc <.L91>

000011cc <.L2981>:
    11cc:	00300c13          	li	s8,3
    11d0:	29812823          	sw	s8,656(sp)

000011d4 <.L338>:
    11d4:	001eac13          	slti	s8,t4,1
    11d8:	002c1c13          	slli	s8,s8,0x2
    11dc:	00400c93          	li	s9,4
    11e0:	29812a23          	sw	s8,660(sp)
    11e4:	0b0ccae3          	blt	s9,a6,1a98 <.L340>
    11e8:	06a00c13          	li	s8,106
    11ec:	01fc5463          	bge	s8,t6,11f4 <.L346>
    11f0:	6c40306f          	j	48b4 <.L6111>

000011f4 <.L346>:
    11f4:	00800c93          	li	s9,8
    11f8:	0a900c13          	li	s8,169
    11fc:	1d912223          	sw	s9,452(sp)
    1200:	b93c52e3          	bge	s8,s3,d84 <.L328>

00001204 <.L318>:
    1204:	f7a00c13          	li	s8,-134
    1208:	0184ce63          	blt	s1,s8,1224 <.L3000>
    120c:	00b00c13          	li	s8,11
    1210:	02012223          	sw	zero,36(sp)
    1214:	db4c44e3          	blt	s8,s4,fbc <.L350>
    1218:	00800c13          	li	s8,8
    121c:	11812a23          	sw	s8,276(sp)
    1220:	db5ff06f          	j	fd4 <.L351>

00001224 <.L3000>:
    1224:	02012223          	sw	zero,36(sp)

00001228 <.L349>:
    1228:	f4000c13          	li	s8,-192
    122c:	4184cc63          	blt	s1,s8,1644 <.L353>
    1230:	ff700c13          	li	s8,-9
    1234:	1786c263          	blt	a3,s8,1398 <.L6112>
    1238:	ff900c13          	li	s8,-7
    123c:	11812a23          	sw	s8,276(sp)
    1240:	d95ff06f          	j	fd4 <.L351>

00001244 <.L2920>:
    1244:	ff900c13          	li	s8,-7
    1248:	25812e23          	sw	s8,604(sp)

0000124c <.L273>:
    124c:	00600c13          	li	s8,6
    1250:	7ebc5663          	bge	s8,a1,1a3c <.L284>
    1254:	00a00c93          	li	s9,10
    1258:	00bcc463          	blt	s9,a1,1260 <.L273+0x14>
    125c:	42c0306f          	j	4688 <.L285>
    1260:	39000c93          	li	s9,912
    1264:	01ecc463          	blt	s9,t5,126c <.L273+0x20>
    1268:	67d0d06f          	j	f0e4 <.L2921>
    126c:	01c00c93          	li	s9,28
    1270:	00ecc463          	blt	s9,a4,1278 <.L273+0x2c>
    1274:	34c0406f          	j	55c0 <.L286>
    1278:	04100c93          	li	s9,65
    127c:	00ccd463          	bge	s9,a2,1284 <.L273+0x38>
    1280:	6481306f          	j	148c8 <.L287>
    1284:	0f812c23          	sw	s8,248(sp)
    1288:	fff00c13          	li	s8,-1
    128c:	01500c93          	li	s9,21
    1290:	2d812023          	sw	s8,704(sp)
    1294:	a45ccce3          	blt	s9,t0,cec <.L288>

00001298 <.L289>:
    1298:	2a012823          	sw	zero,688(sp)
    129c:	c61ff06f          	j	efc <.L290>

000012a0 <.L361>:
    12a0:	1b500c13          	li	s8,437
    12a4:	00ec4463          	blt	s8,a4,12ac <.L361+0xc>
    12a8:	1580106f          	j	2400 <.L364>
    12ac:	40a00c13          	li	s8,1034
    12b0:	7ccc4ee3          	blt	s8,a2,228c <.L365>
    12b4:	ff600c13          	li	s8,-10
    12b8:	15812823          	sw	s8,336(sp)

000012bc <.L366>:
    12bc:	10f00c13          	li	s8,271
    12c0:	012c2c33          	slt	s8,s8,s2
    12c4:	41800c33          	neg	s8,s8
    12c8:	018c7c13          	andi	s8,s8,24
    12cc:	ffec0c13          	addi	s8,s8,-2
    12d0:	29812c23          	sw	s8,664(sp)

000012d4 <.L369>:
    12d4:	1de00c13          	li	s8,478
    12d8:	00ec4463          	blt	s8,a4,12e0 <.L369+0xc>
    12dc:	0741c06f          	j	1d350 <.L386>
    12e0:	4ae00c13          	li	s8,1198
    12e4:	16cc4463          	blt	s8,a2,144c <.L3014>

000012e8 <.L385>:
    12e8:	03e00c13          	li	s8,62
    12ec:	18fc48e3          	blt	s8,a5,1c7c <.L3015>
    12f0:	01000c13          	li	s8,16
    12f4:	15812623          	sw	s8,332(sp)

000012f8 <.L384>:
    12f8:	03d00c13          	li	s8,61
    12fc:	18fc44e3          	blt	s8,a5,1c84 <.L391>

00001300 <.L406>:
    1300:	38100c13          	li	s8,897
    1304:	54cc46e3          	blt	s8,a2,2050 <.L2652>
    1308:	00c00c13          	li	s8,12
    130c:	1f812823          	sw	s8,496(sp)

00001310 <.L410>:
    1310:	f2000c13          	li	s8,-224
    1314:	0184c463          	blt	s1,s8,131c <.L410+0xc>
    1318:	38d0306f          	j	4ea4 <.L6113>
    131c:	2df00c13          	li	s8,735
    1320:	00ec5463          	bge	s8,a4,1328 <.L420>
    1324:	3d10306f          	j	4ef4 <.L2707>

00001328 <.L420>:
    1328:	00400c13          	li	s8,4
    132c:	01dc5463          	bge	s8,t4,1334 <.L420+0xc>
    1330:	3a40406f          	j	56d4 <.L6114>
    1334:	09700c13          	li	s8,151
    1338:	01ec5463          	bge	s8,t5,1340 <.L420+0x18>
    133c:	7dc1206f          	j	13b18 <.L3034>
    1340:	ffc00c13          	li	s8,-4
    1344:	11812423          	sw	s8,264(sp)
    1348:	00900c13          	li	s8,9
    134c:	1d812423          	sw	s8,456(sp)
    1350:	17d0006f          	j	1ccc <.L419>

00001354 <.L189>:
    1354:	fa300c13          	li	s8,-93
    1358:	6588c6e3          	blt	a7,s8,21a4 <.L2843>
    135c:	01f00c13          	li	s8,31
    1360:	014c5463          	bge	s8,s4,1368 <.L189+0x14>
    1364:	7b00306f          	j	4b14 <.L2844>
    1368:	03b00c13          	li	s8,59
    136c:	00fc5463          	bge	s8,a5,1374 <.L189+0x20>
    1370:	2200406f          	j	5590 <.L6115>
    1374:	00600c13          	li	s8,6
    1378:	11812223          	sw	s8,260(sp)

0000137c <.L191>:
    137c:	ffe00c93          	li	s9,-2
    1380:	1ed00c13          	li	s8,493
    1384:	19912a23          	sw	s9,404(sp)
    1388:	8b2c5663          	bge	s8,s2,434 <.L195>
    138c:	00600c13          	li	s8,6
    1390:	19812a23          	sw	s8,404(sp)
    1394:	8a0ff06f          	j	434 <.L195>

00001398 <.L6112>:
    1398:	2df00c13          	li	s8,735
    139c:	00ec5463          	bge	s8,a4,13a4 <.L6112+0xc>
    13a0:	5840306f          	j	4924 <.L5416>
    13a4:	00700c13          	li	s8,7
    13a8:	11812a23          	sw	s8,276(sp)

000013ac <.L360>:
    13ac:	19100c13          	li	s8,401
    13b0:	ef2c58e3          	bge	s8,s2,12a0 <.L361>
    13b4:	1b500c13          	li	s8,437
    13b8:	00ec4463          	blt	s8,a4,13c0 <.L360+0x14>
    13bc:	1000106f          	j	24bc <.L367>
    13c0:	40a00c13          	li	s8,1034
    13c4:	00cc4463          	blt	s8,a2,13cc <.L360+0x20>
    13c8:	0d40406f          	j	549c <.L6116>
    13cc:	00200c93          	li	s9,2
    13d0:	1de00c13          	li	s8,478
    13d4:	15912823          	sw	s9,336(sp)
    13d8:	6cec42e3          	blt	s8,a4,229c <.L374>
    13dc:	1b300c13          	li	s8,435
    13e0:	012c5463          	bge	s8,s2,13e8 <.L360+0x3c>
    13e4:	1bd1706f          	j	18da0 <.L5486>
    13e8:	ff600c13          	li	s8,-10
    13ec:	29812c23          	sw	s8,664(sp)
    13f0:	ff700c13          	li	s8,-9
    13f4:	15812623          	sw	s8,332(sp)
    13f8:	c3dff06f          	j	1034 <.L393>

000013fc <.L356>:
    13fc:	10100c13          	li	s8,257
    1400:	016c2c33          	slt	s8,s8,s6
    1404:	41800c33          	neg	s8,s8
    1408:	026c7c13          	andi	s8,s8,38
    140c:	000c0c93          	mv	s9,s8
    1410:	ffec8c93          	addi	s9,s9,-2
    1414:	40a00c13          	li	s8,1034
    1418:	15912823          	sw	s9,336(sp)
    141c:	00cc5463          	bge	s8,a2,1424 <.L356+0x28>
    1420:	0d41c06f          	j	1d4f4 <.L6117>
    1424:	10f00c13          	li	s8,271
    1428:	012c5463          	bge	s8,s2,1430 <.L356+0x34>
    142c:	5dd0306f          	j	5208 <.L2656>
    1430:	ffe00c13          	li	s8,-2
    1434:	29812c23          	sw	s8,664(sp)

00001438 <.L373>:
    1438:	4ae00c13          	li	s8,1198
    143c:	eacc56e3          	bge	s8,a2,12e8 <.L385>
    1440:	00001c37          	lui	s8,0x1
    1444:	9f8c0c13          	addi	s8,s8,-1544 # 9f8 <.L2665+0x10>
    1448:	9cec4ce3          	blt	s8,a4,e20 <.L2709>

0000144c <.L3014>:
    144c:	ff600c13          	li	s8,-10
    1450:	15812623          	sw	s8,332(sp)
    1454:	ea5ff06f          	j	12f8 <.L384>

00001458 <.L155>:
    1458:	03c00713          	li	a4,60
    145c:	00f72733          	slt	a4,a4,a5
    1460:	40e00733          	neg	a4,a4
    1464:	01377713          	andi	a4,a4,19
    1468:	00670713          	addi	a4,a4,6
    146c:	1ee12223          	sw	a4,484(sp)
    1470:	ee9fe06f          	j	358 <.L156>

00001474 <.L323>:
    1474:	07300c13          	li	s8,115
    1478:	573c44e3          	blt	s8,s3,21e0 <.L2958>
    147c:	01e00c13          	li	s8,30
    1480:	014c4463          	blt	s8,s4,1488 <.L323+0x14>
    1484:	5b80306f          	j	4a3c <.L326>
    1488:	00400c13          	li	s8,4
    148c:	010c4463          	blt	s8,a6,1494 <.L323+0x20>
    1490:	2200406f          	j	56b0 <.L6118>
    1494:	ff800c13          	li	s8,-8
    1498:	0186c463          	blt	a3,s8,14a0 <.L323+0x2c>
    149c:	0941206f          	j	13530 <.L337>
    14a0:	00500c13          	li	s8,5
    14a4:	29812823          	sw	s8,656(sp)

000014a8 <.L336>:
    14a8:	01f00c13          	li	s8,31
    14ac:	010c4463          	blt	s8,a6,14b4 <.L336+0xc>
    14b0:	1840406f          	j	5634 <.L2968>
    14b4:	fff00c13          	li	s8,-1
    14b8:	1d812223          	sw	s8,452(sp)
    14bc:	28012a23          	sw	zero,660(sp)
    14c0:	8c5ff06f          	j	d84 <.L328>

000014c4 <.L310>:
    14c4:	01400c13          	li	s8,20
    14c8:	bd4c5ee3          	bge	s8,s4,10a4 <.L6119>
    14cc:	01e00c13          	li	s8,30
    14d0:	014c4463          	blt	s8,s4,14d8 <.L310+0x14>
    14d4:	4140306f          	j	48e8 <.L330>
    14d8:	00400c13          	li	s8,4
    14dc:	010c4463          	blt	s8,a6,14e4 <.L310+0x20>
    14e0:	2140406f          	j	56f4 <.L331>
    14e4:	ff800c13          	li	s8,-8
    14e8:	0186d463          	bge	a3,s8,14f0 <.L310+0x2c>
    14ec:	0151306f          	j	14d00 <.L2960>
    14f0:	0b300c13          	li	s8,179
    14f4:	005c5463          	bge	s8,t0,14fc <.L310+0x38>
    14f8:	2591606f          	j	17f50 <.L2961>
    14fc:	ff900c13          	li	s8,-7
    1500:	29812a23          	sw	s8,660(sp)
    1504:	ffa00c13          	li	s8,-6
    1508:	29812823          	sw	s8,656(sp)
    150c:	a71ff06f          	j	f7c <.L316>

00001510 <.L305>:
    1510:	03c7ac13          	slti	s8,a5,60
    1514:	fffc0c13          	addi	s8,s8,-1
    1518:	ffec4c13          	xori	s8,s8,-2
    151c:	2b812823          	sw	s8,688(sp)
    1520:	9ddff06f          	j	efc <.L290>

00001524 <.L231>:
    1524:	03800c13          	li	s8,56
    1528:	46fc4263          	blt	s8,a5,198c <.L232>
    152c:	ffe00c13          	li	s8,-2
    1530:	27812e23          	sw	s8,636(sp)
    1534:	e78ff06f          	j	bac <.L221>

00001538 <.L183>:
    1538:	00300c13          	li	s8,3
    153c:	1d812623          	sw	s8,460(sp)
    1540:	b8cc5c63          	bge	s8,a2,8d8 <.L184>
    1544:	ffe00c13          	li	s8,-2
    1548:	1d812623          	sw	s8,460(sp)
    154c:	b8cff06f          	j	8d8 <.L184>

00001550 <.L175>:
    1550:	fa100713          	li	a4,-95
    1554:	5ce8d6e3          	bge	a7,a4,2320 <.L2832>
    1558:	00251703          	lh	a4,2(a0)

0000155c <.L174>:
    155c:	00400c13          	li	s8,4
    1560:	22012823          	sw	zero,560(sp)
    1564:	010c5463          	bge	s8,a6,156c <.L174+0x10>
    1568:	e55fe06f          	j	3bc <.L178>
    156c:	00c00c93          	li	s9,12
    1570:	01f00c13          	li	s8,31
    1574:	23912823          	sw	s9,560(sp)
    1578:	06012a23          	sw	zero,116(sp)
    157c:	014c5463          	bge	s8,s4,1584 <.L174+0x28>
    1580:	e59fe06f          	j	3d8 <.L179>
    1584:	b1d04c63          	bgtz	t4,89c <.L6120>

00001588 <.L180>:
    1588:	01900c13          	li	s8,25
    158c:	00bc5463          	bge	s8,a1,1594 <.L180+0xc>
    1590:	2400306f          	j	47d0 <.L2837>
    1594:	00900c13          	li	s8,9
    1598:	07812a23          	sw	s8,116(sp)
    159c:	e3dfe06f          	j	3d8 <.L179>

000015a0 <.L5488>:
    15a0:	01e51303          	lh	t1,30(a0)
    15a4:	ff700713          	li	a4,-9
    15a8:	1ee12223          	sw	a4,484(sp)

000015ac <.L162>:
    15ac:	ffafa713          	slti	a4,t6,-6
    15b0:	fff70713          	addi	a4,a4,-1
    15b4:	00474713          	xori	a4,a4,4
    15b8:	28e12623          	sw	a4,652(sp)
    15bc:	dcdfe06f          	j	388 <.L163>

000015c0 <.L2895>:
    15c0:	ff800c13          	li	s8,-8
    15c4:	27812223          	sw	s8,612(sp)
    15c8:	0fd00c13          	li	s8,253
    15cc:	cc5c4e63          	blt	s8,t0,aa8 <.L6121>

000015d0 <.L250>:
    15d0:	ff700c13          	li	s8,-9
    15d4:	1f86cc63          	blt	a3,s8,17cc <.L6122>
    15d8:	ffc00c13          	li	s8,-4
    15dc:	25812c23          	sw	s8,600(sp)
    15e0:	e64ff06f          	j	c44 <.L252>

000015e4 <.L263>:
    15e4:	0a900c13          	li	s8,169
    15e8:	873c5ae3          	bge	s8,s3,e5c <.L2908>
    15ec:	01700c13          	li	s8,23
    15f0:	01cc5463          	bge	s8,t3,15f8 <.L263+0x14>
    15f4:	4840306f          	j	4a78 <.L2909>
    15f8:	01f00c13          	li	s8,31
    15fc:	594c5a63          	bge	s8,s4,1b90 <.L6123>
    1600:	fff00c13          	li	s8,-1
    1604:	0b812023          	sw	s8,160(sp)
    1608:	00100c13          	li	s8,1
    160c:	23812023          	sw	s8,544(sp)
    1610:	87dff06f          	j	e8c <.L261>

00001614 <.L307>:
    1614:	00500c93          	li	s9,5
    1618:	f9c00c13          	li	s8,-100
    161c:	09912223          	sw	s9,132(sp)
    1620:	918452e3          	bge	s0,s8,f24 <.L308>
    1624:	ffb00c13          	li	s8,-5
    1628:	09812223          	sw	s8,132(sp)
    162c:	8f9ff06f          	j	f24 <.L308>

00001630 <.L246>:
    1630:	d67aac13          	slti	s8,s5,-665
    1634:	004c1c13          	slli	s8,s8,0x4
    1638:	fffc0c13          	addi	s8,s8,-1
    163c:	27812223          	sw	s8,612(sp)
    1640:	c58ff06f          	j	a98 <.L248>

00001644 <.L353>:
    1644:	efb4ac13          	slti	s8,s1,-261
    1648:	001c3c13          	seqz	s8,s8
    164c:	002c1c13          	slli	s8,s8,0x2
    1650:	11812a23          	sw	s8,276(sp)
    1654:	981ff06f          	j	fd4 <.L351>

00001658 <.L2850>:
    1658:	ff700c13          	li	s8,-9
    165c:	19812a23          	sw	s8,404(sp)
    1660:	00e00c13          	li	s8,14
    1664:	adcc4463          	blt	s8,t3,92c <.L6124>

00001668 <.L197>:
    1668:	ffa00c13          	li	s8,-6
    166c:	05812a23          	sw	s8,84(sp)
    1670:	000fc463          	bltz	t6,1678 <.L197+0x10>
    1674:	de1fe06f          	j	454 <.L198>
    1678:	00800c93          	li	s9,8
    167c:	01500c13          	li	s8,21
    1680:	05912a23          	sw	s9,84(sp)
    1684:	ac5c4263          	blt	s8,t0,948 <.L193>
    1688:	03912c23          	sw	s9,56(sp)
    168c:	df9fe06f          	j	484 <.L202>

00001690 <.L44>:
    1690:	02200713          	li	a4,34
    1694:	00b74463          	blt	a4,a1,169c <.L44+0xc>
    1698:	6640406f          	j	5cfc <.L6125>
    169c:	00d00713          	li	a4,13
    16a0:	35474e63          	blt	a4,s4,19fc <.L2739>
    16a4:	ff600713          	li	a4,-10

000016a8 <.L5699>:
    16a8:	2ae12023          	sw	a4,672(sp)
    16ac:	ff900713          	li	a4,-7

000016b0 <.L5700>:
    16b0:	02651283          	lh	t0,38(a0)
    16b4:	01251903          	lh	s2,18(a0)
    16b8:	00a51603          	lh	a2,10(a0)
    16bc:	20e12023          	sw	a4,512(sp)
    16c0:	00300713          	li	a4,3
    16c4:	20e12223          	sw	a4,516(sp)

000016c8 <.L51>:
    16c8:	ea900713          	li	a4,-343
    16cc:	50e4d663          	bge	s1,a4,1bd8 <.L47>
    16d0:	00d00713          	li	a4,13
    16d4:	2d475ee3          	bge	a4,s4,21b0 <.L2751>
    16d8:	01e00713          	li	a4,30
    16dc:	01474463          	blt	a4,s4,16e4 <.L51+0x1c>
    16e0:	4050306f          	j	52e4 <.L2752>
    16e4:	ff600713          	li	a4,-10
    16e8:	2ce12e23          	sw	a4,732(sp)
    16ec:	2ce12c23          	sw	a4,728(sp)
    16f0:	848ff06f          	j	738 <.L69>

000016f4 <.L142>:
    16f4:	1aa00713          	li	a4,426
    16f8:	8d675463          	bge	a4,s6,7c0 <.L147>
    16fc:	01f00713          	li	a4,31
    1700:	01475463          	bge	a4,s4,1708 <.L142+0x14>
    1704:	5280306f          	j	4c2c <.L2808>
    1708:	02051e83          	lh	t4,32(a0)
    170c:	01400713          	li	a4,20
    1710:	26e12c23          	sw	a4,632(sp)
    1714:	01d05463          	blez	t4,171c <.L142+0x28>
    1718:	bc5fe06f          	j	2dc <.L2809>
    171c:	8c4ff06f          	j	7e0 <.L5713>

00001720 <.L165>:
    1720:	00251703          	lh	a4,2(a0)
    1724:	10600c13          	li	s8,262
    1728:	92ec5e63          	bge	s8,a4,864 <.L166>
    172c:	fa300c13          	li	s8,-93
    1730:	0188c463          	blt	a7,s8,1738 <.L165+0x18>
    1734:	0cd0306f          	j	5000 <.L2827>
    1738:	fa100c13          	li	s8,-95
    173c:	0188d463          	bge	a7,s8,1744 <.L165+0x24>
    1740:	7650306f          	j	56a4 <.L6126>
    1744:	fea00c13          	li	s8,-22
    1748:	23812823          	sw	s8,560(sp)
    174c:	00800c13          	li	s8,8
    1750:	29812623          	sw	s8,652(sp)
    1754:	944ff06f          	j	898 <.L169>

00001758 <.L210>:
    1758:	fa300c13          	li	s8,-93
    175c:	10012e23          	sw	zero,284(sp)
    1760:	a388ca63          	blt	a7,s8,994 <.L212>

00001764 <.L211>:
    1764:	1a000c13          	li	s8,416
    1768:	01fc2c33          	slt	s8,s8,t6
    176c:	41800c33          	neg	s8,s8
    1770:	ff7c7c13          	andi	s8,s8,-9
    1774:	009c0c13          	addi	s8,s8,9
    1778:	15812423          	sw	s8,328(sp)
    177c:	d51fe06f          	j	4cc <.L213>

00001780 <.L214>:
    1780:	01d02c33          	sgtz	s8,t4
    1784:	41800c33          	neg	s8,s8
    1788:	ffac7c13          	andi	s8,s8,-6
    178c:	006c0c13          	addi	s8,s8,6
    1790:	15812423          	sw	s8,328(sp)
    1794:	d39fe06f          	j	4cc <.L213>

00001798 <.L17>:
    1798:	03a00793          	li	a5,58
    179c:	0077d463          	bge	a5,t2,17a4 <.L17+0xc>
    17a0:	2590206f          	j	41f8 <.L22>
    17a4:	0d900793          	li	a5,217
    17a8:	0137d463          	bge	a5,s3,17b0 <.L17+0x18>
    17ac:	4e00306f          	j	4c8c <.L2718>
    17b0:	01500793          	li	a5,21
    17b4:	02451a03          	lh	s4,36(a0)
    17b8:	01651483          	lh	s1,22(a0)
    17bc:	00851583          	lh	a1,8(a0)
    17c0:	00c51f83          	lh	t6,12(a0)
    17c4:	2af12a23          	sw	a5,692(sp)
    17c8:	929fe06f          	j	f0 <.L20>

000017cc <.L6122>:
    17cc:	00400c13          	li	s8,4
    17d0:	24012c23          	sw	zero,600(sp)
    17d4:	af0c5a63          	bge	s8,a6,ac8 <.L254>

000017d8 <.L255>:
    17d8:	01f00c93          	li	s9,31
    17dc:	270cc8e3          	blt	s9,a6,224c <.L2900>
    17e0:	0a900c13          	li	s8,169
    17e4:	013c4463          	blt	s8,s3,17ec <.L255+0x14>
    17e8:	7f80306f          	j	4fe0 <.L2901>
    17ec:	01700c13          	li	s8,23
    17f0:	01cc4463          	blt	s8,t3,17f8 <.L255+0x20>
    17f4:	48d0306f          	j	5480 <.L259>
    17f8:	01c51c03          	lh	s8,28(a0)
    17fc:	02500d13          	li	s10,37
    1800:	018d4463          	blt	s10,s8,1808 <.L255+0x30>
    1804:	47d0306f          	j	5480 <.L259>
    1808:	00400c13          	li	s8,4
    180c:	0b812023          	sw	s8,160(sp)
    1810:	00300c13          	li	s8,3
    1814:	23812023          	sw	s8,544(sp)
    1818:	e74cca63          	blt	s9,s4,e8c <.L261>
    181c:	af4ff06f          	j	b10 <.L262>

00001820 <.L222>:
    1820:	001eac13          	slti	s8,t4,1
    1824:	41800c33          	neg	s8,s8
    1828:	005c7c13          	andi	s8,s8,5
    182c:	00400c93          	li	s9,4
    1830:	27812423          	sw	s8,616(sp)
    1834:	910cc0e3          	blt	s9,a6,1134 <.L216>

00001838 <.L217>:
    1838:	00b00c93          	li	s9,11
    183c:	03800c13          	li	s8,56
    1840:	15912a23          	sw	s9,340(sp)
    1844:	9a7c5e63          	bge	s8,t2,a00 <.L227>
    1848:	9a0ff06f          	j	9e8 <.L2665>

0000184c <.L205>:
    184c:	00300c93          	li	s9,3
    1850:	11912e23          	sw	s9,284(sp)
    1854:	00ccc463          	blt	s9,a2,185c <.L205+0x10>
    1858:	c59fe06f          	j	4b0 <.L207>
    185c:	11812e23          	sw	s8,284(sp)
    1860:	c51fe06f          	j	4b0 <.L207>

00001864 <.L105>:
    1864:	00b00713          	li	a4,11
    1868:	01475463          	bge	a4,s4,1870 <.L105+0xc>
    186c:	2b10206f          	j	431c <.L2772>
    1870:	16012423          	sw	zero,360(sp)

00001874 <.L108>:
    1874:	03c00713          	li	a4,60
    1878:	1ef750e3          	bge	a4,a5,2258 <.L6127>
    187c:	0005c463          	bltz	a1,1884 <.L108+0x10>
    1880:	1bd0306f          	j	523c <.L2784>
    1884:	0cd00713          	li	a4,205
    1888:	00c74463          	blt	a4,a2,1890 <.L108+0x1c>
    188c:	3650306f          	j	53f0 <.L2785>
    1890:	0def2713          	slti	a4,t5,222
    1894:	fff70713          	addi	a4,a4,-1
    1898:	00774713          	xori	a4,a4,7
    189c:	24e12423          	sw	a4,584(sp)
    18a0:	00600713          	li	a4,6
    18a4:	01451883          	lh	a7,20(a0)
    18a8:	2ce12623          	sw	a4,716(sp)
    18ac:	9d1fe06f          	j	27c <.L112>

000018b0 <.L185>:
    18b0:	de64ac13          	slti	s8,s1,-538
    18b4:	41800c33          	neg	s8,s8
    18b8:	ff1c7c13          	andi	s8,s8,-15
    18bc:	009c0c13          	addi	s8,s8,9
    18c0:	1d812623          	sw	s8,460(sp)
    18c4:	814ff06f          	j	8d8 <.L184>

000018c8 <.L158>:
    18c8:	e9900713          	li	a4,-359
    18cc:	00e8d463          	bge	a7,a4,18d4 <.L158+0xc>
    18d0:	2990206f          	j	4368 <.L6128>
    18d4:	00c00713          	li	a4,12
    18d8:	1e012223          	sw	zero,484(sp)
    18dc:	01e51303          	lh	t1,30(a0)
    18e0:	cd4746e3          	blt	a4,s4,15ac <.L162>
    18e4:	f65fe06f          	j	848 <.L161>

000018e8 <.L271>:
    18e8:	00500c93          	li	s9,5
    18ec:	06700c13          	li	s8,103
    18f0:	0b912023          	sw	s9,160(sp)
    18f4:	bb6c5663          	bge	s8,s6,ca0 <.L270>
    18f8:	ff300c13          	li	s8,-13
    18fc:	0b812023          	sw	s8,160(sp)
    1900:	ba0ff06f          	j	ca0 <.L270>

00001904 <.L208>:
    1904:	01c51c03          	lh	s8,28(a0)
    1908:	03500c93          	li	s9,53
    190c:	e58cc6e3          	blt	s9,s8,1758 <.L210>
    1910:	fa300c13          	li	s8,-93
    1914:	0188c463          	blt	a7,s8,191c <.L208+0x18>
    1918:	6bc0306f          	j	4fd4 <.L2861>
    191c:	00b00c13          	li	s8,11
    1920:	11812e23          	sw	s8,284(sp)
    1924:	870ff06f          	j	994 <.L212>

00001928 <.L201>:
    1928:	00100c93          	li	s9,1
    192c:	03b00c13          	li	s8,59
    1930:	03912c23          	sw	s9,56(sp)
    1934:	00fc5463          	bge	s8,a5,193c <.L201+0x14>
    1938:	b4dfe06f          	j	484 <.L202>
    193c:	b41fe06f          	j	47c <.L203>

00001940 <.L238>:
    1940:	f784ac13          	slti	s8,s1,-136
    1944:	001c3c13          	seqz	s8,s8
    1948:	002c1c13          	slli	s8,s8,0x2
    194c:	19812023          	sw	s8,384(sp)
    1950:	aa0ff06f          	j	bf0 <.L237>

00001954 <.L242>:
    1954:	f9c00c13          	li	s8,-100
    1958:	29845ee3          	bge	s0,s8,23f4 <.L2892>
    195c:	ffa00c13          	li	s8,-6
    1960:	1b812a23          	sw	s8,436(sp)
    1964:	aa4ff06f          	j	c08 <.L243>

00001968 <.L6099>:
    1968:	15812a23          	sw	s8,340(sp)
    196c:	fff00c13          	li	s8,-1
    1970:	14e00c93          	li	s9,334
    1974:	27812423          	sw	s8,616(sp)
    1978:	00ccc463          	blt	s9,a2,1980 <.L2881>
    197c:	54d0206f          	j	46c8 <.L2882>

00001980 <.L2881>:
    1980:	ffb00c13          	li	s8,-5
    1984:	27812e23          	sw	s8,636(sp)
    1988:	a24ff06f          	j	bac <.L221>

0000198c <.L232>:
    198c:	0a900c13          	li	s8,169
    1990:	f73c4863          	blt	s8,s3,1100 <.L5421>
    1994:	00200c13          	li	s8,2
    1998:	27812e23          	sw	s8,636(sp)

0000199c <.L2664>:
    199c:	05500c13          	li	s8,85
    19a0:	012c2c33          	slt	s8,s8,s2
    19a4:	41800c33          	neg	s8,s8
    19a8:	009c7c13          	andi	s8,s8,9
    19ac:	ffec0c13          	addi	s8,s8,-2
    19b0:	13812623          	sw	s8,300(sp)
    19b4:	a20ff06f          	j	bd4 <.L234>

000019b8 <.L264>:
    19b8:	01f00c13          	li	s8,31
    19bc:	014c4463          	blt	s8,s4,19c4 <.L264+0xc>
    19c0:	0d00406f          	j	5a90 <.L6129>
    19c4:	07300c13          	li	s8,115
    19c8:	01fc5463          	bge	s8,t6,19d0 <.L264+0x18>
    19cc:	7211206f          	j	148ec <.L5418>
    19d0:	ff900c13          	li	s8,-7
    19d4:	25812e23          	sw	s8,604(sp)
    19d8:	fff00c13          	li	s8,-1
    19dc:	0b812023          	sw	s8,160(sp)
    19e0:	00900c13          	li	s8,9
    19e4:	23812023          	sw	s8,544(sp)

000019e8 <.L275>:
    19e8:	39000c13          	li	s8,912
    19ec:	2c012023          	sw	zero,704(sp)
    19f0:	cdec4663          	blt	s8,t5,ebc <.L298>
    19f4:	0e012c23          	sw	zero,248(sp)
    19f8:	aecff06f          	j	ce4 <.L6130>

000019fc <.L2739>:
    19fc:	ff600713          	li	a4,-10

00001a00 <.L5698>:
    1a00:	02651283          	lh	t0,38(a0)
    1a04:	01251903          	lh	s2,18(a0)
    1a08:	00a51603          	lh	a2,10(a0)
    1a0c:	2ae12023          	sw	a4,672(sp)
    1a10:	ff900713          	li	a4,-7
    1a14:	20e12023          	sw	a4,512(sp)

00001a18 <.L59>:
    1a18:	ffafa713          	slti	a4,t6,-6
    1a1c:	40e00733          	neg	a4,a4
    1a20:	00f77713          	andi	a4,a4,15
    1a24:	ff770713          	addi	a4,a4,-9
    1a28:	20e12223          	sw	a4,516(sp)
    1a2c:	f54fe06f          	j	180 <.L63>

00001a30 <.L2885>:
    1a30:	fff00c13          	li	s8,-1
    1a34:	13812623          	sw	s8,300(sp)
    1a38:	99cff06f          	j	bd4 <.L234>

00001a3c <.L284>:
    1a3c:	ffe00c93          	li	s9,-2
    1a40:	0195d463          	bge	a1,s9,1a48 <.L284+0xc>
    1a44:	4110206f          	j	4654 <.L293>
    1a48:	39000d13          	li	s10,912
    1a4c:	01ed4463          	blt	s10,t5,1a54 <.L284+0x18>
    1a50:	2080306f          	j	4c58 <.L2929>
    1a54:	01c00d13          	li	s10,28
    1a58:	00ed4463          	blt	s10,a4,1a60 <.L284+0x24>
    1a5c:	4250306f          	j	5680 <.L294>
    1a60:	04100d13          	li	s10,65
    1a64:	00cd5463          	bge	s10,a2,1a6c <.L284+0x30>
    1a68:	5d11206f          	j	14838 <.L295>
    1a6c:	0f812c23          	sw	s8,248(sp)
    1a70:	ff700c13          	li	s8,-9
    1a74:	01500c93          	li	s9,21
    1a78:	2d812023          	sw	s8,704(sp)
    1a7c:	a65cc863          	blt	s9,t0,cec <.L288>
    1a80:	2a012823          	sw	zero,688(sp)
    1a84:	c78ff06f          	j	efc <.L290>

00001a88 <.L2983>:
    1a88:	ffe00c13          	li	s8,-2
    1a8c:	29812a23          	sw	s8,660(sp)
    1a90:	00300c13          	li	s8,3
    1a94:	29812823          	sw	s8,656(sp)

00001a98 <.L340>:
    1a98:	ff800c13          	li	s8,-8
    1a9c:	0386cc63          	blt	a3,s8,1ad4 <.L314>
    1aa0:	00100c93          	li	s9,1
    1aa4:	0b300c13          	li	s8,179
    1aa8:	1d912223          	sw	s9,452(sp)
    1aac:	045c4063          	blt	s8,t0,1aec <.L315>
    1ab0:	0a900c13          	li	s8,169
    1ab4:	cd3c4463          	blt	s8,s3,f7c <.L316>
    1ab8:	ffc00c13          	li	s8,-4
    1abc:	1d812223          	sw	s8,452(sp)
    1ac0:	ac4ff06f          	j	d84 <.L328>

00001ac4 <.L2954>:
    1ac4:	ff900c13          	li	s8,-7
    1ac8:	29812a23          	sw	s8,660(sp)
    1acc:	ffd00c13          	li	s8,-3
    1ad0:	29812823          	sw	s8,656(sp)

00001ad4 <.L314>:
    1ad4:	00200c93          	li	s9,2
    1ad8:	01f00c13          	li	s8,31
    1adc:	1d912223          	sw	s9,452(sp)
    1ae0:	010c5663          	bge	s8,a6,1aec <.L315>
    1ae4:	fff00c13          	li	s8,-1
    1ae8:	1d812223          	sw	s8,452(sp)

00001aec <.L315>:
    1aec:	0a900c13          	li	s8,169
    1af0:	a93c5a63          	bge	s8,s3,d84 <.L328>

00001af4 <.L317>:
    1af4:	0ba00c13          	li	s8,186
    1af8:	c9fc5e63          	bge	s8,t6,f94 <.L344>
    1afc:	ffb00c93          	li	s9,-5
    1b00:	17300c13          	li	s8,371
    1b04:	03912223          	sw	s9,36(sp)
    1b08:	aa5c5063          	bge	s8,t0,da8 <.L348>
    1b0c:	00200c13          	li	s8,2
    1b10:	03812223          	sw	s8,36(sp)
    1b14:	a94ff06f          	j	da8 <.L348>

00001b18 <.L153>:
    1b18:	00500313          	li	t1,5
    1b1c:	04200713          	li	a4,66
    1b20:	1a612c23          	sw	t1,440(sp)
    1b24:	00574463          	blt	a4,t0,1b2c <.L153+0x14>
    1b28:	801fe06f          	j	328 <.L150>
    1b2c:	ff300713          	li	a4,-13
    1b30:	1ae12c23          	sw	a4,440(sp)
    1b34:	ff4fe06f          	j	328 <.L150>

00001b38 <.L6103>:
    1b38:	0a400c13          	li	s8,164
    1b3c:	013c5463          	bge	s8,s3,1b44 <.L6103+0xc>
    1b40:	43d1306f          	j	1577c <.L6131>
    1b44:	00400c13          	li	s8,4
    1b48:	010c4463          	blt	s8,a6,1b50 <.L6103+0x18>
    1b4c:	4e10206f          	j	482c <.L335>
    1b50:	ff800c13          	li	s8,-8
    1b54:	9586cae3          	blt	a3,s8,14a8 <.L336>
    1b58:	0b300c13          	li	s8,179
    1b5c:	005c4463          	blt	s8,t0,1b64 <.L6103+0x2c>
    1b60:	6c41106f          	j	13224 <.L2966>
    1b64:	00100c13          	li	s8,1
    1b68:	1d812223          	sw	s8,452(sp)
    1b6c:	28012a23          	sw	zero,660(sp)
    1b70:	a14ff06f          	j	d84 <.L328>

00001b74 <.L226>:
    1b74:	01f00c13          	li	s8,31
    1b78:	010c2c33          	slt	s8,s8,a6
    1b7c:	41800c33          	neg	s8,s8
    1b80:	ffac7c13          	andi	s8,s8,-6
    1b84:	004c0c13          	addi	s8,s8,4
    1b88:	15812a23          	sw	s8,340(sp)
    1b8c:	e75fe06f          	j	a00 <.L227>

00001b90 <.L6123>:
    1b90:	00100c13          	li	s8,1
    1b94:	23812023          	sw	s8,544(sp)
    1b98:	fff00c13          	li	s8,-1
    1b9c:	0b812023          	sw	s8,160(sp)

00001ba0 <.L269>:
    1ba0:	03300c13          	li	s8,51
    1ba4:	010c4463          	blt	s8,a6,1bac <.L269+0xc>
    1ba8:	f69fe06f          	j	b10 <.L262>
    1bac:	07300c13          	li	s8,115
    1bb0:	01fc5463          	bge	s8,t6,1bb8 <.L269+0x18>
    1bb4:	6fd0206f          	j	4ab0 <.L2919>
    1bb8:	00600c13          	li	s8,6
    1bbc:	25812e23          	sw	s8,604(sp)
    1bc0:	ae4ff06f          	j	ea4 <.L274>

00001bc4 <.L6085>:
    1bc4:	00a00713          	li	a4,10
    1bc8:	01251903          	lh	s2,18(a0)
    1bcc:	20e12223          	sw	a4,516(sp)
    1bd0:	00b00713          	li	a4,11
    1bd4:	2ae12023          	sw	a4,672(sp)

00001bd8 <.L47>:
    1bd8:	16600713          	li	a4,358
    1bdc:	00574463          	blt	a4,t0,1be4 <.L47+0xc>
    1be0:	3d80306f          	j	4fb8 <.L2710>
    1be4:	00b00693          	li	a3,11
    1be8:	2cd12e23          	sw	a3,732(sp)
    1bec:	00200693          	li	a3,2
    1bf0:	01e00713          	li	a4,30
    1bf4:	2cd12c23          	sw	a3,728(sp)
    1bf8:	01474463          	blt	a4,s4,1c00 <.L47+0x28>
    1bfc:	b3dfe06f          	j	738 <.L69>
    1c00:	ff600713          	li	a4,-10
    1c04:	2ce12c23          	sw	a4,728(sp)
    1c08:	b31fe06f          	j	738 <.L69>

00001c0c <.L103>:
    1c0c:	0a900713          	li	a4,169
    1c10:	01374463          	blt	a4,s3,1c18 <.L103+0xc>
    1c14:	2d50206f          	j	46e8 <.L100>
    1c18:	00700713          	li	a4,7
    1c1c:	02a51803          	lh	a6,42(a0)
    1c20:	28e12423          	sw	a4,648(sp)
    1c24:	df8fe06f          	j	21c <.L90>

00001c28 <.L102>:
    1c28:	1aa00713          	li	a4,426
    1c2c:	ff6750e3          	bge	a4,s6,1c0c <.L103>
    1c30:	0a900713          	li	a4,169
    1c34:	01374463          	blt	a4,s3,1c3c <.L102+0x14>
    1c38:	6580306f          	j	5290 <.L101>
    1c3c:	01300713          	li	a4,19
    1c40:	02a51803          	lh	a6,42(a0)
    1c44:	28e12423          	sw	a4,648(sp)
    1c48:	dd4fe06f          	j	21c <.L90>

00001c4c <.L6087>:
    1c4c:	03200713          	li	a4,50
    1c50:	00c00b93          	li	s7,12
    1c54:	00774463          	blt	a4,t2,1c5c <.L6087+0x10>
    1c58:	b09fe06f          	j	760 <.L78>
    1c5c:	ff800b93          	li	s7,-8
    1c60:	b01fe06f          	j	760 <.L78>

00001c64 <.L176>:
    1c64:	efb32c13          	slti	s8,t1,-261
    1c68:	41800c33          	neg	s8,s8
    1c6c:	ff7c7c13          	andi	s8,s8,-9
    1c70:	00ac0c13          	addi	s8,s8,10
    1c74:	23812823          	sw	s8,560(sp)
    1c78:	f44fe06f          	j	3bc <.L178>

00001c7c <.L3015>:
    1c7c:	ff500c13          	li	s8,-11
    1c80:	15812623          	sw	s8,332(sp)

00001c84 <.L391>:
    1c84:	21a00c13          	li	s8,538
    1c88:	3d3c4a63          	blt	s8,s3,205c <.L409>
    1c8c:	ff500c13          	li	s8,-11
    1c90:	1f812823          	sw	s8,496(sp)

00001c94 <.L408>:
    1c94:	2df00c13          	li	s8,735
    1c98:	baec5e63          	bge	s8,a4,1054 <.L405>
    1c9c:	ff700c13          	li	s8,-9
    1ca0:	1d812423          	sw	s8,456(sp)

00001ca4 <.L389>:
    1ca4:	00001c37          	lui	s8,0x1
    1ca8:	ff500c93          	li	s9,-11
    1cac:	bacc0c13          	addi	s8,s8,-1108 # bac <.L221>
    1cb0:	11912423          	sw	s9,264(sp)
    1cb4:	00cc4c63          	blt	s8,a2,1ccc <.L419>
    1cb8:	f514ac13          	slti	s8,s1,-175
    1cbc:	41800c33          	neg	s8,s8
    1cc0:	013c7c13          	andi	s8,s8,19
    1cc4:	ff8c0c13          	addi	s8,s8,-8
    1cc8:	11812423          	sw	s8,264(sp)

00001ccc <.L419>:
    1ccc:	ff700c13          	li	s8,-9
    1cd0:	0786c263          	blt	a3,s8,1d34 <.L435>
    1cd4:	f2b00c13          	li	s8,-213
    1cd8:	498ade63          	bge	s5,s8,2174 <.L436>
    1cdc:	0b500c13          	li	s8,181
    1ce0:	01ec4463          	blt	s8,t5,1ce8 <.L419+0x1c>
    1ce4:	4100306f          	j	50f4 <.L437>
    1ce8:	e2700c13          	li	s8,-473
    1cec:	01845463          	bge	s0,s8,1cf4 <.L419+0x28>
    1cf0:	7500306f          	j	5440 <.L438>
    1cf4:	0ce00c13          	li	s8,206
    1cf8:	016c5463          	bge	s8,s6,1d00 <.L419+0x34>
    1cfc:	4611106f          	j	1395c <.L3045>
    1d00:	00c00c13          	li	s8,12
    1d04:	17812623          	sw	s8,364(sp)

00001d08 <.L440>:
    1d08:	ff700c13          	li	s8,-9
    1d0c:	0186c463          	blt	a3,s8,1d14 <.L440+0xc>
    1d10:	6110306f          	j	5b20 <.L486>
    1d14:	0b500c13          	li	s8,181
    1d18:	01ec5463          	bge	s8,t5,1d20 <.L440+0x18>
    1d1c:	20c1b06f          	j	1cf28 <.L3084>
    1d20:	00100c13          	li	s8,1
    1d24:	1f812a23          	sw	s8,500(sp)
    1d28:	ff800c13          	li	s8,-8
    1d2c:	0b812a23          	sw	s8,180(sp)
    1d30:	7f80306f          	j	5528 <.L472>

00001d34 <.L435>:
    1d34:	03100c13          	li	s8,49
    1d38:	41cc4663          	blt	s8,t3,2144 <.L444>
    1d3c:	0b500c13          	li	s8,181
    1d40:	01ec4463          	blt	s8,t5,1d48 <.L435+0x14>
    1d44:	3d00306f          	j	5114 <.L445>
    1d48:	e2700c13          	li	s8,-473
    1d4c:	01844463          	blt	s0,s8,1d54 <.L435+0x20>
    1d50:	6b00306f          	j	5400 <.L6132>
    1d54:	ffa00c93          	li	s9,-6
    1d58:	17912623          	sw	s9,364(sp)
    1d5c:	00900c93          	li	s9,9
    1d60:	36200c13          	li	s8,866
    1d64:	0b912a23          	sw	s9,180(sp)
    1d68:	013c4463          	blt	s8,s3,1d70 <.L441>
    1d6c:	6c80306f          	j	5434 <.L3063>

00001d70 <.L441>:
    1d70:	ff700c13          	li	s8,-9
    1d74:	0186d463          	bge	a3,s8,1d7c <.L2647>
    1d78:	30c0206f          	j	4084 <.L2648>

00001d7c <.L2647>:
    1d7c:	e0d00c13          	li	s8,-499
    1d80:	01844463          	blt	s0,s8,1d88 <.L2647+0xc>
    1d84:	0f41106f          	j	12e78 <.L3109>
    1d88:	00a00c13          	li	s8,10
    1d8c:	1f812a23          	sw	s8,500(sp)

00001d90 <.L488>:
    1d90:	ff600c93          	li	s9,-10
    1d94:	27d00c13          	li	s8,637
    1d98:	1d912a23          	sw	s9,468(sp)
    1d9c:	016c5663          	bge	s8,s6,1da8 <.L485>
    1da0:	00400c13          	li	s8,4
    1da4:	1d812a23          	sw	s8,468(sp)

00001da8 <.L485>:
    1da8:	34b00c13          	li	s8,843
    1dac:	0cec5ce3          	bge	s8,a4,2684 <.L453>

00001db0 <.L528>:
    1db0:	00001c37          	lui	s8,0x1
    1db4:	a9dc0c13          	addi	s8,s8,-1379 # a9d <.L248+0x5>
    1db8:	00cc4463          	blt	s8,a2,1dc0 <.L534>
    1dbc:	5710606f          	j	8b2c <.L538>

00001dc0 <.L534>:
    1dc0:	00b00c13          	li	s8,11
    1dc4:	01dc4463          	blt	s8,t4,1dcc <.L534+0xc>
    1dc8:	3a80806f          	j	a170 <.L539>
    1dcc:	0f000c13          	li	s8,240
    1dd0:	01ec4463          	blt	s8,t5,1dd8 <.L534+0x18>
    1dd4:	6400b06f          	j	d414 <.L540>
    1dd8:	d6c00c13          	li	s8,-660
    1ddc:	018ad463          	bge	s5,s8,1de4 <.L534+0x24>
    1de0:	7c80b06f          	j	d5a8 <.L541>
    1de4:	18000c13          	li	s8,384
    1de8:	012c4463          	blt	s8,s2,1df0 <.L534+0x30>
    1dec:	0841306f          	j	14e70 <.L3155>
    1df0:	00700c13          	li	s8,7
    1df4:	2b812223          	sw	s8,676(sp)
    1df8:	ff500c13          	li	s8,-11
    1dfc:	21812423          	sw	s8,520(sp)

00001e00 <.L542>:
    1e00:	ff900c13          	li	s8,-7
    1e04:	0186d463          	bge	a3,s8,1e0c <.L542+0xc>
    1e08:	7380706f          	j	9540 <.L567>
    1e0c:	00900c93          	li	s9,9
    1e10:	03c00c13          	li	s8,60
    1e14:	0b912e23          	sw	s9,188(sp)
    1e18:	00fc5663          	bge	s8,a5,1e24 <.L568>
    1e1c:	ffb00c13          	li	s8,-5
    1e20:	0b812e23          	sw	s8,188(sp)

00001e24 <.L568>:
    1e24:	0b500c13          	li	s8,181
    1e28:	01ec5463          	bge	s8,t5,1e30 <.L568+0xc>
    1e2c:	6650406f          	j	6c90 <.L569>
    1e30:	00b00c13          	li	s8,11
    1e34:	010c4463          	blt	s8,a6,1e3c <.L568+0x18>
    1e38:	7a90906f          	j	bde0 <.L589>
    1e3c:	ecc00c13          	li	s8,-308
    1e40:	0184d463          	bge	s1,s8,1e48 <.L568+0x24>
    1e44:	7650906f          	j	bda8 <.L590>
    1e48:	07200c13          	li	s8,114
    1e4c:	00ec4463          	blt	s8,a4,1e54 <.L568+0x30>
    1e50:	0ec0b06f          	j	cf3c <.L581>
    1e54:	2aa00c13          	li	s8,682
    1e58:	00cc4463          	blt	s8,a2,1e60 <.L568+0x3c>
    1e5c:	0890e06f          	j	106e4 <.L591>
    1e60:	4be00c13          	li	s8,1214
    1e64:	00ec4463          	blt	s8,a4,1e6c <.L568+0x48>
    1e68:	0650e06f          	j	106cc <.L5987>
    1e6c:	00300c13          	li	s8,3
    1e70:	1f812423          	sw	s8,488(sp)
    1e74:	ff600c13          	li	s8,-10
    1e78:	23812a23          	sw	s8,564(sp)

00001e7c <.L577>:
    1e7c:	00200c13          	li	s8,2
    1e80:	01dc4463          	blt	s8,t4,1e88 <.L577+0xc>
    1e84:	6580606f          	j	84dc <.L604>
    1e88:	ff700c93          	li	s9,-9
    1e8c:	12800c13          	li	s8,296
    1e90:	0f912a23          	sw	s9,244(sp)
    1e94:	0d2c5ae3          	bge	s8,s2,2768 <.L603>
    1e98:	ffe00c13          	li	s8,-2
    1e9c:	0f812a23          	sw	s8,244(sp)
    1ea0:	03300c13          	li	s8,51
    1ea4:	0c7c46e3          	blt	s8,t2,2770 <.L6133>

00001ea8 <.L605>:
    1ea8:	fe200c13          	li	s8,-30
    1eac:	0186d463          	bge	a3,s8,1eb4 <.L605+0xc>
    1eb0:	5b80606f          	j	8468 <.L609>
    1eb4:	64b00c13          	li	s8,1611
    1eb8:	00ec4463          	blt	s8,a4,1ec0 <.L605+0x18>
    1ebc:	5010806f          	j	abbc <.L3229>
    1ec0:	1ac00c13          	li	s8,428
    1ec4:	016c5463          	bge	s8,s6,1ecc <.L605+0x24>
    1ec8:	47c0606f          	j	8344 <.L3230>
    1ecc:	ffe00c13          	li	s8,-2
    1ed0:	27812823          	sw	s8,624(sp)

00001ed4 <.L611>:
    1ed4:	ff900c13          	li	s8,-7
    1ed8:	0186d463          	bge	a3,s8,1ee0 <.L611+0xc>
    1edc:	7940606f          	j	8670 <.L615>
    1ee0:	00500c93          	li	s9,5
    1ee4:	03b00c13          	li	s8,59
    1ee8:	0f912e23          	sw	s9,252(sp)
    1eec:	0cfc56e3          	bge	s8,a5,27b8 <.L614>
    1ef0:	ffb00c13          	li	s8,-5
    1ef4:	0f812e23          	sw	s8,252(sp)
    1ef8:	0b500c13          	li	s8,181
    1efc:	0dec52e3          	bge	s8,t5,27c0 <.L617>

00001f00 <.L2643>:
    1f00:	f5700c13          	li	s8,-169
    1f04:	01835463          	bge	t1,s8,1f0c <.L2643+0xc>
    1f08:	4800606f          	j	8388 <.L618>
    1f0c:	03800c13          	li	s8,56
    1f10:	0c012223          	sw	zero,196(sp)
    1f14:	0c7c58e3          	bge	s8,t2,27e4 <.L619>
    1f18:	ff500c13          	li	s8,-11
    1f1c:	0d812223          	sw	s8,196(sp)
    1f20:	03400c13          	li	s8,52
    1f24:	0dcc44e3          	blt	s8,t3,27ec <.L6134>

00001f28 <.L624>:
    1f28:	ff800c13          	li	s8,-8
    1f2c:	0186d463          	bge	a3,s8,1f34 <.L624+0xc>
    1f30:	3780606f          	j	82a8 <.L638>
    1f34:	ea700c13          	li	s8,-345
    1f38:	0188c463          	blt	a7,s8,1f40 <.L624+0x18>
    1f3c:	0f80606f          	j	8034 <.L639>
    1f40:	00700c13          	li	s8,7
    1f44:	19812223          	sw	s8,388(sp)

00001f48 <.L636>:
    1f48:	03300c13          	li	s8,51
    1f4c:	007c5463          	bge	s8,t2,1f54 <.L2641>
    1f50:	1680506f          	j	70b8 <.L2640>

00001f54 <.L2641>:
    1f54:	32100c13          	li	s8,801
    1f58:	00cc2c33          	slt	s8,s8,a2
    1f5c:	41800c33          	neg	s8,s8
    1f60:	009c7c13          	andi	s8,s8,9
    1f64:	ff5c0c13          	addi	s8,s8,-11
    1f68:	23812c23          	sw	s8,568(sp)

00001f6c <.L662>:
    1f6c:	1ac00c13          	li	s8,428
    1f70:	016c5463          	bge	s8,s6,1f78 <.L662+0xc>
    1f74:	5580506f          	j	74cc <.L633>
    1f78:	00400c13          	li	s8,4
    1f7c:	01dc4463          	blt	s8,t4,1f84 <.L662+0x18>
    1f80:	0010906f          	j	b780 <.L675>
    1f84:	01400c13          	li	s8,20
    1f88:	010c4463          	blt	s8,a6,1f90 <.L662+0x24>
    1f8c:	0990c06f          	j	e824 <.L3268>
    1f90:	ff700c93          	li	s9,-9
    1f94:	03100c13          	li	s8,49
    1f98:	0b912423          	sw	s9,168(sp)
    1f9c:	007c5463          	bge	s8,t2,1fa4 <.L666>
    1fa0:	4a81106f          	j	13448 <.L650>

00001fa4 <.L666>:
    1fa4:	1f500c13          	li	s8,501
    1fa8:	00ec4463          	blt	s8,a4,1fb0 <.L666+0xc>
    1fac:	3740706f          	j	9320 <.L682>
    1fb0:	ddc00c13          	li	s8,-548
    1fb4:	0184d463          	bge	s1,s8,1fbc <.L666+0x18>
    1fb8:	6190806f          	j	add0 <.L683>
    1fbc:	30000c13          	li	s8,768
    1fc0:	013c5463          	bge	s8,s3,1fc8 <.L666+0x24>
    1fc4:	5710a06f          	j	cd34 <.L3274>
    1fc8:	ff800c13          	li	s8,-8
    1fcc:	0186d463          	bge	a3,s8,1fd4 <.L666+0x30>
    1fd0:	1e50f06f          	j	119b4 <.L685>
    1fd4:	ea900c13          	li	s8,-343
    1fd8:	0188d463          	bge	a7,s8,1fe0 <.L666+0x3c>
    1fdc:	4201306f          	j	153fc <.L6135>
    1fe0:	fff00c13          	li	s8,-1
    1fe4:	17812a23          	sw	s8,372(sp)
    1fe8:	00600c13          	li	s8,6
    1fec:	0f812623          	sw	s8,236(sp)

00001ff0 <.L695>:
    1ff0:	32100c13          	li	s8,801
    1ff4:	00cc2c33          	slt	s8,s8,a2
    1ff8:	41800c33          	neg	s8,s8
    1ffc:	ff6c6c13          	ori	s8,s8,-10
    2000:	19812c23          	sw	s8,408(sp)

00002004 <.L751>:
    2004:	1b900c13          	li	s8,441
    2008:	0d3c44e3          	blt	s8,s3,28d0 <.L694>

0000200c <.L752>:
    200c:	03b00c13          	li	s8,59
    2010:	00fc5463          	bge	s8,a5,2018 <.L752+0xc>
    2014:	2740706f          	j	9288 <.L740>
    2018:	03200c13          	li	s8,50
    201c:	007c5463          	bge	s8,t2,2024 <.L752+0x18>
    2020:	7a80706f          	j	97c8 <.L741>
    2024:	03500c13          	li	s8,53
    2028:	00ec4463          	blt	s8,a4,2030 <.L752+0x24>
    202c:	1180506f          	j	7144 <.L3356>
    2030:	0e100c13          	li	s8,225
    2034:	00cc4463          	blt	s8,a2,203c <.L752+0x30>
    2038:	2541006f          	j	1228c <.L3357>
    203c:	ff600c13          	li	s8,-10
    2040:	1d812823          	sw	s8,464(sp)
    2044:	ffb00c13          	li	s8,-5
    2048:	21812c23          	sw	s8,536(sp)
    204c:	0cd0006f          	j	2918 <.L757>

00002050 <.L2652>:
    2050:	03d00c13          	li	s8,61
    2054:	00fc4463          	blt	s8,a5,205c <.L409>
    2058:	2451a06f          	j	1ca9c <.L6136>

0000205c <.L409>:
    205c:	35d00c13          	li	s8,861
    2060:	013c4463          	blt	s8,s3,2068 <.L409+0xc>
    2064:	1580306f          	j	51bc <.L3025>
    2068:	2df00c13          	li	s8,735
    206c:	00ec5463          	bge	s8,a4,2074 <.L409+0x18>
    2070:	2ec0306f          	j	535c <.L3026>
    2074:	1e012823          	sw	zero,496(sp)

00002078 <.L417>:
    2078:	00400c13          	li	s8,4
    207c:	01dc4463          	blt	s8,t4,2084 <.L417+0xc>
    2080:	4700f06f          	j	114f0 <.L418>
    2084:	00100c93          	li	s9,1
    2088:	11912423          	sw	s9,264(sp)
    208c:	00300c93          	li	s9,3
    2090:	1a600c13          	li	s8,422
    2094:	1d912423          	sw	s9,456(sp)
    2098:	c32c4ae3          	blt	s8,s2,1ccc <.L419>

0000209c <.L5721>:
    209c:	ff600c13          	li	s8,-10
    20a0:	11812423          	sw	s8,264(sp)
    20a4:	c29ff06f          	j	1ccc <.L419>

000020a8 <.L88>:
    20a8:	02a51803          	lh	a6,42(a0)
    20ac:	01600713          	li	a4,22
    20b0:	01075463          	bge	a4,a6,20b8 <.L88+0x10>
    20b4:	00d0206f          	j	48c0 <.L95>
    20b8:	00b00693          	li	a3,11
    20bc:	0a900713          	li	a4,169
    20c0:	28d12423          	sw	a3,648(sp)
    20c4:	01375463          	bge	a4,s3,20cc <.L88+0x24>
    20c8:	954fe06f          	j	21c <.L90>
    20cc:	01451883          	lh	a7,20(a0)

000020d0 <.L94>:
    20d0:	00b00693          	li	a3,11
    20d4:	01a00713          	li	a4,26
    20d8:	28d12423          	sw	a3,648(sp)
    20dc:	00b74463          	blt	a4,a1,20e4 <.L96>
    20e0:	45c0206f          	j	453c <.L5708>

000020e4 <.L96>:
    20e4:	02051e83          	lh	t4,32(a0)
    20e8:	ff700693          	li	a3,-9
    20ec:	00400713          	li	a4,4
    20f0:	16d12423          	sw	a3,360(sp)
    20f4:	01d75463          	bge	a4,t4,20fc <.L91>
    20f8:	16e12423          	sw	a4,360(sp)

000020fc <.L91>:
    20fc:	01851683          	lh	a3,24(a0)
    2100:	ff500713          	li	a4,-11
    2104:	00e6d463          	bge	a3,a4,210c <.L91+0x10>
    2108:	4400206f          	j	4548 <.L115>
    210c:	00a00713          	li	a4,10
    2110:	01f74463          	blt	a4,t6,2118 <.L91+0x1c>
    2114:	4f90206f          	j	4e0c <.L116>
    2118:	ffb00313          	li	t1,-5
    211c:	ff700713          	li	a4,-9
    2120:	2c612623          	sw	t1,716(sp)
    2124:	00e6d463          	bge	a3,a4,212c <.L117>
    2128:	2a50306f          	j	5bcc <.L118>

0000212c <.L117>:
    212c:	01a00713          	li	a4,26
    2130:	00b74463          	blt	a4,a1,2138 <.L117+0xc>
    2134:	27c0306f          	j	53b0 <.L6137>
    2138:	ffb00713          	li	a4,-5
    213c:	24e12423          	sw	a4,584(sp)
    2140:	41c0206f          	j	455c <.L137>

00002144 <.L444>:
    2144:	0b500c13          	li	s8,181
    2148:	01ec4463          	blt	s8,t5,2150 <.L444+0xc>
    214c:	7e90206f          	j	5134 <.L447>
    2150:	e2700c13          	li	s8,-473
    2154:	01845463          	bge	s0,s8,215c <.L444+0x18>
    2158:	3080306f          	j	5460 <.L448>
    215c:	0ce00c13          	li	s8,206
    2160:	016c5463          	bge	s8,s6,2168 <.L444+0x24>
    2164:	0491106f          	j	139ac <.L3051>
    2168:	00800c13          	li	s8,8
    216c:	17812623          	sw	s8,364(sp)
    2170:	b99ff06f          	j	1d08 <.L440>

00002174 <.L436>:
    2174:	0b500c13          	li	s8,181
    2178:	01ec4463          	blt	s8,t5,2180 <.L436+0xc>
    217c:	6c10206f          	j	503c <.L442>
    2180:	e2700c13          	li	s8,-473
    2184:	01845463          	bge	s0,s8,218c <.L436+0x18>
    2188:	2900306f          	j	5418 <.L443>
    218c:	0ce00c13          	li	s8,206
    2190:	016c5463          	bge	s8,s6,2198 <.L436+0x24>
    2194:	0090206f          	j	499c <.L3047>
    2198:	ffb00c13          	li	s8,-5
    219c:	17812623          	sw	s8,364(sp)
    21a0:	b69ff06f          	j	1d08 <.L440>

000021a4 <.L2843>:
    21a4:	ffd00c13          	li	s8,-3
    21a8:	11812223          	sw	s8,260(sp)
    21ac:	a64fe06f          	j	410 <.L187>

000021b0 <.L2751>:
    21b0:	ffd00713          	li	a4,-3
    21b4:	2ce12e23          	sw	a4,732(sp)
    21b8:	ffb00713          	li	a4,-5
    21bc:	2ce12c23          	sw	a4,728(sp)
    21c0:	d78fe06f          	j	738 <.L69>

000021c4 <.L149>:
    21c4:	0a900713          	li	a4,169
    21c8:	1c012023          	sw	zero,448(sp)
    21cc:	01374463          	blt	a4,s3,21d4 <.L2816>
    21d0:	e28fe06f          	j	7f8 <.L151>

000021d4 <.L2816>:
    21d4:	ff700713          	li	a4,-9
    21d8:	1ae12c23          	sw	a4,440(sp)
    21dc:	94cfe06f          	j	328 <.L150>

000021e0 <.L2958>:
    21e0:	ff600c13          	li	s8,-10
    21e4:	29812823          	sw	s8,656(sp)
    21e8:	b69fe06f          	j	d50 <.L324>

000021ec <.L143>:
    21ec:	01f00713          	li	a4,31
    21f0:	01475463          	bge	a4,s4,21f8 <.L143+0xc>
    21f4:	3c40206f          	j	45b8 <.L2806>
    21f8:	02051e83          	lh	t4,32(a0)
    21fc:	00600713          	li	a4,6
    2200:	26e12c23          	sw	a4,632(sp)
    2204:	01d05463          	blez	t4,220c <.L143+0x20>
    2208:	8d4fe06f          	j	2dc <.L2809>
    220c:	dd4fe06f          	j	7e0 <.L5713>

00002210 <.L6078>:
    2210:	00051783          	lh	a5,0(a0)

00002214 <.L54>:
    2214:	0d800713          	li	a4,216
    2218:	01f74463          	blt	a4,t6,2220 <.L54+0xc>
    221c:	cb8fe06f          	j	6d4 <.L6138>
    2220:	01900713          	li	a4,25
    2224:	01475463          	bge	a4,s4,222c <.L54+0x18>
    2228:	1e00f06f          	j	11408 <.L5429>
    222c:	fff00713          	li	a4,-1
    2230:	2ae12023          	sw	a4,672(sp)

00002234 <.L2675>:
    2234:	0a900713          	li	a4,169
    2238:	20012223          	sw	zero,516(sp)
    223c:	01251903          	lh	s2,18(a0)
    2240:	01374463          	blt	a4,s3,2248 <.L2675+0x14>
    2244:	f49fd06f          	j	18c <.L64>
    2248:	991ff06f          	j	1bd8 <.L47>

0000224c <.L2900>:
    224c:	ffe00c13          	li	s8,-2
    2250:	23812023          	sw	s8,544(sp)
    2254:	a19fe06f          	j	c6c <.L257>

00002258 <.L6127>:
    2258:	0005c463          	bltz	a1,2260 <.L6127+0x8>
    225c:	79d0206f          	j	51f8 <.L2782>
    2260:	0cd00713          	li	a4,205
    2264:	00c74463          	blt	a4,a2,226c <.L6127+0x14>
    2268:	1780306f          	j	53e0 <.L2783>
    226c:	0def2713          	slti	a4,t5,222
    2270:	fff70713          	addi	a4,a4,-1
    2274:	00774713          	xori	a4,a4,7
    2278:	24e12423          	sw	a4,584(sp)
    227c:	fff00713          	li	a4,-1
    2280:	01451883          	lh	a7,20(a0)
    2284:	2ce12623          	sw	a4,716(sp)
    2288:	ff5fd06f          	j	27c <.L112>

0000228c <.L365>:
    228c:	1de00c13          	li	s8,478
    2290:	18ec5463          	bge	s8,a4,2418 <.L3010>
    2294:	ff600c13          	li	s8,-10
    2298:	15812823          	sw	s8,336(sp)

0000229c <.L374>:
    229c:	4ae00c13          	li	s8,1198
    22a0:	00cc5463          	bge	s8,a2,22a8 <.L374+0xc>
    22a4:	68c0206f          	j	4930 <.L3011>
    22a8:	ff600c13          	li	s8,-10
    22ac:	29812c23          	sw	s8,664(sp)
    22b0:	838ff06f          	j	12e8 <.L385>

000022b4 <.L2896>:
    22b4:	00800c13          	li	s8,8
    22b8:	27812223          	sw	s8,612(sp)
    22bc:	b14ff06f          	j	15d0 <.L250>

000022c0 <.L2905>:
    22c0:	00900c13          	li	s8,9
    22c4:	23812023          	sw	s8,544(sp)
    22c8:	b9dfe06f          	j	e64 <.L258>

000022cc <.L79>:
    22cc:	0f600b93          	li	s7,246
    22d0:	01ebabb3          	slt	s7,s7,t5
    22d4:	41700bb3          	neg	s7,s7
    22d8:	ff9bfb93          	andi	s7,s7,-7
    22dc:	002b8b93          	addi	s7,s7,2
    22e0:	c80fe06f          	j	760 <.L78>

000022e4 <.L171>:
    22e4:	fa100c13          	li	s8,-95
    22e8:	0188c463          	blt	a7,s8,22f0 <.L171+0xc>
    22ec:	1590206f          	j	4c44 <.L2826>
    22f0:	fff00c13          	li	s8,-1
    22f4:	29812623          	sw	s8,652(sp)

000022f8 <.L170>:
    22f8:	00400c13          	li	s8,4
    22fc:	010c2c33          	slt	s8,s8,a6
    2300:	41800c33          	neg	s8,s8
    2304:	ff4c7c13          	andi	s8,s8,-12
    2308:	00cc0c13          	addi	s8,s8,12
    230c:	23812823          	sw	s8,560(sp)
    2310:	d88fe06f          	j	898 <.L169>

00002314 <.L2869>:
    2314:	fff00c13          	li	s8,-1
    2318:	27812423          	sw	s8,616(sp)
    231c:	d1cff06f          	j	1838 <.L217>

00002320 <.L2832>:
    2320:	fea00c13          	li	s8,-22
    2324:	00251703          	lh	a4,2(a0)
    2328:	23812823          	sw	s8,560(sp)
    232c:	890fe06f          	j	3bc <.L178>

00002330 <.L2753>:
    2330:	ff700713          	li	a4,-9
    2334:	2ce12e23          	sw	a4,732(sp)
    2338:	ff800713          	li	a4,-8
    233c:	2ce12c23          	sw	a4,728(sp)
    2340:	bf8fe06f          	j	738 <.L69>

00002344 <.L24>:
    2344:	0d900793          	li	a5,217
    2348:	0137d463          	bge	a5,s3,2350 <.L24+0xc>
    234c:	6a00206f          	j	49ec <.L2722>
    2350:	ff400793          	li	a5,-12
    2354:	01051b03          	lh	s6,16(a0)
    2358:	00c51f83          	lh	t6,12(a0)
    235c:	2af12a23          	sw	a5,692(sp)
    2360:	a34fe06f          	j	594 <.L2679>

00002364 <.L6086>:
    2364:	00a00713          	li	a4,10
    2368:	01251903          	lh	s2,18(a0)
    236c:	20e12223          	sw	a4,516(sp)
    2370:	00b00713          	li	a4,11
    2374:	2ae12023          	sw	a4,672(sp)

00002378 <.L2712>:
    2378:	f5c00713          	li	a4,-164
    237c:	00e45463          	bge	s0,a4,2384 <.L2712+0xc>
    2380:	6840206f          	j	4a04 <.L72>
    2384:	0bb00713          	li	a4,187
    2388:	01f75463          	bge	a4,t6,2390 <.L2712+0x18>
    238c:	0090306f          	j	5b94 <.L6139>
    2390:	18500713          	li	a4,389
    2394:	01275463          	bge	a4,s2,239c <.L2712+0x24>
    2398:	6740206f          	j	4a0c <.L5705>
    239c:	00b00713          	li	a4,11
    23a0:	2ce12e23          	sw	a4,732(sp)
    23a4:	00a00713          	li	a4,10
    23a8:	2ce12c23          	sw	a4,728(sp)
    23ac:	00900b93          	li	s7,9
    23b0:	e1dfd06f          	j	1cc <.L75>

000023b4 <.L27>:
    23b4:	0d900793          	li	a5,217
    23b8:	2a012a23          	sw	zero,692(sp)
    23bc:	0137d463          	bge	a5,s3,23c4 <.L27+0x10>
    23c0:	00c0206f          	j	43cc <.L28>
    23c4:	01051b03          	lh	s6,16(a0)
    23c8:	d29fd06f          	j	f0 <.L20>

000023cc <.L2726>:
    23cc:	00e00793          	li	a5,14
    23d0:	1af12423          	sw	a5,424(sp)
    23d4:	01100793          	li	a5,17
    23d8:	1af12223          	sw	a5,420(sp)
    23dc:	00c00793          	li	a5,12
    23e0:	00651a83          	lh	s5,6(a0)
    23e4:	02651283          	lh	t0,38(a0)
    23e8:	00a51603          	lh	a2,10(a0)
    23ec:	20f12023          	sw	a5,512(sp)
    23f0:	d41fd06f          	j	130 <.L35>

000023f4 <.L2892>:
    23f4:	00500c13          	li	s8,5
    23f8:	1b812a23          	sw	s8,436(sp)
    23fc:	e7cfe06f          	j	a78 <.L244>

00002400 <.L364>:
    2400:	00800c13          	li	s8,8
    2404:	010c4463          	blt	s8,a6,240c <.L364+0xc>
    2408:	5110106f          	j	4118 <.L378>
    240c:	0f200c13          	li	s8,242
    2410:	01ec5463          	bge	s8,t5,2418 <.L3010>
    2414:	6600306f          	j	5a74 <.L379>

00002418 <.L3010>:
    2418:	ff600c13          	li	s8,-10
    241c:	29812c23          	sw	s8,664(sp)
    2420:	15812823          	sw	s8,336(sp)

00002424 <.L380>:
    2424:	ffd00c13          	li	s8,-3
    2428:	0b86ce63          	blt	a3,s8,24e4 <.L394>

0000242c <.L2653>:
    242c:	ff900c93          	li	s9,-7
    2430:	f1900c13          	li	s8,-231
    2434:	15912623          	sw	s9,332(sp)
    2438:	018ad663          	bge	s5,s8,2444 <.L396>
    243c:	01200c13          	li	s8,18
    2440:	15812623          	sw	s8,332(sp)

00002444 <.L396>:
    2444:	0a600c13          	li	s8,166
    2448:	00ec5463          	bge	s8,a4,2450 <.L396+0xc>
    244c:	be9fe06f          	j	1034 <.L393>
    2450:	ffd00c13          	li	s8,-3
    2454:	0b868c63          	beq	a3,s8,250c <.L411>

00002458 <.L401>:
    2458:	f8c00c13          	li	s8,-116
    245c:	0184d463          	bge	s1,s8,2464 <.L401+0xc>
    2460:	4d50106f          	j	4134 <.L3022>
    2464:	08000c13          	li	s8,128
    2468:	00ec4463          	blt	s8,a4,2470 <.L401+0x18>
    246c:	6180206f          	j	4a84 <.L3023>
    2470:	03d00c13          	li	s8,61
    2474:	00fc4463          	blt	s8,a5,247c <.L401+0x24>
    2478:	5f00306f          	j	5a68 <.L6140>
    247c:	ff600c93          	li	s9,-10
    2480:	35d00c13          	li	s8,861
    2484:	1f912823          	sw	s9,496(sp)
    2488:	bf3c48e3          	blt	s8,s3,2078 <.L417>
    248c:	ff700c93          	li	s9,-9
    2490:	00400c13          	li	s8,4
    2494:	1d912423          	sw	s9,456(sp)
    2498:	0bdc4e63          	blt	s8,t4,2554 <.L427>
    249c:	09700c13          	li	s8,151
    24a0:	01ec4463          	blt	s8,t5,24a8 <.L401+0x50>
    24a4:	2cd1b06f          	j	1df70 <.L3039>
    24a8:	00900c13          	li	s8,9
    24ac:	11812423          	sw	s8,264(sp)
    24b0:	ff700c13          	li	s8,-9
    24b4:	1d812423          	sw	s8,456(sp)
    24b8:	815ff06f          	j	1ccc <.L419>

000024bc <.L367>:
    24bc:	00800c13          	li	s8,8
    24c0:	010c4463          	blt	s8,a6,24c8 <.L367+0xc>
    24c4:	4e00306f          	j	59a4 <.L375>
    24c8:	0f200c13          	li	s8,242
    24cc:	01ec2c33          	slt	s8,s8,t5
    24d0:	41800c33          	neg	s8,s8
    24d4:	ff6c6c13          	ori	s8,s8,-10
    24d8:	29812c23          	sw	s8,664(sp)
    24dc:	00200c13          	li	s8,2
    24e0:	15812823          	sw	s8,336(sp)

000024e4 <.L394>:
    24e4:	1b300c13          	li	s8,435
    24e8:	012c2c33          	slt	s8,s8,s2
    24ec:	41800c33          	neg	s8,s8
    24f0:	00ac7c13          	andi	s8,s8,10
    24f4:	000c0c93          	mv	s9,s8
    24f8:	ff7c8c93          	addi	s9,s9,-9
    24fc:	0a600c13          	li	s8,166
    2500:	15912623          	sw	s9,332(sp)
    2504:	00ec5463          	bge	s8,a4,250c <.L411>
    2508:	b2dfe06f          	j	1034 <.L393>

0000250c <.L411>:
    250c:	00100c93          	li	s9,1
    2510:	e2c00c13          	li	s8,-468
    2514:	1f912823          	sw	s9,496(sp)
    2518:	0188c463          	blt	a7,s8,2520 <.L412>
    251c:	4550106f          	j	4170 <.L398>

00002520 <.L412>:
    2520:	08000c13          	li	s8,128
    2524:	00ec5463          	bge	s8,a4,252c <.L413>
    2528:	2891b06f          	j	1dfb0 <.L6141>

0000252c <.L413>:
    252c:	ffd00c13          	li	s8,-3
    2530:	0b86c663          	blt	a3,s8,25dc <.L424>
    2534:	0d500c13          	li	s8,213
    2538:	012c4463          	blt	s8,s2,2540 <.L413+0x14>
    253c:	3610106f          	j	409c <.L6142>
    2540:	00f00c13          	li	s8,15
    2544:	1d812423          	sw	s8,456(sp)

00002548 <.L425>:
    2548:	00400c13          	li	s8,4
    254c:	01dc4463          	blt	s8,t4,2554 <.L427>
    2550:	35d0106f          	j	40ac <.L428>

00002554 <.L427>:
    2554:	1a600c13          	li	s8,422
    2558:	012c2c33          	slt	s8,s8,s2
    255c:	41800c33          	neg	s8,s8
    2560:	00bc7c13          	andi	s8,s8,11
    2564:	ff6c0c13          	addi	s8,s8,-10
    2568:	11812423          	sw	s8,264(sp)

0000256c <.L430>:
    256c:	07600c13          	li	s8,118
    2570:	f4ec4e63          	blt	s8,a4,1ccc <.L419>
    2574:	ffe00c13          	li	s8,-2
    2578:	0986c063          	blt	a3,s8,25f8 <.L449>
    257c:	09900c13          	li	s8,153
    2580:	013c5463          	bge	s8,s3,2588 <.L430+0x1c>
    2584:	1500206f          	j	46d4 <.L3053>
    2588:	0b500c13          	li	s8,181
    258c:	01ec4463          	blt	s8,t5,2594 <.L430+0x28>
    2590:	34d0106f          	j	40dc <.L433>
    2594:	e2700c13          	li	s8,-473
    2598:	01844463          	blt	s0,s8,25a0 <.L430+0x34>
    259c:	7190106f          	j	44b4 <.L3054>
    25a0:	03900c13          	li	s8,57
    25a4:	00ec4463          	blt	s8,a4,25ac <.L430+0x40>
    25a8:	4951206f          	j	1523c <.L452>
    25ac:	e0d00c13          	li	s8,-499
    25b0:	01845463          	bge	s0,s8,25b8 <.L430+0x4c>
    25b4:	1211506f          	j	17ed4 <.L6143>
    25b8:	00600c13          	li	s8,6

000025bc <.L5724>:
    25bc:	1d812a23          	sw	s8,468(sp)
    25c0:	00a00c13          	li	s8,10
    25c4:	1f812a23          	sw	s8,500(sp)
    25c8:	ff900c13          	li	s8,-7
    25cc:	0b812a23          	sw	s8,180(sp)
    25d0:	ff600c13          	li	s8,-10
    25d4:	17812623          	sw	s8,364(sp)
    25d8:	0ac0006f          	j	2684 <.L453>

000025dc <.L424>:
    25dc:	ff700c93          	li	s9,-9
    25e0:	36800c13          	li	s8,872
    25e4:	1d912423          	sw	s9,456(sp)
    25e8:	f76c50e3          	bge	s8,s6,2548 <.L425>
    25ec:	01700c13          	li	s8,23
    25f0:	1d812423          	sw	s8,456(sp)
    25f4:	f55ff06f          	j	2548 <.L425>

000025f8 <.L449>:
    25f8:	e2c8ac13          	slti	s8,a7,-468
    25fc:	41800c33          	neg	s8,s8
    2600:	009c7c13          	andi	s8,s8,9
    2604:	ff8c0c13          	addi	s8,s8,-8
    2608:	17812623          	sw	s8,364(sp)

0000260c <.L450>:
    260c:	0b500c13          	li	s8,181
    2610:	01ec4463          	blt	s8,t5,2618 <.L450+0xc>
    2614:	2210106f          	j	4034 <.L432>
    2618:	e2700c13          	li	s8,-473
    261c:	01844463          	blt	s0,s8,2624 <.L450+0x18>
    2620:	69d0106f          	j	44bc <.L451>
    2624:	36200c13          	li	s8,866
    2628:	013c4463          	blt	s8,s3,2630 <.L450+0x24>
    262c:	5410206f          	j	536c <.L6144>
    2630:	03900c13          	li	s8,57
    2634:	00ec5463          	bge	s8,a4,263c <.L450+0x30>
    2638:	1a91906f          	j	1bfe0 <.L6145>
    263c:	00700c13          	li	s8,7
    2640:	010c5463          	bge	s8,a6,2648 <.L450+0x3c>
    2644:	77c0206f          	j	4dc0 <.L6146>
    2648:	00a00c13          	li	s8,10
    264c:	01cc5463          	bge	s8,t3,2654 <.L450+0x48>
    2650:	3840d06f          	j	f9d4 <.L3099>
    2654:	00900c13          	li	s8,9
    2658:	0b812a23          	sw	s8,180(sp)

0000265c <.L510>:
    265c:	e0d00c13          	li	s8,-499
    2660:	01844463          	blt	s0,s8,2668 <.L510+0xc>
    2664:	6b50e06f          	j	11518 <.L504>
    2668:	27d00c13          	li	s8,637
    266c:	016c5463          	bge	s8,s6,2674 <.L510+0x18>
    2670:	2ad1106f          	j	1411c <.L3101>
    2674:	ff600c13          	li	s8,-10
    2678:	1d812a23          	sw	s8,468(sp)
    267c:	ffc00c13          	li	s8,-4
    2680:	1f812a23          	sw	s8,500(sp)

00002684 <.L453>:
    2684:	ff900c13          	li	s8,-7
    2688:	0186d463          	bge	a3,s8,2690 <.L453+0xc>
    268c:	5190506f          	j	83a4 <.L459>
    2690:	f208ac13          	slti	s8,a7,-224
    2694:	41800c33          	neg	s8,s8
    2698:	00ec7c13          	andi	s8,s8,14
    269c:	ffbc0c13          	addi	s8,s8,-5
    26a0:	21812423          	sw	s8,520(sp)

000026a4 <.L529>:
    26a4:	0f000c13          	li	s8,240
    26a8:	01ec4463          	blt	s8,t5,26b0 <.L529+0xc>
    26ac:	1cc0306f          	j	5878 <.L460>
    26b0:	d6c00c13          	li	s8,-660
    26b4:	018ad463          	bge	s5,s8,26bc <.L529+0x18>
    26b8:	4e50706f          	j	a39c <.L550>
    26bc:	18000c13          	li	s8,384
    26c0:	012c4463          	blt	s8,s2,26c8 <.L529+0x24>
    26c4:	2500b06f          	j	d914 <.L551>
    26c8:	03900c13          	li	s8,57
    26cc:	00ec5463          	bge	s8,a4,26d4 <.L529+0x30>
    26d0:	29c1706f          	j	1996c <.L3172>
    26d4:	00900c13          	li	s8,9
    26d8:	010c4463          	blt	s8,a6,26e0 <.L529+0x3c>
    26dc:	65d0e06f          	j	11538 <.L3173>
    26e0:	1ab00c13          	li	s8,427
    26e4:	005c4463          	blt	s8,t0,26ec <.L529+0x48>
    26e8:	0a11206f          	j	14f88 <.L3174>
    26ec:	00400c13          	li	s8,4
    26f0:	01dc4463          	blt	s8,t4,26f8 <.L529+0x54>
    26f4:	7991406f          	j	1768c <.L554>
    26f8:	1dc00c13          	li	s8,476
    26fc:	016c4463          	blt	s8,s6,2704 <.L529+0x60>
    2700:	0b81706f          	j	197b8 <.L3175>
    2704:	fff00c13          	li	s8,-1
    2708:	0b812e23          	sw	s8,188(sp)
    270c:	00700c13          	li	s8,7
    2710:	2b812223          	sw	s8,676(sp)
    2714:	00300c13          	li	s8,3
    2718:	23812a23          	sw	s8,564(sp)

0000271c <.L555>:
    271c:	ffa00c13          	li	s8,-6
    2720:	0186c463          	blt	a3,s8,2728 <.L555+0xc>
    2724:	5d50506f          	j	84f8 <.L576>
    2728:	ff700c93          	li	s9,-9
    272c:	1ab00c13          	li	s8,427
    2730:	1f912423          	sw	s9,488(sp)
    2734:	005c5463          	bge	s8,t0,273c <.L600>
    2738:	1e012423          	sw	zero,488(sp)

0000273c <.L600>:
    273c:	0f000c13          	li	s8,240
    2740:	f3ec5e63          	bge	s8,t5,1e7c <.L577>
    2744:	d6c00c13          	li	s8,-660
    2748:	018ad463          	bge	s5,s8,2750 <.L600+0x14>
    274c:	5c50506f          	j	8510 <.L602>
    2750:	ff700c93          	li	s9,-9
    2754:	0bb00c13          	li	s8,187
    2758:	0f912a23          	sw	s9,244(sp)
    275c:	016c5663          	bge	s8,s6,2768 <.L603>
    2760:	00400c13          	li	s8,4
    2764:	0f812a23          	sw	s8,244(sp)

00002768 <.L603>:
    2768:	03300c13          	li	s8,51
    276c:	f27c5e63          	bge	s8,t2,1ea8 <.L605>

00002770 <.L6133>:
    2770:	01400c13          	li	s8,20
    2774:	00bc4463          	blt	s8,a1,277c <.L6133+0xc>
    2778:	3f50506f          	j	836c <.L606>
    277c:	00b00c13          	li	s8,11
    2780:	010c2c33          	slt	s8,s8,a6
    2784:	41800c33          	neg	s8,s8
    2788:	ff6c7c13          	andi	s8,s8,-10
    278c:	005c0c13          	addi	s8,s8,5
    2790:	27812823          	sw	s8,624(sp)

00002794 <.L608>:
    2794:	1ac00c13          	li	s8,428
    2798:	f36c5e63          	bge	s8,s6,1ed4 <.L611>

0000279c <.L2645>:
    279c:	0a500c13          	li	s8,165
    27a0:	00ec5463          	bge	s8,a4,27a8 <.L2645+0xc>
    27a4:	3a90506f          	j	834c <.L610>
    27a8:	20092c13          	slti	s8,s2,512
    27ac:	fffc0c13          	addi	s8,s8,-1
    27b0:	006c4c13          	xori	s8,s8,6
    27b4:	0f812e23          	sw	s8,252(sp)

000027b8 <.L614>:
    27b8:	0b500c13          	li	s8,181
    27bc:	f5ec4263          	blt	s8,t5,1f00 <.L2643>

000027c0 <.L617>:
    27c0:	00300c13          	li	s8,3
    27c4:	01dc4463          	blt	s8,t4,27cc <.L617+0xc>
    27c8:	4710606f          	j	9438 <.L621>
    27cc:	ff800c93          	li	s9,-8
    27d0:	47000c13          	li	s8,1136
    27d4:	0d912223          	sw	s9,196(sp)
    27d8:	005c5663          	bge	s8,t0,27e4 <.L619>
    27dc:	00200c13          	li	s8,2
    27e0:	0d812223          	sw	s8,196(sp)

000027e4 <.L619>:
    27e4:	03400c13          	li	s8,52
    27e8:	f5cc5063          	bge	s8,t3,1f28 <.L624>

000027ec <.L6134>:
    27ec:	1db00c13          	li	s8,475
    27f0:	016c4463          	blt	s8,s6,27f8 <.L2702>
    27f4:	02d0506f          	j	8020 <.L623>

000027f8 <.L2702>:
    27f8:	02700c13          	li	s8,39
    27fc:	01dc4463          	blt	s8,t4,2804 <.L2702+0xc>
    2800:	7280806f          	j	af28 <.L625>
    2804:	03300c13          	li	s8,51
    2808:	007c4463          	blt	s8,t2,2810 <.L2702+0x18>
    280c:	20d0b06f          	j	e218 <.L626>
    2810:	01b00c13          	li	s8,27
    2814:	00ec4463          	blt	s8,a4,281c <.L2702+0x24>
    2818:	0880e06f          	j	108a0 <.L627>
    281c:	03b00c13          	li	s8,59
    2820:	00fc5463          	bge	s8,a5,2828 <.L2702+0x30>
    2824:	0a11106f          	j	140c4 <.L3239>
    2828:	ffa00c13          	li	s8,-6
    282c:	19812223          	sw	s8,388(sp)

00002830 <.L629>:
    2830:	1ac00c13          	li	s8,428
    2834:	016c5463          	bge	s8,s6,283c <.L629+0xc>
    2838:	48d0c06f          	j	f4c4 <.L6147>
    283c:	00400c13          	li	s8,4
    2840:	01dc4463          	blt	s8,t4,2848 <.L629+0x18>
    2844:	2f80d06f          	j	fb3c <.L649>
    2848:	01400c13          	li	s8,20
    284c:	010c5463          	bge	s8,a6,2854 <.L629+0x24>
    2850:	3f11006f          	j	13440 <.L3251>
    2854:	ffe00c13          	li	s8,-2
    2858:	0b812423          	sw	s8,168(sp)
    285c:	00500c13          	li	s8,5
    2860:	23812c23          	sw	s8,568(sp)

00002864 <.L651>:
    2864:	01400c13          	li	s8,20
    2868:	00bc5463          	bge	s8,a1,2870 <.L677>
    286c:	4a10406f          	j	750c <.L667>

00002870 <.L677>:
    2870:	0c400c13          	li	s8,196
    2874:	016c5463          	bge	s8,s6,287c <.L677+0xc>
    2878:	0e91506f          	j	18160 <.L6148>
    287c:	30000c13          	li	s8,768
    2880:	013c4463          	blt	s8,s3,2888 <.L677+0x18>
    2884:	7b50a06f          	j	d838 <.L712>
    2888:	ff900c93          	li	s9,-7
    288c:	03d00c13          	li	s8,61
    2890:	0f912623          	sw	s9,236(sp)
    2894:	007c4463          	blt	s8,t2,289c <.L713>
    2898:	6b01b06f          	j	1df48 <.L6149>

0000289c <.L713>:
    289c:	ff300c13          	li	s8,-13
    28a0:	0186c463          	blt	a3,s8,28a8 <.L713+0xc>
    28a4:	5a80906f          	j	be4c <.L730>
    28a8:	01400c13          	li	s8,20
    28ac:	00bc4463          	blt	s8,a1,28b4 <.L713+0x18>
    28b0:	2210c06f          	j	f2d0 <.L731>
    28b4:	00200c13          	li	s8,2
    28b8:	01dc5463          	bge	s8,t4,28c0 <.L713+0x24>
    28bc:	7600f06f          	j	1201c <.L3311>
    28c0:	00400c13          	li	s8,4
    28c4:	19812c23          	sw	s8,408(sp)
    28c8:	ff500c13          	li	s8,-11
    28cc:	17812a23          	sw	s8,372(sp)

000028d0 <.L694>:
    28d0:	03200c13          	li	s8,50
    28d4:	01cc4463          	blt	s8,t3,28dc <.L2635>
    28d8:	2ad0606f          	j	9384 <.L754>

000028dc <.L2635>:
    28dc:	ff600c93          	li	s9,-10
    28e0:	f1200c13          	li	s8,-238
    28e4:	1d912823          	sw	s9,464(sp)
    28e8:	01845463          	bge	s0,s8,28f0 <.L753>
    28ec:	7850806f          	j	b870 <.L5745>

000028f0 <.L753>:
    28f0:	03500c13          	li	s8,53
    28f4:	00ec4463          	blt	s8,a4,28fc <.L753+0xc>
    28f8:	0550406f          	j	714c <.L743>
    28fc:	0e100c13          	li	s8,225
    2900:	00cc4463          	blt	s8,a2,2908 <.L760>
    2904:	1b10606f          	j	92b4 <.L758>

00002908 <.L760>:
    2908:	2309ac13          	slti	s8,s3,560
    290c:	fffc0c13          	addi	s8,s8,-1
    2910:	ffbc4c13          	xori	s8,s8,-5
    2914:	21812c23          	sw	s8,536(sp)

00002918 <.L757>:
    2918:	08c00c13          	li	s8,140
    291c:	01ec4463          	blt	s8,t5,2924 <.L757+0xc>
    2920:	6750306f          	j	6794 <.L763>
    2924:	00c00c13          	li	s8,12
    2928:	01dc4463          	blt	s8,t4,2930 <.L757+0x18>
    292c:	4050506f          	j	8530 <.L773>
    2930:	1fa00c13          	li	s8,506
    2934:	016c4463          	blt	s8,s6,293c <.L757+0x24>
    2938:	0290906f          	j	c160 <.L774>
    293c:	03400c13          	li	s8,52
    2940:	01cc4463          	blt	s8,t3,2948 <.L757+0x30>
    2944:	0f50c06f          	j	f238 <.L769>
    2948:	02500c13          	li	s8,37
    294c:	01dc5463          	bge	s8,t4,2954 <.L757+0x3c>
    2950:	3701006f          	j	12cc0 <.L5371>
    2954:	00900c13          	li	s8,9
    2958:	2b812423          	sw	s8,680(sp)
    295c:	00200c13          	li	s8,2
    2960:	2d812823          	sw	s8,720(sp)

00002964 <.L777>:
    2964:	ff800c13          	li	s8,-8
    2968:	0186d463          	bge	a3,s8,2970 <.L777+0xc>
    296c:	4010506f          	j	856c <.L794>
    2970:	ea98ac13          	slti	s8,a7,-343
    2974:	41800c33          	neg	s8,s8
    2978:	007c7c13          	andi	s8,s8,7
    297c:	1d812c23          	sw	s8,472(sp)

00002980 <.L799>:
    2980:	03300c13          	li	s8,51
    2984:	007c5463          	bge	s8,t2,298c <.L799+0xc>
    2988:	5190306f          	j	66a0 <.L795>
    298c:	1c600c13          	li	s8,454
    2990:	00ec4463          	blt	s8,a4,2998 <.L799+0x18>
    2994:	6810306f          	j	6814 <.L797>
    2998:	00400c93          	li	s9,4
    299c:	0ea00c13          	li	s8,234
    29a0:	09912e23          	sw	s9,156(sp)
    29a4:	01ec4463          	blt	s8,t5,29ac <.L807>
    29a8:	7440906f          	j	c0ec <.L796>

000029ac <.L807>:
    29ac:	f8b00c13          	li	s8,-117
    29b0:	01835463          	bge	t1,s8,29b8 <.L6236>
    29b4:	5210306f          	j	66d4 <.L808>

000029b8 <.L6236>:
    29b8:	ffe00c13          	li	s8,-2
    29bc:	09812423          	sw	s8,136(sp)
    29c0:	0186d663          	bge	a3,s8,29cc <.L812>
    29c4:	ff800c13          	li	s8,-8
    29c8:	09812423          	sw	s8,136(sp)

000029cc <.L812>:
    29cc:	12e00c13          	li	s8,302
    29d0:	01ec4463          	blt	s8,t5,29d8 <.L812+0xc>
    29d4:	3440406f          	j	6d18 <.L816>
    29d8:	00c00c13          	li	s8,12
    29dc:	01dc4463          	blt	s8,t4,29e4 <.L812+0x18>
    29e0:	5c90806f          	j	b7a8 <.L817>
    29e4:	1dc00c13          	li	s8,476
    29e8:	016c5463          	bge	s8,s6,29f0 <.L812+0x24>
    29ec:	5f90b06f          	j	e7e4 <.L818>
    29f0:	03300c13          	li	s8,51
    29f4:	007c5463          	bge	s8,t2,29fc <.L812+0x30>
    29f8:	3610f06f          	j	12558 <.L3404>
    29fc:	00001c37          	lui	s8,0x1
    2a00:	ff300c93          	li	s9,-13
    2a04:	cbbc0c13          	addi	s8,s8,-837 # cbb <.L272+0x13>
    2a08:	13912e23          	sw	s9,316(sp)
    2a0c:	00ec4463          	blt	s8,a4,2a14 <.L820>
    2a10:	3300406f          	j	6d40 <.L821>

00002a14 <.L820>:
    2a14:	e2c00c13          	li	s8,-468
    2a18:	0188d463          	bge	a7,s8,2a20 <.L820+0xc>
    2a1c:	0940806f          	j	aab0 <.L6150>
    2a20:	00900c13          	li	s8,9
    2a24:	01dc4463          	blt	s8,t4,2a2c <.L820+0x18>
    2a28:	4300b06f          	j	de58 <.L841>
    2a2c:	02e00c13          	li	s8,46
    2a30:	01cc5463          	bge	s8,t3,2a38 <.L820+0x24>
    2a34:	5880f06f          	j	11fbc <.L3429>
    2a38:	ffb00c13          	li	s8,-5
    2a3c:	1d812e23          	sw	s8,476(sp)
    2a40:	00500c13          	li	s8,5
    2a44:	13812223          	sw	s8,292(sp)

00002a48 <.L840>:
    2a48:	01d00c13          	li	s8,29
    2a4c:	010c4463          	blt	s8,a6,2a54 <.L840+0xc>
    2a50:	3650506f          	j	85b4 <.L848>
    2a54:	3b500c13          	li	s8,949
    2a58:	00ec4463          	blt	s8,a4,2a60 <.L840+0x18>
    2a5c:	59c0806f          	j	aff8 <.L3439>
    2a60:	03b00c13          	li	s8,59
    2a64:	00fc5463          	bge	s8,a5,2a6c <.L840+0x24>
    2a68:	5c50a06f          	j	d82c <.L3440>
    2a6c:	fff00c13          	li	s8,-1
    2a70:	11812823          	sw	s8,272(sp)

00002a74 <.L849>:
    2a74:	00500c93          	li	s9,5
    2a78:	1a200c13          	li	s8,418
    2a7c:	13912823          	sw	s9,304(sp)
    2a80:	005c5663          	bge	s8,t0,2a8c <.L858>
    2a84:	ffc00c13          	li	s8,-4
    2a88:	13812823          	sw	s8,304(sp)

00002a8c <.L858>:
    2a8c:	0f000c13          	li	s8,240
    2a90:	01ec5463          	bge	s8,t5,2a98 <.L858+0xc>
    2a94:	3a50306f          	j	6638 <.L853>
    2a98:	00200c13          	li	s8,2
    2a9c:	01dc5463          	bge	s8,t4,2aa4 <.L858+0x18>
    2aa0:	2f90506f          	j	8598 <.L854>
    2aa4:	03500c13          	li	s8,53
    2aa8:	00fc5463          	bge	s8,a5,2ab0 <.L858+0x24>
    2aac:	7101506f          	j	181bc <.L871>
    2ab0:	02e00c13          	li	s8,46
    2ab4:	01cc4463          	blt	s8,t3,2abc <.L858+0x30>
    2ab8:	2340406f          	j	6cec <.L3460>
    2abc:	03900c13          	li	s8,57
    2ac0:	007c5463          	bge	s8,t2,2ac8 <.L858+0x3c>
    2ac4:	1e90f06f          	j	124ac <.L3461>
    2ac8:	00700c13          	li	s8,7
    2acc:	17812c23          	sw	s8,376(sp)

00002ad0 <.L874>:
    2ad0:	00300c93          	li	s9,3
    2ad4:	00d00c13          	li	s8,13
    2ad8:	1b912e23          	sw	s9,444(sp)
    2adc:	00bc5663          	bge	s8,a1,2ae8 <.L876>
    2ae0:	ff800c13          	li	s8,-8
    2ae4:	1b812e23          	sw	s8,444(sp)

00002ae8 <.L876>:
    2ae8:	03300c13          	li	s8,51
    2aec:	007c5463          	bge	s8,t2,2af4 <.L868>
    2af0:	0880406f          	j	6b78 <.L864>

00002af4 <.L868>:
    2af4:	1c600c13          	li	s8,454
    2af8:	00ec4463          	blt	s8,a4,2b00 <.L868+0xc>
    2afc:	3a50506f          	j	86a0 <.L879>
    2b00:	ddc4ac13          	slti	s8,s1,-548
    2b04:	fffc0c13          	addi	s8,s8,-1
    2b08:	ffbc4c13          	xori	s8,s8,-5
    2b0c:	11812c23          	sw	s8,280(sp)

00002b10 <.L878>:
    2b10:	f8b00c13          	li	s8,-117
    2b14:	01835463          	bge	t1,s8,2b1c <.L878+0xc>
    2b18:	0010306f          	j	6318 <.L880>
    2b1c:	ffe00c93          	li	s9,-2
    2b20:	00100c13          	li	s8,1
    2b24:	07912023          	sw	s9,96(sp)
    2b28:	01dc5663          	bge	s8,t4,2b34 <.L881>
    2b2c:	ff900c13          	li	s8,-7
    2b30:	07812023          	sw	s8,96(sp)

00002b34 <.L881>:
    2b34:	02b00c13          	li	s8,43
    2b38:	00bc4463          	blt	s8,a1,2b40 <.L881+0xc>
    2b3c:	6c90306f          	j	6a04 <.L890>
    2b40:	01400c13          	li	s8,20
    2b44:	01cc4463          	blt	s8,t3,2b4c <.L881+0x18>
    2b48:	6cc0606f          	j	9214 <.L891>
    2b4c:	e2400c13          	li	s8,-476
    2b50:	0188c463          	blt	a7,s8,2b58 <.L881+0x24>
    2b54:	2c80406f          	j	6e1c <.L3477>
    2b58:	e0200c13          	li	s8,-510
    2b5c:	018ad463          	bge	s5,s8,2b64 <.L881+0x30>
    2b60:	79c0a06f          	j	d2fc <.L6151>
    2b64:	fff00c13          	li	s8,-1
    2b68:	21812623          	sw	s8,524(sp)

00002b6c <.L892>:
    2b6c:	02e00c13          	li	s8,46
    2b70:	01cc4463          	blt	s8,t3,2b78 <.L892+0xc>
    2b74:	6c00606f          	j	9234 <.L897>
    2b78:	03900c13          	li	s8,57
    2b7c:	007c5463          	bge	s8,t2,2b84 <.L892+0x18>
    2b80:	4580e06f          	j	10fd8 <.L3491>
    2b84:	00300c13          	li	s8,3
    2b88:	1b812623          	sw	s8,428(sp)
    2b8c:	ff900c13          	li	s8,-7
    2b90:	25812623          	sw	s8,588(sp)

00002b94 <.L911>:
    2b94:	0f000c13          	li	s8,240
    2b98:	01ec4463          	blt	s8,t5,2ba0 <.L6232>
    2b9c:	00d0306f          	j	63a8 <.L915>

00002ba0 <.L6232>:
    2ba0:	f5200c13          	li	s8,-174
    2ba4:	01834463          	blt	t1,s8,2bac <.L6232+0xc>
    2ba8:	6740506f          	j	821c <.L916>
    2bac:	03700c13          	li	s8,55
    2bb0:	007c5463          	bge	s8,t2,2bb8 <.L6232+0x18>
    2bb4:	14d0a06f          	j	d500 <.L3517>
    2bb8:	08300c13          	li	s8,131
    2bbc:	012c4463          	blt	s8,s2,2bc4 <.L6232+0x24>
    2bc0:	5d50306f          	j	6994 <.L928>
    2bc4:	ff900c13          	li	s8,-7
    2bc8:	0186d463          	bge	a3,s8,2bd0 <.L6232+0x30>
    2bcc:	1ed0d06f          	j	105b8 <.L929>
    2bd0:	ffe00c13          	li	s8,-2
    2bd4:	09812a23          	sw	s8,148(sp)
    2bd8:	02e00c93          	li	s9,46
    2bdc:	0185c463          	blt	a1,s8,2be4 <.L6232+0x44>
    2be0:	4011106f          	j	147e0 <.L930>
    2be4:	ffa00c13          	li	s8,-6
    2be8:	09812823          	sw	s8,144(sp)
    2bec:	01ccc463          	blt	s9,t3,2bf4 <.L3518>
    2bf0:	6dc0506f          	j	82cc <.L932>

00002bf4 <.L3518>:
    2bf4:	00400c13          	li	s8,4
    2bf8:	19812623          	sw	s8,396(sp)

00002bfc <.L931>:
    2bfc:	03b00c13          	li	s8,59
    2c00:	00fc4463          	blt	s8,a5,2c08 <.L6240>
    2c04:	5e10306f          	j	69e4 <.L951>

00002c08 <.L6240>:
    2c08:	ec100c13          	li	s8,-319
    2c0c:	01845463          	bge	s0,s8,2c14 <.L6240+0xc>
    2c10:	5ec0606f          	j	91fc <.L952>
    2c14:	06f00c13          	li	s8,111
    2c18:	00cc2c33          	slt	s8,s8,a2
    2c1c:	41800c33          	neg	s8,s8
    2c20:	ff7c7c13          	andi	s8,s8,-9
    2c24:	25812823          	sw	s8,592(sp)

00002c28 <.L954>:
    2c28:	ef600c13          	li	s8,-266
    2c2c:	018ad463          	bge	s5,s8,2c34 <.L955>
    2c30:	0190306f          	j	6448 <.L944>

00002c34 <.L955>:
    2c34:	00c00c13          	li	s8,12
    2c38:	010c5463          	bge	s8,a6,2c40 <.L959>
    2c3c:	2e50606f          	j	9720 <.L943>

00002c40 <.L959>:
    2c40:	00b00c13          	li	s8,11
    2c44:	01cc4463          	blt	s8,t3,2c4c <.L959+0xc>
    2c48:	1500706f          	j	9d98 <.L967>
    2c4c:	03300c13          	li	s8,51
    2c50:	007c4463          	blt	s8,t2,2c58 <.L959+0x18>
    2c54:	3ad0a06f          	j	d800 <.L968>
    2c58:	02b00c13          	li	s8,43
    2c5c:	00bc5463          	bge	s8,a1,2c64 <.L959+0x24>
    2c60:	7140d06f          	j	10374 <.L3549>
    2c64:	00deac13          	slti	s8,t4,13
    2c68:	fffc0c13          	addi	s8,s8,-1
    2c6c:	001c4c13          	xori	s8,s8,1
    2c70:	25812a23          	sw	s8,596(sp)
    2c74:	00500c13          	li	s8,5
    2c78:	2b812c23          	sw	s8,696(sp)

00002c7c <.L961>:
    2c7c:	ea700c13          	li	s8,-345
    2c80:	0184d463          	bge	s1,s8,2c88 <.L961+0xc>
    2c84:	1a90406f          	j	762c <.L986>
    2c88:	ef500c13          	li	s8,-267
    2c8c:	0188c463          	blt	a7,s8,2c94 <.L961+0x18>
    2c90:	1210706f          	j	a5b0 <.L6152>
    2c94:	eef00c13          	li	s8,-273
    2c98:	0188d463          	bge	a7,s8,2ca0 <.L961+0x24>
    2c9c:	7950d06f          	j	10c30 <.L997>
    2ca0:	31a00c13          	li	s8,794
    2ca4:	00cc5463          	bge	s8,a2,2cac <.L961+0x30>
    2ca8:	3d01106f          	j	14078 <.L998>
    2cac:	03700c13          	li	s8,55
    2cb0:	00fc4463          	blt	s8,a5,2cb8 <.L961+0x3c>
    2cb4:	5111506f          	j	189c4 <.L6153>
    2cb8:	10b00c13          	li	s8,267
    2cbc:	00cc4463          	blt	s8,a2,2cc4 <.L961+0x48>
    2cc0:	4391506f          	j	188f8 <.L3642>
    2cc4:	2ff00c13          	li	s8,767
    2cc8:	00ec5463          	bge	s8,a4,2cd0 <.L961+0x54>
    2ccc:	35d1706f          	j	1a828 <.L3643>
    2cd0:	ff900c13          	li	s8,-7
    2cd4:	23812423          	sw	s8,552(sp)
    2cd8:	23812223          	sw	s8,548(sp)

00002cdc <.L1086>:
    2cdc:	2df00c13          	li	s8,735
    2ce0:	00ec5463          	bge	s8,a4,2ce8 <.L1086+0xc>
    2ce4:	6991a06f          	j	1db7c <.L3647>
    2ce8:	ff600c13          	li	s8,-10
    2cec:	0f812423          	sw	s8,232(sp)

00002cf0 <.L1093>:
    2cf0:	2b200c13          	li	s8,690
    2cf4:	00ec5463          	bge	s8,a4,2cfc <.L1075>
    2cf8:	1950906f          	j	c68c <.L3705>

00002cfc <.L1075>:
    2cfc:	ef500c13          	li	s8,-267
    2d00:	0188d463          	bge	a7,s8,2d08 <.L1075+0xc>
    2d04:	5bd0906f          	j	cac0 <.L6154>
    2d08:	17000c13          	li	s8,368
    2d0c:	00cc5463          	bge	s8,a2,2d14 <.L1075+0x18>
    2d10:	61d0b06f          	j	eb2c <.L3719>
    2d14:	ff600c13          	li	s8,-10
    2d18:	03812823          	sw	s8,48(sp)

00002d1c <.L1122>:
    2d1c:	ffa00c13          	li	s8,-6
    2d20:	0186d463          	bge	a3,s8,2d28 <.L1122+0xc>
    2d24:	5e80d06f          	j	1030c <.L1145>
    2d28:	01c51c83          	lh	s9,28(a0)
    2d2c:	03c00c13          	li	s8,60
    2d30:	019c4463          	blt	s8,s9,2d38 <.L1122+0x1c>
    2d34:	5391106f          	j	14a6c <.L3741>
    2d38:	ff800c13          	li	s8,-8
    2d3c:	0f812023          	sw	s8,224(sp)
    2d40:	03812a23          	sw	s8,52(sp)
    2d44:	00800c13          	li	s8,8
    2d48:	21812823          	sw	s8,528(sp)

00002d4c <.L1040>:
    2d4c:	ff700c13          	li	s8,-9
    2d50:	0186d463          	bge	a3,s8,2d58 <.L1126>
    2d54:	01d0306f          	j	6570 <.L1136>

00002d58 <.L1126>:
    2d58:	03c72c13          	slti	s8,a4,60
    2d5c:	fffc0c13          	addi	s8,s8,-1
    2d60:	008c4c13          	xori	s8,s8,8
    2d64:	09812623          	sw	s8,140(sp)

00002d68 <.L1127>:
    2d68:	ed000c13          	li	s8,-304
    2d6c:	018ad463          	bge	s5,s8,2d74 <.L1127+0xc>
    2d70:	6680806f          	j	b3d8 <.L1064>
    2d74:	f9f00c13          	li	s8,-97
    2d78:	01835463          	bge	t1,s8,2d80 <.L1127+0x18>
    2d7c:	1a10906f          	j	c71c <.L1198>
    2d80:	2be00c13          	li	s8,702
    2d84:	00cc4463          	blt	s8,a2,2d8c <.L1141>
    2d88:	5ad0906f          	j	cb34 <.L1152>

00002d8c <.L1141>:
    2d8c:	30200c13          	li	s8,770
    2d90:	00ec4463          	blt	s8,a4,2d98 <.L1141+0xc>
    2d94:	42c1006f          	j	131c0 <.L6155>
    2d98:	3fa00c13          	li	s8,1018
    2d9c:	00ec4463          	blt	s8,a4,2da4 <.L1141+0x18>
    2da0:	0c91006f          	j	13668 <.L1245>
    2da4:	00001c37          	lui	s8,0x1
    2da8:	b13c0c13          	addi	s8,s8,-1261 # b13 <.L262+0x3>
    2dac:	00cc4463          	blt	s8,a2,2db4 <.L1244>
    2db0:	3341706f          	j	1a0e4 <.L6156>

00002db4 <.L1244>:
    2db4:	ddb00c13          	li	s8,-549
    2db8:	0184c463          	blt	s1,s8,2dc0 <.L1244+0xc>
    2dbc:	2f81506f          	j	180b4 <.L1246>
    2dc0:	01000c13          	li	s8,16
    2dc4:	01cc5463          	bge	s8,t3,2dcc <.L1244+0x18>
    2dc8:	3d41706f          	j	1a19c <.L3824>
    2dcc:	00500c13          	li	s8,5

00002dd0 <.L5790>:
    2dd0:	03812423          	sw	s8,40(sp)
    2dd4:	00900c13          	li	s8,9
    2dd8:	07812223          	sw	s8,100(sp)
    2ddc:	ff700c13          	li	s8,-9
    2de0:	0d812823          	sw	s8,208(sp)
    2de4:	00a00c13          	li	s8,10
    2de8:	03812623          	sw	s8,44(sp)

00002dec <.L1168>:
    2dec:	ed100c13          	li	s8,-303
    2df0:	018ad463          	bge	s5,s8,2df8 <.L1168+0xc>
    2df4:	7701706f          	j	1a564 <.L3880>
    2df8:	ffa00c13          	li	s8,-6
    2dfc:	0186c463          	blt	a3,s8,2e04 <.L1168+0x18>
    2e00:	6751306f          	j	16c74 <.L3881>
    2e04:	00c00c13          	li	s8,12
    2e08:	010c5463          	bge	s8,a6,2e10 <.L1168+0x24>
    2e0c:	0401606f          	j	18e4c <.L1284>
    2e10:	25b00c13          	li	s8,603
    2e14:	00ec4463          	blt	s8,a4,2e1c <.L1168+0x30>
    2e18:	4ac1706f          	j	1a2c4 <.L6157>
    2e1c:	ff700c13          	li	s8,-9
    2e20:	11812023          	sw	s8,256(sp)
    2e24:	00100c13          	li	s8,1

00002e28 <.L5813>:
    2e28:	03812e23          	sw	s8,60(sp)
    2e2c:	ff800c13          	li	s8,-8
    2e30:	07812423          	sw	s8,104(sp)
    2e34:	00700c13          	li	s8,7
    2e38:	01812823          	sw	s8,16(sp)

00002e3c <.L1285>:
    2e3c:	00100c13          	li	s8,1
    2e40:	01dc4463          	blt	s8,t4,2e48 <.L1285+0xc>
    2e44:	78d0906f          	j	cdd0 <.L6158>
    2e48:	00900c93          	li	s9,9
    2e4c:	27a00c13          	li	s8,634
    2e50:	15912023          	sw	s9,320(sp)
    2e54:	00cc4463          	blt	s8,a2,2e5c <.L1309>
    2e58:	40d0606f          	j	9a64 <.L1398>

00002e5c <.L1309>:
    2e5c:	ff700c13          	li	s8,-9
    2e60:	0186c463          	blt	a3,s8,2e68 <.L1309+0xc>
    2e64:	7a10506f          	j	8e04 <.L1303>
    2e68:	0e600c13          	li	s8,230
    2e6c:	012c4463          	blt	s8,s2,2e74 <.L1309+0x18>
    2e70:	0690806f          	j	b6d8 <.L1412>
    2e74:	f6a00c13          	li	s8,-150
    2e78:	01835463          	bge	t1,s8,2e80 <.L1309+0x24>
    2e7c:	3d10b06f          	j	ea4c <.L4012>
    2e80:	f5b00c13          	li	s8,-165
    2e84:	0188d463          	bge	a7,s8,2e8c <.L1309+0x30>
    2e88:	4c10e06f          	j	11b48 <.L6159>
    2e8c:	00800c13          	li	s8,8
    2e90:	15812c23          	sw	s8,344(sp)

00002e94 <.L1413>:
    2e94:	03300c13          	li	s8,51
    2e98:	00fc5463          	bge	s8,a5,2ea0 <.L1413+0xc>
    2e9c:	6600606f          	j	94fc <.L1407>
    2ea0:	00900c13          	li	s8,9
    2ea4:	010c5463          	bge	s8,a6,2eac <.L1413+0x18>
    2ea8:	7950506f          	j	8e3c <.L1408>
    2eac:	02700c93          	li	s9,39
    2eb0:	00ecc463          	blt	s9,a4,2eb8 <.L1413+0x24>
    2eb4:	07c1506f          	j	17f30 <.L4049>
    2eb8:	ff600c13          	li	s8,-10
    2ebc:	0186c463          	blt	a3,s8,2ec4 <.L1413+0x30>
    2ec0:	5851406f          	j	17c44 <.L1410>
    2ec4:	00100c13          	li	s8,1
    2ec8:	01dc4463          	blt	s8,t4,2ed0 <.L1413+0x3c>
    2ecc:	22c1706f          	j	1a0f8 <.L6160>
    2ed0:	01ccc463          	blt	s9,t3,2ed8 <.L1413+0x44>
    2ed4:	5ac1706f          	j	1a480 <.L4090>
    2ed8:	0c100c13          	li	s8,193
    2edc:	012c5463          	bge	s8,s2,2ee4 <.L1413+0x50>
    2ee0:	2e11906f          	j	1c9c0 <.L4091>
    2ee4:	00200c13          	li	s8,2

00002ee8 <.L5826>:
    2ee8:	07812623          	sw	s8,108(sp)
    2eec:	ff800c13          	li	s8,-8
    2ef0:	0b812223          	sw	s8,164(sp)
    2ef4:	00300c13          	li	s8,3
    2ef8:	07812c23          	sw	s8,120(sp)

00002efc <.L1490>:
    2efc:	ff900c13          	li	s8,-7
    2f00:	0186d463          	bge	a3,s8,2f08 <.L1490+0xc>
    2f04:	02d1006f          	j	13730 <.L1504>
    2f08:	04900c13          	li	s8,73
    2f0c:	010c5463          	bge	s8,a6,2f14 <.L1490+0x18>
    2f10:	7b11306f          	j	16ec0 <.L4118>
    2f14:	ffb00c13          	li	s8,-5
    2f18:	0d812423          	sw	s8,200(sp)
    2f1c:	ffd00c13          	li	s8,-3
    2f20:	0d812a23          	sw	s8,212(sp)

00002f24 <.L1506>:
    2f24:	1a300c13          	li	s8,419
    2f28:	005c4463          	blt	s8,t0,2f30 <.L1506+0xc>
    2f2c:	2a00906f          	j	c1cc <.L1530>
    2f30:	00100c13          	li	s8,1
    2f34:	16012823          	sw	zero,368(sp)
    2f38:	01dc4463          	blt	s8,t4,2f40 <.L1483>
    2f3c:	4f00406f          	j	742c <.L1519>

00002f40 <.L1483>:
    2f40:	01f00c13          	li	s8,31
    2f44:	010c5463          	bge	s8,a6,2f4c <.L1483+0xc>
    2f48:	2750406f          	j	79bc <.L1518>
    2f4c:	03c00c13          	li	s8,60
    2f50:	00fc4463          	blt	s8,a5,2f58 <.L1483+0x18>
    2f54:	3f90906f          	j	cb4c <.L4162>
    2f58:	daa00c13          	li	s8,-598
    2f5c:	018ac463          	blt	s5,s8,2f64 <.L1483+0x24>
    2f60:	5910c06f          	j	fcf0 <.L4163>
    2f64:	ff900c13          	li	s8,-7
    2f68:	13812c23          	sw	s8,312(sp)

00002f6c <.L1543>:
    2f6c:	00700c93          	li	s9,7
    2f70:	3ce00c13          	li	s8,974
    2f74:	11912623          	sw	s9,268(sp)
    2f78:	016c5663          	bge	s8,s6,2f84 <.L1542>
    2f7c:	ffd00c13          	li	s8,-3
    2f80:	11812623          	sw	s8,268(sp)

00002f84 <.L1542>:
    2f84:	0c100c13          	li	s8,193
    2f88:	012c4463          	blt	s8,s2,2f90 <.L1542+0xc>
    2f8c:	17c0406f          	j	7108 <.L1561>
    2f90:	f6900c13          	li	s8,-151
    2f94:	01835463          	bge	t1,s8,2f9c <.L1545>
    2f98:	6340406f          	j	75cc <.L1551>

00002f9c <.L1545>:
    2f9c:	04700c13          	li	s8,71
    2fa0:	005c4463          	blt	s8,t0,2fa8 <.L1545+0xc>
    2fa4:	3800706f          	j	a324 <.L6161>
    2fa8:	03300c13          	li	s8,51
    2fac:	00fc5463          	bge	s8,a5,2fb4 <.L1545+0x18>
    2fb0:	41d0a06f          	j	dbcc <.L4254>
    2fb4:	00900c13          	li	s8,9
    2fb8:	0f812223          	sw	s8,228(sp)

00002fbc <.L1608>:
    2fbc:	00900c13          	li	s8,9
    2fc0:	ff800d93          	li	s11,-8
    2fc4:	010c5c63          	bge	s8,a6,2fdc <.L1589>

00002fc8 <.L1566>:
    2fc8:	00300c13          	li	s8,3
    2fcc:	00bc2c33          	slt	s8,s8,a1
    2fd0:	41800c33          	neg	s8,s8
    2fd4:	009c7d93          	andi	s11,s8,9
    2fd8:	ffed8d93          	addi	s11,s11,-2

00002fdc <.L1589>:
    2fdc:	02a00c13          	li	s8,42
    2fe0:	00cc5463          	bge	s8,a2,2fe8 <.L1589+0xc>
    2fe4:	3e90306f          	j	6bcc <.L1599>
    2fe8:	fba00c13          	li	s8,-70
    2fec:	01835463          	bge	t1,s8,2ff4 <.L1589+0x18>
    2ff0:	3ac0606f          	j	939c <.L1625>
    2ff4:	07a00c13          	li	s8,122
    2ff8:	016c4463          	blt	s8,s6,3000 <.L1589+0x24>
    2ffc:	72d0606f          	j	9f28 <.L1626>
    3000:	00100c13          	li	s8,1
    3004:	01dc4463          	blt	s8,t4,300c <.L1589+0x30>
    3008:	4a10b06f          	j	eca8 <.L4267>
    300c:	02000c13          	li	s8,32
    3010:	01cc5463          	bge	s8,t3,3018 <.L1589+0x3c>
    3014:	5110c06f          	j	fd24 <.L4268>
    3018:	00d00c13          	li	s8,13

0000301c <.L1576>:
    301c:	ff06ac93          	slti	s9,a3,-16
    3020:	41900cb3          	neg	s9,s9
    3024:	007cfc93          	andi	s9,s9,7
    3028:	01912623          	sw	s9,12(sp)

0000302c <.L1612>:
    302c:	f9800c93          	li	s9,-104
    3030:	01944463          	blt	s0,s9,3038 <.L1612+0xc>
    3034:	2a50306f          	j	6ad8 <.L1577>
    3038:	0c700c93          	li	s9,199
    303c:	016cc463          	blt	s9,s6,3044 <.L1667>
    3040:	1a80406f          	j	71e8 <.L1581>

00003044 <.L1667>:
    3044:	00e00c93          	li	s9,14
    3048:	00bcd463          	bge	s9,a1,3050 <.L1583>
    304c:	2900906f          	j	c2dc <.L1676>

00003050 <.L1583>:
    3050:	04900c93          	li	s9,73
    3054:	010cc463          	blt	s9,a6,305c <.L1583+0xc>
    3058:	6450c06f          	j	fe9c <.L1677>
    305c:	08600c93          	li	s9,134
    3060:	01ccd463          	bge	s9,t3,3068 <.L1583+0x18>
    3064:	6180f06f          	j	1267c <.L4313>
    3068:	00900d13          	li	s10,9
    306c:	01c51c83          	lh	s9,28(a0)
    3070:	0da12c23          	sw	s10,216(sp)
    3074:	ffe00d13          	li	s10,-2
    3078:	15a12223          	sw	s10,324(sp)
    307c:	01904463          	bgtz	s9,3084 <.L1678>
    3080:	4fd0806f          	j	bd7c <.L5858>

00003084 <.L1678>:
    3084:	0aa00c93          	li	s9,170
    3088:	01ecc463          	blt	s9,t5,3090 <.L1678+0xc>
    308c:	2840806f          	j	b310 <.L4371>
    3090:	fff00d13          	li	s10,-1
    3094:	10b00c93          	li	s9,267
    3098:	0fa12823          	sw	s10,240(sp)
    309c:	00ccd463          	bge	s9,a2,30a4 <.L1644>
    30a0:	1880406f          	j	7228 <.L1708>

000030a4 <.L1644>:
    30a4:	06a00c93          	li	s9,106
    30a8:	00ecd463          	bge	s9,a4,30b0 <.L1644+0xc>
    30ac:	6c80d06f          	j	10774 <.L4373>
    30b0:	fff00c93          	li	s9,-1
    30b4:	0f912823          	sw	s9,240(sp)

000030b8 <.L1709>:
    30b8:	ffe00d13          	li	s10,-2
    30bc:	02a00c93          	li	s9,42
    30c0:	05a12423          	sw	s10,72(sp)
    30c4:	00ccd663          	bge	s9,a2,30d0 <.L1646>
    30c8:	00400c93          	li	s9,4
    30cc:	05912423          	sw	s9,72(sp)

000030d0 <.L1646>:
    30d0:	03c00c93          	li	s9,60
    30d4:	00fcc463          	blt	s9,a5,30dc <.L1646+0xc>
    30d8:	1a00306f          	j	6278 <.L1711>
    30dc:	e6500c93          	li	s9,-411
    30e0:	0198d463          	bge	a7,s9,30e8 <.L1646+0x18>
    30e4:	4f00506f          	j	85d4 <.L1712>
    30e8:	00e00c93          	li	s9,14
    30ec:	01ccd463          	bge	s9,t3,30f4 <.L1646+0x24>
    30f0:	7b90606f          	j	a0a8 <.L4379>
    30f4:	00100c93          	li	s9,1
    30f8:	01dcc463          	blt	s9,t4,3100 <.L1646+0x30>
    30fc:	3410b06f          	j	ec3c <.L1714>
    3100:	ff000c93          	li	s9,-16
    3104:	0196c463          	blt	a3,s9,310c <.L1646+0x3c>
    3108:	7f50c06f          	j	100fc <.L6162>
    310c:	02200c93          	li	s9,34
    3110:	010cd463          	bge	s9,a6,3118 <.L1646+0x48>
    3114:	0190b06f          	j	e92c <.L4402>
    3118:	00700c93          	li	s9,7
    311c:	29912e23          	sw	s9,668(sp)
    3120:	28012223          	sw	zero,644(sp)

00003124 <.L1717>:
    3124:	1dd9ac93          	slti	s9,s3,477
    3128:	001cbc93          	seqz	s9,s9
    312c:	003c9c93          	slli	s9,s9,0x3
    3130:	19912e23          	sw	s9,412(sp)

00003134 <.L1726>:
    3134:	f9800c93          	li	s9,-104
    3138:	01945463          	bge	s0,s9,3140 <.L6231>
    313c:	1b00306f          	j	62ec <.L1730>

00003140 <.L6231>:
    3140:	ffb00d13          	li	s10,-5
    3144:	faf00c93          	li	s9,-81
    3148:	05a12223          	sw	s10,68(sp)
    314c:	01945e63          	bge	s0,s9,3168 <.L1743>
    3150:	01100d13          	li	s10,17
    3154:	03200c93          	li	s9,50
    3158:	05a12223          	sw	s10,68(sp)
    315c:	007cd663          	bge	s9,t2,3168 <.L1743>
    3160:	00100c93          	li	s9,1
    3164:	05912223          	sw	s9,68(sp)

00003168 <.L1743>:
    3168:	01500c93          	li	s9,21
    316c:	00bcd463          	bge	s9,a1,3174 <.L1743+0xc>
    3170:	0680306f          	j	61d8 <.L1745>
    3174:	19800c93          	li	s9,408
    3178:	012cd463          	bge	s9,s2,3180 <.L1743+0x18>
    317c:	7480506f          	j	88c4 <.L6163>
    3180:	18700c93          	li	s9,391
    3184:	0a012823          	sw	zero,176(sp)
    3188:	012cd663          	bge	s9,s2,3194 <.L1746>
    318c:	00700c93          	li	s9,7
    3190:	0b912823          	sw	s9,176(sp)

00003194 <.L1746>:
    3194:	00100c93          	li	s9,1
    3198:	01dcc463          	blt	s9,t4,31a0 <.L1750>
    319c:	7500506f          	j	88ec <.L1767>

000031a0 <.L1750>:
    31a0:	02700c93          	li	s9,39
    31a4:	01ecc463          	blt	s9,t5,31ac <.L1750+0xc>
    31a8:	3d40406f          	j	757c <.L1768>
    31ac:	eea00c93          	li	s9,-278
    31b0:	0194d463          	bge	s1,s9,31b8 <.L1750+0x18>
    31b4:	3b10606f          	j	9d64 <.L1769>
    31b8:	fdb00c93          	li	s9,-37
    31bc:	01974463          	blt	a4,s9,31c4 <.L1750+0x24>
    31c0:	1c10906f          	j	cb80 <.L1762>
    31c4:	01200c93          	li	s9,18
    31c8:	00bcd463          	bge	s9,a1,31d0 <.L1750+0x30>
    31cc:	7490c06f          	j	10114 <.L4433>
    31d0:	ff800c93          	li	s9,-8
    31d4:	23912e23          	sw	s9,572(sp)
    31d8:	25912223          	sw	s9,580(sp)

000031dc <.L1763>:
    31dc:	01f00c93          	li	s9,31
    31e0:	01ccc463          	blt	s9,t3,31e8 <.L1763+0xc>
    31e4:	09c0406f          	j	7280 <.L1792>
    31e8:	ff800d13          	li	s10,-8
    31ec:	11500c93          	li	s9,277
    31f0:	09a12023          	sw	s10,128(sp)
    31f4:	00ccd663          	bge	s9,a2,3200 <.L1789>
    31f8:	00100c93          	li	s9,1
    31fc:	09912023          	sw	s9,128(sp)

00003200 <.L1789>:
    3200:	03c00c93          	li	s9,60
    3204:	00fcc463          	blt	s9,a5,320c <.L1789+0xc>
    3208:	24d0306f          	j	6c54 <.L1784>
    320c:	daa00c93          	li	s9,-598
    3210:	019ad463          	bge	s5,s9,3218 <.L1789+0x18>
    3214:	4910206f          	j	5ea4 <.L1800>
    3218:	f0000c93          	li	s9,-256
    321c:	01934463          	blt	t1,s9,3224 <.L1789+0x24>
    3220:	0340306f          	j	6254 <.L1798>
    3224:	ffa00c93          	li	s9,-6
    3228:	1b912023          	sw	s9,416(sp)

0000322c <.L1801>:
    322c:	25b00c93          	li	s9,603
    3230:	00ecc463          	blt	s9,a4,3238 <.L1801+0xc>
    3234:	6040306f          	j	6838 <.L1794>
    3238:	fe900c93          	li	s9,-23
    323c:	0196c463          	blt	a3,s9,3244 <.L1803>
    3240:	4790206f          	j	5eb8 <.L1805>

00003244 <.L1803>:
    3244:	dde4ac93          	slti	s9,s1,-546
    3248:	41900cb3          	neg	s9,s9
    324c:	00acfc93          	andi	s9,s9,10
    3250:	ffbc8c93          	addi	s9,s9,-5
    3254:	19912423          	sw	s9,392(sp)

00003258 <.L1802>:
    3258:	01500c93          	li	s9,21
    325c:	00bcd463          	bge	s9,a1,3264 <.L1802+0xc>
    3260:	4710206f          	j	5ed0 <.L1808>
    3264:	f6a00c93          	li	s9,-150
    3268:	01935463          	bge	t1,s9,3270 <.L1802+0x18>
    326c:	0a50506f          	j	8b10 <.L1809>
    3270:	ffc00d13          	li	s10,-4
    3274:	f5b00c93          	li	s9,-165
    3278:	0da12623          	sw	s10,204(sp)
    327c:	0198d663          	bge	a7,s9,3288 <.L1816>
    3280:	00400c93          	li	s9,4
    3284:	0d912623          	sw	s9,204(sp)

00003288 <.L1816>:
    3288:	02700c93          	li	s9,39
    328c:	01ecc463          	blt	s9,t5,3294 <.L1818>
    3290:	46d0206f          	j	5efc <.L1821>

00003294 <.L1818>:
    3294:	ecb00c93          	li	s9,-309
    3298:	019ad463          	bge	s5,s9,32a0 <.L1818+0xc>
    329c:	3ec0506f          	j	8688 <.L1822>
    32a0:	00500d13          	li	s10,5
    32a4:	00900c93          	li	s9,9
    32a8:	1fa12c23          	sw	s10,504(sp)
    32ac:	01ccd663          	bge	s9,t3,32b8 <.L1820>
    32b0:	ff800c93          	li	s9,-8
    32b4:	1f912c23          	sw	s9,504(sp)

000032b8 <.L1820>:
    32b8:	25b00c93          	li	s9,603
    32bc:	00ecc463          	blt	s9,a4,32c4 <.L1820+0xc>
    32c0:	5d80306f          	j	6898 <.L1830>
    32c4:	fe900c93          	li	s9,-23
    32c8:	0196c463          	blt	a3,s9,32d0 <.L1820+0x18>
    32cc:	3450b06f          	j	ee10 <.L6164>
    32d0:	dde00c93          	li	s9,-546
    32d4:	0194d463          	bge	s1,s9,32dc <.L1820+0x24>
    32d8:	2340a06f          	j	d50c <.L6165>
    32dc:	08600c93          	li	s9,134
    32e0:	00ccc463          	blt	s9,a2,32e8 <.L1820+0x30>
    32e4:	3791006f          	j	13e5c <.L2623>
    32e8:	ffc00c93          	li	s9,-4
    32ec:	2d912a23          	sw	s9,724(sp)
    32f0:	0b912c23          	sw	s9,184(sp)
    32f4:	06012823          	sw	zero,112(sp)

000032f8 <.L1837>:
    32f8:	f5b00c93          	li	s9,-165
    32fc:	0198d463          	bge	a7,s9,3304 <.L1878>
    3300:	1590406f          	j	7c58 <.L1864>

00003304 <.L1878>:
    3304:	01600c93          	li	s9,22
    3308:	00fcd463          	bge	s9,a5,3310 <.L1878+0xc>
    330c:	4850806f          	j	bf90 <.L4546>
    3310:	d8200c93          	li	s9,-638
    3314:	01934463          	blt	t1,s9,331c <.L1878+0x18>
    3318:	2a00b06f          	j	e5b8 <.L1880>
    331c:	27300c93          	li	s9,627
    3320:	013cd463          	bge	s9,s3,3328 <.L1878+0x24>
    3324:	3f90b06f          	j	ef1c <.L1881>
    3328:	0b100c93          	li	s9,177
    332c:	00ecd463          	bge	s9,a4,3334 <.L1878+0x30>
    3330:	3250f06f          	j	12e54 <.L4547>
    3334:	01700c93          	li	s9,23
    3338:	09912c23          	sw	s9,152(sp)
    333c:	02400c93          	li	s9,36
    3340:	05912e23          	sw	s9,92(sp)
    3344:	00100c93          	li	s9,1
    3348:	0d912e23          	sw	s9,220(sp)

0000334c <.L1877>:
    334c:	ce400c93          	li	s9,-796
    3350:	01935463          	bge	t1,s9,3358 <.L1877+0xc>
    3354:	52d0d06f          	j	11080 <.L4622>
    3358:	03400c93          	li	s9,52
    335c:	014cc463          	blt	s9,s4,3364 <.L1877+0x18>
    3360:	3951006f          	j	13ef4 <.L4623>
    3364:	00d00c93          	li	s9,13
    3368:	15912e23          	sw	s9,348(sp)
    336c:	01200c93          	li	s9,18
    3370:	07912e23          	sw	s9,124(sp)

00003374 <.L1948>:
    3374:	ffa00d13          	li	s10,-6
    3378:	03a00c93          	li	s9,58
    337c:	19a12823          	sw	s10,400(sp)
    3380:	00fcc663          	blt	s9,a5,338c <.L1984>

00003384 <.L1914>:
    3384:	ff600c93          	li	s9,-10
    3388:	19912823          	sw	s9,400(sp)

0000338c <.L1984>:
    338c:	d2500c93          	li	s9,-731
    3390:	01935463          	bge	t1,s9,3398 <.L2619>
    3394:	42d0806f          	j	bfc0 <.L6166>

00003398 <.L2619>:
    3398:	02400c93          	li	s9,36
    339c:	00ccc463          	blt	s9,a2,33a4 <.L2619+0xc>
    33a0:	5ec0706f          	j	a98c <.L2000>
    33a4:	e9900c93          	li	s9,-359
    33a8:	01934463          	blt	t1,s9,33b0 <.L2619+0x18>
    33ac:	2ec0a06f          	j	d698 <.L2001>
    33b0:	20200c93          	li	s9,514
    33b4:	016cd463          	bge	s9,s6,33bc <.L2619+0x24>
    33b8:	6100d06f          	j	109c8 <.L4671>
    33bc:	ff600c93          	li	s9,-10
    33c0:	01912223          	sw	s9,4(sp)

000033c4 <.L2002>:
    33c4:	df000c93          	li	s9,-528
    33c8:	0198c463          	blt	a7,s9,33d0 <.L1979>
    33cc:	0900c06f          	j	f45c <.L4717>

000033d0 <.L1979>:
    33d0:	03b00c93          	li	s9,59
    33d4:	00fcd463          	bge	s9,a5,33dc <.L1979+0xc>
    33d8:	47c0906f          	j	c854 <.L6167>
    33dc:	cd800c93          	li	s9,-808
    33e0:	01934463          	blt	t1,s9,33e8 <.L1979+0x18>
    33e4:	5c90706f          	j	b1ac <.L4750>
    33e8:	e2500c93          	li	s9,-475
    33ec:	01944463          	blt	s0,s9,33f4 <.L1979+0x24>
    33f0:	4040906f          	j	c7f4 <.L4751>
    33f4:	25500c93          	li	s9,597
    33f8:	012cd463          	bge	s9,s2,3400 <.L1979+0x30>
    33fc:	3151206f          	j	15f10 <.L4752>
    3400:	00800c93          	li	s9,8
    3404:	01912423          	sw	s9,8(sp)
    3408:	ff700c93          	li	s9,-9
    340c:	01912a23          	sw	s9,20(sp)

00003410 <.L2083>:
    3410:	e0800c93          	li	s9,-504
    3414:	01944463          	blt	s0,s9,341c <.L2083+0xc>
    3418:	07d0a06f          	j	dc94 <.L4773>
    341c:	ff700c93          	li	s9,-9
    3420:	01912c23          	sw	s9,24(sp)

00003424 <.L2109>:
    3424:	df100c93          	li	s9,-527
    3428:	0194c463          	blt	s1,s9,3430 <.L2109+0xc>
    342c:	23c0806f          	j	b668 <.L2125>
    3430:	e9900c93          	li	s9,-359
    3434:	01935463          	bge	t1,s9,343c <.L2109+0x18>
    3438:	7050906f          	j	d33c <.L6168>
    343c:	ee600c93          	li	s9,-282
    3440:	019ad463          	bge	s5,s9,3448 <.L2109+0x24>
    3444:	7940e06f          	j	11bd8 <.L2143>
    3448:	03600c93          	li	s9,54
    344c:	00fcd463          	bge	s9,a5,3454 <.L2109+0x30>
    3450:	4341306f          	j	16884 <.L4813>
    3454:	ff900c93          	li	s9,-7
    3458:	05912623          	sw	s9,76(sp)

0000345c <.L2136>:
    345c:	25500c93          	li	s9,597
    3460:	012cc463          	blt	s9,s2,3468 <.L2140>
    3464:	30d0d06f          	j	10f70 <.L5649>

00003468 <.L2140>:
    3468:	03000c93          	li	s9,48
    346c:	007cc463          	blt	s9,t2,3474 <.L2140+0xc>
    3470:	3ec0606f          	j	985c <.L2209>
    3474:	faf00c93          	li	s9,-81
    3478:	0194c463          	blt	s1,s9,3480 <.L2140+0x18>
    347c:	3941406f          	j	17810 <.L2210>
    3480:	ff700c93          	li	s9,-9
    3484:	000c8d13          	mv	s10,s9
    3488:	03912023          	sw	s9,32(sp)
    348c:	01a12e23          	sw	s10,28(sp)
    3490:	d8200c93          	li	s9,-638
    3494:	01935463          	bge	t1,s9,349c <.L2211>
    3498:	6211506f          	j	192b8 <.L6169>

0000349c <.L2211>:
    349c:	0de00c93          	li	s9,222
    34a0:	01fcd463          	bge	s9,t6,34a8 <.L2211+0xc>
    34a4:	6ad0f06f          	j	13350 <.L4897>
    34a8:	ff600c93          	li	s9,-10
    34ac:	05912823          	sw	s9,80(sp)
    34b0:	ffb00c93          	li	s9,-5
    34b4:	0d912023          	sw	s9,192(sp)

000034b8 <.L2206>:
    34b8:	03900c93          	li	s9,57
    34bc:	00fcd463          	bge	s9,a5,34c4 <.L2231>
    34c0:	1fd0306f          	j	6ebc <.L2176>

000034c4 <.L2231>:
    34c4:	feb00c93          	li	s9,-21
    34c8:	019f4463          	blt	t5,s9,34d0 <.L2231+0xc>
    34cc:	7410406f          	j	840c <.L2242>
    34d0:	07700c93          	li	s9,119
    34d4:	005cacb3          	slt	s9,s9,t0
    34d8:	41900cb3          	neg	s9,s9
    34dc:	012cfd13          	andi	s10,s9,18
    34e0:	ffad0d13          	addi	s10,s10,-6

000034e4 <.L2250>:
    34e4:	03800c93          	li	s9,56
    34e8:	00ecd463          	bge	s9,a4,34f0 <.L2250+0xc>
    34ec:	1c90806f          	j	beb4 <.L6170>
    34f0:	ff700c93          	li	s9,-9
    34f4:	17912223          	sw	s9,356(sp)
    34f8:	03600c93          	li	s9,54
    34fc:	00fcd463          	bge	s9,a5,3504 <.L2244>
    3500:	68d0e06f          	j	1238c <.L6171>

00003504 <.L2244>:
    3504:	d2a00c93          	li	s9,-726
    3508:	01935463          	bge	t1,s9,3510 <.L2244+0xc>
    350c:	0080c06f          	j	f514 <.L4957>
    3510:	eea00c93          	li	s9,-278
    3514:	0194c463          	blt	s1,s9,351c <.L2244+0x18>
    3518:	77c0906f          	j	cc94 <.L2258>
    351c:	02700c93          	li	s9,39
    3520:	00ccd463          	bge	s9,a2,3528 <.L2244+0x24>
    3524:	31d1106f          	j	15040 <.L4968>
    3528:	02f00c93          	li	s9,47
    352c:	00bcc463          	blt	s9,a1,3534 <.L2244+0x30>
    3530:	5c51306f          	j	172f4 <.L2265>
    3534:	e0400c93          	li	s9,-508
    3538:	0198c463          	blt	a7,s9,3540 <.L2244+0x3c>
    353c:	7691506f          	j	194a4 <.L6172>
    3540:	ffd00c93          	li	s9,-3
    3544:	1b912823          	sw	s9,432(sp)
    3548:	ff700c93          	li	s9,-9
    354c:	1e012623          	sw	zero,492(sp)
    3550:	1f912e23          	sw	s9,508(sp)

00003554 <.L2261>:
    3554:	01500c93          	li	s9,21
    3558:	01ecc463          	blt	s9,t5,3560 <.L2261+0xc>
    355c:	4880506f          	j	89e4 <.L2303>
    3560:	27700c93          	li	s9,631
    3564:	01fcc463          	blt	s9,t6,356c <.L2261+0x18>
    3568:	0340806f          	j	b59c <.L2307>
    356c:	cf000c93          	li	s9,-784
    3570:	01935463          	bge	t1,s9,3578 <.L2261+0x24>
    3574:	0900b06f          	j	e604 <.L2308>
    3578:	00200c93          	li	s9,2
    357c:	29912023          	sw	s9,640(sp)
    3580:	f1900c93          	li	s9,-231
    3584:	0198d463          	bge	a7,s9,358c <.L2293>
    3588:	6041206f          	j	15b8c <.L6173>

0000358c <.L2293>:
    358c:	03900c93          	li	s9,57
    3590:	00fcd463          	bge	s9,a5,3598 <.L2293+0xc>
    3594:	6fc0b06f          	j	ec90 <.L5030>
    3598:	03200c93          	li	s9,50
    359c:	01ccd463          	bge	s9,t3,35a4 <.L2293+0x18>
    35a0:	77c0d06f          	j	10d1c <.L2324>
    35a4:	00800c93          	li	s9,8
    35a8:	17912e23          	sw	s9,380(sp)

000035ac <.L2312>:
    35ac:	06200c93          	li	s9,98
    35b0:	016cd463          	bge	s9,s6,35b8 <.L2312+0xc>
    35b4:	1980806f          	j	b74c <.L2348>
    35b8:	02f00c93          	li	s9,47
    35bc:	00bcc463          	blt	s9,a1,35c4 <.L2343>
    35c0:	24c0b06f          	j	e80c <.L2349>

000035c4 <.L2343>:
    35c4:	e1900c93          	li	s9,-487
    35c8:	0194c463          	blt	s1,s9,35d0 <.L2343+0xc>
    35cc:	7350c06f          	j	10500 <.L2350>
    35d0:	e4a00c93          	li	s9,-438
    35d4:	12012423          	sw	zero,296(sp)
    35d8:	0198d463          	bge	a7,s9,35e0 <.L5961>
    35dc:	7390c06f          	j	10514 <.L5965>

000035e0 <.L5961>:
    35e0:	00100c93          	li	s9,1
    35e4:	13912a23          	sw	s9,308(sp)

000035e8 <.L2337>:
    35e8:	00300c93          	li	s9,3
    35ec:	01dcc463          	blt	s9,t4,35f4 <.L2337+0xc>
    35f0:	1f10306f          	j	6fe0 <.L2364>
    35f4:	03600c93          	li	s9,54
    35f8:	00fcd463          	bge	s9,a5,3600 <.L2337+0x18>
    35fc:	4980906f          	j	ca94 <.L5086>
    3600:	ffa00c93          	li	s9,-6
    3604:	13912023          	sw	s9,288(sp)

00003608 <.L2375>:
    3608:	03800c93          	li	s9,56
    360c:	007cd463          	bge	s9,t2,3614 <.L2375+0xc>
    3610:	6cd0506f          	j	94dc <.L2360>
    3614:	f5442c93          	slti	s9,s0,-172
    3618:	41900cb3          	neg	s9,s9
    361c:	00acfc93          	andi	s9,s9,10
    3620:	ffbc8c93          	addi	s9,s9,-5
    3624:	2d912423          	sw	s9,712(sp)

00003628 <.L2391>:
    3628:	0d800c93          	li	s9,216
    362c:	01fcd463          	bge	s9,t6,3634 <.L2391+0xc>
    3630:	1690406f          	j	7f98 <.L2387>
    3634:	cf000c93          	li	s9,-784
    3638:	01935463          	bge	t1,s9,3640 <.L2391+0x18>
    363c:	0a50606f          	j	9ee0 <.L2388>
    3640:	0cc00c93          	li	s9,204
    3644:	26012a23          	sw	zero,628(sp)
    3648:	01ecd663          	bge	s9,t5,3654 <.L2403>
    364c:	ff900c93          	li	s9,-7
    3650:	27912a23          	sw	s9,628(sp)

00003654 <.L2403>:
    3654:	03600c93          	li	s9,54
    3658:	00fcd463          	bge	s9,a5,3660 <.L2403+0xc>
    365c:	1e10306f          	j	703c <.L2382>
    3660:	04c00c93          	li	s9,76
    3664:	016cc463          	blt	s9,s6,366c <.L2403+0x18>
    3668:	4a00806f          	j	bb08 <.L2419>
    366c:	f3900c93          	li	s9,-199
    3670:	0194d463          	bge	s1,s9,3678 <.L2403+0x24>
    3674:	1650406f          	j	7fd8 <.L2397>
    3678:	01800493          	li	s1,24
    367c:	01f4d463          	bge	s1,t6,3684 <.L2420>
    3680:	0ac1706f          	j	1a72c <.L6174>

00003684 <.L2420>:
    3684:	ff800493          	li	s1,-8
    3688:	2a912e23          	sw	s1,700(sp)
    368c:	2a912623          	sw	s1,684(sp)

00003690 <.L2396>:
    3690:	ff800493          	li	s1,-8
    3694:	22912623          	sw	s1,556(sp)

00003698 <.L2398>:
    3698:	e4f00493          	li	s1,-433
    369c:	009ad463          	bge	s5,s1,36a4 <.L2398+0xc>
    36a0:	2c10406f          	j	8160 <.L2446>
    36a4:	01700493          	li	s1,23
    36a8:	01c4a4b3          	slt	s1,s1,t3
    36ac:	00349493          	slli	s1,s1,0x3
    36b0:	ffb48493          	addi	s1,s1,-5
    36b4:	26912023          	sw	s1,608(sp)

000036b8 <.L2426>:
    36b8:	d2a00493          	li	s1,-726
    36bc:	00935463          	bge	t1,s1,36c4 <.L2426+0xc>
    36c0:	1d90206f          	j	6098 <.L2447>
    36c4:	ff600c93          	li	s9,-10
    36c8:	02c00493          	li	s1,44
    36cc:	05912023          	sw	s9,64(sp)
    36d0:	0104ca63          	blt	s1,a6,36e4 <.L2448>
    36d4:	04012023          	sw	zero,64(sp)
    36d8:	00981663          	bne	a6,s1,36e4 <.L2448>
    36dc:	00c00493          	li	s1,12
    36e0:	04912023          	sw	s1,64(sp)

000036e4 <.L2448>:
    36e4:	0a000493          	li	s1,160
    36e8:	0124d463          	bge	s1,s2,36f0 <.L2448+0xc>
    36ec:	7680206f          	j	5e54 <.L2449>
    36f0:	09b00493          	li	s1,155
    36f4:	0124c463          	blt	s1,s2,36fc <.L2448+0x18>
    36f8:	17d0406f          	j	8074 <.L2450>
    36fc:	f4200493          	li	s1,-190
    3700:	0098d463          	bge	a7,s1,3708 <.L2448+0x24>
    3704:	7e80806f          	j	beec <.L6175>
    3708:	01800493          	li	s1,24
    370c:	00b4d463          	bge	s1,a1,3714 <.L2448+0x30>
    3710:	6e40906f          	j	cdf4 <.L5198>
    3714:	11a00493          	li	s1,282
    3718:	0054c463          	blt	s1,t0,3720 <.L2448+0x3c>
    371c:	6ad0d06f          	j	115c8 <.L5199>
    3720:	ccd00493          	li	s1,-819
    3724:	00935463          	bge	t1,s1,372c <.L2448+0x48>
    3728:	2c81106f          	j	149f0 <.L5200>
    372c:	ff600493          	li	s1,-10
    3730:	20912e23          	sw	s1,540(sp)
    3734:	00100493          	li	s1,1
    3738:	16912023          	sw	s1,352(sp)

0000373c <.L2454>:
    373c:	03600493          	li	s1,54
    3740:	00f4d463          	bge	s1,a5,3748 <.L2454+0xc>
    3744:	3a10706f          	j	b2e4 <.L5209>
    3748:	00300493          	li	s1,3
    374c:	01d4c463          	blt	s1,t4,3754 <.L2454+0x18>
    3750:	52c0a06f          	j	dc7c <.L2461>
    3754:	ff800493          	li	s1,-8
    3758:	1e912023          	sw	s1,480(sp)

0000375c <.L2482>:
    375c:	e4a00493          	li	s1,-438
    3760:	0098d463          	bge	a7,s1,3768 <.L2459>
    3764:	2c40506f          	j	8a28 <.L2486>

00003768 <.L2459>:
    3768:	fffa4493          	not	s1,s4
    376c:	41f4d493          	srai	s1,s1,0x1f
    3770:	ffc4c493          	xori	s1,s1,-4
    3774:	20912a23          	sw	s1,532(sp)

00003778 <.L2483>:
    3778:	ff600493          	li	s1,-10
    377c:	0096d463          	bge	a3,s1,3784 <.L2490>
    3780:	1e50206f          	j	6164 <.L2493>

00003784 <.L2490>:
    3784:	ff600493          	li	s1,-10
    3788:	00969463          	bne	a3,s1,3790 <.L2490+0xc>
    378c:	2c80506f          	j	8a54 <.L2495>
    3790:	f278a493          	slti	s1,a7,-217
    3794:	409004b3          	neg	s1,s1
    3798:	ff94fa93          	andi	s5,s1,-7
    379c:	004a8a93          	addi	s5,s5,4

000037a0 <.L2492>:
    37a0:	02600493          	li	s1,38
    37a4:	00c4c463          	blt	s1,a2,37ac <.L2496>
    37a8:	2d80306f          	j	6a80 <.L2505>

000037ac <.L2496>:
    37ac:	01d00493          	li	s1,29
    37b0:	0144d463          	bge	s1,s4,37b8 <.L2496+0xc>
    37b4:	1e50206f          	j	6198 <.L2506>
    37b8:	ff5fa493          	slti	s1,t6,-11
    37bc:	fff48493          	addi	s1,s1,-1
    37c0:	0044cc93          	xori	s9,s1,4

000037c4 <.L2498>:
    37c4:	02700493          	li	s1,39
    37c8:	0054d463          	bge	s1,t0,37d0 <.L2510>
    37cc:	2dc0306f          	j	6aa8 <.L6176>

000037d0 <.L2510>:
    37d0:	0e400493          	li	s1,228
    37d4:	00200b13          	li	s6,2
    37d8:	01e4ca63          	blt	s1,t5,37ec <.L2512>
    37dc:	01b00f13          	li	t5,27
    37e0:	ff800b13          	li	s6,-8
    37e4:	00bf5463          	bge	t5,a1,37ec <.L2512>
    37e8:	ffe00b13          	li	s6,-2

000037ec <.L2512>:
    37ec:	00300f13          	li	t5,3
    37f0:	01df5463          	bge	t5,t4,37f8 <.L2512+0xc>
    37f4:	59c0206f          	j	5d90 <.L2503>
    37f8:	01300f13          	li	t5,19
    37fc:	ff800493          	li	s1,-8
    3800:	01cf4a63          	blt	t5,t3,3814 <.L2515>
    3804:	02e00f13          	li	t5,46
    3808:	ff900493          	li	s1,-7
    380c:	01ff5463          	bge	t5,t6,3814 <.L2515>
    3810:	00200493          	li	s1,2

00003814 <.L2515>:
    3814:	00700f13          	li	t5,7
    3818:	05e12c23          	sw	t5,88(sp)
    381c:	c0000f13          	li	t5,-1024
    3820:	01e34463          	blt	t1,t5,3828 <.L2517>
    3824:	5a00206f          	j	5dc4 <.L2516>

00003828 <.L2517>:
    3828:	05800f13          	li	t5,88
    382c:	012f5463          	bge	t5,s2,3834 <.L2517+0xc>
    3830:	5c00206f          	j	5df0 <.L2519>
    3834:	f5300f13          	li	t5,-173
    3838:	01e45463          	bge	s0,t5,3840 <.L2517+0x18>
    383c:	5210506f          	j	955c <.L2528>
    3840:	ff900f13          	li	t5,-7
    3844:	01e75463          	bge	a4,t5,384c <.L2517+0x24>
    3848:	00d0606f          	j	a054 <.L2529>
    384c:	ff600713          	li	a4,-10
    3850:	00e6d463          	bge	a3,a4,3858 <.L2517+0x30>
    3854:	5040a06f          	j	dd58 <.L2530>
    3858:	00e69463          	bne	a3,a4,3860 <.L2517+0x38>
    385c:	2b90f06f          	j	13314 <.L6177>
    3860:	01400713          	li	a4,20
    3864:	fff00f13          	li	t5,-1
    3868:	01475463          	bge	a4,s4,3870 <.L5980>
    386c:	4300206f          	j	5c9c <.L5978>

00003870 <.L5980>:
    3870:	ffb00713          	li	a4,-5
    3874:	2ce12223          	sw	a4,708(sp)

00003878 <.L2559>:
    3878:	02700713          	li	a4,39
    387c:	00574463          	blt	a4,t0,3884 <.L2559+0xc>
    3880:	0e90606f          	j	a168 <.L5284>
    3884:	03000713          	li	a4,48
    3888:	00000a13          	li	s4,0
    388c:	00574463          	blt	a4,t0,3894 <.L2556>
    3890:	3a80206f          	j	5c38 <.L5287>

00003894 <.L2556>:
    3894:	01600713          	li	a4,22
    3898:	fff00993          	li	s3,-1
    389c:	00b75463          	bge	a4,a1,38a4 <.L2561>
    38a0:	00200993          	li	s3,2

000038a4 <.L2561>:
    38a4:	01d04463          	bgtz	t4,38ac <.L2564>
    38a8:	39c0206f          	j	5c44 <.L6178>

000038ac <.L2564>:
    38ac:	ff600713          	li	a4,-10
    38b0:	00e6d463          	bge	a3,a4,38b8 <.L2564+0xc>
    38b4:	3450306f          	j	73f8 <.L2583>
    38b8:	ed68a713          	slti	a4,a7,-298
    38bc:	40e00733          	neg	a4,a4
    38c0:	ff977713          	andi	a4,a4,-7
    38c4:	00470713          	addi	a4,a4,4

000038c8 <.L2584>:
    38c8:	c5700893          	li	a7,-937
    38cc:	00600593          	li	a1,6
    38d0:	03134063          	blt	t1,a7,38f0 <.L2585>

000038d4 <.L2578>:
    38d4:	02c00593          	li	a1,44
    38d8:	0105c463          	blt	a1,a6,38e0 <.L2578+0xc>
    38dc:	7190506f          	j	97f4 <.L2586>
    38e0:	e1500893          	li	a7,-491
    38e4:	ff700593          	li	a1,-9
    38e8:	01145463          	bge	s0,a7,38f0 <.L2585>
    38ec:	00000593          	li	a1,0

000038f0 <.L2585>:
    38f0:	02600893          	li	a7,38
    38f4:	00c8c463          	blt	a7,a2,38fc <.L2585+0xc>
    38f8:	7790206f          	j	6870 <.L2569>
    38fc:	00300613          	li	a2,3
    3900:	01d64463          	blt	a2,t4,3908 <.L2585+0x18>
    3904:	35c0206f          	j	5c60 <.L2568>
    3908:	01c51883          	lh	a7,28(a0)
    390c:	02a00513          	li	a0,42
    3910:	ffc00613          	li	a2,-4
    3914:	01155463          	bge	a0,a7,391c <.L2579>
    3918:	00400613          	li	a2,4

0000391c <.L2579>:
    391c:	03100513          	li	a0,49
    3920:	00f54463          	blt	a0,a5,3928 <.L2594>
    3924:	2fc0206f          	j	5c20 <.L6179>

00003928 <.L2594>:
    3928:	05800513          	li	a0,88
    392c:	01254463          	blt	a0,s2,3934 <.L2594+0xc>
    3930:	2c00206f          	j	5bf0 <.L2601>
    3934:	03c00513          	li	a0,60
    3938:	00f55463          	bge	a0,a5,3940 <.L2594+0x18>
    393c:	7410706f          	j	b87c <.L2590>
    3940:	02800793          	li	a5,40
    3944:	fff00513          	li	a0,-1
    3948:	0057c463          	blt	a5,t0,3950 <.L2598>
    394c:	2e40206f          	j	5c30 <.L5984>

00003950 <.L2598>:
    3950:	06b00793          	li	a5,107
    3954:	0127c463          	blt	a5,s2,395c <.L2598+0xc>
    3958:	6950406f          	j	87ec <.L2604>
    395c:	ffc00793          	li	a5,-4
    3960:	ff900893          	li	a7,-7
    3964:	00f6d463          	bge	a3,a5,396c <.L2571>
    3968:	2b00206f          	j	5c18 <.L5983>

0000396c <.L2571>:
    396c:	c0000693          	li	a3,-1024
    3970:	00600793          	li	a5,6
    3974:	02d34063          	blt	t1,a3,3994 <.L2605>
    3978:	02c00793          	li	a5,44
    397c:	0107c463          	blt	a5,a6,3984 <.L2571+0x18>
    3980:	6910406f          	j	8810 <.L2607>
    3984:	e1500693          	li	a3,-491
    3988:	00000793          	li	a5,0
    398c:	00d44463          	blt	s0,a3,3994 <.L2605>
    3990:	0050506f          	j	9194 <.L5336>

00003994 <.L2605>:
    3994:	26c12683          	lw	a3,620(sp)
    3998:	2b412803          	lw	a6,692(sp)
    399c:	09812e83          	lw	t4,152(sp)
    39a0:	01068e33          	add	t3,a3,a6
    39a4:	15012683          	lw	a3,336(sp)
    39a8:	29812803          	lw	a6,664(sp)
    39ac:	01068333          	add	t1,a3,a6
    39b0:	1a412683          	lw	a3,420(sp)
    39b4:	22812803          	lw	a6,552(sp)
    39b8:	00de0e33          	add	t3,t3,a3
    39bc:	14c12683          	lw	a3,332(sp)
    39c0:	00d30333          	add	t1,t1,a3
    39c4:	1a812683          	lw	a3,424(sp)
    39c8:	00de0e33          	add	t3,t3,a3
    39cc:	1f012683          	lw	a3,496(sp)
    39d0:	00d30333          	add	t1,t1,a3
    39d4:	22412683          	lw	a3,548(sp)
    39d8:	01068833          	add	a6,a3,a6
    39dc:	05c12683          	lw	a3,92(sp)
    39e0:	01d686b3          	add	a3,a3,t4
    39e4:	20012e83          	lw	t4,512(sp)
    39e8:	01de0e33          	add	t3,t3,t4
    39ec:	1c812e83          	lw	t4,456(sp)
    39f0:	01d30333          	add	t1,t1,t4
    39f4:	0e812e83          	lw	t4,232(sp)
    39f8:	01d80833          	add	a6,a6,t4
    39fc:	07c12e83          	lw	t4,124(sp)
    3a00:	01d686b3          	add	a3,a3,t4
    3a04:	2a012e83          	lw	t4,672(sp)
    3a08:	01de0e33          	add	t3,t3,t4
    3a0c:	10812e83          	lw	t4,264(sp)
    3a10:	01d30333          	add	t1,t1,t4
    3a14:	03012e83          	lw	t4,48(sp)
    3a18:	01d80833          	add	a6,a6,t4
    3a1c:	15c12e83          	lw	t4,348(sp)
    3a20:	01d686b3          	add	a3,a3,t4
    3a24:	20412e83          	lw	t4,516(sp)
    3a28:	01de0e33          	add	t3,t3,t4
    3a2c:	16c12e83          	lw	t4,364(sp)
    3a30:	01d30333          	add	t1,t1,t4
    3a34:	03412e83          	lw	t4,52(sp)
    3a38:	01d80833          	add	a6,a6,t4
    3a3c:	19012e83          	lw	t4,400(sp)
    3a40:	01d686b3          	add	a3,a3,t4
    3a44:	2dc12e83          	lw	t4,732(sp)
    3a48:	01de0e33          	add	t3,t3,t4
    3a4c:	0b412e83          	lw	t4,180(sp)
    3a50:	01d30333          	add	t1,t1,t4
    3a54:	0e012e83          	lw	t4,224(sp)
    3a58:	01d80833          	add	a6,a6,t4
    3a5c:	00412e83          	lw	t4,4(sp)
    3a60:	01d686b3          	add	a3,a3,t4
    3a64:	2d812e83          	lw	t4,728(sp)
    3a68:	01de0e33          	add	t3,t3,t4
    3a6c:	1f412e83          	lw	t4,500(sp)
    3a70:	017e0e33          	add	t3,t3,s7
    3a74:	01d30333          	add	t1,t1,t4
    3a78:	21012e83          	lw	t4,528(sp)
    3a7c:	01d80833          	add	a6,a6,t4
    3a80:	01412e83          	lw	t4,20(sp)
    3a84:	01d686b3          	add	a3,a3,t4
    3a88:	1d412e83          	lw	t4,468(sp)
    3a8c:	01d30333          	add	t1,t1,t4
    3a90:	08c12e83          	lw	t4,140(sp)
    3a94:	01d80833          	add	a6,a6,t4
    3a98:	00812e83          	lw	t4,8(sp)
    3a9c:	01d686b3          	add	a3,a3,t4
    3aa0:	0ac12e83          	lw	t4,172(sp)
    3aa4:	01de0e33          	add	t3,t3,t4
    3aa8:	20812e83          	lw	t4,520(sp)
    3aac:	01d30333          	add	t1,t1,t4
    3ab0:	02c12e83          	lw	t4,44(sp)
    3ab4:	01d80833          	add	a6,a6,t4
    3ab8:	01812e83          	lw	t4,24(sp)
    3abc:	01d686b3          	add	a3,a3,t4
    3ac0:	28812e83          	lw	t4,648(sp)
    3ac4:	01de0e33          	add	t3,t3,t4
    3ac8:	2a412e83          	lw	t4,676(sp)
    3acc:	01d30333          	add	t1,t1,t4
    3ad0:	0d012e83          	lw	t4,208(sp)
    3ad4:	01d80833          	add	a6,a6,t4
    3ad8:	04c12e83          	lw	t4,76(sp)
    3adc:	01d686b3          	add	a3,a3,t4
    3ae0:	16812e83          	lw	t4,360(sp)
    3ae4:	01de0e33          	add	t3,t3,t4
    3ae8:	0bc12e83          	lw	t4,188(sp)
    3aec:	01d30333          	add	t1,t1,t4
    3af0:	06412e83          	lw	t4,100(sp)
    3af4:	01d80833          	add	a6,a6,t4
    3af8:	01c12e83          	lw	t4,28(sp)
    3afc:	01d686b3          	add	a3,a3,t4
    3b00:	2cc12e83          	lw	t4,716(sp)
    3b04:	01de0e33          	add	t3,t3,t4
    3b08:	23412e83          	lw	t4,564(sp)
    3b0c:	01d30333          	add	t1,t1,t4
    3b10:	02812e83          	lw	t4,40(sp)
    3b14:	01d80833          	add	a6,a6,t4
    3b18:	02012e83          	lw	t4,32(sp)
    3b1c:	01d686b3          	add	a3,a3,t4
    3b20:	24812e83          	lw	t4,584(sp)
    3b24:	01de0e33          	add	t3,t3,t4
    3b28:	1e812e83          	lw	t4,488(sp)
    3b2c:	01d30333          	add	t1,t1,t4
    3b30:	01012e83          	lw	t4,16(sp)
    3b34:	01d80833          	add	a6,a6,t4
    3b38:	05012e83          	lw	t4,80(sp)
    3b3c:	01d686b3          	add	a3,a3,t4
    3b40:	24012e83          	lw	t4,576(sp)
    3b44:	01de0e33          	add	t3,t3,t4
    3b48:	0f412e83          	lw	t4,244(sp)
    3b4c:	01d30333          	add	t1,t1,t4
    3b50:	06812e83          	lw	t4,104(sp)
    3b54:	01d80833          	add	a6,a6,t4
    3b58:	0c012e83          	lw	t4,192(sp)
    3b5c:	01d686b3          	add	a3,a3,t4
    3b60:	27812e83          	lw	t4,632(sp)
    3b64:	01a686b3          	add	a3,a3,s10
    3b68:	01de0e33          	add	t3,t3,t4
    3b6c:	27012e83          	lw	t4,624(sp)
    3b70:	01d30333          	add	t1,t1,t4
    3b74:	03c12e83          	lw	t4,60(sp)
    3b78:	01d80833          	add	a6,a6,t4
    3b7c:	1c012e83          	lw	t4,448(sp)
    3b80:	01de0e33          	add	t3,t3,t4
    3b84:	0fc12e83          	lw	t4,252(sp)
    3b88:	01d30333          	add	t1,t1,t4
    3b8c:	10012e83          	lw	t4,256(sp)
    3b90:	01d80833          	add	a6,a6,t4
    3b94:	16412e83          	lw	t4,356(sp)
    3b98:	01d686b3          	add	a3,a3,t4
    3b9c:	1b812e83          	lw	t4,440(sp)
    3ba0:	01de0e33          	add	t3,t3,t4
    3ba4:	0c412e83          	lw	t4,196(sp)
    3ba8:	01d30333          	add	t1,t1,t4
    3bac:	14012e83          	lw	t4,320(sp)
    3bb0:	01d80833          	add	a6,a6,t4
    3bb4:	1fc12e83          	lw	t4,508(sp)
    3bb8:	01d686b3          	add	a3,a3,t4
    3bbc:	1e412e83          	lw	t4,484(sp)
    3bc0:	01de0e33          	add	t3,t3,t4
    3bc4:	18412e83          	lw	t4,388(sp)
    3bc8:	01d30333          	add	t1,t1,t4
    3bcc:	15812e83          	lw	t4,344(sp)
    3bd0:	01d80833          	add	a6,a6,t4
    3bd4:	1ec12e83          	lw	t4,492(sp)
    3bd8:	01d686b3          	add	a3,a3,t4
    3bdc:	28c12e83          	lw	t4,652(sp)
    3be0:	01de0e33          	add	t3,t3,t4
    3be4:	23812e83          	lw	t4,568(sp)
    3be8:	01d30333          	add	t1,t1,t4
    3bec:	07812e83          	lw	t4,120(sp)
    3bf0:	01d80833          	add	a6,a6,t4
    3bf4:	1b012e83          	lw	t4,432(sp)
    3bf8:	01d686b3          	add	a3,a3,t4
    3bfc:	23012e83          	lw	t4,560(sp)
    3c00:	01de0e33          	add	t3,t3,t4
    3c04:	0a812e83          	lw	t4,168(sp)
    3c08:	01d30333          	add	t1,t1,t4
    3c0c:	0a412e83          	lw	t4,164(sp)
    3c10:	01d80833          	add	a6,a6,t4
    3c14:	28012e83          	lw	t4,640(sp)
    3c18:	01d686b3          	add	a3,a3,t4
    3c1c:	07412e83          	lw	t4,116(sp)
    3c20:	01de0e33          	add	t3,t3,t4
    3c24:	0ec12e83          	lw	t4,236(sp)
    3c28:	01d30333          	add	t1,t1,t4
    3c2c:	06c12e83          	lw	t4,108(sp)
    3c30:	01d80833          	add	a6,a6,t4
    3c34:	17c12e83          	lw	t4,380(sp)
    3c38:	01d686b3          	add	a3,a3,t4
    3c3c:	1cc12e83          	lw	t4,460(sp)
    3c40:	01de0e33          	add	t3,t3,t4
    3c44:	17412e83          	lw	t4,372(sp)
    3c48:	01d30333          	add	t1,t1,t4
    3c4c:	0d412e83          	lw	t4,212(sp)
    3c50:	01d80833          	add	a6,a6,t4
    3c54:	13412e83          	lw	t4,308(sp)
    3c58:	01d686b3          	add	a3,a3,t4
    3c5c:	10412e83          	lw	t4,260(sp)
    3c60:	01de0e33          	add	t3,t3,t4
    3c64:	19812e83          	lw	t4,408(sp)
    3c68:	01d30333          	add	t1,t1,t4
    3c6c:	0c812e83          	lw	t4,200(sp)
    3c70:	01d80833          	add	a6,a6,t4
    3c74:	12812e83          	lw	t4,296(sp)
    3c78:	01d686b3          	add	a3,a3,t4
    3c7c:	19412e83          	lw	t4,404(sp)
    3c80:	01de0e33          	add	t3,t3,t4
    3c84:	1d012e83          	lw	t4,464(sp)
    3c88:	01d30333          	add	t1,t1,t4
    3c8c:	17012e83          	lw	t4,368(sp)
    3c90:	01d80833          	add	a6,a6,t4
    3c94:	12012e83          	lw	t4,288(sp)
    3c98:	01d686b3          	add	a3,a3,t4
    3c9c:	05412e83          	lw	t4,84(sp)
    3ca0:	01de0e33          	add	t3,t3,t4
    3ca4:	21812e83          	lw	t4,536(sp)
    3ca8:	01d30333          	add	t1,t1,t4
    3cac:	13812e83          	lw	t4,312(sp)
    3cb0:	01d80833          	add	a6,a6,t4
    3cb4:	2c812e83          	lw	t4,712(sp)
    3cb8:	01d686b3          	add	a3,a3,t4
    3cbc:	03812e83          	lw	t4,56(sp)
    3cc0:	01de0e33          	add	t3,t3,t4
    3cc4:	2d012e83          	lw	t4,720(sp)
    3cc8:	01d30333          	add	t1,t1,t4
    3ccc:	10c12e83          	lw	t4,268(sp)
    3cd0:	01d80833          	add	a6,a6,t4
    3cd4:	27412e83          	lw	t4,628(sp)
    3cd8:	01d686b3          	add	a3,a3,t4
    3cdc:	11c12e83          	lw	t4,284(sp)
    3ce0:	01de0e33          	add	t3,t3,t4
    3ce4:	2a812e83          	lw	t4,680(sp)
    3ce8:	01d30333          	add	t1,t1,t4
    3cec:	0e412e83          	lw	t4,228(sp)
    3cf0:	01d80833          	add	a6,a6,t4
    3cf4:	2ac12e83          	lw	t4,684(sp)
    3cf8:	01b80833          	add	a6,a6,s11
    3cfc:	01880833          	add	a6,a6,s8
    3d00:	01d686b3          	add	a3,a3,t4
    3d04:	14812e83          	lw	t4,328(sp)
    3d08:	01de0e33          	add	t3,t3,t4
    3d0c:	1d812e83          	lw	t4,472(sp)
    3d10:	01d30333          	add	t1,t1,t4
    3d14:	2bc12e83          	lw	t4,700(sp)
    3d18:	01d686b3          	add	a3,a3,t4
    3d1c:	26812e83          	lw	t4,616(sp)
    3d20:	01de0e33          	add	t3,t3,t4
    3d24:	09c12e83          	lw	t4,156(sp)
    3d28:	01d30333          	add	t1,t1,t4
    3d2c:	22c12e83          	lw	t4,556(sp)
    3d30:	01d686b3          	add	a3,a3,t4
    3d34:	15412e83          	lw	t4,340(sp)
    3d38:	01de0e33          	add	t3,t3,t4
    3d3c:	08812e83          	lw	t4,136(sp)
    3d40:	01d30333          	add	t1,t1,t4
    3d44:	00c12e83          	lw	t4,12(sp)
    3d48:	01d80833          	add	a6,a6,t4
    3d4c:	26012e83          	lw	t4,608(sp)
    3d50:	01d686b3          	add	a3,a3,t4
    3d54:	27c12e83          	lw	t4,636(sp)
    3d58:	01de0e33          	add	t3,t3,t4
    3d5c:	13c12e83          	lw	t4,316(sp)
    3d60:	01d30333          	add	t1,t1,t4
    3d64:	14412e83          	lw	t4,324(sp)
    3d68:	01d80833          	add	a6,a6,t4
    3d6c:	04012e83          	lw	t4,64(sp)
    3d70:	01d686b3          	add	a3,a3,t4
    3d74:	12c12e83          	lw	t4,300(sp)
    3d78:	01de0e33          	add	t3,t3,t4
    3d7c:	12412e83          	lw	t4,292(sp)
    3d80:	01d30333          	add	t1,t1,t4
    3d84:	0d812e83          	lw	t4,216(sp)
    3d88:	01d80833          	add	a6,a6,t4
    3d8c:	16012e83          	lw	t4,352(sp)
    3d90:	01d686b3          	add	a3,a3,t4
    3d94:	18012e83          	lw	t4,384(sp)
    3d98:	01de0e33          	add	t3,t3,t4
    3d9c:	1dc12e83          	lw	t4,476(sp)
    3da0:	01d30333          	add	t1,t1,t4
    3da4:	0f012e83          	lw	t4,240(sp)
    3da8:	01d80833          	add	a6,a6,t4
    3dac:	21c12e83          	lw	t4,540(sp)
    3db0:	01d686b3          	add	a3,a3,t4
    3db4:	1b412e83          	lw	t4,436(sp)
    3db8:	01de0e33          	add	t3,t3,t4
    3dbc:	11012e83          	lw	t4,272(sp)
    3dc0:	01d30333          	add	t1,t1,t4
    3dc4:	04812e83          	lw	t4,72(sp)
    3dc8:	01d80833          	add	a6,a6,t4
    3dcc:	1e012e83          	lw	t4,480(sp)
    3dd0:	01d686b3          	add	a3,a3,t4
    3dd4:	26412e83          	lw	t4,612(sp)
    3dd8:	01de0e33          	add	t3,t3,t4
    3ddc:	13012e83          	lw	t4,304(sp)
    3de0:	01d30333          	add	t1,t1,t4
    3de4:	28412e83          	lw	t4,644(sp)
    3de8:	01d80833          	add	a6,a6,t4
    3dec:	21412e83          	lw	t4,532(sp)
    3df0:	01d686b3          	add	a3,a3,t4
    3df4:	25812e83          	lw	t4,600(sp)
    3df8:	015686b3          	add	a3,a3,s5
    3dfc:	019686b3          	add	a3,a3,s9
    3e00:	01de0e33          	add	t3,t3,t4
    3e04:	17812e83          	lw	t4,376(sp)
    3e08:	016686b3          	add	a3,a3,s6
    3e0c:	009686b3          	add	a3,a3,s1
    3e10:	01d30333          	add	t1,t1,t4
    3e14:	29c12e83          	lw	t4,668(sp)
    3e18:	01d80833          	add	a6,a6,t4
    3e1c:	22012e83          	lw	t4,544(sp)
    3e20:	01de0e33          	add	t3,t3,t4
    3e24:	1bc12e83          	lw	t4,444(sp)
    3e28:	01d30333          	add	t1,t1,t4
    3e2c:	19c12e83          	lw	t4,412(sp)
    3e30:	01d80833          	add	a6,a6,t4
    3e34:	0a012e83          	lw	t4,160(sp)
    3e38:	01de0e33          	add	t3,t3,t4
    3e3c:	11812e83          	lw	t4,280(sp)
    3e40:	01d30333          	add	t1,t1,t4
    3e44:	04412e83          	lw	t4,68(sp)
    3e48:	01d80833          	add	a6,a6,t4
    3e4c:	25c12e83          	lw	t4,604(sp)
    3e50:	01de0e33          	add	t3,t3,t4
    3e54:	06012e83          	lw	t4,96(sp)
    3e58:	01d30333          	add	t1,t1,t4
    3e5c:	0b012e83          	lw	t4,176(sp)
    3e60:	01d80833          	add	a6,a6,t4
    3e64:	2c012e83          	lw	t4,704(sp)
    3e68:	01de0e33          	add	t3,t3,t4
    3e6c:	20c12e83          	lw	t4,524(sp)
    3e70:	01d30333          	add	t1,t1,t4
    3e74:	24412e83          	lw	t4,580(sp)
    3e78:	01d80833          	add	a6,a6,t4
    3e7c:	05812e83          	lw	t4,88(sp)
    3e80:	01d686b3          	add	a3,a3,t4
    3e84:	0f812e83          	lw	t4,248(sp)
    3e88:	01de0e33          	add	t3,t3,t4
    3e8c:	1ac12e83          	lw	t4,428(sp)
    3e90:	01d30333          	add	t1,t1,t4
    3e94:	23c12e83          	lw	t4,572(sp)
    3e98:	01d80833          	add	a6,a6,t4
    3e9c:	2c412e83          	lw	t4,708(sp)
    3ea0:	01d686b3          	add	a3,a3,t4
    3ea4:	2b012e83          	lw	t4,688(sp)
    3ea8:	01e686b3          	add	a3,a3,t5
    3eac:	014686b3          	add	a3,a3,s4
    3eb0:	01de0e33          	add	t3,t3,t4
    3eb4:	24c12e83          	lw	t4,588(sp)
    3eb8:	013686b3          	add	a3,a3,s3
    3ebc:	00e68733          	add	a4,a3,a4
    3ec0:	01d30333          	add	t1,t1,t4
    3ec4:	08012e83          	lw	t4,128(sp)
    3ec8:	1c412683          	lw	a3,452(sp)
    3ecc:	00b70733          	add	a4,a4,a1
    3ed0:	01d80833          	add	a6,a6,t4
    3ed4:	08412e83          	lw	t4,132(sp)
    3ed8:	02412583          	lw	a1,36(sp)
    3edc:	00c70733          	add	a4,a4,a2
    3ee0:	01de0e33          	add	t3,t3,t4
    3ee4:	09412e83          	lw	t4,148(sp)
    3ee8:	11412603          	lw	a2,276(sp)
    3eec:	00a70733          	add	a4,a4,a0
    3ef0:	01d30333          	add	t1,t1,t4
    3ef4:	1a012e83          	lw	t4,416(sp)
    3ef8:	0b812503          	lw	a0,184(sp)
    3efc:	01170733          	add	a4,a4,a7
    3f00:	01d80833          	add	a6,a6,t4
    3f04:	29012e83          	lw	t4,656(sp)
    3f08:	00f707b3          	add	a5,a4,a5
    3f0c:	01079793          	slli	a5,a5,0x10
    3f10:	01de0e33          	add	t3,t3,t4
    3f14:	09012e83          	lw	t4,144(sp)
    3f18:	4107d793          	srai	a5,a5,0x10
    3f1c:	2ef11723          	sh	a5,750(sp)
    3f20:	01d30333          	add	t1,t1,t4
    3f24:	18812e83          	lw	t4,392(sp)
    3f28:	01d80833          	add	a6,a6,t4
    3f2c:	29412e83          	lw	t4,660(sp)
    3f30:	01de0e33          	add	t3,t3,t4
    3f34:	18c12e83          	lw	t4,396(sp)
    3f38:	00de0e33          	add	t3,t3,a3
    3f3c:	25012683          	lw	a3,592(sp)
    3f40:	01d30333          	add	t1,t1,t4
    3f44:	0cc12e83          	lw	t4,204(sp)
    3f48:	00d30333          	add	t1,t1,a3
    3f4c:	1f812683          	lw	a3,504(sp)
    3f50:	01d80833          	add	a6,a6,t4
    3f54:	00be05b3          	add	a1,t3,a1
    3f58:	00d806b3          	add	a3,a6,a3
    3f5c:	2b812803          	lw	a6,696(sp)
    3f60:	00c585b3          	add	a1,a1,a2
    3f64:	25412603          	lw	a2,596(sp)
    3f68:	01030333          	add	t1,t1,a6
    3f6c:	2d412803          	lw	a6,724(sp)
    3f70:	00c30633          	add	a2,t1,a2
    3f74:	01059593          	slli	a1,a1,0x10
    3f78:	010686b3          	add	a3,a3,a6
    3f7c:	07012803          	lw	a6,112(sp)
    3f80:	01061613          	slli	a2,a2,0x10
    3f84:	41065613          	srai	a2,a2,0x10
    3f88:	010686b3          	add	a3,a3,a6
    3f8c:	00a686b3          	add	a3,a3,a0
    3f90:	0dc12503          	lw	a0,220(sp)
    3f94:	4105d593          	srai	a1,a1,0x10
    3f98:	2ec11523          	sh	a2,746(sp)
    3f9c:	00a686b3          	add	a3,a3,a0
    3fa0:	01069713          	slli	a4,a3,0x10
    3fa4:	00c5a533          	slt	a0,a1,a2
    3fa8:	41075713          	srai	a4,a4,0x10
    3fac:	00151813          	slli	a6,a0,0x1
    3fb0:	2e810693          	addi	a3,sp,744
    3fb4:	2eb11423          	sh	a1,744(sp)
    3fb8:	2ee11623          	sh	a4,748(sp)
    3fbc:	01068633          	add	a2,a3,a6
    3fc0:	00061603          	lh	a2,0(a2)
    3fc4:	00e65663          	bge	a2,a4,3fd0 <.L2608>
    3fc8:	00200513          	li	a0,2
    3fcc:	00400813          	li	a6,4

00003fd0 <.L2608>:
    3fd0:	010686b3          	add	a3,a3,a6
    3fd4:	00069703          	lh	a4,0(a3)
    3fd8:	00f75463          	bge	a4,a5,3fe0 <.L5694>
    3fdc:	00300513          	li	a0,3

00003fe0 <.L5694>:
    3fe0:	31c12403          	lw	s0,796(sp)
    3fe4:	31812483          	lw	s1,792(sp)
    3fe8:	31412903          	lw	s2,788(sp)
    3fec:	31012983          	lw	s3,784(sp)
    3ff0:	30c12a03          	lw	s4,780(sp)
    3ff4:	30812a83          	lw	s5,776(sp)
    3ff8:	30412b03          	lw	s6,772(sp)
    3ffc:	30012b83          	lw	s7,768(sp)
    4000:	2fc12c03          	lw	s8,764(sp)
    4004:	2f812c83          	lw	s9,760(sp)
    4008:	2f412d03          	lw	s10,756(sp)
    400c:	2f012d83          	lw	s11,752(sp)
    4010:	32010113          	addi	sp,sp,800
    4014:	00008067          	ret

00004018 <.L431>:
    4018:	e2c00c13          	li	s8,-468
    401c:	0188d463          	bge	a7,s8,4024 <.L431+0xc>
    4020:	3d51106f          	j	15bf4 <.L3061>
    4024:	ff800c13          	li	s8,-8
    4028:	17812623          	sw	s8,364(sp)
    402c:	ffc00c13          	li	s8,-4
    4030:	11812423          	sw	s8,264(sp)

00004034 <.L432>:
    4034:	00a00c13          	li	s8,10
    4038:	0b0c5c63          	bge	s8,a6,40f0 <.L455>
    403c:	18f00c13          	li	s8,399
    4040:	013c4463          	blt	s8,s3,4048 <.L467>
    4044:	0210b06f          	j	f864 <.L469>

00004048 <.L467>:
    4048:	03900c13          	li	s8,57
    404c:	4eec52e3          	bge	s8,a4,4d30 <.L3072>
    4050:	08c00c13          	li	s8,140
    4054:	01ec4463          	blt	s8,t5,405c <.L467+0x14>
    4058:	4c00106f          	j	5518 <.L6180>
    405c:	ffd00c13          	li	s8,-3
    4060:	0b812a23          	sw	s8,180(sp)

00004064 <.L471>:
    4064:	ff700c13          	li	s8,-9
    4068:	0186c463          	blt	a3,s8,4070 <.L471+0xc>
    406c:	0c11906f          	j	1d92c <.L487>
    4070:	00100c93          	li	s9,1
    4074:	0b500c13          	li	s8,181
    4078:	1f912a23          	sw	s9,500(sp)
    407c:	01ec4463          	blt	s8,t5,4084 <.L2648>
    4080:	4a80106f          	j	5528 <.L472>

00004084 <.L2648>:
    4084:	e0d00c13          	li	s8,-499
    4088:	01844463          	blt	s0,s8,4090 <.L2648+0xc>
    408c:	4790d06f          	j	11d04 <.L3087>
    4090:	00100c13          	li	s8,1
    4094:	1f812a23          	sw	s8,500(sp)
    4098:	cf9fd06f          	j	1d90 <.L488>

0000409c <.L6142>:
    409c:	00400c13          	li	s8,4
    40a0:	55dc4ce3          	blt	s8,t4,4df8 <.L5406>
    40a4:	ff900c13          	li	s8,-7
    40a8:	1d812423          	sw	s8,456(sp)

000040ac <.L428>:
    40ac:	09700c13          	li	s8,151
    40b0:	7dec4e63          	blt	s8,t5,488c <.L3042>
    40b4:	07600c13          	li	s8,118
    40b8:	00ec5463          	bge	s8,a4,40c0 <.L428+0x14>
    40bc:	23c0106f          	j	52f8 <.L3043>
    40c0:	ffe00c13          	li	s8,-2
    40c4:	f586cae3          	blt	a3,s8,4018 <.L431>
    40c8:	09900c13          	li	s8,153
    40cc:	013c5463          	bge	s8,s3,40d4 <.L428+0x28>
    40d0:	0811206f          	j	16950 <.L3044>
    40d4:	ffc00c13          	li	s8,-4
    40d8:	11812423          	sw	s8,264(sp)

000040dc <.L433>:
    40dc:	00a00c13          	li	s8,10
    40e0:	010c5463          	bge	s8,a6,40e8 <.L433+0xc>
    40e4:	7380106f          	j	581c <.L6181>
    40e8:	ff600c13          	li	s8,-10
    40ec:	17812623          	sw	s8,364(sp)

000040f0 <.L455>:
    40f0:	01a00c13          	li	s8,26
    40f4:	094c4463          	blt	s8,s4,417c <.L477>
    40f8:	03900c13          	li	s8,57
    40fc:	3cec54e3          	bge	s8,a4,4cc4 <.L3076>
    4100:	08c00c13          	li	s8,140
    4104:	01ec4463          	blt	s8,t5,410c <.L455+0x1c>
    4108:	7000106f          	j	5808 <.L6182>
    410c:	ffb00c13          	li	s8,-5
    4110:	0b812a23          	sw	s8,180(sp)
    4114:	f51ff06f          	j	4064 <.L471>

00004118 <.L378>:
    4118:	f4100c13          	li	s8,-191
    411c:	6f88de63          	bge	a7,s8,4818 <.L3012>
    4120:	01400c13          	li	s8,20
    4124:	29812c23          	sw	s8,664(sp)
    4128:	ff600c13          	li	s8,-10
    412c:	15812823          	sw	s8,336(sp)
    4130:	af4fe06f          	j	2424 <.L380>

00004134 <.L3022>:
    4134:	00f00c13          	li	s8,15
    4138:	1f812823          	sw	s8,496(sp)
    413c:	be4fe06f          	j	2520 <.L412>

00004140 <.L2660>:
    4140:	1b300c13          	li	s8,435
    4144:	012c5463          	bge	s8,s2,414c <.L2660+0xc>
    4148:	6a91206f          	j	16ff0 <.L397>
    414c:	0a600c13          	li	s8,166
    4150:	00ec5463          	bge	s8,a4,4158 <.L2660+0x18>
    4154:	0e41806f          	j	1c238 <.L3018>
    4158:	ff900c13          	li	s8,-7
    415c:	29812c23          	sw	s8,664(sp)
    4160:	00200c13          	li	s8,2
    4164:	15812823          	sw	s8,336(sp)
    4168:	ff700c13          	li	s8,-9
    416c:	15812623          	sw	s8,332(sp)

00004170 <.L398>:
    4170:	ff700c13          	li	s8,-9
    4174:	1f812823          	sw	s8,496(sp)
    4178:	ba8fe06f          	j	2520 <.L412>

0000417c <.L477>:
    417c:	03900c13          	li	s8,57
    4180:	58ec5ae3          	bge	s8,a4,4f14 <.L3078>
    4184:	08c00c13          	li	s8,140
    4188:	01ec5463          	bge	s8,t5,4190 <.L477+0x14>
    418c:	1510106f          	j	5adc <.L3079>
    4190:	00200c13          	li	s8,2
    4194:	01dc4463          	blt	s8,t4,419c <.L477+0x20>
    4198:	0fc0906f          	j	d294 <.L6183>
    419c:	00800c13          	li	s8,8
    41a0:	1f812a23          	sw	s8,500(sp)
    41a4:	00b00c13          	li	s8,11
    41a8:	0b812a23          	sw	s8,180(sp)
    41ac:	3840106f          	j	5530 <.L479>

000041b0 <.L86>:
    41b0:	0005c463          	bltz	a1,41b8 <.L86+0x8>
    41b4:	0240106f          	j	51d8 <.L6184>
    41b8:	18f00713          	li	a4,399
    41bc:	00c74463          	blt	a4,a2,41c4 <.L86+0x14>
    41c0:	0c00106f          	j	5280 <.L98>
    41c4:	0dd00713          	li	a4,221
    41c8:	51e75c63          	bge	a4,t5,46e0 <.L5706>
    41cc:	fff00713          	li	a4,-1
    41d0:	0ae12623          	sw	a4,172(sp)

000041d4 <.L99>:
    41d4:	11800713          	li	a4,280
    41d8:	01f74463          	blt	a4,t6,41e0 <.L99+0xc>
    41dc:	1dd0106f          	j	5bb8 <.L2776>
    41e0:	ff800713          	li	a4,-8
    41e4:	01451883          	lh	a7,20(a0)
    41e8:	02a51803          	lh	a6,42(a0)
    41ec:	28e12423          	sw	a4,648(sp)
    41f0:	16012423          	sw	zero,360(sp)
    41f4:	5100006f          	j	4704 <.L97>

000041f8 <.L22>:
    41f8:	0d900793          	li	a5,217
    41fc:	0d37d0e3          	bge	a5,s3,4abc <.L2723>
    4200:	00851583          	lh	a1,8(a0)
    4204:	ffa00793          	li	a5,-6
    4208:	2af12a23          	sw	a5,692(sp)

0000420c <.L19>:
    420c:	00051783          	lh	a5,0(a0)
    4210:	02451a03          	lh	s4,36(a0)
    4214:	02800693          	li	a3,40
    4218:	00d00713          	li	a4,13
    421c:	00f6a6b3          	slt	a3,a3,a5
    4220:	01472733          	slt	a4,a4,s4
    4224:	40d006b3          	neg	a3,a3
    4228:	40e00733          	neg	a4,a4
    422c:	ff26f693          	andi	a3,a3,-14
    4230:	ff977613          	andi	a2,a4,-7
    4234:	00568693          	addi	a3,a3,5
    4238:	1ad12223          	sw	a3,420(sp)
    423c:	ffd60693          	addi	a3,a2,-3
    4240:	07a00713          	li	a4,122
    4244:	1ad12423          	sw	a3,424(sp)
    4248:	01e74463          	blt	a4,t5,4250 <.L19+0x44>
    424c:	0551206f          	j	16aa0 <.L6185>
    4250:	02700713          	li	a4,39
    4254:	0ef75063          	bge	a4,a5,4334 <.L6186>
    4258:	01651483          	lh	s1,22(a0)
    425c:	efb00713          	li	a4,-261
    4260:	42e4c4e3          	blt	s1,a4,4e88 <.L2736>
    4264:	01f00713          	li	a4,31
    4268:	01474463          	blt	a4,s4,4270 <.L19+0x64>
    426c:	07d0106f          	j	5ae8 <.L6187>
    4270:	ff800713          	li	a4,-8
    4274:	00651a83          	lh	s5,6(a0)
    4278:	00c51f83          	lh	t6,12(a0)
    427c:	02651283          	lh	t0,38(a0)
    4280:	00a51603          	lh	a2,10(a0)
    4284:	20e12023          	sw	a4,512(sp)
    4288:	5150006f          	j	4f9c <.L45>

0000428c <.L311>:
    428c:	01e00c13          	li	s8,30
    4290:	054c54e3          	bge	s8,s4,4ad8 <.L319>
    4294:	00400c13          	li	s8,4
    4298:	010c4463          	blt	s8,a6,42a0 <.L311+0x14>
    429c:	7880106f          	j	5a24 <.L320>
    42a0:	ff800c13          	li	s8,-8
    42a4:	0186d463          	bge	a3,s8,42ac <.L311+0x20>
    42a8:	81dfd06f          	j	1ac4 <.L2954>
    42ac:	0b300c13          	li	s8,179
    42b0:	005c5463          	bge	s8,t0,42b8 <.L311+0x2c>
    42b4:	0891306f          	j	17b3c <.L2955>
    42b8:	ff900c13          	li	s8,-7
    42bc:	29812a23          	sw	s8,660(sp)
    42c0:	ffd00c13          	li	s8,-3
    42c4:	29812823          	sw	s8,656(sp)
    42c8:	cb5fc06f          	j	f7c <.L316>

000042cc <.L58>:
    42cc:	02200713          	li	a4,34
    42d0:	00b74463          	blt	a4,a1,42d8 <.L58+0xc>
    42d4:	6cc1906f          	j	1d9a0 <.L6188>
    42d8:	00d00713          	li	a4,13
    42dc:	01474463          	blt	a4,s4,42e4 <.L58+0x18>
    42e0:	2910106f          	j	5d70 <.L6189>
    42e4:	ff600713          	li	a4,-10
    42e8:	01251903          	lh	s2,18(a0)
    42ec:	2ae12023          	sw	a4,672(sp)
    42f0:	f28fd06f          	j	1a18 <.L59>

000042f4 <.L276>:
    42f4:	07300c13          	li	s8,115
    42f8:	01fc5463          	bge	s8,t6,4300 <.L276+0xc>
    42fc:	f49fc06f          	j	1244 <.L2920>
    4300:	ff900c13          	li	s8,-7
    4304:	25812e23          	sw	s8,604(sp)
    4308:	b9dfc06f          	j	ea4 <.L274>

0000430c <.L2821>:
    430c:	ff700713          	li	a4,-9
    4310:	01e51303          	lh	t1,30(a0)
    4314:	1ee12223          	sw	a4,484(sp)
    4318:	840fc06f          	j	358 <.L156>

0000431c <.L2772>:
    431c:	ff900713          	li	a4,-7
    4320:	16e12423          	sw	a4,360(sp)
    4324:	f1dfb06f          	j	240 <.L106>

00004328 <.L2839>:
    4328:	00500c13          	li	s8,5
    432c:	1d812623          	sw	s8,460(sp)
    4330:	da8fc06f          	j	8d8 <.L184>

00004334 <.L6186>:
    4334:	01651483          	lh	s1,22(a0)
    4338:	efb00713          	li	a4,-261
    433c:	16e4c6e3          	blt	s1,a4,4ca8 <.L2734>
    4340:	01f00713          	li	a4,31
    4344:	01475463          	bge	a4,s4,434c <.L6186+0x18>
    4348:	7040106f          	j	5a4c <.L2735>
    434c:	00400713          	li	a4,4

00004350 <.L5697>:
    4350:	00651a83          	lh	s5,6(a0)
    4354:	00c51f83          	lh	t6,12(a0)
    4358:	02651283          	lh	t0,38(a0)
    435c:	00a51603          	lh	a2,10(a0)
    4360:	20e12023          	sw	a4,512(sp)
    4364:	eb1fd06f          	j	2214 <.L54>

00004368 <.L6128>:
    4368:	00c00713          	li	a4,12
    436c:	01475463          	bge	a4,s4,4374 <.L6128+0xc>
    4370:	a30fd06f          	j	15a0 <.L5488>
    4374:	ff700713          	li	a4,-9
    4378:	01e51303          	lh	t1,30(a0)
    437c:	1ee12223          	sw	a4,484(sp)
    4380:	cc8fc06f          	j	848 <.L161>

00004384 <.L6073>:
    4384:	00651a83          	lh	s5,6(a0)
    4388:	a0cfc06f          	j	594 <.L2679>

0000438c <.L5524>:
    438c:	fa300713          	li	a4,-93
    4390:	70e8c063          	blt	a7,a4,4a90 <.L167>
    4394:	11c00713          	li	a4,284
    4398:	01f74463          	blt	a4,t6,43a0 <.L5524+0x14>
    439c:	1580106f          	j	54f4 <.L168>
    43a0:	02300713          	li	a4,35
    43a4:	00c74463          	blt	a4,a2,43ac <.L5524+0x20>
    43a8:	5081006f          	j	148b0 <.L2823>
    43ac:	00600713          	li	a4,6
    43b0:	22e12823          	sw	a4,560(sp)
    43b4:	00d00713          	li	a4,13
    43b8:	28e12623          	sw	a4,652(sp)
    43bc:	00251703          	lh	a4,2(a0)
    43c0:	cd8fc06f          	j	898 <.L169>

000043c4 <.L2720>:
    43c4:	01400793          	li	a5,20
    43c8:	2af12a23          	sw	a5,692(sp)

000043cc <.L28>:
    43cc:	01800793          	li	a5,24
    43d0:	00b7d463          	bge	a5,a1,43d8 <.L28+0xc>
    43d4:	3211906f          	j	1def4 <.L31>
    43d8:	00651a83          	lh	s5,6(a0)
    43dc:	00a00793          	li	a5,10
    43e0:	1af12223          	sw	a5,420(sp)

000043e4 <.L32>:
    43e4:	03e00793          	li	a5,62
    43e8:	11e7ca63          	blt	a5,t5,44fc <.L37>
    43ec:	0215a793          	slti	a5,a1,33
    43f0:	fff78793          	addi	a5,a5,-1
    43f4:	0097c793          	xori	a5,a5,9
    43f8:	1af12423          	sw	a5,424(sp)
    43fc:	01051b03          	lh	s6,16(a0)
    4400:	00051783          	lh	a5,0(a0)

00004404 <.L40>:
    4404:	01800713          	li	a4,24
    4408:	06b75463          	bge	a4,a1,4470 <.L43>
    440c:	efb00713          	li	a4,-261
    4410:	00e4d463          	bge	s1,a4,4418 <.L40+0x14>
    4414:	a7cfd06f          	j	1690 <.L44>
    4418:	01f00713          	li	a4,31
    441c:	01475463          	bge	a4,s4,4424 <.L40+0x20>
    4420:	5e00106f          	j	5a00 <.L2729>
    4424:	0d800713          	li	a4,216
    4428:	01f75463          	bge	a4,t6,4430 <.L40+0x2c>
    442c:	2401006f          	j	1466c <.L46>
    4430:	01900713          	li	a4,25
    4434:	01475463          	bge	a4,s4,443c <.L40+0x38>
    4438:	7c81406f          	j	18c00 <.L6190>
    443c:	0be00713          	li	a4,190
    4440:	01f75463          	bge	a4,t6,4448 <.L40+0x44>
    4444:	6ad1506f          	j	1a2f0 <.L6191>
    4448:	00a00713          	li	a4,10
    444c:	20e12223          	sw	a4,516(sp)
    4450:	00b00713          	li	a4,11

00004454 <.L5702>:
    4454:	2ae12023          	sw	a4,672(sp)
    4458:	ff900713          	li	a4,-7
    445c:	02651283          	lh	t0,38(a0)
    4460:	01251903          	lh	s2,18(a0)
    4464:	00a51603          	lh	a2,10(a0)
    4468:	20e12023          	sw	a4,512(sp)
    446c:	f6cfd06f          	j	1bd8 <.L47>

00004470 <.L43>:
    4470:	efb00713          	li	a4,-261
    4474:	2ce4d2e3          	bge	s1,a4,4f38 <.L49>
    4478:	00d00713          	li	a4,13
    447c:	01474463          	blt	a4,s4,4484 <.L43+0x14>
    4480:	5940106f          	j	5a14 <.L6192>
    4484:	ffa00713          	li	a4,-6
    4488:	00efc463          	blt	t6,a4,4490 <.L43+0x20>
    448c:	2ec1006f          	j	14778 <.L2746>
    4490:	00600713          	li	a4,6
    4494:	20e12023          	sw	a4,512(sp)
    4498:	20e12223          	sw	a4,516(sp)
    449c:	00200713          	li	a4,2
    44a0:	02651283          	lh	t0,38(a0)
    44a4:	01251903          	lh	s2,18(a0)
    44a8:	00a51603          	lh	a2,10(a0)
    44ac:	2ae12023          	sw	a4,672(sp)
    44b0:	a18fd06f          	j	16c8 <.L51>

000044b4 <.L3054>:
    44b4:	ff600c13          	li	s8,-10
    44b8:	17812623          	sw	s8,364(sp)

000044bc <.L451>:
    44bc:	0ce00c13          	li	s8,206
    44c0:	3b6c5ce3          	bge	s8,s6,5078 <.L6193>
    44c4:	03900c13          	li	s8,57
    44c8:	4cec4e63          	blt	s8,a4,49a4 <.L439>
    44cc:	00700c13          	li	s8,7
    44d0:	010c5463          	bge	s8,a6,44d8 <.L451+0x1c>
    44d4:	00d0106f          	j	5ce0 <.L6194>
    44d8:	00a00c13          	li	s8,10
    44dc:	01cc5463          	bge	s8,t3,44e4 <.L451+0x28>
    44e0:	5ed0e06f          	j	132cc <.L508>
    44e4:	0b500c13          	li	s8,181
    44e8:	01ec5463          	bge	s8,t5,44f0 <.L451+0x34>
    44ec:	0240d06f          	j	11510 <.L3095>
    44f0:	00800c13          	li	s8,8
    44f4:	0b812a23          	sw	s8,180(sp)
    44f8:	3b50006f          	j	50ac <.L505>

000044fc <.L37>:
    44fc:	00d00793          	li	a5,13
    4500:	4d47c2e3          	blt	a5,s4,51c4 <.L5431>
    4504:	ffd00793          	li	a5,-3
    4508:	1af12423          	sw	a5,424(sp)
    450c:	01051b03          	lh	s6,16(a0)
    4510:	00051783          	lh	a5,0(a0)
    4514:	ef1ff06f          	j	4404 <.L40>

00004518 <.L2667>:
    4518:	02a51803          	lh	a6,42(a0)
    451c:	01600713          	li	a4,22
    4520:	01074463          	blt	a4,a6,4528 <.L93>
    4524:	badfd06f          	j	20d0 <.L94>

00004528 <.L93>:
    4528:	fff00693          	li	a3,-1
    452c:	01a00713          	li	a4,26
    4530:	28d12423          	sw	a3,648(sp)
    4534:	00b75463          	bge	a4,a1,453c <.L5708>
    4538:	badfd06f          	j	20e4 <.L96>

0000453c <.L5708>:
    453c:	00900713          	li	a4,9
    4540:	16e12423          	sw	a4,360(sp)
    4544:	1c00006f          	j	4704 <.L97>

00004548 <.L115>:
    4548:	00a00713          	li	a4,10
    454c:	4df75c63          	bge	a4,t6,4a24 <.L6195>
    4550:	00900713          	li	a4,9
    4554:	2ce12623          	sw	a4,716(sp)

00004558 <.L5709>:
    4558:	24012423          	sw	zero,584(sp)

0000455c <.L137>:
    455c:	01c51c03          	lh	s8,28(a0)
    4560:	03400713          	li	a4,52
    4564:	35874063          	blt	a4,s8,48a4 <.L2803>
    4568:	02851e03          	lh	t3,40(a0)
    456c:	ff800713          	li	a4,-8
    4570:	24e12023          	sw	a4,576(sp)

00004574 <.L125>:
    4574:	0ba00713          	li	a4,186
    4578:	0bf75c63          	bge	a4,t6,4630 <.L140>
    457c:	01d02733          	sgtz	a4,t4
    4580:	40e00733          	neg	a4,a4
    4584:	00774713          	xori	a4,a4,7
    4588:	26e12c23          	sw	a4,632(sp)

0000458c <.L141>:
    458c:	01f00713          	li	a4,31
    4590:	03474e63          	blt	a4,s4,45cc <.L144>
    4594:	01d05463          	blez	t4,459c <.L141+0x10>
    4598:	d4dfb06f          	j	2e4 <.L145>
    459c:	01900713          	li	a4,25
    45a0:	00b72733          	slt	a4,a4,a1
    45a4:	40e00733          	neg	a4,a4
    45a8:	ff277713          	andi	a4,a4,-14
    45ac:	00a70713          	addi	a4,a4,10
    45b0:	1ce12023          	sw	a4,448(sp)
    45b4:	d49fb06f          	j	2fc <.L146>

000045b8 <.L2806>:
    45b8:	02051e83          	lh	t4,32(a0)
    45bc:	01851683          	lh	a3,24(a0)
    45c0:	02851e03          	lh	t3,40(a0)
    45c4:	00600713          	li	a4,6
    45c8:	26e12c23          	sw	a4,632(sp)

000045cc <.L144>:
    45cc:	00500713          	li	a4,5
    45d0:	01074463          	blt	a4,a6,45d8 <.L144+0xc>
    45d4:	bf1fd06f          	j	21c4 <.L149>
    45d8:	0a900713          	li	a4,169
    45dc:	07374463          	blt	a4,s3,4644 <.L2812>
    45e0:	ff700713          	li	a4,-9
    45e4:	1ce12023          	sw	a4,448(sp)
    45e8:	a10fc06f          	j	7f8 <.L151>

000045ec <.L122>:
    45ec:	02851e03          	lh	t3,40(a0)
    45f0:	02e00713          	li	a4,46
    45f4:	25c75e63          	bge	a4,t3,4850 <.L128>
    45f8:	0a900713          	li	a4,169
    45fc:	01374463          	blt	a4,s3,4604 <.L122+0x18>
    4600:	7f11106f          	j	165f0 <.L6196>
    4604:	10700713          	li	a4,263
    4608:	505758e3          	bge	a4,t0,5318 <.L129>
    460c:	e4300713          	li	a4,-445
    4610:	00e45463          	bge	s0,a4,4618 <.L122+0x2c>
    4614:	1f00f06f          	j	13804 <.L6197>
    4618:	02051e83          	lh	t4,32(a0)
    461c:	01851683          	lh	a3,24(a0)
    4620:	00300713          	li	a4,3
    4624:	24e12023          	sw	a4,576(sp)

00004628 <.L130>:
    4628:	ff700713          	li	a4,-9
    462c:	24e12423          	sw	a4,584(sp)

00004630 <.L140>:
    4630:	0397a713          	slti	a4,a5,57
    4634:	fff70713          	addi	a4,a4,-1
    4638:	ffd74713          	xori	a4,a4,-3
    463c:	26e12c23          	sw	a4,632(sp)
    4640:	f4dff06f          	j	458c <.L141>

00004644 <.L2812>:
    4644:	ff700713          	li	a4,-9
    4648:	1ce12023          	sw	a4,448(sp)
    464c:	1ae12c23          	sw	a4,440(sp)
    4650:	cd9fb06f          	j	328 <.L150>

00004654 <.L293>:
    4654:	39000c13          	li	s8,912
    4658:	53ec5663          	bge	s8,t5,4b84 <.L2937>
    465c:	01c00c13          	li	s8,28
    4660:	00ec5463          	bge	s8,a4,4668 <.L293+0x14>
    4664:	4240106f          	j	5a88 <.L2938>
    4668:	01500c13          	li	s8,21
    466c:	005c5463          	bge	s8,t0,4674 <.L293+0x20>
    4670:	6c50f06f          	j	14534 <.L2939>
    4674:	00b00c13          	li	s8,11
    4678:	2c012023          	sw	zero,704(sp)
    467c:	0f812c23          	sw	s8,248(sp)
    4680:	2a012823          	sw	zero,688(sp)
    4684:	879fc06f          	j	efc <.L290>

00004688 <.L285>:
    4688:	39000c93          	li	s9,912
    468c:	01ecc463          	blt	s9,t5,4694 <.L285+0xc>
    4690:	2c50a06f          	j	f154 <.L2925>
    4694:	01c00c93          	li	s9,28
    4698:	74ecd6e3          	bge	s9,a4,55e4 <.L291>
    469c:	04100c93          	li	s9,65
    46a0:	00ccd463          	bge	s9,a2,46a8 <.L285+0x20>
    46a4:	52c1006f          	j	14bd0 <.L292>
    46a8:	0f812c23          	sw	s8,248(sp)
    46ac:	00700c13          	li	s8,7
    46b0:	01500c93          	li	s9,21
    46b4:	2d812023          	sw	s8,704(sp)
    46b8:	005cd463          	bge	s9,t0,46c0 <.L285+0x38>
    46bc:	e30fc06f          	j	cec <.L288>
    46c0:	2a012823          	sw	zero,688(sp)
    46c4:	839fc06f          	j	efc <.L290>

000046c8 <.L2882>:
    46c8:	01200c13          	li	s8,18
    46cc:	27812e23          	sw	s8,636(sp)
    46d0:	cdcfc06f          	j	bac <.L221>

000046d4 <.L3053>:
    46d4:	00b00c13          	li	s8,11
    46d8:	17812623          	sw	s8,364(sp)
    46dc:	f31fd06f          	j	260c <.L450>

000046e0 <.L5706>:
    46e0:	fff00713          	li	a4,-1
    46e4:	0ae12623          	sw	a4,172(sp)

000046e8 <.L100>:
    46e8:	11800713          	li	a4,280
    46ec:	37f75ce3          	bge	a4,t6,5264 <.L2774>
    46f0:	01451883          	lh	a7,20(a0)
    46f4:	02a51803          	lh	a6,42(a0)
    46f8:	00700713          	li	a4,7
    46fc:	28e12423          	sw	a4,648(sp)
    4700:	16012423          	sw	zero,360(sp)

00004704 <.L97>:
    4704:	119fa713          	slti	a4,t6,281
    4708:	00371713          	slli	a4,a4,0x3
    470c:	2ce12623          	sw	a4,716(sp)
    4710:	0205dc63          	bgez	a1,4748 <.L110>
    4714:	0cd00713          	li	a4,205
    4718:	08c75463          	bge	a4,a2,47a0 <.L111>
    471c:	0def2713          	slti	a4,t5,222
    4720:	fff70713          	addi	a4,a4,-1
    4724:	00774713          	xori	a4,a4,7
    4728:	24e12423          	sw	a4,584(sp)

0000472c <.L121>:
    472c:	119fa713          	slti	a4,t6,281
    4730:	00371713          	slli	a4,a4,0x3
    4734:	24e12023          	sw	a4,576(sp)
    4738:	b65fb06f          	j	29c <.L135>

0000473c <.L2778>:
    473c:	01451883          	lh	a7,20(a0)
    4740:	ff700713          	li	a4,-9
    4744:	2ce12623          	sw	a4,716(sp)

00004748 <.L110>:
    4748:	00a00713          	li	a4,10
    474c:	ebf750e3          	bge	a4,t6,45ec <.L122>
    4750:	01851683          	lh	a3,24(a0)
    4754:	ff700713          	li	a4,-9
    4758:	0a900313          	li	t1,169
    475c:	0ae6c8e3          	blt	a3,a4,500c <.L123>
    4760:	01334463          	blt	t1,s3,4768 <.L110+0x20>
    4764:	76c0b06f          	j	fed0 <.L6198>
    4768:	10700313          	li	t1,263
    476c:	3c535ae3          	bge	t1,t0,5340 <.L124>
    4770:	e4300313          	li	t1,-445
    4774:	00644463          	blt	s0,t1,477c <.L5711>
    4778:	00300713          	li	a4,3

0000477c <.L5711>:
    477c:	24e12023          	sw	a4,576(sp)
    4780:	ffb00713          	li	a4,-5
    4784:	02051e83          	lh	t4,32(a0)
    4788:	02851e03          	lh	t3,40(a0)
    478c:	24e12423          	sw	a4,584(sp)
    4790:	de5ff06f          	j	4574 <.L125>

00004794 <.L2779>:
    4794:	01451883          	lh	a7,20(a0)
    4798:	ff700713          	li	a4,-9
    479c:	2ce12623          	sw	a4,716(sp)

000047a0 <.L111>:
    47a0:	1aa00713          	li	a4,426
    47a4:	01675c63          	bge	a4,s6,47bc <.L132>
    47a8:	0a900713          	li	a4,169
    47ac:	2b3746e3          	blt	a4,s3,5258 <.L2790>
    47b0:	01400713          	li	a4,20
    47b4:	24e12423          	sw	a4,584(sp)
    47b8:	f75ff06f          	j	472c <.L121>

000047bc <.L132>:
    47bc:	0a900713          	li	a4,169
    47c0:	2f3748e3          	blt	a4,s3,52b0 <.L2791>
    47c4:	00600713          	li	a4,6
    47c8:	24e12423          	sw	a4,584(sp)
    47cc:	f61ff06f          	j	472c <.L121>

000047d0 <.L2837>:
    47d0:	ffd00c13          	li	s8,-3
    47d4:	07812a23          	sw	s8,116(sp)
    47d8:	8e4fc06f          	j	8bc <.L181>

000047dc <.L134>:
    47dc:	00400693          	li	a3,4
    47e0:	02400713          	li	a4,36
    47e4:	24d12023          	sw	a3,576(sp)
    47e8:	00574463          	blt	a4,t0,47f0 <.L134+0x14>
    47ec:	ab1fb06f          	j	29c <.L135>
    47f0:	ffc00713          	li	a4,-4
    47f4:	24e12023          	sw	a4,576(sp)
    47f8:	aa5fb06f          	j	29c <.L135>

000047fc <.L18>:
    47fc:	2537c8e3          	blt	a5,s3,524c <.L2717>
    4800:	00300793          	li	a5,3
    4804:	02451a03          	lh	s4,36(a0)
    4808:	01651483          	lh	s1,22(a0)
    480c:	00c51f83          	lh	t6,12(a0)
    4810:	2af12a23          	sw	a5,692(sp)
    4814:	8e9fb06f          	j	fc <.L21>

00004818 <.L3012>:
    4818:	ff900c13          	li	s8,-7
    481c:	29812c23          	sw	s8,664(sp)
    4820:	ff600c13          	li	s8,-10
    4824:	15812823          	sw	s8,336(sp)
    4828:	bfdfd06f          	j	2424 <.L380>

0000482c <.L335>:
    482c:	00800c93          	li	s9,8
    4830:	06a00c13          	li	s8,106
    4834:	1d912223          	sw	s9,452(sp)
    4838:	28012a23          	sw	zero,660(sp)
    483c:	01fc4463          	blt	s8,t6,4844 <.L335+0x18>
    4840:	d44fc06f          	j	d84 <.L328>
    4844:	00100c13          	li	s8,1
    4848:	1d812223          	sw	s8,452(sp)
    484c:	d38fc06f          	j	d84 <.L328>

00004850 <.L128>:
    4850:	0a900713          	li	a4,169
    4854:	01374463          	blt	a4,s3,485c <.L128+0xc>
    4858:	6390d06f          	j	12690 <.L6199>
    485c:	10700713          	li	a4,263
    4860:	365746e3          	blt	a4,t0,53cc <.L6200>
    4864:	02400713          	li	a4,36
    4868:	00575463          	bge	a4,t0,4870 <.L128+0x20>
    486c:	6bd0e06f          	j	13728 <.L2797>
    4870:	00400713          	li	a4,4

00004874 <.L5710>:
    4874:	24e12023          	sw	a4,576(sp)
    4878:	00600713          	li	a4,6
    487c:	02051e83          	lh	t4,32(a0)
    4880:	01851683          	lh	a3,24(a0)
    4884:	24e12423          	sw	a4,584(sp)
    4888:	cedff06f          	j	4574 <.L125>

0000488c <.L3042>:
    488c:	00900c13          	li	s8,9
    4890:	11812423          	sw	s8,264(sp)
    4894:	cd9fd06f          	j	256c <.L430>

00004898 <.L2716>:
    4898:	ff600793          	li	a5,-10
    489c:	2af12a23          	sw	a5,692(sp)
    48a0:	96dff06f          	j	420c <.L19>

000048a4 <.L2803>:
    48a4:	00400713          	li	a4,4
    48a8:	02851e03          	lh	t3,40(a0)
    48ac:	24e12023          	sw	a4,576(sp)
    48b0:	cc5ff06f          	j	4574 <.L125>

000048b4 <.L6111>:
    48b4:	00100c13          	li	s8,1
    48b8:	1d812223          	sw	s8,452(sp)
    48bc:	a30fd06f          	j	1aec <.L315>

000048c0 <.L95>:
    48c0:	fff00693          	li	a3,-1
    48c4:	0a900713          	li	a4,169
    48c8:	28d12423          	sw	a3,648(sp)
    48cc:	01375463          	bge	a4,s3,48d4 <.L95+0x14>
    48d0:	94dfb06f          	j	21c <.L90>
    48d4:	01451883          	lh	a7,20(a0)
    48d8:	c51ff06f          	j	4528 <.L93>

000048dc <.L2998>:
    48dc:	00700c13          	li	s8,7
    48e0:	03812223          	sw	s8,36(sp)
    48e4:	945fc06f          	j	1228 <.L349>

000048e8 <.L330>:
    48e8:	03d00c13          	li	s8,61
    48ec:	707c58e3          	bge	s8,t2,57fc <.L2969>
    48f0:	07100c13          	li	s8,113
    48f4:	01fc4463          	blt	s8,t6,48fc <.L330+0x14>
    48f8:	2b41006f          	j	14bac <.L2970>
    48fc:	00400c13          	li	s8,4
    4900:	010c5463          	bge	s8,a6,4908 <.L330+0x20>
    4904:	1211206f          	j	17224 <.L2971>
    4908:	ffe00c13          	li	s8,-2

0000490c <.L5718>:
    490c:	29812a23          	sw	s8,660(sp)
    4910:	ffa00c13          	li	s8,-6
    4914:	29812823          	sw	s8,656(sp)
    4918:	00100c13          	li	s8,1
    491c:	1d812223          	sw	s8,452(sp)
    4920:	9d4fd06f          	j	1af4 <.L317>

00004924 <.L5416>:
    4924:	00700c13          	li	s8,7
    4928:	11812a23          	sw	s8,276(sp)
    492c:	cacfc06f          	j	dd8 <.L2661>

00004930 <.L3011>:
    4930:	ff600c13          	li	s8,-10
    4934:	15812623          	sw	s8,332(sp)
    4938:	29812c23          	sw	s8,664(sp)
    493c:	9bdfc06f          	j	12f8 <.L384>

00004940 <.L341>:
    4940:	06a00c13          	li	s8,106
    4944:	01fc4463          	blt	s8,t6,494c <.L341+0xc>
    4948:	07c0106f          	j	59c4 <.L2989>
    494c:	0a900c13          	li	s8,169
    4950:	013c5463          	bge	s8,s3,4958 <.L341+0x18>
    4954:	6d80f06f          	j	1402c <.L2990>
    4958:	00100c13          	li	s8,1
    495c:	1d812223          	sw	s8,452(sp)
    4960:	00900c13          	li	s8,9
    4964:	29812a23          	sw	s8,660(sp)
    4968:	c1cfc06f          	j	d84 <.L328>

0000496c <.L2804>:
    496c:	ff900713          	li	a4,-7
    4970:	02051e83          	lh	t4,32(a0)
    4974:	01851683          	lh	a3,24(a0)
    4978:	02851e03          	lh	t3,40(a0)
    497c:	26e12c23          	sw	a4,632(sp)
    4980:	c4dff06f          	j	45cc <.L144>

00004984 <.L89>:
    4984:	0a900713          	li	a4,169
    4988:	6d375a63          	bge	a4,s3,505c <.L6201>
    498c:	fff00713          	li	a4,-1
    4990:	02a51803          	lh	a6,42(a0)
    4994:	28e12423          	sw	a4,648(sp)
    4998:	885fb06f          	j	21c <.L90>

0000499c <.L3047>:
    499c:	ffb00c13          	li	s8,-5
    49a0:	17812623          	sw	s8,364(sp)

000049a4 <.L439>:
    49a4:	ff700c13          	li	s8,-9
    49a8:	7986d6e3          	bge	a3,s8,5934 <.L484>
    49ac:	0b500c13          	li	s8,181
    49b0:	01ec5463          	bge	s8,t5,49b8 <.L439+0x14>
    49b4:	38c1906f          	j	1dd40 <.L3082>
    49b8:	00100c13          	li	s8,1
    49bc:	1f812a23          	sw	s8,500(sp)
    49c0:	00800c13          	li	s8,8
    49c4:	0b812a23          	sw	s8,180(sp)
    49c8:	3610006f          	j	5528 <.L472>

000049cc <.L2673>:
    49cc:	0f600713          	li	a4,246
    49d0:	79e752e3          	bge	a4,t5,5954 <.L5489>
    49d4:	fff00713          	li	a4,-1
    49d8:	2ce12e23          	sw	a4,732(sp)
    49dc:	ffe00713          	li	a4,-2
    49e0:	2ce12c23          	sw	a4,728(sp)
    49e4:	ffb00b93          	li	s7,-5
    49e8:	fe4fb06f          	j	1cc <.L75>

000049ec <.L2722>:
    49ec:	ff400793          	li	a5,-12
    49f0:	2af12a23          	sw	a5,692(sp)

000049f4 <.L25>:
    49f4:	ff800793          	li	a5,-8
    49f8:	00c51f83          	lh	t6,12(a0)
    49fc:	1af12223          	sw	a5,420(sp)
    4a00:	9e5ff06f          	j	43e4 <.L32>

00004a04 <.L72>:
    4a04:	0f600713          	li	a4,246
    4a08:	77e752e3          	bge	a4,t5,596c <.L5490>

00004a0c <.L5705>:
    4a0c:	00b00713          	li	a4,11
    4a10:	2ce12e23          	sw	a4,732(sp)
    4a14:	00a00713          	li	a4,10
    4a18:	2ce12c23          	sw	a4,728(sp)
    4a1c:	ffb00b93          	li	s7,-5
    4a20:	facfb06f          	j	1cc <.L75>

00004a24 <.L6195>:
    4a24:	02851e03          	lh	t3,40(a0)
    4a28:	02e00713          	li	a4,46
    4a2c:	6dc75ce3          	bge	a4,t3,5904 <.L6202>
    4a30:	00900713          	li	a4,9
    4a34:	2ce12623          	sw	a4,716(sp)
    4a38:	5850006f          	j	57bc <.L119>

00004a3c <.L326>:
    4a3c:	03d00c13          	li	s8,61
    4a40:	6c7c5ce3          	bge	s8,t2,5918 <.L2972>
    4a44:	07100c13          	li	s8,113
    4a48:	01fc4463          	blt	s8,t6,4a50 <.L326+0x14>
    4a4c:	78d0e06f          	j	139d8 <.L2973>
    4a50:	00400c13          	li	s8,4
    4a54:	010c5463          	bge	s8,a6,4a5c <.L326+0x20>
    4a58:	1bd1206f          	j	17414 <.L2974>
    4a5c:	00100c13          	li	s8,1
    4a60:	1d812223          	sw	s8,452(sp)
    4a64:	ffe00c13          	li	s8,-2
    4a68:	29812a23          	sw	s8,660(sp)
    4a6c:	00500c13          	li	s8,5
    4a70:	29812823          	sw	s8,656(sp)
    4a74:	b10fc06f          	j	d84 <.L328>

00004a78 <.L2909>:
    4a78:	00100c13          	li	s8,1
    4a7c:	23812023          	sw	s8,544(sp)
    4a80:	a04fc06f          	j	c84 <.L268>

00004a84 <.L3023>:
    4a84:	ff600c13          	li	s8,-10
    4a88:	1f812823          	sw	s8,496(sp)
    4a8c:	aa1fd06f          	j	252c <.L413>

00004a90 <.L167>:
    4a90:	fa100713          	li	a4,-95
    4a94:	68e8c8e3          	blt	a7,a4,5924 <.L6203>
    4a98:	fea00713          	li	a4,-22
    4a9c:	22e12823          	sw	a4,560(sp)
    4aa0:	00d00713          	li	a4,13
    4aa4:	28e12623          	sw	a4,652(sp)
    4aa8:	00251703          	lh	a4,2(a0)
    4aac:	dedfb06f          	j	898 <.L169>

00004ab0 <.L2919>:
    4ab0:	00600c13          	li	s8,6
    4ab4:	25812e23          	sw	s8,604(sp)
    4ab8:	f94fc06f          	j	124c <.L273>

00004abc <.L2723>:
    4abc:	ffa00793          	li	a5,-6
    4ac0:	02451a03          	lh	s4,36(a0)
    4ac4:	01651483          	lh	s1,22(a0)
    4ac8:	00851583          	lh	a1,8(a0)
    4acc:	00c51f83          	lh	t6,12(a0)
    4ad0:	2af12a23          	sw	a5,692(sp)
    4ad4:	e1cfb06f          	j	f0 <.L20>

00004ad8 <.L319>:
    4ad8:	03d00c13          	li	s8,61
    4adc:	7e7c5ae3          	bge	s8,t2,5ad0 <.L2978>
    4ae0:	07100c13          	li	s8,113
    4ae4:	01fc4463          	blt	s8,t6,4aec <.L319+0x14>
    4ae8:	7410e06f          	j	13a28 <.L2979>
    4aec:	00400c13          	li	s8,4
    4af0:	010c5463          	bge	s8,a6,4af8 <.L319+0x20>
    4af4:	0e51206f          	j	173d8 <.L2980>
    4af8:	ffe00c13          	li	s8,-2

00004afc <.L5717>:
    4afc:	29812a23          	sw	s8,660(sp)
    4b00:	ffd00c13          	li	s8,-3
    4b04:	29812823          	sw	s8,656(sp)
    4b08:	00100c13          	li	s8,1
    4b0c:	1d812223          	sw	s8,452(sp)
    4b10:	fe5fc06f          	j	1af4 <.L317>

00004b14 <.L2844>:
    4b14:	00600c13          	li	s8,6
    4b18:	11812223          	sw	s8,260(sp)
    4b1c:	df1fb06f          	j	90c <.L190>

00004b20 <.L370>:
    4b20:	00800c93          	li	s9,8
    4b24:	790cc6e3          	blt	s9,a6,5ab0 <.L6204>
    4b28:	f4100c93          	li	s9,-191
    4b2c:	0198d463          	bge	a7,s9,4b34 <.L370+0x14>
    4b30:	6d40f06f          	j	14204 <.L2658>
    4b34:	f1900c93          	li	s9,-231
    4b38:	019ac463          	blt	s5,s9,4b40 <.L370+0x20>
    4b3c:	5311206f          	j	1786c <.L2659>
    4b40:	0a600c93          	li	s9,166
    4b44:	00ecd463          	bge	s9,a4,4b4c <.L370+0x2c>
    4b48:	1f11706f          	j	1c538 <.L5414>
    4b4c:	ff900c93          	li	s9,-7
    4b50:	29912c23          	sw	s9,664(sp)
    4b54:	01f00c93          	li	s9,31
    4b58:	15912823          	sw	s9,336(sp)
    4b5c:	01200c93          	li	s9,18
    4b60:	15912623          	sw	s9,332(sp)
    4b64:	01868463          	beq	a3,s8,4b6c <.L370+0x4c>
    4b68:	8f1fd06f          	j	2458 <.L401>
    4b6c:	e04ff06f          	j	4170 <.L398>

00004b70 <.L277>:
    4b70:	00600c13          	li	s8,6
    4b74:	64bc4ee3          	blt	s8,a1,59d0 <.L6205>
    4b78:	ffe00c13          	li	s8,-2
    4b7c:	24012e23          	sw	zero,604(sp)
    4b80:	0d85dc63          	bge	a1,s8,4c58 <.L2929>

00004b84 <.L2937>:
    4b84:	2c012023          	sw	zero,704(sp)

00004b88 <.L281>:
    4b88:	0ba00c13          	li	s8,186
    4b8c:	03fc4463          	blt	s8,t6,4bb4 <.L6206>
    4b90:	0b700c13          	li	s8,183
    4b94:	01fc4463          	blt	s8,t6,4b9c <.L281+0x14>
    4b98:	6a41306f          	j	1823c <.L303>
    4b9c:	01500c13          	li	s8,21
    4ba0:	065c4263          	blt	s8,t0,4c04 <.L2944>
    4ba4:	00800c13          	li	s8,8
    4ba8:	0f812c23          	sw	s8,248(sp)
    4bac:	2a012823          	sw	zero,688(sp)
    4bb0:	b4cfc06f          	j	efc <.L290>

00004bb4 <.L6206>:
    4bb4:	fd600c13          	li	s8,-42
    4bb8:	01874e63          	blt	a4,s8,4bd4 <.L302>
    4bbc:	01500c13          	li	s8,21
    4bc0:	025c4663          	blt	s8,t0,4bec <.L2942>
    4bc4:	ffb00c13          	li	s8,-5
    4bc8:	0f812c23          	sw	s8,248(sp)
    4bcc:	2a012823          	sw	zero,688(sp)
    4bd0:	b2cfc06f          	j	efc <.L290>

00004bd4 <.L302>:
    4bd4:	01500c13          	li	s8,21
    4bd8:	025c4063          	blt	s8,t0,4bf8 <.L2943>
    4bdc:	00500c13          	li	s8,5
    4be0:	0f812c23          	sw	s8,248(sp)
    4be4:	2a012823          	sw	zero,688(sp)
    4be8:	b14fc06f          	j	efc <.L290>

00004bec <.L2942>:
    4bec:	ffb00c13          	li	s8,-5
    4bf0:	0f812c23          	sw	s8,248(sp)
    4bf4:	8f8fc06f          	j	cec <.L288>

00004bf8 <.L2943>:
    4bf8:	00500c13          	li	s8,5
    4bfc:	0f812c23          	sw	s8,248(sp)
    4c00:	8ecfc06f          	j	cec <.L288>

00004c04 <.L2944>:
    4c04:	00800c13          	li	s8,8
    4c08:	0f812c23          	sw	s8,248(sp)
    4c0c:	8e0fc06f          	j	cec <.L288>

00004c10 <.L172>:
    4c10:	efb00c13          	li	s8,-261
    4c14:	158340e3          	blt	t1,s8,5554 <.L6207>
    4c18:	00a00c13          	li	s8,10
    4c1c:	23812823          	sw	s8,560(sp)
    4c20:	fff00c13          	li	s8,-1
    4c24:	29812623          	sw	s8,652(sp)
    4c28:	c71fb06f          	j	898 <.L169>

00004c2c <.L2808>:
    4c2c:	01400713          	li	a4,20
    4c30:	02051e83          	lh	t4,32(a0)
    4c34:	01851683          	lh	a3,24(a0)
    4c38:	02851e03          	lh	t3,40(a0)
    4c3c:	26e12c23          	sw	a4,632(sp)
    4c40:	98dff06f          	j	45cc <.L144>

00004c44 <.L2826>:
    4c44:	fea00c13          	li	s8,-22
    4c48:	23812823          	sw	s8,560(sp)
    4c4c:	fff00c13          	li	s8,-1
    4c50:	29812623          	sw	s8,652(sp)
    4c54:	c45fb06f          	j	898 <.L169>

00004c58 <.L2929>:
    4c58:	ff700c13          	li	s8,-9
    4c5c:	2d812023          	sw	s8,704(sp)
    4c60:	f29ff06f          	j	4b88 <.L281>

00004c64 <.L228>:
    4c64:	01c00c13          	li	s8,28
    4c68:	50fc5ee3          	bge	s8,a5,5984 <.L6208>
    4c6c:	05500c13          	li	s8,85
    4c70:	012c5463          	bge	s8,s2,4c78 <.L228+0x14>
    4c74:	6080f06f          	j	1427c <.L5420>
    4c78:	ffe00c13          	li	s8,-2
    4c7c:	13812623          	sw	s8,300(sp)
    4c80:	00300c13          	li	s8,3
    4c84:	27812e23          	sw	s8,636(sp)
    4c88:	db9fb06f          	j	a40 <.L229>

00004c8c <.L2718>:
    4c8c:	01500793          	li	a5,21
    4c90:	00851583          	lh	a1,8(a0)
    4c94:	2af12a23          	sw	a5,692(sp)
    4c98:	d74ff06f          	j	420c <.L19>

00004c9c <.L2897>:
    4c9c:	ffb00c13          	li	s8,-5
    4ca0:	27812223          	sw	s8,612(sp)
    4ca4:	92dfc06f          	j	15d0 <.L250>

00004ca8 <.L2734>:
    4ca8:	00400713          	li	a4,4
    4cac:	00651a83          	lh	s5,6(a0)
    4cb0:	00c51f83          	lh	t6,12(a0)
    4cb4:	02651283          	lh	t0,38(a0)
    4cb8:	00a51603          	lh	a2,10(a0)
    4cbc:	20e12023          	sw	a4,512(sp)
    4cc0:	c7cfb06f          	j	13c <.L53>

00004cc4 <.L3076>:
    4cc4:	ffb00c13          	li	s8,-5
    4cc8:	0b812a23          	sw	s8,180(sp)

00004ccc <.L478>:
    4ccc:	00700c13          	li	s8,7
    4cd0:	070c4463          	blt	s8,a6,4d38 <.L470>
    4cd4:	00a00c13          	li	s8,10
    4cd8:	61cc5063          	bge	s8,t3,52d8 <.L6209>
    4cdc:	0b500c13          	li	s8,181
    4ce0:	01ec5463          	bge	s8,t5,4ce8 <.L507>
    4ce4:	4f90a06f          	j	f9dc <.L509>

00004ce8 <.L507>:
    4ce8:	00200c13          	li	s8,2
    4cec:	01dc4463          	blt	s8,t4,4cf4 <.L507+0xc>
    4cf0:	3990b06f          	j	10888 <.L520>
    4cf4:	00900c93          	li	s9,9
    4cf8:	19e00c13          	li	s8,414
    4cfc:	1f912a23          	sw	s9,500(sp)
    4d00:	3d3c5463          	bge	s8,s3,50c8 <.L518>

00004d04 <.L521>:
    4d04:	ff900c13          	li	s8,-7
    4d08:	0186d463          	bge	a3,s8,4d10 <.L521+0xc>
    4d0c:	1cd0b06f          	j	106d8 <.L3123>
    4d10:	f2000c13          	li	s8,-224
    4d14:	0188c463          	blt	a7,s8,4d1c <.L521+0x18>
    4d18:	0251006f          	j	1553c <.L3124>
    4d1c:	ffe00c13          	li	s8,-2
    4d20:	1d812a23          	sw	s8,468(sp)
    4d24:	00900c13          	li	s8,9
    4d28:	21812423          	sw	s8,520(sp)
    4d2c:	979fd06f          	j	26a4 <.L529>

00004d30 <.L3072>:
    4d30:	ffd00c13          	li	s8,-3
    4d34:	0b812a23          	sw	s8,180(sp)

00004d38 <.L470>:
    4d38:	42700c13          	li	s8,1063
    4d3c:	045c5e63          	bge	s8,t0,4d98 <.L6210>
    4d40:	0b500c13          	li	s8,181
    4d44:	03ec4663          	blt	s8,t5,4d70 <.L496>

00004d48 <.L492>:
    4d48:	00200c13          	li	s8,2
    4d4c:	5fdc4ae3          	blt	s8,t4,5b40 <.L6211>
    4d50:	00b00c13          	li	s8,11
    4d54:	014c5463          	bge	s8,s4,4d5c <.L492+0x14>
    4d58:	2fc1106f          	j	16054 <.L3137>
    4d5c:	00100c13          	li	s8,1
    4d60:	1f812a23          	sw	s8,500(sp)
    4d64:	4340006f          	j	5198 <.L525>

00004d68 <.L3092>:
    4d68:	00900c13          	li	s8,9
    4d6c:	0b812a23          	sw	s8,180(sp)

00004d70 <.L496>:
    4d70:	e0d00c13          	li	s8,-499
    4d74:	758456e3          	bge	s0,s8,5cc0 <.L491>
    4d78:	27d00c13          	li	s8,637
    4d7c:	016c4463          	blt	s8,s6,4d84 <.L496+0x14>
    4d80:	0a00f06f          	j	13e20 <.L3112>
    4d84:	00400c13          	li	s8,4
    4d88:	1d812a23          	sw	s8,468(sp)
    4d8c:	00100c13          	li	s8,1
    4d90:	1f812a23          	sw	s8,500(sp)
    4d94:	8f1fd06f          	j	2684 <.L453>

00004d98 <.L6210>:
    4d98:	0b500c13          	li	s8,181
    4d9c:	03ec4a63          	blt	s8,t5,4dd0 <.L497>

00004da0 <.L515>:
    4da0:	00200c13          	li	s8,2
    4da4:	5bdc48e3          	blt	s8,t4,5b54 <.L6212>
    4da8:	00b00c13          	li	s8,11
    4dac:	014c5463          	bge	s8,s4,4db4 <.L515+0x14>
    4db0:	0101106f          	j	15dc0 <.L3121>
    4db4:	ff700c13          	li	s8,-9
    4db8:	1f812a23          	sw	s8,500(sp)
    4dbc:	3dc0006f          	j	5198 <.L525>

00004dc0 <.L6146>:
    4dc0:	42700c13          	li	s8,1063
    4dc4:	fa5c42e3          	blt	s8,t0,4d68 <.L3092>
    4dc8:	00900c13          	li	s8,9
    4dcc:	0b812a23          	sw	s8,180(sp)

00004dd0 <.L497>:
    4dd0:	e0d00c13          	li	s8,-499
    4dd4:	758456e3          	bge	s0,s8,5d20 <.L514>
    4dd8:	27d00c13          	li	s8,637
    4ddc:	016c5463          	bge	s8,s6,4de4 <.L497+0x14>
    4de0:	6a10e06f          	j	13c80 <.L3107>
    4de4:	ff600c13          	li	s8,-10
    4de8:	1d812a23          	sw	s8,468(sp)
    4dec:	ff700c13          	li	s8,-9
    4df0:	1f812a23          	sw	s8,500(sp)
    4df4:	891fd06f          	j	2684 <.L453>

00004df8 <.L5406>:
    4df8:	ff900c13          	li	s8,-7
    4dfc:	1d812423          	sw	s8,456(sp)
    4e00:	ff600c13          	li	s8,-10
    4e04:	11812423          	sw	s8,264(sp)
    4e08:	f64fd06f          	j	256c <.L430>

00004e0c <.L116>:
    4e0c:	02851e03          	lh	t3,40(a0)
    4e10:	02e00713          	li	a4,46
    4e14:	1bc740e3          	blt	a4,t3,57b4 <.L2781>
    4e18:	ffb00713          	li	a4,-5
    4e1c:	2ce12623          	sw	a4,716(sp)

00004e20 <.L120>:
    4e20:	00600313          	li	t1,6
    4e24:	01a00713          	li	a4,26
    4e28:	24612423          	sw	t1,584(sp)
    4e2c:	00b74463          	blt	a4,a1,4e34 <.L127>
    4e30:	3701706f          	j	1c1a0 <.L6213>

00004e34 <.L127>:
    4e34:	01c51c03          	lh	s8,28(a0)
    4e38:	03400713          	li	a4,52
    4e3c:	01875463          	bge	a4,s8,4e44 <.L127+0x10>
    4e40:	4890906f          	j	eac8 <.L5425>
    4e44:	ff800713          	li	a4,-8
    4e48:	24e12023          	sw	a4,576(sp)
    4e4c:	f28ff06f          	j	4574 <.L125>

00004e50 <.L312>:
    4e50:	03d00c13          	li	s8,61
    4e54:	187c50e3          	bge	s8,t2,57d4 <.L2975>
    4e58:	07100c13          	li	s8,113
    4e5c:	01fc4463          	blt	s8,t6,4e64 <.L312+0x14>
    4e60:	1f50f06f          	j	14854 <.L2976>
    4e64:	00400c13          	li	s8,4
    4e68:	010c5463          	bge	s8,a6,4e70 <.L312+0x20>
    4e6c:	39c1206f          	j	17208 <.L2977>
    4e70:	ffe00c13          	li	s8,-2
    4e74:	29812a23          	sw	s8,660(sp)
    4e78:	00100c13          	li	s8,1
    4e7c:	28012823          	sw	zero,656(sp)
    4e80:	1d812223          	sw	s8,452(sp)
    4e84:	c71fc06f          	j	1af4 <.L317>

00004e88 <.L2736>:
    4e88:	ff800713          	li	a4,-8
    4e8c:	00651a83          	lh	s5,6(a0)
    4e90:	00c51f83          	lh	t6,12(a0)
    4e94:	02651283          	lh	t0,38(a0)
    4e98:	00a51603          	lh	a2,10(a0)
    4e9c:	20e12023          	sw	a4,512(sp)
    4ea0:	a9cfb06f          	j	13c <.L53>

00004ea4 <.L6113>:
    4ea4:	ffa00c93          	li	s9,-6
    4ea8:	2df00c13          	li	s8,735
    4eac:	1d912423          	sw	s9,456(sp)
    4eb0:	00ec5463          	bge	s8,a4,4eb8 <.L415>
    4eb4:	df1fc06f          	j	1ca4 <.L389>

00004eb8 <.L415>:
    4eb8:	00400c13          	li	s8,4
    4ebc:	13dc40e3          	blt	s8,t4,57dc <.L6214>
    4ec0:	09700c13          	li	s8,151
    4ec4:	01ec5463          	bge	s8,t5,4ecc <.L415+0x14>
    4ec8:	7f50e06f          	j	13ebc <.L3031>
    4ecc:	ffc00c13          	li	s8,-4
    4ed0:	11812423          	sw	s8,264(sp)
    4ed4:	ffa00c13          	li	s8,-6
    4ed8:	1d812423          	sw	s8,456(sp)
    4edc:	df1fc06f          	j	1ccc <.L419>

00004ee0 <.L387>:
    4ee0:	f2000c13          	li	s8,-224
    4ee4:	4984d2e3          	bge	s1,s8,5b68 <.L5481>
    4ee8:	00e00c13          	li	s8,14
    4eec:	1e012823          	sw	zero,496(sp)
    4ef0:	15812623          	sw	s8,332(sp)

00004ef4 <.L2707>:
    4ef4:	00001c37          	lui	s8,0x1
    4ef8:	bacc0c13          	addi	s8,s8,-1108 # bac <.L221>
    4efc:	0acc52e3          	bge	s8,a2,57a0 <.L3032>
    4f00:	ff500c13          	li	s8,-11
    4f04:	11812423          	sw	s8,264(sp)
    4f08:	00900c13          	li	s8,9
    4f0c:	1d812423          	sw	s8,456(sp)
    4f10:	dbdfc06f          	j	1ccc <.L419>

00004f14 <.L3078>:
    4f14:	00b00c13          	li	s8,11
    4f18:	0b812a23          	sw	s8,180(sp)
    4f1c:	db1ff06f          	j	4ccc <.L478>

00004f20 <.L2862>:
    4f20:	ffa00c13          	li	s8,-6
    4f24:	11812e23          	sw	s8,284(sp)
    4f28:	83dfc06f          	j	1764 <.L211>

00004f2c <.L2719>:
    4f2c:	00100793          	li	a5,1
    4f30:	2af12a23          	sw	a5,692(sp)
    4f34:	ac1ff06f          	j	49f4 <.L25>

00004f38 <.L49>:
    4f38:	01f00713          	li	a4,31
    4f3c:	05474863          	blt	a4,s4,4f8c <.L2731>
    4f40:	0d800713          	li	a4,216
    4f44:	01f75463          	bge	a4,t6,4f4c <.L49+0x14>
    4f48:	1390f06f          	j	14880 <.L52>
    4f4c:	01900713          	li	a4,25
    4f50:	01475463          	bge	a4,s4,4f58 <.L49+0x20>
    4f54:	4011306f          	j	18b54 <.L2732>
    4f58:	0be00713          	li	a4,190
    4f5c:	01f75463          	bge	a4,t6,4f64 <.L49+0x2c>
    4f60:	4b91506f          	j	1ac18 <.L6215>
    4f64:	00a00713          	li	a4,10
    4f68:	20e12223          	sw	a4,516(sp)

00004f6c <.L5703>:
    4f6c:	00b00713          	li	a4,11

00004f70 <.L5704>:
    4f70:	2ae12023          	sw	a4,672(sp)
    4f74:	00600713          	li	a4,6
    4f78:	02651283          	lh	t0,38(a0)
    4f7c:	01251903          	lh	s2,18(a0)
    4f80:	00a51603          	lh	a2,10(a0)
    4f84:	20e12023          	sw	a4,512(sp)
    4f88:	c51fc06f          	j	1bd8 <.L47>

00004f8c <.L2731>:
    4f8c:	02651283          	lh	t0,38(a0)
    4f90:	00a51603          	lh	a2,10(a0)
    4f94:	00600713          	li	a4,6
    4f98:	20e12023          	sw	a4,512(sp)

00004f9c <.L45>:
    4f9c:	16600713          	li	a4,358
    4fa0:	00575463          	bge	a4,t0,4fa8 <.L45+0xc>
    4fa4:	0050c06f          	j	117a8 <.L5491>
    4fa8:	01251903          	lh	s2,18(a0)
    4fac:	ff600713          	li	a4,-10
    4fb0:	20e12223          	sw	a4,516(sp)
    4fb4:	2ae12023          	sw	a4,672(sp)

00004fb8 <.L2710>:
    4fb8:	01e00713          	li	a4,30
    4fbc:	234758e3          	bge	a4,s4,59ec <.L2749>
    4fc0:	ffe00713          	li	a4,-2
    4fc4:	2ce12e23          	sw	a4,732(sp)
    4fc8:	ff600713          	li	a4,-10
    4fcc:	2ce12c23          	sw	a4,728(sp)
    4fd0:	f68fb06f          	j	738 <.L69>

00004fd4 <.L2861>:
    4fd4:	00b00c13          	li	s8,11
    4fd8:	11812e23          	sw	s8,284(sp)
    4fdc:	f88fc06f          	j	1764 <.L211>

00004fe0 <.L2901>:
    4fe0:	00300c13          	li	s8,3
    4fe4:	23812023          	sw	s8,544(sp)
    4fe8:	e7dfb06f          	j	e64 <.L258>

00004fec <.L2810>:
    4fec:	00700713          	li	a4,7
    4ff0:	01851683          	lh	a3,24(a0)
    4ff4:	02851e03          	lh	t3,40(a0)
    4ff8:	26e12c23          	sw	a4,632(sp)
    4ffc:	dd0ff06f          	j	45cc <.L144>

00005000 <.L2827>:
    5000:	00800c13          	li	s8,8
    5004:	29812623          	sw	s8,652(sp)
    5008:	b90fb06f          	j	398 <.L173>

0000500c <.L123>:
    500c:	3b335ee3          	bge	t1,s3,5bc8 <.L6216>
    5010:	10700313          	li	t1,263
    5014:	38535263          	bge	t1,t0,5398 <.L126>
    5018:	e4300313          	li	t1,-445
    501c:	00645463          	bge	s0,t1,5024 <.L123+0x18>
    5020:	6010a06f          	j	fe20 <.L5712>
    5024:	00300713          	li	a4,3
    5028:	02051e83          	lh	t4,32(a0)
    502c:	02851e03          	lh	t3,40(a0)
    5030:	24e12023          	sw	a4,576(sp)
    5034:	24012423          	sw	zero,584(sp)
    5038:	d3cff06f          	j	4574 <.L125>

0000503c <.L442>:
    503c:	00a00c13          	li	s8,10
    5040:	2d0c5ae3          	bge	s8,a6,5b14 <.L3066>
    5044:	ffb00c93          	li	s9,-5
    5048:	18f00c13          	li	s8,399
    504c:	17912623          	sw	s9,364(sp)
    5050:	013c5463          	bge	s8,s3,5058 <.L442+0x1c>
    5054:	ff5fe06f          	j	4048 <.L467>
    5058:	0f80006f          	j	5150 <.L468>

0000505c <.L6201>:
    505c:	01451883          	lh	a7,20(a0)

00005060 <.L104>:
    5060:	01a00713          	li	a4,26
    5064:	4cb75ee3          	bge	a4,a1,5d40 <.L109>
    5068:	fff00713          	li	a4,-1
    506c:	02a51803          	lh	a6,42(a0)
    5070:	28e12423          	sw	a4,648(sp)
    5074:	870fd06f          	j	20e4 <.L96>

00005078 <.L6193>:
    5078:	03900c13          	li	s8,57
    507c:	00ec5463          	bge	s8,a4,5084 <.L6193+0xc>
    5080:	c89fc06f          	j	1d08 <.L440>
    5084:	00700c13          	li	s8,7
    5088:	410c4ee3          	blt	s8,a6,5ca4 <.L6217>
    508c:	00a00c13          	li	s8,10
    5090:	01cc5463          	bge	s8,t3,5098 <.L6193+0x20>
    5094:	2c80e06f          	j	1335c <.L503>
    5098:	0b500c13          	li	s8,181
    509c:	01ec5463          	bge	s8,t5,50a4 <.L6193+0x2c>
    50a0:	0c51106f          	j	16964 <.L3093>
    50a4:	ff800c13          	li	s8,-8
    50a8:	0b812a23          	sw	s8,180(sp)

000050ac <.L505>:
    50ac:	00200c13          	li	s8,2
    50b0:	01dc4463          	blt	s8,t4,50b8 <.L505+0xc>
    50b4:	3f50b06f          	j	10ca8 <.L522>
    50b8:	ffc00c93          	li	s9,-4
    50bc:	19e00c13          	li	s8,414
    50c0:	1f912a23          	sw	s9,500(sp)
    50c4:	c53c40e3          	blt	s8,s3,4d04 <.L521>

000050c8 <.L518>:
    50c8:	ff900c13          	li	s8,-7
    50cc:	0186d463          	bge	a3,s8,50d4 <.L518+0xc>
    50d0:	2cc0306f          	j	839c <.L3153>
    50d4:	f2000c13          	li	s8,-224
    50d8:	0188c463          	blt	a7,s8,50e0 <.L518+0x18>
    50dc:	1a81106f          	j	16284 <.L3154>
    50e0:	ff700c13          	li	s8,-9
    50e4:	1d812a23          	sw	s8,468(sp)

000050e8 <.L5727>:
    50e8:	00900c13          	li	s8,9
    50ec:	21812423          	sw	s8,520(sp)
    50f0:	db4fd06f          	j	26a4 <.L529>

000050f4 <.L437>:
    50f4:	00a00c13          	li	s8,10
    50f8:	210c58e3          	bge	s8,a6,5b08 <.L3068>
    50fc:	00c00c93          	li	s9,12
    5100:	18f00c13          	li	s8,399
    5104:	17912623          	sw	s9,364(sp)
    5108:	013c5463          	bge	s8,s3,5110 <.L437+0x1c>
    510c:	f3dfe06f          	j	4048 <.L467>
    5110:	0400006f          	j	5150 <.L468>

00005114 <.L445>:
    5114:	00a00c13          	li	s8,10
    5118:	1f0c52e3          	bge	s8,a6,5afc <.L3064>
    511c:	ffa00c93          	li	s9,-6
    5120:	18f00c13          	li	s8,399
    5124:	17912623          	sw	s9,364(sp)
    5128:	013c5463          	bge	s8,s3,5130 <.L445+0x1c>
    512c:	f1dfe06f          	j	4048 <.L467>
    5130:	0200006f          	j	5150 <.L468>

00005134 <.L447>:
    5134:	00a00c13          	li	s8,10
    5138:	1b0c5ce3          	bge	s8,a6,5af0 <.L3070>
    513c:	00800c93          	li	s9,8
    5140:	18f00c13          	li	s8,399
    5144:	17912623          	sw	s9,364(sp)
    5148:	013c5463          	bge	s8,s3,5150 <.L468>
    514c:	efdfe06f          	j	4048 <.L467>

00005150 <.L468>:
    5150:	08c00c13          	li	s8,140
    5154:	01ec5463          	bge	s8,t5,515c <.L468+0xc>
    5158:	5d10d06f          	j	12f28 <.L3075>
    515c:	00200c13          	li	s8,2
    5160:	01dc5463          	bge	s8,t4,5168 <.L468+0x18>
    5164:	2981106f          	j	163fc <.L473>
    5168:	ff900c13          	li	s8,-7
    516c:	1f812a23          	sw	s8,500(sp)
    5170:	ff700c13          	li	s8,-9
    5174:	0b812a23          	sw	s8,180(sp)

00005178 <.L474>:
    5178:	00b00c13          	li	s8,11
    517c:	014c5463          	bge	s8,s4,5184 <.L474+0xc>
    5180:	6290906f          	j	efa8 <.L532>
    5184:	ff900c93          	li	s9,-7
    5188:	34b00c13          	li	s8,843
    518c:	1d912a23          	sw	s9,468(sp)
    5190:	00ec5463          	bge	s8,a4,5198 <.L525>
    5194:	c1dfc06f          	j	1db0 <.L528>

00005198 <.L525>:
    5198:	ff900c13          	li	s8,-7
    519c:	0186d463          	bge	a3,s8,51a4 <.L525+0xc>
    51a0:	2000306f          	j	83a0 <.L5725>
    51a4:	f2000c93          	li	s9,-224
    51a8:	1d812a23          	sw	s8,468(sp)
    51ac:	f398cee3          	blt	a7,s9,50e8 <.L5727>

000051b0 <.L5728>:
    51b0:	ffb00c13          	li	s8,-5
    51b4:	21812423          	sw	s8,520(sp)
    51b8:	6c00006f          	j	5878 <.L460>

000051bc <.L3025>:
    51bc:	1e012823          	sw	zero,496(sp)
    51c0:	ad5fc06f          	j	1c94 <.L408>

000051c4 <.L5431>:
    51c4:	ff600713          	li	a4,-10
    51c8:	01051b03          	lh	s6,16(a0)
    51cc:	00051783          	lh	a5,0(a0)
    51d0:	1ae12423          	sw	a4,424(sp)
    51d4:	a30ff06f          	j	4404 <.L40>

000051d8 <.L6184>:
    51d8:	01a00713          	li	a4,26
    51dc:	38b752e3          	bge	a4,a1,5d60 <.L6218>
    51e0:	fff00713          	li	a4,-1
    51e4:	01451883          	lh	a7,20(a0)
    51e8:	02a51803          	lh	a6,42(a0)
    51ec:	0ae12623          	sw	a4,172(sp)
    51f0:	28e12423          	sw	a4,648(sp)
    51f4:	ef1fc06f          	j	20e4 <.L96>

000051f8 <.L2782>:
    51f8:	fff00713          	li	a4,-1
    51fc:	01451883          	lh	a7,20(a0)
    5200:	2ce12623          	sw	a4,716(sp)
    5204:	d44ff06f          	j	4748 <.L110>

00005208 <.L2656>:
    5208:	03e00c13          	li	s8,62
    520c:	16fc5ae3          	bge	s8,a5,5b80 <.L6219>
    5210:	21a00c13          	li	s8,538
    5214:	013c5463          	bge	s8,s3,521c <.L2656+0x14>
    5218:	7bc1006f          	j	159d4 <.L390>
    521c:	ff500c13          	li	s8,-11
    5220:	1f812823          	sw	s8,496(sp)
    5224:	15812623          	sw	s8,332(sp)
    5228:	ff700c13          	li	s8,-9
    522c:	1d812423          	sw	s8,456(sp)
    5230:	01600c13          	li	s8,22
    5234:	29812c23          	sw	s8,664(sp)
    5238:	a6dfc06f          	j	1ca4 <.L389>

0000523c <.L2784>:
    523c:	00600713          	li	a4,6
    5240:	01451883          	lh	a7,20(a0)
    5244:	2ce12623          	sw	a4,716(sp)
    5248:	d00ff06f          	j	4748 <.L110>

0000524c <.L2717>:
    524c:	00300793          	li	a5,3
    5250:	2af12a23          	sw	a5,692(sp)
    5254:	fb9fe06f          	j	420c <.L19>

00005258 <.L2790>:
    5258:	01400713          	li	a4,20
    525c:	24e12423          	sw	a4,584(sp)
    5260:	81cfb06f          	j	27c <.L112>

00005264 <.L2774>:
    5264:	00700713          	li	a4,7

00005268 <.L5707>:
    5268:	28e12423          	sw	a4,648(sp)
    526c:	00900713          	li	a4,9
    5270:	01451883          	lh	a7,20(a0)
    5274:	02a51803          	lh	a6,42(a0)
    5278:	16e12423          	sw	a4,360(sp)
    527c:	c88ff06f          	j	4704 <.L97>

00005280 <.L98>:
    5280:	1aa00713          	li	a4,426
    5284:	c5675e63          	bge	a4,s6,46e0 <.L5706>
    5288:	fff00713          	li	a4,-1
    528c:	0ae12623          	sw	a4,172(sp)

00005290 <.L101>:
    5290:	11800713          	li	a4,280
    5294:	13f756e3          	bge	a4,t6,5bc0 <.L2775>
    5298:	01300713          	li	a4,19
    529c:	01451883          	lh	a7,20(a0)
    52a0:	02a51803          	lh	a6,42(a0)
    52a4:	28e12423          	sw	a4,648(sp)
    52a8:	16012423          	sw	zero,360(sp)
    52ac:	c58ff06f          	j	4704 <.L97>

000052b0 <.L2791>:
    52b0:	00600713          	li	a4,6
    52b4:	24e12423          	sw	a4,584(sp)
    52b8:	fc5fa06f          	j	27c <.L112>

000052bc <.L6096>:
    52bc:	24012e23          	sw	zero,604(sp)
    52c0:	f8dfb06f          	j	124c <.L273>

000052c4 <.L6110>:
    52c4:	ff700713          	li	a4,-9
    52c8:	02a51803          	lh	a6,42(a0)
    52cc:	28e12423          	sw	a4,648(sp)
    52d0:	16e12423          	sw	a4,360(sp)
    52d4:	e29fc06f          	j	20fc <.L91>

000052d8 <.L6209>:
    52d8:	0b500c13          	li	s8,181
    52dc:	ddec58e3          	bge	s8,t5,50ac <.L505>
    52e0:	b7cfd06f          	j	265c <.L510>

000052e4 <.L2752>:
    52e4:	ff600713          	li	a4,-10
    52e8:	2ce12e23          	sw	a4,732(sp)
    52ec:	ffb00713          	li	a4,-5
    52f0:	2ce12c23          	sw	a4,728(sp)
    52f4:	c44fb06f          	j	738 <.L69>

000052f8 <.L3043>:
    52f8:	ffc00c13          	li	s8,-4
    52fc:	11812423          	sw	s8,264(sp)
    5300:	9cdfc06f          	j	1ccc <.L419>

00005304 <.L2811>:
    5304:	00700713          	li	a4,7
    5308:	01851683          	lh	a3,24(a0)
    530c:	02851e03          	lh	t3,40(a0)
    5310:	26e12c23          	sw	a4,632(sp)
    5314:	fd1fa06f          	j	2e4 <.L145>

00005318 <.L129>:
    5318:	02400713          	li	a4,36
    531c:	00575463          	bge	a4,t0,5324 <.L129+0xc>
    5320:	4d00e06f          	j	137f0 <.L2796>
    5324:	01851683          	lh	a3,24(a0)
    5328:	ff700713          	li	a4,-9
    532c:	24e12423          	sw	a4,584(sp)

00005330 <.L136>:
    5330:	00400713          	li	a4,4
    5334:	02051e83          	lh	t4,32(a0)
    5338:	24e12023          	sw	a4,576(sp)
    533c:	a38ff06f          	j	4574 <.L125>

00005340 <.L124>:
    5340:	02400713          	li	a4,36
    5344:	00575463          	bge	a4,t0,534c <.L124+0xc>
    5348:	3500e06f          	j	13698 <.L2794>
    534c:	ffb00713          	li	a4,-5
    5350:	02851e03          	lh	t3,40(a0)
    5354:	24e12423          	sw	a4,584(sp)
    5358:	fd9ff06f          	j	5330 <.L136>

0000535c <.L3026>:
    535c:	00300c13          	li	s8,3
    5360:	1d812423          	sw	s8,456(sp)
    5364:	1e012823          	sw	zero,496(sp)
    5368:	93dfc06f          	j	1ca4 <.L389>

0000536c <.L6144>:
    536c:	03900c13          	li	s8,57
    5370:	0cec4263          	blt	s8,a4,5434 <.L3063>
    5374:	00700c13          	li	s8,7
    5378:	010c5463          	bge	s8,a6,5380 <.L6144+0x14>
    537c:	1641006f          	j	154e0 <.L6220>
    5380:	00a00c13          	li	s8,10
    5384:	01cc5463          	bge	s8,t3,538c <.L6144+0x20>
    5388:	4a40f06f          	j	1482c <.L3097>
    538c:	ff900c13          	li	s8,-7
    5390:	0b812a23          	sw	s8,180(sp)
    5394:	ac8fd06f          	j	265c <.L510>

00005398 <.L126>:
    5398:	02400713          	li	a4,36
    539c:	00575463          	bge	a4,t0,53a4 <.L126+0xc>
    53a0:	27d0a06f          	j	fe1c <.L2795>
    53a4:	02851e03          	lh	t3,40(a0)
    53a8:	24012423          	sw	zero,584(sp)
    53ac:	f85ff06f          	j	5330 <.L136>

000053b0 <.L6137>:
    53b0:	119fa713          	slti	a4,t6,281
    53b4:	00371713          	slli	a4,a4,0x3
    53b8:	24e12023          	sw	a4,576(sp)
    53bc:	ffb00713          	li	a4,-5
    53c0:	02851e03          	lh	t3,40(a0)
    53c4:	24e12423          	sw	a4,584(sp)
    53c8:	9acff06f          	j	4574 <.L125>

000053cc <.L6200>:
    53cc:	e4300713          	li	a4,-445
    53d0:	00e44463          	blt	s0,a4,53d8 <.L6200+0xc>
    53d4:	34c0e06f          	j	13720 <.L2792>
    53d8:	ff700713          	li	a4,-9
    53dc:	c98ff06f          	j	4874 <.L5710>

000053e0 <.L2783>:
    53e0:	fff00713          	li	a4,-1
    53e4:	01451883          	lh	a7,20(a0)
    53e8:	2ce12623          	sw	a4,716(sp)
    53ec:	bb4ff06f          	j	47a0 <.L111>

000053f0 <.L2785>:
    53f0:	00600713          	li	a4,6
    53f4:	01451883          	lh	a7,20(a0)
    53f8:	2ce12623          	sw	a4,716(sp)
    53fc:	ba4ff06f          	j	47a0 <.L111>

00005400 <.L6132>:
    5400:	0ce00c13          	li	s8,206
    5404:	016c5463          	bge	s8,s6,540c <.L6132+0xc>
    5408:	5600e06f          	j	13968 <.L3049>
    540c:	ffa00c13          	li	s8,-6
    5410:	17812623          	sw	s8,364(sp)
    5414:	8f5fc06f          	j	1d08 <.L440>

00005418 <.L443>:
    5418:	ffb00c93          	li	s9,-5
    541c:	17912623          	sw	s9,364(sp)
    5420:	00900c93          	li	s9,9
    5424:	36200c13          	li	s8,866
    5428:	0b912a23          	sw	s9,180(sp)
    542c:	013c5463          	bge	s8,s3,5434 <.L3063>
    5430:	941fc06f          	j	1d70 <.L441>

00005434 <.L3063>:
    5434:	ff900c13          	li	s8,-7
    5438:	0b812a23          	sw	s8,180(sp)
    543c:	935fc06f          	j	1d70 <.L441>

00005440 <.L438>:
