
test.o:     formato de ficheiro elf32-littleriscv


Desmontagem da secção .text.startup:

00000000 <main>:
   0:	cc817057          	vsetivli	zero,2,e16,m1,ta,ma
   4:	5208a0d7          	vid.v	v1
   8:	f3400e13          	li	t3,-204
   c:	961e62d7          	vmul.vx	v5,v1,t3
  10:	fec00e13          	li	t3,-20
  14:	961e65d7          	vmul.vx	v11,v1,t3
  18:	18000513          	li	a0,384
  1c:	d6010113          	addi	sp,sp,-672
  20:	96156657          	vmul.vx	v12,v1,a0
  24:	f7000513          	li	a0,-144
  28:	28112e23          	sw	ra,668(sp)
  2c:	28812c23          	sw	s0,664(sp)
  30:	28912a23          	sw	s1,660(sp)
  34:	29212823          	sw	s2,656(sp)
  38:	29312623          	sw	s3,652(sp)
  3c:	29412423          	sw	s4,648(sp)
  40:	29512223          	sw	s5,644(sp)
  44:	29612023          	sw	s6,640(sp)
  48:	27712e23          	sw	s7,636(sp)
  4c:	27812c23          	sw	s8,632(sp)
  50:	27912a23          	sw	s9,628(sp)
  54:	27a12823          	sw	s10,624(sp)
  58:	27b12623          	sw	s11,620(sp)
  5c:	96156d57          	vmul.vx	v26,v1,a0
  60:	00c10e13          	addi	t3,sp,12
  64:	fd000513          	li	a0,-48
  68:	020e55a7          	vse16.v	v11,(t3)
  6c:	fffff7b7          	lui	a5,0xfffff
  70:	961565d7          	vmul.vx	v11,v1,a0
  74:	67b78413          	addi	s0,a5,1659 # fffff67b <.LC3+0xfffff5db>
  78:	62678793          	addi	a5,a5,1574
  7c:	9617e357          	vmul.vx	v6,v1,a5
  80:	bea00813          	li	a6,-1046
  84:	01400793          	li	a5,20
  88:	961866d7          	vmul.vx	v13,v1,a6
  8c:	9617ecd7          	vmul.vx	v25,v1,a5
  90:	02010513          	addi	a0,sp,32
  94:	17000693          	li	a3,368
  98:	fdb00813          	li	a6,-37
  9c:	fee00793          	li	a5,-18
  a0:	020555a7          	vse16.v	v11,(a0)
  a4:	9616efd7          	vmul.vx	v31,v1,a3
  a8:	9617e5d7          	vmul.vx	v11,v1,a5
  ac:	96186dd7          	vmul.vx	v27,v1,a6
  b0:	18a00393          	li	t2,394
  b4:	16700613          	li	a2,359
  b8:	23e00693          	li	a3,574
  bc:	e3400813          	li	a6,-460
  c0:	9613e8d7          	vmul.vx	v17,v1,t2
  c4:	96166057          	vmul.vx	v0,v1,a2
  c8:	9616ee57          	vmul.vx	v28,v1,a3
  cc:	96186ad7          	vmul.vx	v21,v1,a6
  d0:	f4200e93          	li	t4,-190
  d4:	961ee757          	vmul.vx	v14,v1,t4
  d8:	fd900893          	li	a7,-39
  dc:	feb00e93          	li	t4,-21
  e0:	9618e157          	vmul.vx	v2,v1,a7
  e4:	961eec57          	vmul.vx	v24,v1,t4
  e8:	02410793          	addi	a5,sp,36
  ec:	beb00293          	li	t0,-1045
  f0:	17a00f13          	li	t5,378
  f4:	f8100893          	li	a7,-127
  f8:	0207d5a7          	vse16.v	v11,(a5)
  fc:	9612e557          	vmul.vx	v10,v1,t0
 100:	03f00793          	li	a5,63
 104:	961f67d7          	vmul.vx	v15,v1,t5
 108:	9618eed7          	vmul.vx	v29,v1,a7
 10c:	1d700713          	li	a4,471
 110:	fea00613          	li	a2,-22
 114:	02400693          	li	a3,36
 118:	e1100f13          	li	t5,-495
 11c:	06a00893          	li	a7,106
 120:	9618e957          	vmul.vx	v18,v1,a7
 124:	961761d7          	vmul.vx	v3,v1,a4
 128:	961f6f57          	vmul.vx	v30,v1,t5
 12c:	96166a57          	vmul.vx	v20,v1,a2
 130:	0317c8d7          	vadd.vx	v17,v17,a5
 134:	0207c057          	vadd.vx	v0,v0,a5
 138:	03f7cfd7          	vadd.vx	v31,v31,a5
 13c:	03c7ce57          	vadd.vx	v28,v28,a5
 140:	0356cad7          	vadd.vx	v21,v21,a3
 144:	fe700793          	li	a5,-25
 148:	9616e9d7          	vmul.vx	v19,v1,a3
 14c:	03a7cd57          	vadd.vx	v26,v26,a5
 150:	07300793          	li	a5,115
 154:	0387cc57          	vadd.vx	v24,v24,a5
 158:	1df00813          	li	a6,479
 15c:	04410793          	addi	a5,sp,68
 160:	02a84557          	vadd.vx	v10,v10,a6
 164:	0207daa7          	vse16.v	v21,(a5)
 168:	01810893          	addi	a7,sp,24
 16c:	03e00793          	li	a5,62
 170:	01d00813          	li	a6,29
 174:	e7700f13          	li	t5,-393
 178:	023841d7          	vadd.vx	v3,v3,a6
 17c:	0208d927          	vse16.v	v18,(a7)
 180:	03e84f57          	vadd.vx	v30,v30,a6
 184:	961f6957          	vmul.vx	v18,v1,t5
 188:	0347ca57          	vadd.vx	v20,v20,a5
 18c:	01700813          	li	a6,23
 190:	033849d7          	vadd.vx	v19,v19,a6
 194:	02f00313          	li	t1,47
 198:	96136257          	vmul.vx	v4,v1,t1
 19c:	01410693          	addi	a3,sp,20
 1a0:	1ba00f93          	li	t6,442
 1a4:	fa800313          	li	t1,-88
 1a8:	0206da27          	vse16.v	v20,(a3)
 1ac:	961fe857          	vmul.vx	v16,v1,t6
 1b0:	96136bd7          	vmul.vx	v23,v1,t1
 1b4:	01c10693          	addi	a3,sp,28
 1b8:	2d500313          	li	t1,725
 1bc:	0206d9a7          	vse16.v	v19,(a3)
 1c0:	032939d7          	vadd.vi	v19,v18,-14
 1c4:	96136957          	vmul.vx	v18,v1,t1
 1c8:	961463d7          	vmul.vx	v7,v1,s0
 1cc:	03a00513          	li	a0,58
 1d0:	03054857          	vadd.vx	v16,v16,a0
 1d4:	02f547d7          	vadd.vx	v15,v15,a0
 1d8:	03800513          	li	a0,56
 1dc:	03d54ed7          	vadd.vx	v29,v29,a0
 1e0:	0327ba57          	vadd.vi	v20,v18,15
 1e4:	0278b3d7          	vadd.vi	v7,v7,-15
 1e8:	02810693          	addi	a3,sp,40
 1ec:	0206d9a7          	vse16.v	v19,(a3)
 1f0:	02254157          	vadd.vx	v2,v2,a0
 1f4:	0264b357          	vadd.vi	v6,v6,9
 1f8:	01010513          	addi	a0,sp,16
 1fc:	02c10693          	addi	a3,sp,44
 200:	02055ea7          	vse16.v	v29,(a0)
 204:	0206da27          	vse16.v	v20,(a3)
 208:	06810513          	addi	a0,sp,104
 20c:	0c010693          	addi	a3,sp,192
 210:	020553a7          	vse16.v	v7,(a0)
 214:	0206d3a7          	vse16.v	v7,(a3)
 218:	06c10913          	addi	s2,sp,108
 21c:	09810513          	addi	a0,sp,152
 220:	0c410693          	addi	a3,sp,196
 224:	0a400e13          	li	t3,164
 228:	02095327          	vse16.v	v6,(s2)
 22c:	02055327          	vse16.v	v6,(a0)
 230:	0206d327          	vse16.v	v6,(a3)
 234:	961e6357          	vmul.vx	v6,v1,t3
 238:	f4700593          	li	a1,-185
 23c:	9615e4d7          	vmul.vx	v9,v1,a1
 240:	05010d93          	addi	s11,sp,80
 244:	e8000393          	li	t2,-384
 248:	020dd8a7          	vse16.v	v17,(s11)
 24c:	02a00593          	li	a1,42
 250:	0265b8d7          	vadd.vi	v17,v6,11
 254:	0fd00413          	li	s0,253
 258:	9613e357          	vmul.vx	v6,v1,t2
 25c:	f1a00f13          	li	t5,-230
 260:	024f4257          	vadd.vx	v4,v4,t5
 264:	9615eb57          	vmul.vx	v22,v1,a1
 268:	02e44757          	vadd.vx	v14,v14,s0
 26c:	03b5cdd7          	vadd.vx	v27,v27,a1
 270:	05410913          	addi	s2,sp,84
 274:	09410593          	addi	a1,sp,148
 278:	e7200b13          	li	s6,-398
 27c:	03900f13          	li	t5,57
 280:	0205d3a7          	vse16.v	v7,(a1)
 284:	02095527          	vse16.v	v10,(s2)
 288:	961b63d7          	vmul.vx	v7,v1,s6
 28c:	02cf4657          	vadd.vx	v12,v12,t5
 290:	05810913          	addi	s2,sp,88
 294:	03410b13          	addi	s6,sp,52
 298:	0f800f13          	li	t5,248
 29c:	020b58a7          	vse16.v	v17,(s6)
 2a0:	029f44d7          	vadd.vx	v9,v9,t5
 2a4:	02095827          	vse16.v	v16,(s2)
 2a8:	12300f13          	li	t5,291
 2ac:	05c10913          	addi	s2,sp,92
 2b0:	02095727          	vse16.v	v14,(s2)
 2b4:	02683757          	vadd.vi	v14,v6,-16
 2b8:	961f6357          	vmul.vx	v6,v1,t5
 2bc:	0ac10513          	addi	a0,sp,172
 2c0:	07800a13          	li	s4,120
 2c4:	18f00893          	li	a7,399
 2c8:	0258c2d7          	vadd.vx	v5,v5,a7
 2cc:	02055527          	vse16.v	v10,(a0)
 2d0:	961a6557          	vmul.vx	v10,v1,s4
 2d4:	0b010a13          	addi	s4,sp,176
 2d8:	020a57a7          	vse16.v	v15,(s4)
 2dc:	026637d7          	vadd.vi	v15,v6,12
 2e0:	06010a13          	addi	s4,sp,96
 2e4:	020a52a7          	vse16.v	v5,(s4)
 2e8:	04810a13          	addi	s4,sp,72
 2ec:	020a57a7          	vse16.v	v15,(s4)
 2f0:	0b810a13          	addi	s4,sp,184
 2f4:	020a52a7          	vse16.v	v5,(s4)
 2f8:	09010a13          	addi	s4,sp,144
 2fc:	020a5227          	vse16.v	v4,(s4)
 300:	1e000893          	li	a7,480
 304:	07010a13          	addi	s4,sp,112
 308:	020a51a7          	vse16.v	v3,(s4)
 30c:	02d8c6d7          	vadd.vx	v13,v13,a7
 310:	0c810a13          	addi	s4,sp,200
 314:	020a51a7          	vse16.v	v3,(s4)
 318:	0a010a13          	addi	s4,sp,160
 31c:	020a5127          	vse16.v	v2,(s4)
 320:	08010a13          	addi	s4,sp,128
 324:	020a56a7          	vse16.v	v13,(s4)
 328:	01810a13          	addi	s4,sp,24
 32c:	04010913          	addi	s2,sp,64
 330:	02095727          	vse16.v	v14,(s2)
 334:	08c10913          	addi	s2,sp,140
 338:	020952a7          	vse16.v	v5,(s2)
 33c:	020a5907          	vle16.v	v18,(s4)
 340:	06410913          	addi	s2,sp,100
 344:	c1000593          	li	a1,-1008
 348:	02095227          	vse16.v	v4,(s2)
 34c:	9615e357          	vmul.vx	v6,v1,a1
 350:	0bc10913          	addi	s2,sp,188
 354:	01600593          	li	a1,22
 358:	02095227          	vse16.v	v4,(s2)
 35c:	0325c257          	vadd.vx	v4,v18,a1
 360:	09c10913          	addi	s2,sp,156
 364:	020951a7          	vse16.v	v3,(s2)
 368:	020a5227          	vse16.v	v4,(s4)
 36c:	02010a13          	addi	s4,sp,32
 370:	18c00593          	li	a1,396
 374:	00b00b93          	li	s7,11
 378:	961bea57          	vmul.vx	v20,v1,s7
 37c:	fe300693          	li	a3,-29
 380:	020a5187          	vle16.v	v3,(s4)
 384:	9616e957          	vmul.vx	v18,v1,a3
 388:	07410913          	addi	s2,sp,116
 38c:	0b410693          	addi	a3,sp,180
 390:	0206d4a7          	vse16.v	v9,(a3)
 394:	02095127          	vse16.v	v2,(s2)
 398:	0235c6d7          	vadd.vx	v13,v3,a1
 39c:	0cc10913          	addi	s2,sp,204
 3a0:	02100693          	li	a3,33
 3a4:	020a56a7          	vse16.v	v13,(s4)
 3a8:	02095127          	vse16.v	v2,(s2)
 3ac:	0346ca57          	vadd.vx	v20,v20,a3
 3b0:	08410913          	addi	s2,sp,132
 3b4:	0c800693          	li	a3,200
 3b8:	02095627          	vse16.v	v12,(s2)
 3bc:	02410a13          	addi	s4,sp,36
 3c0:	0276c657          	vadd.vx	v12,v7,a3
 3c4:	16d00e93          	li	t4,365
 3c8:	020a5187          	vle16.v	v3,(s4)
 3cc:	961eead7          	vmul.vx	v21,v1,t4
 3d0:	fb400e93          	li	t4,-76
 3d4:	961ee157          	vmul.vx	v2,v1,t4
 3d8:	03010693          	addi	a3,sp,48
 3dc:	0206d627          	vse16.v	v12,(a3)
 3e0:	ff100293          	li	t0,-15
 3e4:	fc600693          	li	a3,-58
 3e8:	9612e857          	vmul.vx	v16,v1,t0
 3ec:	02a6c557          	vadd.vx	v10,v10,a3
 3f0:	96113457          	vsll.vi	v8,v1,2
 3f4:	0227c157          	vadd.vx	v2,v2,a5
 3f8:	03810693          	addi	a3,sp,56
 3fc:	de100593          	li	a1,-543
 400:	0206d527          	vse16.v	v10,(a3)
 404:	0235c1d7          	vadd.vx	v3,v3,a1
 408:	f2000693          	li	a3,-224
 40c:	0306c857          	vadd.vx	v16,v16,a3
 410:	04c10b13          	addi	s6,sp,76
 414:	02500a93          	li	s5,37
 418:	020b5127          	vse16.v	v2,(s6)
 41c:	028ac157          	vadd.vx	v2,v8,s5
 420:	020a51a7          	vse16.v	v3,(s4)
 424:	03c10693          	addi	a3,sp,60
 428:	08810a13          	addi	s4,sp,136
 42c:	13700493          	li	s1,311
 430:	020a54a7          	vse16.v	v9,(s4)
 434:	0206d827          	vse16.v	v16,(a3)
 438:	0284c457          	vadd.vx	v8,v8,s1
 43c:	07810a13          	addi	s4,sp,120
 440:	0a410493          	addi	s1,sp,164
 444:	020a5127          	vse16.v	v2,(s4)
 448:	0204d127          	vse16.v	v2,(s1)
 44c:	ebe00493          	li	s1,-322
 450:	9614e7d7          	vmul.vx	v15,v1,s1
 454:	0e410493          	addi	s1,sp,228
 458:	0204dc27          	vse16.v	v24,(s1)
 45c:	e3700e13          	li	t3,-457
 460:	961e63d7          	vmul.vx	v7,v1,t3
 464:	ce100e13          	li	t3,-799
 468:	961e6857          	vmul.vx	v16,v1,t3
 46c:	0a810c93          	addi	s9,sp,168
 470:	1ef00e13          	li	t3,495
 474:	020cdfa7          	vse16.v	v31,(s9)
 478:	10410a13          	addi	s4,sp,260
 47c:	026e4fd7          	vadd.vx	v31,v6,t3
 480:	00c10493          	addi	s1,sp,12
 484:	20700e13          	li	t3,519
 488:	020a5f27          	vse16.v	v30,(s4)
 48c:	027e4f57          	vadd.vx	v30,v7,t3
 490:	0204d387          	vle16.v	v7,(s1)
 494:	f5500413          	li	s0,-171
 498:	f3600393          	li	t2,-202
 49c:	9613e1d7          	vmul.vx	v3,v1,t2
 4a0:	07c10d13          	addi	s10,sp,124
 4a4:	ffd00393          	li	t2,-3
 4a8:	02744357          	vadd.vx	v6,v7,s0
 4ac:	020d5027          	vse16.v	v0,(s10)
 4b0:	0e810493          	addi	s1,sp,232
 4b4:	0272b057          	vadd.vi	v0,v7,5
 4b8:	9613e3d7          	vmul.vx	v7,v1,t2
 4bc:	01410393          	addi	t2,sp,20
 4c0:	0204d327          	vse16.v	v6,(s1)
 4c4:	0203d307          	vle16.v	v6,(t2)
 4c8:	10010b93          	addi	s7,sp,256
 4cc:	01810393          	addi	t2,sp,24
 4d0:	01010a93          	addi	s5,sp,16
 4d4:	00500293          	li	t0,5
 4d8:	020ad487          	vle16.v	v9,(s5)
 4dc:	020bd327          	vse16.v	v6,(s7)
 4e0:	0203d307          	vle16.v	v6,(t2)
 4e4:	9612e257          	vmul.vx	v4,v1,t0
 4e8:	036fbb57          	vadd.vi	v22,v22,-1
 4ec:	0d010293          	addi	t0,sp,208
 4f0:	0202d127          	vse16.v	v2,(t0)
 4f4:	05f00293          	li	t0,95
 4f8:	9612e757          	vmul.vx	v14,v1,t0
 4fc:	0f810293          	addi	t0,sp,248
 500:	0202db27          	vse16.v	v22,(t0)
 504:	10810293          	addi	t0,sp,264
 508:	0202d327          	vse16.v	v6,(t0)
 50c:	13c10a13          	addi	s4,sp,316
 510:	020a5427          	vse16.v	v8,(s4)
 514:	ffc00e93          	li	t4,-4
 518:	0f010a13          	addi	s4,sp,240
 51c:	020a54a7          	vse16.v	v9,(s4)
 520:	961ee4d7          	vmul.vx	v9,v1,t4
 524:	04410293          	addi	t0,sp,68
 528:	12c10b13          	addi	s6,sp,300
 52c:	020b5e27          	vse16.v	v28,(s6)
 530:	02933e57          	vadd.vi	v28,v9,6
 534:	0202d487          	vle16.v	v9,(t0)
 538:	e2500f93          	li	t6,-475
 53c:	961fe5d7          	vmul.vx	v11,v1,t6
 540:	fff00f93          	li	t6,-1
 544:	961fe2d7          	vmul.vx	v5,v1,t6
 548:	06500f93          	li	t6,101
 54c:	961fe457          	vmul.vx	v8,v1,t6
 550:	1c800f93          	li	t6,456
 554:	961fec57          	vmul.vx	v24,v1,t6
 558:	14810f93          	addi	t6,sp,328
 55c:	020fd4a7          	vse16.v	v9,(t6)
 560:	01c10f93          	addi	t6,sp,28
 564:	f8300e93          	li	t4,-125
 568:	961ee657          	vmul.vx	v12,v1,t4
 56c:	11010e93          	addi	t4,sp,272
 570:	03200513          	li	a0,50
 574:	020fd487          	vle16.v	v9,(t6)
 578:	02010f93          	addi	t6,sp,32
 57c:	020fdb07          	vle16.v	v22,(t6)
 580:	96156357          	vmul.vx	v6,v1,a0
 584:	f3d00f13          	li	t5,-195
 588:	961f6157          	vmul.vx	v2,v1,t5
 58c:	2af00e13          	li	t3,687
 590:	026e4357          	vadd.vx	v6,v6,t3
 594:	020edb27          	vse16.v	v22,(t4)
 598:	02410e93          	addi	t4,sp,36
 59c:	e5c00993          	li	s3,-420
 5a0:	e0900e13          	li	t3,-503
 5a4:	024e4257          	vadd.vx	v4,v4,t3
 5a8:	9619e557          	vmul.vx	v10,v1,s3
 5ac:	020edb07          	vle16.v	v22,(t4)
 5b0:	03c00e13          	li	t3,60
 5b4:	022e4157          	vadd.vx	v2,v2,t3
 5b8:	10c10e13          	addi	t3,sp,268
 5bc:	020e54a7          	vse16.v	v9,(t3)
 5c0:	11410e13          	addi	t3,sp,276
 5c4:	020e5b27          	vse16.v	v22,(t3)
 5c8:	02a8c557          	vadd.vx	v10,v10,a7
 5cc:	02800893          	li	a7,40
 5d0:	9618e4d7          	vmul.vx	v9,v1,a7
 5d4:	02810e13          	addi	t3,sp,40
 5d8:	037c3bd7          	vadd.vi	v23,v23,-8
 5dc:	02200593          	li	a1,34
 5e0:	0297cb57          	vadd.vx	v22,v9,a5
 5e4:	020e5487          	vle16.v	v9,(t3)
 5e8:	02b5c5d7          	vadd.vx	v11,v11,a1
 5ec:	03933cd7          	vadd.vi	v25,v25,6
 5f0:	01300593          	li	a1,19
 5f4:	0ec10413          	addi	s0,sp,236
 5f8:	fb200913          	li	s2,-78
 5fc:	02045ba7          	vse16.v	v23,(s0)
 600:	961968d7          	vmul.vx	v17,v1,s2
 604:	0355cad7          	vadd.vx	v21,v21,a1
 608:	96123bd7          	vsll.vi	v23,v1,4
 60c:	0d810913          	addi	s2,sp,216
 610:	02095d27          	vse16.v	v26,(s2)
 614:	0d410c13          	addi	s8,sp,212
 618:	0dc10913          	addi	s2,sp,220
 61c:	11810893          	addi	a7,sp,280
 620:	11c10e93          	addi	t4,sp,284
 624:	020c5da7          	vse16.v	v27,(s8)
 628:	02095ca7          	vse16.v	v25,(s2)
 62c:	0208d4a7          	vse16.v	v9,(a7)
 630:	020ed5a7          	vse16.v	v11,(t4)
 634:	961864d7          	vmul.vx	v9,v1,a6
 638:	12010e13          	addi	t3,sp,288
 63c:	12810813          	addi	a6,sp,296
 640:	020e5aa7          	vse16.v	v21,(t3)
 644:	02085a27          	vse16.v	v20,(a6)
 648:	03754a57          	vadd.vx	v20,v23,a0
 64c:	03010513          	addi	a0,sp,48
 650:	02055c87          	vle16.v	v25,(a0)
 654:	03410513          	addi	a0,sp,52
 658:	02055b87          	vle16.v	v23,(a0)
 65c:	ff600313          	li	t1,-10
 660:	961369d7          	vmul.vx	v19,v1,t1
 664:	02c10e93          	addi	t4,sp,44
 668:	06c00313          	li	t1,108
 66c:	029eb5d7          	vadd.vi	v11,v9,-3
 670:	96136ad7          	vmul.vx	v21,v1,t1
 674:	020ed487          	vle16.v	v9,(t4)
 678:	13410313          	addi	t1,sp,308
 67c:	03810513          	addi	a0,sp,56
 680:	02035ba7          	vse16.v	v23,(t1)
 684:	02055b87          	vle16.v	v23,(a0)
 688:	12410893          	addi	a7,sp,292
 68c:	01800513          	li	a0,24
 690:	0208d4a7          	vse16.v	v9,(a7)
 694:	02854457          	vadd.vx	v8,v8,a0
 698:	13810893          	addi	a7,sp,312
 69c:	03c10513          	addi	a0,sp,60
 6a0:	0208dba7          	vse16.v	v23,(a7)
 6a4:	02055b87          	vle16.v	v23,(a0)
 6a8:	d6400f13          	li	t5,-668
 6ac:	961f66d7          	vmul.vx	v13,v1,t5
 6b0:	14010813          	addi	a6,sp,320
 6b4:	30d00f13          	li	t5,781
 6b8:	14410e93          	addi	t4,sp,324
 6bc:	02085ba7          	vse16.v	v23,(a6)
 6c0:	961f6bd7          	vmul.vx	v23,v1,t5
 6c4:	04010f13          	addi	t5,sp,64
 6c8:	020f5d87          	vle16.v	v27,(t5)
 6cc:	02700693          	li	a3,39
 6d0:	0336c9d7          	vadd.vx	v19,v19,a3
 6d4:	13010e13          	addi	t3,sp,304
 6d8:	0f410813          	addi	a6,sp,244
 6dc:	020e5ca7          	vse16.v	v25,(t3)
 6e0:	020edda7          	vse16.v	v27,(t4)
 6e4:	04810e93          	addi	t4,sp,72
 6e8:	02085aa7          	vse16.v	v21,(a6)
 6ec:	14c10e13          	addi	t3,sp,332
 6f0:	15410813          	addi	a6,sp,340
 6f4:	020859a7          	vse16.v	v19,(a6)
 6f8:	020edd87          	vle16.v	v27,(t4)
 6fc:	1c010813          	addi	a6,sp,448
 700:	02085327          	vse16.v	v6,(a6)
 704:	03000813          	li	a6,48
 708:	96186ad7          	vmul.vx	v21,v1,a6
 70c:	0321b957          	vadd.vi	v18,v18,3
 710:	020e5da7          	vse16.v	v27,(t3)
 714:	0255cdd7          	vadd.vx	v27,v5,a1
 718:	11e00593          	li	a1,286
 71c:	0305c857          	vadd.vx	v16,v16,a1
 720:	18100593          	li	a1,385
 724:	02f5c7d7          	vadd.vx	v15,v15,a1
 728:	01e00593          	li	a1,30
 72c:	02e5c757          	vadd.vx	v14,v14,a1
 730:	96133ed7          	vsll.vi	v29,v1,6
 734:	15c10593          	addi	a1,sp,348
 738:	04c10f13          	addi	t5,sp,76
 73c:	0205dfa7          	vse16.v	v31,(a1)
 740:	02163d57          	vadd.vi	v26,v1,12
 744:	020f5987          	vle16.v	v19,(t5)
 748:	02563cd7          	vadd.vi	v25,v5,12
 74c:	19810593          	addi	a1,sp,408
 750:	0205d227          	vse16.v	v4,(a1)
 754:	16010e93          	addi	t4,sp,352
 758:	e8300593          	li	a1,-381
 75c:	03564ad7          	vadd.vx	v21,v21,a2
 760:	03d93ed7          	vadd.vi	v29,v29,-14
 764:	020ed927          	vse16.v	v18,(t4)
 768:	15010313          	addi	t1,sp,336
 76c:	9615e957          	vmul.vx	v18,v1,a1
 770:	0fc10513          	addi	a0,sp,252
 774:	ba700613          	li	a2,-1113
 778:	02055d27          	vse16.v	v26,(a0)
 77c:	02035ca7          	vse16.v	v25,(t1)
 780:	18c10513          	addi	a0,sp,396
 784:	96166cd7          	vmul.vx	v25,v1,a2
 788:	02055027          	vse16.v	v0,(a0)
 78c:	023bb1d7          	vadd.vi	v3,v3,-9
 790:	0e010893          	addi	a7,sp,224
 794:	09b00513          	li	a0,155
 798:	0208dea7          	vse16.v	v29,(a7)
 79c:	1c410f93          	addi	t6,sp,452
 7a0:	02d546d7          	vadd.vx	v13,v13,a0
 7a4:	15810a93          	addi	s5,sp,344
 7a8:	16410e13          	addi	t3,sp,356
 7ac:	16810313          	addi	t1,sp,360
 7b0:	19410893          	addi	a7,sp,404
 7b4:	16c10513          	addi	a0,sp,364
 7b8:	02e00f13          	li	t5,46
 7bc:	020e5f27          	vse16.v	v30,(t3)
 7c0:	020fd227          	vse16.v	v4,(t6)
 7c4:	038f4c57          	vadd.vx	v24,v24,t5
 7c8:	0326c957          	vadd.vx	v18,v18,a3
 7cc:	17010f13          	addi	t5,sp,368
 7d0:	020ad9a7          	vse16.v	v19,(s5)
 7d4:	02035327          	vse16.v	v6,(t1)
 7d8:	0208d327          	vse16.v	v6,(a7)
 7dc:	02055227          	vse16.v	v4,(a0)
 7e0:	027333d7          	vadd.vi	v7,v7,6
 7e4:	18010693          	addi	a3,sp,384
 7e8:	020f51a7          	vse16.v	v3,(t5)
 7ec:	03974cd7          	vadd.vx	v25,v25,a4
 7f0:	0206de27          	vse16.v	v28,(a3)
 7f4:	19c10e13          	addi	t3,sp,412
 7f8:	1c810313          	addi	t1,sp,456
 7fc:	17410893          	addi	a7,sp,372
 800:	1d410593          	addi	a1,sp,468
 804:	0bb00e93          	li	t4,187
 808:	01100713          	li	a4,17
 80c:	fe400693          	li	a3,-28
 810:	025742d7          	vadd.vx	v5,v5,a4
 814:	0205d427          	vse16.v	v8,(a1)
 818:	020351a7          	vse16.v	v3,(t1)
 81c:	0208d127          	vse16.v	v2,(a7)
 820:	020e51a7          	vse16.v	v3,(t3)
 824:	02cec657          	vadd.vx	v12,v12,t4
 828:	9616e1d7          	vmul.vx	v3,v1,a3
 82c:	1cc10e93          	addi	t4,sp,460
 830:	1a010813          	addi	a6,sp,416
 834:	1ac10893          	addi	a7,sp,428
 838:	fdf00713          	li	a4,-33
 83c:	a3800593          	li	a1,-1480
 840:	020ed127          	vse16.v	v2,(t4)
 844:	02085127          	vse16.v	v2,(a6)
 848:	0208d3a7          	vse16.v	v7,(a7)
 84c:	9615e157          	vmul.vx	v2,v1,a1
 850:	961769d7          	vmul.vx	v19,v1,a4
 854:	e7300893          	li	a7,-397
 858:	1b810713          	addi	a4,sp,440
 85c:	02075c27          	vse16.v	v24,(a4)
 860:	9618e257          	vmul.vx	v4,v1,a7
 864:	0317c8d7          	vadd.vx	v17,v17,a5
 868:	18810613          	addi	a2,sp,392
 86c:	ff000713          	li	a4,-16
 870:	02065827          	vse16.v	v16,(a2)
 874:	96176357          	vmul.vx	v6,v1,a4
 878:	17c10513          	addi	a0,sp,380
 87c:	1b410813          	addi	a6,sp,436
 880:	1a410613          	addi	a2,sp,420
 884:	27600693          	li	a3,630
 888:	0236c1d7          	vadd.vx	v3,v3,a3
 88c:	02055427          	vse16.v	v8,(a0)
 890:	02065ba7          	vse16.v	v23,(a2)
 894:	020856a7          	vse16.v	v13,(a6)
 898:	18410a13          	addi	s4,sp,388
 89c:	19010313          	addi	t1,sp,400
 8a0:	1d010693          	addi	a3,sp,464
 8a4:	03d00513          	li	a0,61
 8a8:	34600593          	li	a1,838
 8ac:	21800813          	li	a6,536
 8b0:	01500613          	li	a2,21
 8b4:	033549d7          	vadd.vx	v19,v19,a0
 8b8:	020357a7          	vse16.v	v15,(t1)
 8bc:	0206dba7          	vse16.v	v23,(a3)
 8c0:	96166457          	vmul.vx	v8,v1,a2
 8c4:	020a58a7          	vse16.v	v17,(s4)
 8c8:	961867d7          	vmul.vx	v15,v1,a6
 8cc:	0225c8d7          	vadd.vx	v17,v2,a1
 8d0:	1bc10513          	addi	a0,sp,444
 8d4:	17810593          	addi	a1,sp,376
 8d8:	03700813          	li	a6,55
 8dc:	fbd00693          	li	a3,-67
 8e0:	024846d7          	vadd.vx	v13,v4,a6
 8e4:	02055627          	vse16.v	v12,(a0)
 8e8:	0205dba7          	vse16.v	v23,(a1)
 8ec:	9616e257          	vmul.vx	v4,v1,a3
 8f0:	02d00713          	li	a4,45
 8f4:	22410593          	addi	a1,sp,548
 8f8:	03100513          	li	a0,49
 8fc:	02674857          	vadd.vx	v16,v6,a4
 900:	0205d927          	vse16.v	v18,(a1)
 904:	02654357          	vadd.vx	v6,v6,a0
 908:	21c00593          	li	a1,540
 90c:	1d810513          	addi	a0,sp,472
 910:	020553a7          	vse16.v	v7,(a0)
 914:	9615e3d7          	vmul.vx	v7,v1,a1
 918:	02874bd7          	vadd.vx	v23,v8,a4
 91c:	1b010993          	addi	s3,sp,432
 920:	08100713          	li	a4,129
 924:	ef700513          	li	a0,-265
 928:	0209db27          	vse16.v	v22,(s3)
 92c:	1a810e13          	addi	t3,sp,424
 930:	02474b57          	vadd.vx	v22,v4,a4
 934:	ffb00313          	li	t1,-5
 938:	96156257          	vmul.vx	v4,v1,a0
 93c:	1e810513          	addi	a0,sp,488
 940:	02055527          	vse16.v	v10,(a0)
 944:	020e5727          	vse16.v	v14,(t3)
 948:	96136157          	vmul.vx	v2,v1,t1
 94c:	f0700e13          	li	t3,-249
 950:	25010613          	addi	a2,sp,592
 954:	25810713          	addi	a4,sp,600
 958:	18700513          	li	a0,391
 95c:	02075a27          	vse16.v	v20,(a4)
 960:	961e6757          	vmul.vx	v14,v1,t3
 964:	02065927          	vse16.v	v18,(a2)
 968:	21d00713          	li	a4,541
 96c:	02743957          	vadd.vi	v18,v7,8
 970:	baf00613          	li	a2,-1105
 974:	961563d7          	vmul.vx	v7,v1,a0
 978:	16e00513          	li	a0,366
 97c:	96166657          	vmul.vx	v12,v1,a2
 980:	96176457          	vmul.vx	v8,v1,a4
 984:	9611b4d7          	vsll.vi	v9,v1,3
 988:	961560d7          	vmul.vx	v1,v1,a0
 98c:	20410893          	addi	a7,sp,516
 990:	d2500313          	li	t1,-731
 994:	02234157          	vadd.vx	v2,v2,t1
 998:	0208dda7          	vse16.v	v27,(a7)
 99c:	20c10693          	addi	a3,sp,524
 9a0:	03600893          	li	a7,54
 9a4:	0206dca7          	vse16.v	v25,(a3)
 9a8:	024c3257          	vadd.vi	v4,v4,-8
 9ac:	0298c4d7          	vadd.vx	v9,v9,a7
 9b0:	02ec3757          	vadd.vi	v14,v14,-8
 9b4:	02f637d7          	vadd.vi	v15,v15,12
 9b8:	1dc10913          	addi	s2,sp,476
 9bc:	20010313          	addi	t1,sp,512
 9c0:	23010813          	addi	a6,sp,560
 9c4:	1e010593          	addi	a1,sp,480
 9c8:	1e410613          	addi	a2,sp,484
 9cc:	1cf00693          	li	a3,463
 9d0:	02035aa7          	vse16.v	v21,(t1)
 9d4:	020852a7          	vse16.v	v5,(a6)
 9d8:	020959a7          	vse16.v	v19,(s2)
 9dc:	0205d8a7          	vse16.v	v17,(a1)
 9e0:	020655a7          	vse16.v	v11,(a2)
 9e4:	02c6c657          	vadd.vx	v12,v12,a3
 9e8:	0277c3d7          	vadd.vx	v7,v7,a5
 9ec:	0217c0d7          	vadd.vx	v1,v1,a5
 9f0:	0283b457          	vadd.vi	v8,v8,7
 9f4:	1ec10693          	addi	a3,sp,492
 9f8:	21810713          	addi	a4,sp,536
 9fc:	24810513          	addi	a0,sp,584
 a00:	23c10793          	addi	a5,sp,572
 a04:	0206d1a7          	vse16.v	v3,(a3)
 a08:	1f010893          	addi	a7,sp,496
 a0c:	020751a7          	vse16.v	v3,(a4)
 a10:	0207d327          	vse16.v	v6,(a5)
 a14:	02055127          	vse16.v	v2,(a0)
 a18:	21c10813          	addi	a6,sp,540
 a1c:	1f410593          	addi	a1,sp,500
 a20:	1f810613          	addi	a2,sp,504
 a24:	1fc10693          	addi	a3,sp,508
 a28:	21010713          	addi	a4,sp,528
 a2c:	22010513          	addi	a0,sp,544
 a30:	24010793          	addi	a5,sp,576
 a34:	0208d127          	vse16.v	v2,(a7)
 a38:	02085127          	vse16.v	v2,(a6)
 a3c:	0205d727          	vse16.v	v14,(a1)
 a40:	020656a7          	vse16.v	v13,(a2)
 a44:	0206d7a7          	vse16.v	v15,(a3)
 a48:	02075827          	vse16.v	v16,(a4)
 a4c:	0207d4a7          	vse16.v	v9,(a5)
 a50:	02055227          	vse16.v	v4,(a0)
 a54:	24410313          	addi	t1,sp,580
 a58:	22c10893          	addi	a7,sp,556
 a5c:	21410813          	addi	a6,sp,532
 a60:	22810613          	addi	a2,sp,552
 a64:	25410713          	addi	a4,sp,596
 a68:	25c10793          	addi	a5,sp,604
 a6c:	23810693          	addi	a3,sp,568
 a70:	24c10593          	addi	a1,sp,588
 a74:	20810493          	addi	s1,sp,520
 a78:	23410413          	addi	s0,sp,564
 a7c:	00000517          	auipc	a0,0x0
 a80:	00050513          	mv	a0,a0
 a84:	0206d627          	vse16.v	v12,(a3)
 a88:	0204d3a7          	vse16.v	v7,(s1)
 a8c:	020450a7          	vse16.v	v1,(s0)
 a90:	0207d2a7          	vse16.v	v5,(a5)
 a94:	020351a7          	vse16.v	v3,(t1)
 a98:	0208dba7          	vse16.v	v23,(a7)
 a9c:	02085b27          	vse16.v	v22,(a6)
 aa0:	0205d227          	vse16.v	v4,(a1)
 aa4:	02065927          	vse16.v	v18,(a2)
 aa8:	02075427          	vse16.v	v8,(a4)
 aac:	00000097          	auipc	ra,0x0
 ab0:	000080e7          	jalr	ra # aac <main+0xaac>
 ab4:	00000097          	auipc	ra,0x0
 ab8:	000080e7          	jalr	ra # ab4 <main+0xab4>
 abc:	00a12a23          	sw	a0,20(sp)
 ac0:	00000097          	auipc	ra,0x0
 ac4:	000080e7          	jalr	ra # ac0 <main+0xac0>
 ac8:	00050693          	mv	a3,a0
 acc:	000d8513          	mv	a0,s11
 ad0:	00d12823          	sw	a3,16(sp)
 ad4:	00000097          	auipc	ra,0x0
 ad8:	000080e7          	jalr	ra # ad4 <main+0xad4>
 adc:	00050d93          	mv	s11,a0
 ae0:	000d0513          	mv	a0,s10
 ae4:	00000097          	auipc	ra,0x0
 ae8:	000080e7          	jalr	ra # ae4 <main+0xae4>
 aec:	00050d13          	mv	s10,a0
 af0:	000c8513          	mv	a0,s9
 af4:	00000097          	auipc	ra,0x0
 af8:	000080e7          	jalr	ra # af4 <main+0xaf4>
 afc:	00050c93          	mv	s9,a0
 b00:	000c0513          	mv	a0,s8
 b04:	00000097          	auipc	ra,0x0
 b08:	000080e7          	jalr	ra # b04 <main+0xb04>
 b0c:	00050c13          	mv	s8,a0
 b10:	000b8513          	mv	a0,s7
 b14:	00000097          	auipc	ra,0x0
 b18:	000080e7          	jalr	ra # b14 <main+0xb14>
 b1c:	00050b93          	mv	s7,a0
 b20:	000b0513          	mv	a0,s6
 b24:	00000097          	auipc	ra,0x0
 b28:	000080e7          	jalr	ra # b24 <main+0xb24>
 b2c:	00050b13          	mv	s6,a0
 b30:	000a8513          	mv	a0,s5
 b34:	00000097          	auipc	ra,0x0
 b38:	000080e7          	jalr	ra # b34 <main+0xb34>
 b3c:	00050a93          	mv	s5,a0
 b40:	000a0513          	mv	a0,s4
 b44:	00000097          	auipc	ra,0x0
 b48:	000080e7          	jalr	ra # b44 <main+0xb44>
 b4c:	00050a13          	mv	s4,a0
 b50:	00098513          	mv	a0,s3
 b54:	00000097          	auipc	ra,0x0
 b58:	000080e7          	jalr	ra # b54 <main+0xb54>
 b5c:	00050993          	mv	s3,a0
 b60:	00090513          	mv	a0,s2
 b64:	00000097          	auipc	ra,0x0
 b68:	000080e7          	jalr	ra # b64 <main+0xb64>
 b6c:	00050913          	mv	s2,a0
 b70:	00048513          	mv	a0,s1
 b74:	00000097          	auipc	ra,0x0
 b78:	000080e7          	jalr	ra # b74 <main+0xb74>
 b7c:	00050493          	mv	s1,a0
 b80:	00040513          	mv	a0,s0
 b84:	00000097          	auipc	ra,0x0
 b88:	000080e7          	jalr	ra # b84 <main+0xb84>
 b8c:	00a12623          	sw	a0,12(sp)
 b90:	00000097          	auipc	ra,0x0
 b94:	000080e7          	jalr	ra # b90 <main+0xb90>
 b98:	00050413          	mv	s0,a0
 b9c:	00000097          	auipc	ra,0x0
 ba0:	000080e7          	jalr	ra # b9c <main+0xb9c>
 ba4:	01012683          	lw	a3,16(sp)
 ba8:	40d505b3          	sub	a1,a0,a3
 bac:	00000517          	auipc	a0,0x0
 bb0:	00050513          	mv	a0,a0
 bb4:	00000097          	auipc	ra,0x0
 bb8:	000080e7          	jalr	ra # bb4 <main+0xbb4>
 bbc:	01412783          	lw	a5,20(sp)
 bc0:	00000517          	auipc	a0,0x0
 bc4:	00050513          	mv	a0,a0
 bc8:	40f405b3          	sub	a1,s0,a5
 bcc:	00000097          	auipc	ra,0x0
 bd0:	000080e7          	jalr	ra # bcc <main+0xbcc>
 bd4:	000d8593          	mv	a1,s11
 bd8:	00000517          	auipc	a0,0x0
 bdc:	00050513          	mv	a0,a0
 be0:	00000097          	auipc	ra,0x0
 be4:	000080e7          	jalr	ra # be0 <main+0xbe0>
 be8:	000d0593          	mv	a1,s10
 bec:	00000517          	auipc	a0,0x0
 bf0:	00050513          	mv	a0,a0
 bf4:	00000097          	auipc	ra,0x0
 bf8:	000080e7          	jalr	ra # bf4 <main+0xbf4>
 bfc:	000c8593          	mv	a1,s9
 c00:	00000517          	auipc	a0,0x0
 c04:	00050513          	mv	a0,a0
 c08:	00000097          	auipc	ra,0x0
 c0c:	000080e7          	jalr	ra # c08 <main+0xc08>
 c10:	000c0593          	mv	a1,s8
 c14:	00000517          	auipc	a0,0x0
 c18:	00050513          	mv	a0,a0
 c1c:	00000097          	auipc	ra,0x0
 c20:	000080e7          	jalr	ra # c1c <main+0xc1c>
 c24:	000b8593          	mv	a1,s7
 c28:	00000517          	auipc	a0,0x0
 c2c:	00050513          	mv	a0,a0
 c30:	00000097          	auipc	ra,0x0
 c34:	000080e7          	jalr	ra # c30 <main+0xc30>
 c38:	000b0593          	mv	a1,s6
 c3c:	00000517          	auipc	a0,0x0
 c40:	00050513          	mv	a0,a0
 c44:	00000097          	auipc	ra,0x0
 c48:	000080e7          	jalr	ra # c44 <main+0xc44>
 c4c:	000a8593          	mv	a1,s5
 c50:	00000517          	auipc	a0,0x0
 c54:	00050513          	mv	a0,a0
 c58:	00000097          	auipc	ra,0x0
 c5c:	000080e7          	jalr	ra # c58 <main+0xc58>
 c60:	000a0593          	mv	a1,s4
 c64:	00000517          	auipc	a0,0x0
 c68:	00050513          	mv	a0,a0
 c6c:	00000097          	auipc	ra,0x0
 c70:	000080e7          	jalr	ra # c6c <main+0xc6c>
 c74:	00098593          	mv	a1,s3
 c78:	00000517          	auipc	a0,0x0
 c7c:	00050513          	mv	a0,a0
 c80:	00000097          	auipc	ra,0x0
 c84:	000080e7          	jalr	ra # c80 <main+0xc80>
 c88:	00090593          	mv	a1,s2
 c8c:	00000517          	auipc	a0,0x0
 c90:	00050513          	mv	a0,a0
 c94:	00000097          	auipc	ra,0x0
 c98:	000080e7          	jalr	ra # c94 <main+0xc94>
 c9c:	00048593          	mv	a1,s1
 ca0:	00000517          	auipc	a0,0x0
 ca4:	00050513          	mv	a0,a0
 ca8:	00000097          	auipc	ra,0x0
 cac:	000080e7          	jalr	ra # ca8 <main+0xca8>
 cb0:	00c12583          	lw	a1,12(sp)
 cb4:	00000517          	auipc	a0,0x0
 cb8:	00050513          	mv	a0,a0
 cbc:	00000097          	auipc	ra,0x0
 cc0:	000080e7          	jalr	ra # cbc <main+0xcbc>
 cc4:	00000067          	jr	zero # 0 <main>
 cc8:	29c12083          	lw	ra,668(sp)
 ccc:	29812403          	lw	s0,664(sp)
 cd0:	29412483          	lw	s1,660(sp)
 cd4:	29012903          	lw	s2,656(sp)
 cd8:	28c12983          	lw	s3,652(sp)
 cdc:	28812a03          	lw	s4,648(sp)
 ce0:	28412a83          	lw	s5,644(sp)
 ce4:	28012b03          	lw	s6,640(sp)
 ce8:	27c12b83          	lw	s7,636(sp)
 cec:	27812c03          	lw	s8,632(sp)
 cf0:	27412c83          	lw	s9,628(sp)
 cf4:	27012d03          	lw	s10,624(sp)
 cf8:	26c12d83          	lw	s11,620(sp)
 cfc:	00000513          	li	a0,0
 d00:	2a010113          	addi	sp,sp,672
 d04:	00008067          	ret
